ARM GAS  C:\Users\LuckyE\AppData\Local\Temp\ccfppLKa.s 			page 1


   1              		.cpu cortex-m4
   2              		.eabi_attribute 27, 1
   3              		.eabi_attribute 28, 1
   4              		.eabi_attribute 20, 1
   5              		.eabi_attribute 21, 1
   6              		.eabi_attribute 23, 3
   7              		.eabi_attribute 24, 1
   8              		.eabi_attribute 25, 1
   9              		.eabi_attribute 26, 1
  10              		.eabi_attribute 30, 4
  11              		.eabi_attribute 34, 1
  12              		.eabi_attribute 18, 4
  13              		.file	"cmsis_liteos.c"
  14              		.text
  15              	.Ltext0:
  16              		.cfi_sections	.debug_frame
  17              		.section	.text.osKernelInitialize,"ax",%progbits
  18              		.align	1
  19              		.global	osKernelInitialize
  20              		.syntax unified
  21              		.thumb
  22              		.thumb_func
  23              		.fpu fpv4-sp-d16
  25              	osKernelInitialize:
  26              	.LFB289:
  27              		.file 1 "../../iot_link/os/liteos/cmsis/2.0/cmsis_liteos2.c"
   1:../../iot_link/os/liteos/cmsis/2.0/cmsis_liteos2.c **** /*----------------------------------------------------------------------------
   2:../../iot_link/os/liteos/cmsis/2.0/cmsis_liteos2.c ****  * Copyright (c) <2013-2015>, <Huawei Technologies Co., Ltd>
   3:../../iot_link/os/liteos/cmsis/2.0/cmsis_liteos2.c ****  * All rights reserved.
   4:../../iot_link/os/liteos/cmsis/2.0/cmsis_liteos2.c ****  * Redistribution and use in source and binary forms, with or without modification,
   5:../../iot_link/os/liteos/cmsis/2.0/cmsis_liteos2.c ****  * are permitted provided that the following conditions are met:
   6:../../iot_link/os/liteos/cmsis/2.0/cmsis_liteos2.c ****  * 1. Redistributions of source code must retain the above copyright notice, this list of
   7:../../iot_link/os/liteos/cmsis/2.0/cmsis_liteos2.c ****  * conditions and the following disclaimer.
   8:../../iot_link/os/liteos/cmsis/2.0/cmsis_liteos2.c ****  * 2. Redistributions in binary form must reproduce the above copyright notice, this list
   9:../../iot_link/os/liteos/cmsis/2.0/cmsis_liteos2.c ****  * of conditions and the following disclaimer in the documentation and/or other materials
  10:../../iot_link/os/liteos/cmsis/2.0/cmsis_liteos2.c ****  * provided with the distribution.
  11:../../iot_link/os/liteos/cmsis/2.0/cmsis_liteos2.c ****  * 3. Neither the name of the copyright holder nor the names of its contributors may be used
  12:../../iot_link/os/liteos/cmsis/2.0/cmsis_liteos2.c ****  * to endorse or promote products derived from this software without specific prior written
  13:../../iot_link/os/liteos/cmsis/2.0/cmsis_liteos2.c ****  * permission.
  14:../../iot_link/os/liteos/cmsis/2.0/cmsis_liteos2.c ****  * THIS SOFTWARE IS PROVIDED BY THE COPYRIGHT HOLDERS AND CONTRIBUTORS
  15:../../iot_link/os/liteos/cmsis/2.0/cmsis_liteos2.c ****  * "AS IS" AND ANY EXPRESS OR IMPLIED WARRANTIES, INCLUDING, BUT NOT LIMITED TO,
  16:../../iot_link/os/liteos/cmsis/2.0/cmsis_liteos2.c ****  * THE IMPLIED WARRANTIES OF MERCHANTABILITY AND FITNESS FOR A PARTICULAR
  17:../../iot_link/os/liteos/cmsis/2.0/cmsis_liteos2.c ****  * PURPOSE ARE DISCLAIMED. IN NO EVENT SHALL THE COPYRIGHT HOLDER OR
  18:../../iot_link/os/liteos/cmsis/2.0/cmsis_liteos2.c ****  * CONTRIBUTORS BE LIABLE FOR ANY DIRECT, INDIRECT, INCIDENTAL, SPECIAL,
  19:../../iot_link/os/liteos/cmsis/2.0/cmsis_liteos2.c ****  * EXEMPLARY, OR CONSEQUENTIAL DAMAGES (INCLUDING, BUT NOT LIMITED TO,
  20:../../iot_link/os/liteos/cmsis/2.0/cmsis_liteos2.c ****  * PROCUREMENT OF SUBSTITUTE GOODS OR SERVICES; LOSS OF USE, DATA, OR PROFITS;
  21:../../iot_link/os/liteos/cmsis/2.0/cmsis_liteos2.c ****  * OR BUSINESS INTERRUPTION) HOWEVER CAUSED AND ON ANY THEORY OF LIABILITY,
  22:../../iot_link/os/liteos/cmsis/2.0/cmsis_liteos2.c ****  * WHETHER IN CONTRACT, STRICT LIABILITY, OR TORT (INCLUDING NEGLIGENCE OR
  23:../../iot_link/os/liteos/cmsis/2.0/cmsis_liteos2.c ****  * OTHERWISE) ARISING IN ANY WAY OUT OF THE USE OF THIS SOFTWARE, EVEN IF
  24:../../iot_link/os/liteos/cmsis/2.0/cmsis_liteos2.c ****  * ADVISED OF THE POSSIBILITY OF SUCH DAMAGE.
  25:../../iot_link/os/liteos/cmsis/2.0/cmsis_liteos2.c ****  *---------------------------------------------------------------------------*/
  26:../../iot_link/os/liteos/cmsis/2.0/cmsis_liteos2.c **** /*----------------------------------------------------------------------------
  27:../../iot_link/os/liteos/cmsis/2.0/cmsis_liteos2.c ****  * Notice of Export Control Law
  28:../../iot_link/os/liteos/cmsis/2.0/cmsis_liteos2.c ****  * ===============================================
  29:../../iot_link/os/liteos/cmsis/2.0/cmsis_liteos2.c ****  * Huawei LiteOS may be subject to applicable export control laws and regulations, which might
  30:../../iot_link/os/liteos/cmsis/2.0/cmsis_liteos2.c ****  * include those applicable to Huawei LiteOS of U.S. and the country in which you are located.
  31:../../iot_link/os/liteos/cmsis/2.0/cmsis_liteos2.c ****  * Import, export and usage of Huawei LiteOS in any manner by you shall be in compliance with such
ARM GAS  C:\Users\LuckyE\AppData\Local\Temp\ccfppLKa.s 			page 2


  32:../../iot_link/os/liteos/cmsis/2.0/cmsis_liteos2.c ****  * applicable export control laws and regulations.
  33:../../iot_link/os/liteos/cmsis/2.0/cmsis_liteos2.c ****  *---------------------------------------------------------------------------*/
  34:../../iot_link/os/liteos/cmsis/2.0/cmsis_liteos2.c **** #include "cmsis_os.h"
  35:../../iot_link/os/liteos/cmsis/2.0/cmsis_liteos2.c **** #include "los_typedef.h"
  36:../../iot_link/os/liteos/cmsis/2.0/cmsis_liteos2.c **** #include "los_printf.h"
  37:../../iot_link/os/liteos/cmsis/2.0/cmsis_liteos2.c **** 
  38:../../iot_link/os/liteos/cmsis/2.0/cmsis_liteos2.c **** #include "los_event.h"
  39:../../iot_link/os/liteos/cmsis/2.0/cmsis_liteos2.c **** #include "los_membox.h"
  40:../../iot_link/os/liteos/cmsis/2.0/cmsis_liteos2.c **** #include "los_hwi.h"
  41:../../iot_link/os/liteos/cmsis/2.0/cmsis_liteos2.c **** 
  42:../../iot_link/os/liteos/cmsis/2.0/cmsis_liteos2.c **** #include "los_mux.ph"
  43:../../iot_link/os/liteos/cmsis/2.0/cmsis_liteos2.c **** #include "los_queue.ph"
  44:../../iot_link/os/liteos/cmsis/2.0/cmsis_liteos2.c **** #include "los_sem.ph"
  45:../../iot_link/os/liteos/cmsis/2.0/cmsis_liteos2.c **** #include "los_memory.ph"
  46:../../iot_link/os/liteos/cmsis/2.0/cmsis_liteos2.c **** #include "los_swtmr.ph"
  47:../../iot_link/os/liteos/cmsis/2.0/cmsis_liteos2.c **** #include "los_sys.ph"
  48:../../iot_link/os/liteos/cmsis/2.0/cmsis_liteos2.c **** #include "los_task.ph"
  49:../../iot_link/os/liteos/cmsis/2.0/cmsis_liteos2.c **** #include "los_tick.ph"
  50:../../iot_link/os/liteos/cmsis/2.0/cmsis_liteos2.c **** //#include "los_sleep.h"
  51:../../iot_link/os/liteos/cmsis/2.0/cmsis_liteos2.c **** 
  52:../../iot_link/os/liteos/cmsis/2.0/cmsis_liteos2.c **** //#include "hal_clocks.h"
  53:../../iot_link/os/liteos/cmsis/2.0/cmsis_liteos2.c **** #include "string.h"
  54:../../iot_link/os/liteos/cmsis/2.0/cmsis_liteos2.c **** 
  55:../../iot_link/os/liteos/cmsis/2.0/cmsis_liteos2.c **** #ifdef __cplusplus
  56:../../iot_link/os/liteos/cmsis/2.0/cmsis_liteos2.c **** #if __cplusplus
  57:../../iot_link/os/liteos/cmsis/2.0/cmsis_liteos2.c **** extern "C" {
  58:../../iot_link/os/liteos/cmsis/2.0/cmsis_liteos2.c **** #endif /* __cplusplus */
  59:../../iot_link/os/liteos/cmsis/2.0/cmsis_liteos2.c **** #endif /* __cplusplus */
  60:../../iot_link/os/liteos/cmsis/2.0/cmsis_liteos2.c **** #if (CMSIS_OS_VER == 2)
  61:../../iot_link/os/liteos/cmsis/2.0/cmsis_liteos2.c **** 
  62:../../iot_link/os/liteos/cmsis/2.0/cmsis_liteos2.c **** /* Kernel initialization state */
  63:../../iot_link/os/liteos/cmsis/2.0/cmsis_liteos2.c **** static osKernelState_t KernelState;
  64:../../iot_link/os/liteos/cmsis/2.0/cmsis_liteos2.c **** 
  65:../../iot_link/os/liteos/cmsis/2.0/cmsis_liteos2.c **** extern BOOL g_bTaskScheduled;
  66:../../iot_link/os/liteos/cmsis/2.0/cmsis_liteos2.c **** 
  67:../../iot_link/os/liteos/cmsis/2.0/cmsis_liteos2.c **** #ifdef LOS_RUNSTOP
  68:../../iot_link/os/liteos/cmsis/2.0/cmsis_liteos2.c **** cb_uart_is_need_awake_fn uart_is_need_awake_callback = NULL;
  69:../../iot_link/os/liteos/cmsis/2.0/cmsis_liteos2.c **** #endif
  70:../../iot_link/os/liteos/cmsis/2.0/cmsis_liteos2.c **** #define LOS_PRIORITY_WIN 8
  71:../../iot_link/os/liteos/cmsis/2.0/cmsis_liteos2.c **** 
  72:../../iot_link/os/liteos/cmsis/2.0/cmsis_liteos2.c **** const osVersion_t g_stLosVersion = {001, 001};
  73:../../iot_link/os/liteos/cmsis/2.0/cmsis_liteos2.c **** 
  74:../../iot_link/os/liteos/cmsis/2.0/cmsis_liteos2.c **** #define LITEOS_VERSION_MAJOR    1
  75:../../iot_link/os/liteos/cmsis/2.0/cmsis_liteos2.c **** #define LITEOS_VERSION_MINOR    0
  76:../../iot_link/os/liteos/cmsis/2.0/cmsis_liteos2.c **** #define LITEOS_VERSION_BUILD    0
  77:../../iot_link/os/liteos/cmsis/2.0/cmsis_liteos2.c **** 
  78:../../iot_link/os/liteos/cmsis/2.0/cmsis_liteos2.c **** /* Kernel version and identification string definition */
  79:../../iot_link/os/liteos/cmsis/2.0/cmsis_liteos2.c **** #define KERNEL_VERSION            (((UINT32)LITEOS_VERSION_MAJOR * 10000000UL) | \
  80:../../iot_link/os/liteos/cmsis/2.0/cmsis_liteos2.c ****                                    ((UINT32)LITEOS_VERSION_MINOR *    10000UL) | \
  81:../../iot_link/os/liteos/cmsis/2.0/cmsis_liteos2.c ****                                    ((UINT32)LITEOS_VERSION_BUILD *        1UL))
  82:../../iot_link/os/liteos/cmsis/2.0/cmsis_liteos2.c **** 
  83:../../iot_link/os/liteos/cmsis/2.0/cmsis_liteos2.c **** #define KERNEL_ID   "HUAWEI-LiteOS"
  84:../../iot_link/os/liteos/cmsis/2.0/cmsis_liteos2.c **** 
  85:../../iot_link/os/liteos/cmsis/2.0/cmsis_liteos2.c **** #ifndef UNUSED
  86:../../iot_link/os/liteos/cmsis/2.0/cmsis_liteos2.c **** #define UNUSED(var) do { (void)var; } while(0)
  87:../../iot_link/os/liteos/cmsis/2.0/cmsis_liteos2.c **** #endif
  88:../../iot_link/os/liteos/cmsis/2.0/cmsis_liteos2.c **** //  ==== Kernel Management Functions ====
ARM GAS  C:\Users\LuckyE\AppData\Local\Temp\ccfppLKa.s 			page 3


  89:../../iot_link/os/liteos/cmsis/2.0/cmsis_liteos2.c **** uint32_t osTaskStackWaterMarkGet(UINT32 uwTaskID);
  90:../../iot_link/os/liteos/cmsis/2.0/cmsis_liteos2.c **** 
  91:../../iot_link/os/liteos/cmsis/2.0/cmsis_liteos2.c **** extern VOID LOS_GetSystickCycle(UINT32 *puwCntHi, UINT32 *puwCntLo);
  92:../../iot_link/os/liteos/cmsis/2.0/cmsis_liteos2.c **** 
  93:../../iot_link/os/liteos/cmsis/2.0/cmsis_liteos2.c **** osStatus_t osKernelInitialize (void)
  94:../../iot_link/os/liteos/cmsis/2.0/cmsis_liteos2.c **** {
  28              		.loc 1 94 0
  29              		.cfi_startproc
  30              		@ args = 0, pretend = 0, frame = 0
  31              		@ frame_needed = 0, uses_anonymous_args = 0
  95:../../iot_link/os/liteos/cmsis/2.0/cmsis_liteos2.c ****     if (OS_INT_ACTIVE)
  32              		.loc 1 95 0
  33 0000 094B     		ldr	r3, .L6
  34 0002 1B68     		ldr	r3, [r3]
  94:../../iot_link/os/liteos/cmsis/2.0/cmsis_liteos2.c ****     if (OS_INT_ACTIVE)
  35              		.loc 1 94 0
  36 0004 10B5     		push	{r4, lr}
  37              	.LCFI0:
  38              		.cfi_def_cfa_offset 8
  39              		.cfi_offset 4, -8
  40              		.cfi_offset 14, -4
  41              		.loc 1 95 0
  42 0006 63B9     		cbnz	r3, .L5
  96:../../iot_link/os/liteos/cmsis/2.0/cmsis_liteos2.c ****     {
  97:../../iot_link/os/liteos/cmsis/2.0/cmsis_liteos2.c ****         return osErrorISR;
  98:../../iot_link/os/liteos/cmsis/2.0/cmsis_liteos2.c ****     }
  99:../../iot_link/os/liteos/cmsis/2.0/cmsis_liteos2.c **** 
 100:../../iot_link/os/liteos/cmsis/2.0/cmsis_liteos2.c ****     if (KernelState != osKernelInactive)
  43              		.loc 1 100 0
  44 0008 084C     		ldr	r4, .L6+4
  45 000a 2368     		ldr	r3, [r4]
  46 000c 13B1     		cbz	r3, .L3
  47              	.L4:
 101:../../iot_link/os/liteos/cmsis/2.0/cmsis_liteos2.c ****     {
 102:../../iot_link/os/liteos/cmsis/2.0/cmsis_liteos2.c ****         return osError;
  48              		.loc 1 102 0
  49 000e 4FF0FF30 		mov	r0, #-1
  50              	.L1:
 103:../../iot_link/os/liteos/cmsis/2.0/cmsis_liteos2.c ****     }
 104:../../iot_link/os/liteos/cmsis/2.0/cmsis_liteos2.c **** 
 105:../../iot_link/os/liteos/cmsis/2.0/cmsis_liteos2.c ****     if(LOS_OK == LOS_KernelInit())
 106:../../iot_link/os/liteos/cmsis/2.0/cmsis_liteos2.c ****     {
 107:../../iot_link/os/liteos/cmsis/2.0/cmsis_liteos2.c ****         KernelState = osKernelReady;
 108:../../iot_link/os/liteos/cmsis/2.0/cmsis_liteos2.c ****         return osOK;
 109:../../iot_link/os/liteos/cmsis/2.0/cmsis_liteos2.c ****     }
 110:../../iot_link/os/liteos/cmsis/2.0/cmsis_liteos2.c ****     else
 111:../../iot_link/os/liteos/cmsis/2.0/cmsis_liteos2.c ****     {
 112:../../iot_link/os/liteos/cmsis/2.0/cmsis_liteos2.c ****         return osError;
 113:../../iot_link/os/liteos/cmsis/2.0/cmsis_liteos2.c ****     }
 114:../../iot_link/os/liteos/cmsis/2.0/cmsis_liteos2.c **** }
  51              		.loc 1 114 0
  52 0012 10BD     		pop	{r4, pc}
  53              	.L3:
 105:../../iot_link/os/liteos/cmsis/2.0/cmsis_liteos2.c ****     {
  54              		.loc 1 105 0
  55 0014 FFF7FEFF 		bl	LOS_KernelInit
  56              	.LVL0:
ARM GAS  C:\Users\LuckyE\AppData\Local\Temp\ccfppLKa.s 			page 4


  57 0018 0028     		cmp	r0, #0
  58 001a F8D1     		bne	.L4
 107:../../iot_link/os/liteos/cmsis/2.0/cmsis_liteos2.c ****         return osOK;
  59              		.loc 1 107 0
  60 001c 0123     		movs	r3, #1
  61 001e 2360     		str	r3, [r4]
 108:../../iot_link/os/liteos/cmsis/2.0/cmsis_liteos2.c ****     }
  62              		.loc 1 108 0
  63 0020 F7E7     		b	.L1
  64              	.L5:
  97:../../iot_link/os/liteos/cmsis/2.0/cmsis_liteos2.c ****     }
  65              		.loc 1 97 0
  66 0022 6FF00500 		mvn	r0, #5
  67 0026 F4E7     		b	.L1
  68              	.L7:
  69              		.align	2
  70              	.L6:
  71 0028 00000000 		.word	g_vuwIntCount
  72 002c 00000000 		.word	.LANCHOR0
  73              		.cfi_endproc
  74              	.LFE289:
  76              		.section	.text.osKernelGetInfo,"ax",%progbits
  77              		.align	1
  78              		.global	osKernelGetInfo
  79              		.syntax unified
  80              		.thumb
  81              		.thumb_func
  82              		.fpu fpv4-sp-d16
  84              	osKernelGetInfo:
  85              	.LFB290:
 115:../../iot_link/os/liteos/cmsis/2.0/cmsis_liteos2.c **** 
 116:../../iot_link/os/liteos/cmsis/2.0/cmsis_liteos2.c **** 
 117:../../iot_link/os/liteos/cmsis/2.0/cmsis_liteos2.c **** osStatus_t osKernelGetInfo (osVersion_t *version, char *id_buf, uint32_t id_size)
 118:../../iot_link/os/liteos/cmsis/2.0/cmsis_liteos2.c **** {
  86              		.loc 1 118 0
  87              		.cfi_startproc
  88              		@ args = 0, pretend = 0, frame = 0
  89              		@ frame_needed = 0, uses_anonymous_args = 0
  90              	.LVL1:
  91 0000 08B5     		push	{r3, lr}
  92              	.LCFI1:
  93              		.cfi_def_cfa_offset 8
  94              		.cfi_offset 3, -8
  95              		.cfi_offset 14, -4
  96              		.loc 1 118 0
  97 0002 0346     		mov	r3, r0
  98 0004 0846     		mov	r0, r1
  99              	.LVL2:
 119:../../iot_link/os/liteos/cmsis/2.0/cmsis_liteos2.c ****     if (OS_INT_ACTIVE)
 100              		.loc 1 119 0
 101 0006 0B49     		ldr	r1, .L17
 102              	.LVL3:
 103 0008 0968     		ldr	r1, [r1]
 104 000a 69B9     		cbnz	r1, .L11
 120:../../iot_link/os/liteos/cmsis/2.0/cmsis_liteos2.c ****     {
 121:../../iot_link/os/liteos/cmsis/2.0/cmsis_liteos2.c ****         return osErrorISR;
 122:../../iot_link/os/liteos/cmsis/2.0/cmsis_liteos2.c ****     }
ARM GAS  C:\Users\LuckyE\AppData\Local\Temp\ccfppLKa.s 			page 5


 123:../../iot_link/os/liteos/cmsis/2.0/cmsis_liteos2.c **** 
 124:../../iot_link/os/liteos/cmsis/2.0/cmsis_liteos2.c ****     if (version != NULL)
 105              		.loc 1 124 0
 106 000c 13B1     		cbz	r3, .L10
 125:../../iot_link/os/liteos/cmsis/2.0/cmsis_liteos2.c ****     {
 126:../../iot_link/os/liteos/cmsis/2.0/cmsis_liteos2.c ****         version->api = g_stLosVersion.api;
 107              		.loc 1 126 0
 108 000e 0121     		movs	r1, #1
 127:../../iot_link/os/liteos/cmsis/2.0/cmsis_liteos2.c ****         version->kernel = g_stLosVersion.kernel;
 109              		.loc 1 127 0
 110 0010 C3E90011 		strd	r1, r1, [r3]
 111              	.L10:
 128:../../iot_link/os/liteos/cmsis/2.0/cmsis_liteos2.c ****     }
 129:../../iot_link/os/liteos/cmsis/2.0/cmsis_liteos2.c **** 
 130:../../iot_link/os/liteos/cmsis/2.0/cmsis_liteos2.c ****     if ((id_buf != NULL) && (id_size != 0U))
 112              		.loc 1 130 0
 113 0014 38B1     		cbz	r0, .L8
 114              		.loc 1 130 0 is_stmt 0 discriminator 1
 115 0016 52B1     		cbz	r2, .L13
 116              	.LVL4:
 131:../../iot_link/os/liteos/cmsis/2.0/cmsis_liteos2.c ****     {
 132:../../iot_link/os/liteos/cmsis/2.0/cmsis_liteos2.c ****         if (id_size > sizeof(KERNEL_ID))
 133:../../iot_link/os/liteos/cmsis/2.0/cmsis_liteos2.c ****         {
 134:../../iot_link/os/liteos/cmsis/2.0/cmsis_liteos2.c ****             id_size = sizeof(KERNEL_ID);
 135:../../iot_link/os/liteos/cmsis/2.0/cmsis_liteos2.c ****         }
 136:../../iot_link/os/liteos/cmsis/2.0/cmsis_liteos2.c ****         memcpy(id_buf, KERNEL_ID, id_size);
 117              		.loc 1 136 0 is_stmt 1
 118 0018 0E2A     		cmp	r2, #14
 119 001a 28BF     		it	cs
 120 001c 0E22     		movcs	r2, #14
 121              	.LVL5:
 122 001e 0649     		ldr	r1, .L17+4
 123 0020 FFF7FEFF 		bl	memcpy
 124              	.LVL6:
 137:../../iot_link/os/liteos/cmsis/2.0/cmsis_liteos2.c ****     }
 138:../../iot_link/os/liteos/cmsis/2.0/cmsis_liteos2.c **** 
 139:../../iot_link/os/liteos/cmsis/2.0/cmsis_liteos2.c ****     return osOK;
 125              		.loc 1 139 0
 126 0024 0020     		movs	r0, #0
 127              	.LVL7:
 128              	.L8:
 140:../../iot_link/os/liteos/cmsis/2.0/cmsis_liteos2.c **** }
 129              		.loc 1 140 0
 130 0026 08BD     		pop	{r3, pc}
 131              	.LVL8:
 132              	.L11:
 121:../../iot_link/os/liteos/cmsis/2.0/cmsis_liteos2.c ****     }
 133              		.loc 1 121 0
 134 0028 6FF00500 		mvn	r0, #5
 135              	.LVL9:
 136 002c FBE7     		b	.L8
 137              	.LVL10:
 138              	.L13:
 139:../../iot_link/os/liteos/cmsis/2.0/cmsis_liteos2.c **** }
 139              		.loc 1 139 0
 140 002e 1046     		mov	r0, r2
 141              	.LVL11:
ARM GAS  C:\Users\LuckyE\AppData\Local\Temp\ccfppLKa.s 			page 6


 142 0030 F9E7     		b	.L8
 143              	.L18:
 144 0032 00BF     		.align	2
 145              	.L17:
 146 0034 00000000 		.word	g_vuwIntCount
 147 0038 00000000 		.word	.LC0
 148              		.cfi_endproc
 149              	.LFE290:
 151              		.section	.text.osKernelGetState,"ax",%progbits
 152              		.align	1
 153              		.global	osKernelGetState
 154              		.syntax unified
 155              		.thumb
 156              		.thumb_func
 157              		.fpu fpv4-sp-d16
 159              	osKernelGetState:
 160              	.LFB291:
 141:../../iot_link/os/liteos/cmsis/2.0/cmsis_liteos2.c **** 
 142:../../iot_link/os/liteos/cmsis/2.0/cmsis_liteos2.c **** 
 143:../../iot_link/os/liteos/cmsis/2.0/cmsis_liteos2.c **** osKernelState_t osKernelGetState (void)
 144:../../iot_link/os/liteos/cmsis/2.0/cmsis_liteos2.c **** {
 161              		.loc 1 144 0
 162              		.cfi_startproc
 163              		@ args = 0, pretend = 0, frame = 0
 164              		@ frame_needed = 0, uses_anonymous_args = 0
 165              		@ link register save eliminated.
 145:../../iot_link/os/liteos/cmsis/2.0/cmsis_liteos2.c ****     if (OS_INT_ACTIVE)
 166              		.loc 1 145 0
 167 0000 0A4B     		ldr	r3, .L24
 168 0002 1B68     		ldr	r3, [r3]
 169 0004 7BB9     		cbnz	r3, .L22
 146:../../iot_link/os/liteos/cmsis/2.0/cmsis_liteos2.c ****     {
 147:../../iot_link/os/liteos/cmsis/2.0/cmsis_liteos2.c ****         return osKernelError;
 148:../../iot_link/os/liteos/cmsis/2.0/cmsis_liteos2.c ****     }
 149:../../iot_link/os/liteos/cmsis/2.0/cmsis_liteos2.c **** 
 150:../../iot_link/os/liteos/cmsis/2.0/cmsis_liteos2.c ****     if(!g_bTaskScheduled)
 170              		.loc 1 150 0
 171 0006 0A4B     		ldr	r3, .L24+4
 172 0008 1B68     		ldr	r3, [r3]
 173 000a 2BB9     		cbnz	r3, .L21
 151:../../iot_link/os/liteos/cmsis/2.0/cmsis_liteos2.c ****     {
 152:../../iot_link/os/liteos/cmsis/2.0/cmsis_liteos2.c ****         if (KernelState == osKernelReady)
 174              		.loc 1 152 0
 175 000c 094B     		ldr	r3, .L24+8
 176 000e 1868     		ldr	r0, [r3]
 177 0010 431E     		subs	r3, r0, #1
 178 0012 5842     		rsbs	r0, r3, #0
 179 0014 5841     		adcs	r0, r0, r3
 180 0016 7047     		bx	lr
 181              	.L21:
 153:../../iot_link/os/liteos/cmsis/2.0/cmsis_liteos2.c ****         {
 154:../../iot_link/os/liteos/cmsis/2.0/cmsis_liteos2.c ****             return osKernelReady;
 155:../../iot_link/os/liteos/cmsis/2.0/cmsis_liteos2.c ****         }
 156:../../iot_link/os/liteos/cmsis/2.0/cmsis_liteos2.c ****         else
 157:../../iot_link/os/liteos/cmsis/2.0/cmsis_liteos2.c ****         {
 158:../../iot_link/os/liteos/cmsis/2.0/cmsis_liteos2.c ****             return osKernelInactive;
 159:../../iot_link/os/liteos/cmsis/2.0/cmsis_liteos2.c ****         }
ARM GAS  C:\Users\LuckyE\AppData\Local\Temp\ccfppLKa.s 			page 7


 160:../../iot_link/os/liteos/cmsis/2.0/cmsis_liteos2.c ****     }
 161:../../iot_link/os/liteos/cmsis/2.0/cmsis_liteos2.c ****     else if(g_usLosTaskLock > 0)
 182              		.loc 1 161 0
 183 0018 074B     		ldr	r3, .L24+12
 184 001a 1B88     		ldrh	r3, [r3]
 185 001c 002B     		cmp	r3, #0
 162:../../iot_link/os/liteos/cmsis/2.0/cmsis_liteos2.c ****     {
 163:../../iot_link/os/liteos/cmsis/2.0/cmsis_liteos2.c ****         return osKernelLocked;
 164:../../iot_link/os/liteos/cmsis/2.0/cmsis_liteos2.c ****     }
 165:../../iot_link/os/liteos/cmsis/2.0/cmsis_liteos2.c ****     else
 166:../../iot_link/os/liteos/cmsis/2.0/cmsis_liteos2.c ****     {
 167:../../iot_link/os/liteos/cmsis/2.0/cmsis_liteos2.c ****         return osKernelRunning;
 186              		.loc 1 167 0
 187 001e 14BF     		ite	ne
 188 0020 0320     		movne	r0, #3
 189 0022 0220     		moveq	r0, #2
 190 0024 7047     		bx	lr
 191              	.L22:
 147:../../iot_link/os/liteos/cmsis/2.0/cmsis_liteos2.c ****     }
 192              		.loc 1 147 0
 193 0026 4FF0FF30 		mov	r0, #-1
 168:../../iot_link/os/liteos/cmsis/2.0/cmsis_liteos2.c ****     }
 169:../../iot_link/os/liteos/cmsis/2.0/cmsis_liteos2.c **** }
 194              		.loc 1 169 0
 195 002a 7047     		bx	lr
 196              	.L25:
 197              		.align	2
 198              	.L24:
 199 002c 00000000 		.word	g_vuwIntCount
 200 0030 00000000 		.word	g_bTaskScheduled
 201 0034 00000000 		.word	.LANCHOR0
 202 0038 00000000 		.word	g_usLosTaskLock
 203              		.cfi_endproc
 204              	.LFE291:
 206              		.section	.text.osKernelStart,"ax",%progbits
 207              		.align	1
 208              		.global	osKernelStart
 209              		.syntax unified
 210              		.thumb
 211              		.thumb_func
 212              		.fpu fpv4-sp-d16
 214              	osKernelStart:
 215              	.LFB292:
 170:../../iot_link/os/liteos/cmsis/2.0/cmsis_liteos2.c **** 
 171:../../iot_link/os/liteos/cmsis/2.0/cmsis_liteos2.c **** 
 172:../../iot_link/os/liteos/cmsis/2.0/cmsis_liteos2.c **** osStatus_t osKernelStart (void)
 173:../../iot_link/os/liteos/cmsis/2.0/cmsis_liteos2.c **** {
 216              		.loc 1 173 0
 217              		.cfi_startproc
 218              		@ args = 0, pretend = 0, frame = 0
 219              		@ frame_needed = 0, uses_anonymous_args = 0
 174:../../iot_link/os/liteos/cmsis/2.0/cmsis_liteos2.c ****     if(OS_INT_ACTIVE)
 220              		.loc 1 174 0
 221 0000 0A4B     		ldr	r3, .L31
 222 0002 1B68     		ldr	r3, [r3]
 173:../../iot_link/os/liteos/cmsis/2.0/cmsis_liteos2.c ****     if(OS_INT_ACTIVE)
 223              		.loc 1 173 0
ARM GAS  C:\Users\LuckyE\AppData\Local\Temp\ccfppLKa.s 			page 8


 224 0004 10B5     		push	{r4, lr}
 225              	.LCFI2:
 226              		.cfi_def_cfa_offset 8
 227              		.cfi_offset 4, -8
 228              		.cfi_offset 14, -4
 229              		.loc 1 174 0
 230 0006 6BB9     		cbnz	r3, .L30
 175:../../iot_link/os/liteos/cmsis/2.0/cmsis_liteos2.c ****     {
 176:../../iot_link/os/liteos/cmsis/2.0/cmsis_liteos2.c ****         return osErrorISR;
 177:../../iot_link/os/liteos/cmsis/2.0/cmsis_liteos2.c ****     }
 178:../../iot_link/os/liteos/cmsis/2.0/cmsis_liteos2.c **** 
 179:../../iot_link/os/liteos/cmsis/2.0/cmsis_liteos2.c ****     if(KernelState == osKernelReady)
 231              		.loc 1 179 0
 232 0008 094C     		ldr	r4, .L31+4
 233 000a 2368     		ldr	r3, [r4]
 234 000c 012B     		cmp	r3, #1
 235 000e 02D0     		beq	.L28
 236              	.L29:
 180:../../iot_link/os/liteos/cmsis/2.0/cmsis_liteos2.c ****     {
 181:../../iot_link/os/liteos/cmsis/2.0/cmsis_liteos2.c ****         if(LOS_OK == LOS_Start())
 182:../../iot_link/os/liteos/cmsis/2.0/cmsis_liteos2.c ****         {
 183:../../iot_link/os/liteos/cmsis/2.0/cmsis_liteos2.c ****             KernelState = osKernelRunning;
 184:../../iot_link/os/liteos/cmsis/2.0/cmsis_liteos2.c ****             return osOK;
 185:../../iot_link/os/liteos/cmsis/2.0/cmsis_liteos2.c ****         }
 186:../../iot_link/os/liteos/cmsis/2.0/cmsis_liteos2.c ****         else
 187:../../iot_link/os/liteos/cmsis/2.0/cmsis_liteos2.c ****         {
 188:../../iot_link/os/liteos/cmsis/2.0/cmsis_liteos2.c ****             return osError;
 189:../../iot_link/os/liteos/cmsis/2.0/cmsis_liteos2.c ****         }
 190:../../iot_link/os/liteos/cmsis/2.0/cmsis_liteos2.c ****     }
 191:../../iot_link/os/liteos/cmsis/2.0/cmsis_liteos2.c ****     else
 192:../../iot_link/os/liteos/cmsis/2.0/cmsis_liteos2.c ****     {
 193:../../iot_link/os/liteos/cmsis/2.0/cmsis_liteos2.c ****         return osError;
 237              		.loc 1 193 0
 238 0010 4FF0FF30 		mov	r0, #-1
 239              	.L26:
 194:../../iot_link/os/liteos/cmsis/2.0/cmsis_liteos2.c ****     }
 195:../../iot_link/os/liteos/cmsis/2.0/cmsis_liteos2.c **** }
 240              		.loc 1 195 0
 241 0014 10BD     		pop	{r4, pc}
 242              	.L28:
 181:../../iot_link/os/liteos/cmsis/2.0/cmsis_liteos2.c ****         {
 243              		.loc 1 181 0
 244 0016 FFF7FEFF 		bl	LOS_Start
 245              	.LVL12:
 246 001a 0028     		cmp	r0, #0
 247 001c F8D1     		bne	.L29
 183:../../iot_link/os/liteos/cmsis/2.0/cmsis_liteos2.c ****             return osOK;
 248              		.loc 1 183 0
 249 001e 0223     		movs	r3, #2
 250 0020 2360     		str	r3, [r4]
 184:../../iot_link/os/liteos/cmsis/2.0/cmsis_liteos2.c ****         }
 251              		.loc 1 184 0
 252 0022 F7E7     		b	.L26
 253              	.L30:
 176:../../iot_link/os/liteos/cmsis/2.0/cmsis_liteos2.c ****     }
 254              		.loc 1 176 0
 255 0024 6FF00500 		mvn	r0, #5
ARM GAS  C:\Users\LuckyE\AppData\Local\Temp\ccfppLKa.s 			page 9


 256 0028 F4E7     		b	.L26
 257              	.L32:
 258 002a 00BF     		.align	2
 259              	.L31:
 260 002c 00000000 		.word	g_vuwIntCount
 261 0030 00000000 		.word	.LANCHOR0
 262              		.cfi_endproc
 263              	.LFE292:
 265              		.section	.text.osKernelLock,"ax",%progbits
 266              		.align	1
 267              		.global	osKernelLock
 268              		.syntax unified
 269              		.thumb
 270              		.thumb_func
 271              		.fpu fpv4-sp-d16
 273              	osKernelLock:
 274              	.LFB293:
 196:../../iot_link/os/liteos/cmsis/2.0/cmsis_liteos2.c **** 
 197:../../iot_link/os/liteos/cmsis/2.0/cmsis_liteos2.c **** 
 198:../../iot_link/os/liteos/cmsis/2.0/cmsis_liteos2.c **** int32_t osKernelLock (void)
 199:../../iot_link/os/liteos/cmsis/2.0/cmsis_liteos2.c **** {
 275              		.loc 1 199 0
 276              		.cfi_startproc
 277              		@ args = 0, pretend = 0, frame = 0
 278              		@ frame_needed = 0, uses_anonymous_args = 0
 200:../../iot_link/os/liteos/cmsis/2.0/cmsis_liteos2.c ****     int32_t lock;
 201:../../iot_link/os/liteos/cmsis/2.0/cmsis_liteos2.c **** 
 202:../../iot_link/os/liteos/cmsis/2.0/cmsis_liteos2.c ****     if(OS_INT_ACTIVE)
 279              		.loc 1 202 0
 280 0000 0A4B     		ldr	r3, .L38
 281 0002 1B68     		ldr	r3, [r3]
 199:../../iot_link/os/liteos/cmsis/2.0/cmsis_liteos2.c ****     int32_t lock;
 282              		.loc 1 199 0
 283 0004 10B5     		push	{r4, lr}
 284              	.LCFI3:
 285              		.cfi_def_cfa_offset 8
 286              		.cfi_offset 4, -8
 287              		.cfi_offset 14, -4
 288              		.loc 1 202 0
 289 0006 4BB9     		cbnz	r3, .L35
 203:../../iot_link/os/liteos/cmsis/2.0/cmsis_liteos2.c ****     {
 204:../../iot_link/os/liteos/cmsis/2.0/cmsis_liteos2.c ****         return (int32_t)osErrorISR;
 205:../../iot_link/os/liteos/cmsis/2.0/cmsis_liteos2.c ****     }
 206:../../iot_link/os/liteos/cmsis/2.0/cmsis_liteos2.c **** 
 207:../../iot_link/os/liteos/cmsis/2.0/cmsis_liteos2.c ****     if(!g_bTaskScheduled)
 290              		.loc 1 207 0
 291 0008 094B     		ldr	r3, .L38+4
 292 000a 1B68     		ldr	r3, [r3]
 293 000c 4BB1     		cbz	r3, .L36
 208:../../iot_link/os/liteos/cmsis/2.0/cmsis_liteos2.c ****     {
 209:../../iot_link/os/liteos/cmsis/2.0/cmsis_liteos2.c ****         return (int32_t)osError;
 210:../../iot_link/os/liteos/cmsis/2.0/cmsis_liteos2.c ****     }
 211:../../iot_link/os/liteos/cmsis/2.0/cmsis_liteos2.c **** 
 212:../../iot_link/os/liteos/cmsis/2.0/cmsis_liteos2.c ****     if(g_usLosTaskLock > 0)
 294              		.loc 1 212 0
 295 000e 094B     		ldr	r3, .L38+8
 296 0010 1C88     		ldrh	r4, [r3]
ARM GAS  C:\Users\LuckyE\AppData\Local\Temp\ccfppLKa.s 			page 10


 297 0012 4CB9     		cbnz	r4, .L37
 213:../../iot_link/os/liteos/cmsis/2.0/cmsis_liteos2.c ****     {
 214:../../iot_link/os/liteos/cmsis/2.0/cmsis_liteos2.c ****         lock = 1;
 215:../../iot_link/os/liteos/cmsis/2.0/cmsis_liteos2.c ****     }
 216:../../iot_link/os/liteos/cmsis/2.0/cmsis_liteos2.c ****     else
 217:../../iot_link/os/liteos/cmsis/2.0/cmsis_liteos2.c ****     {
 218:../../iot_link/os/liteos/cmsis/2.0/cmsis_liteos2.c ****         LOS_TaskLock();
 298              		.loc 1 218 0
 299 0014 FFF7FEFF 		bl	LOS_TaskLock
 300              	.LVL13:
 219:../../iot_link/os/liteos/cmsis/2.0/cmsis_liteos2.c ****         lock = 0;
 301              		.loc 1 219 0
 302 0018 2046     		mov	r0, r4
 303              	.LVL14:
 304              	.L33:
 220:../../iot_link/os/liteos/cmsis/2.0/cmsis_liteos2.c ****     }
 221:../../iot_link/os/liteos/cmsis/2.0/cmsis_liteos2.c **** 
 222:../../iot_link/os/liteos/cmsis/2.0/cmsis_liteos2.c ****     return lock;
 223:../../iot_link/os/liteos/cmsis/2.0/cmsis_liteos2.c **** }
 305              		.loc 1 223 0
 306 001a 10BD     		pop	{r4, pc}
 307              	.L35:
 204:../../iot_link/os/liteos/cmsis/2.0/cmsis_liteos2.c ****     }
 308              		.loc 1 204 0
 309 001c 6FF00500 		mvn	r0, #5
 310 0020 FBE7     		b	.L33
 311              	.L36:
 209:../../iot_link/os/liteos/cmsis/2.0/cmsis_liteos2.c ****     }
 312              		.loc 1 209 0
 313 0022 4FF0FF30 		mov	r0, #-1
 314 0026 F8E7     		b	.L33
 315              	.L37:
 214:../../iot_link/os/liteos/cmsis/2.0/cmsis_liteos2.c ****     }
 316              		.loc 1 214 0
 317 0028 0120     		movs	r0, #1
 318 002a F6E7     		b	.L33
 319              	.L39:
 320              		.align	2
 321              	.L38:
 322 002c 00000000 		.word	g_vuwIntCount
 323 0030 00000000 		.word	g_bTaskScheduled
 324 0034 00000000 		.word	g_usLosTaskLock
 325              		.cfi_endproc
 326              	.LFE293:
 328              		.section	.text.osKernelUnlock,"ax",%progbits
 329              		.align	1
 330              		.global	osKernelUnlock
 331              		.syntax unified
 332              		.thumb
 333              		.thumb_func
 334              		.fpu fpv4-sp-d16
 336              	osKernelUnlock:
 337              	.LFB294:
 224:../../iot_link/os/liteos/cmsis/2.0/cmsis_liteos2.c **** 
 225:../../iot_link/os/liteos/cmsis/2.0/cmsis_liteos2.c **** 
 226:../../iot_link/os/liteos/cmsis/2.0/cmsis_liteos2.c **** int32_t osKernelUnlock (void)
 227:../../iot_link/os/liteos/cmsis/2.0/cmsis_liteos2.c **** {
ARM GAS  C:\Users\LuckyE\AppData\Local\Temp\ccfppLKa.s 			page 11


 338              		.loc 1 227 0
 339              		.cfi_startproc
 340              		@ args = 0, pretend = 0, frame = 0
 341              		@ frame_needed = 0, uses_anonymous_args = 0
 228:../../iot_link/os/liteos/cmsis/2.0/cmsis_liteos2.c ****     int32_t lock;
 229:../../iot_link/os/liteos/cmsis/2.0/cmsis_liteos2.c **** 
 230:../../iot_link/os/liteos/cmsis/2.0/cmsis_liteos2.c ****     if(OS_INT_ACTIVE)
 342              		.loc 1 230 0
 343 0000 0B4B     		ldr	r3, .L46
 344 0002 1B68     		ldr	r3, [r3]
 227:../../iot_link/os/liteos/cmsis/2.0/cmsis_liteos2.c ****     int32_t lock;
 345              		.loc 1 227 0
 346 0004 10B5     		push	{r4, lr}
 347              	.LCFI4:
 348              		.cfi_def_cfa_offset 8
 349              		.cfi_offset 4, -8
 350              		.cfi_offset 14, -4
 351              		.loc 1 230 0
 352 0006 83B9     		cbnz	r3, .L44
 231:../../iot_link/os/liteos/cmsis/2.0/cmsis_liteos2.c ****     {
 232:../../iot_link/os/liteos/cmsis/2.0/cmsis_liteos2.c ****         return (int32_t)osErrorISR;
 233:../../iot_link/os/liteos/cmsis/2.0/cmsis_liteos2.c ****     }
 234:../../iot_link/os/liteos/cmsis/2.0/cmsis_liteos2.c **** 
 235:../../iot_link/os/liteos/cmsis/2.0/cmsis_liteos2.c ****     if(!g_bTaskScheduled)
 353              		.loc 1 235 0
 354 0008 0A4B     		ldr	r3, .L46+4
 355 000a 1B68     		ldr	r3, [r3]
 356 000c 13B9     		cbnz	r3, .L42
 357              	.L43:
 236:../../iot_link/os/liteos/cmsis/2.0/cmsis_liteos2.c ****     {
 237:../../iot_link/os/liteos/cmsis/2.0/cmsis_liteos2.c ****         return (int32_t)osError;
 358              		.loc 1 237 0
 359 000e 4FF0FF30 		mov	r0, #-1
 360              	.L40:
 238:../../iot_link/os/liteos/cmsis/2.0/cmsis_liteos2.c ****     }
 239:../../iot_link/os/liteos/cmsis/2.0/cmsis_liteos2.c **** 
 240:../../iot_link/os/liteos/cmsis/2.0/cmsis_liteos2.c ****     if(g_usLosTaskLock > 0)
 241:../../iot_link/os/liteos/cmsis/2.0/cmsis_liteos2.c ****     {
 242:../../iot_link/os/liteos/cmsis/2.0/cmsis_liteos2.c ****         LOS_TaskUnlock();
 243:../../iot_link/os/liteos/cmsis/2.0/cmsis_liteos2.c ****         if (g_usLosTaskLock != 0)
 244:../../iot_link/os/liteos/cmsis/2.0/cmsis_liteos2.c ****         {
 245:../../iot_link/os/liteos/cmsis/2.0/cmsis_liteos2.c ****             return (int32_t)osError;
 246:../../iot_link/os/liteos/cmsis/2.0/cmsis_liteos2.c ****         }
 247:../../iot_link/os/liteos/cmsis/2.0/cmsis_liteos2.c ****         lock = 1;
 248:../../iot_link/os/liteos/cmsis/2.0/cmsis_liteos2.c ****     }
 249:../../iot_link/os/liteos/cmsis/2.0/cmsis_liteos2.c ****     else
 250:../../iot_link/os/liteos/cmsis/2.0/cmsis_liteos2.c ****     {
 251:../../iot_link/os/liteos/cmsis/2.0/cmsis_liteos2.c ****         lock = 0;
 252:../../iot_link/os/liteos/cmsis/2.0/cmsis_liteos2.c ****     }
 253:../../iot_link/os/liteos/cmsis/2.0/cmsis_liteos2.c **** 
 254:../../iot_link/os/liteos/cmsis/2.0/cmsis_liteos2.c ****     return lock;
 255:../../iot_link/os/liteos/cmsis/2.0/cmsis_liteos2.c **** }
 361              		.loc 1 255 0
 362 0012 10BD     		pop	{r4, pc}
 363              	.L42:
 240:../../iot_link/os/liteos/cmsis/2.0/cmsis_liteos2.c ****     {
 364              		.loc 1 240 0
ARM GAS  C:\Users\LuckyE\AppData\Local\Temp\ccfppLKa.s 			page 12


 365 0014 084C     		ldr	r4, .L46+8
 366 0016 2088     		ldrh	r0, [r4]
 367 0018 0028     		cmp	r0, #0
 368 001a FAD0     		beq	.L40
 242:../../iot_link/os/liteos/cmsis/2.0/cmsis_liteos2.c ****         if (g_usLosTaskLock != 0)
 369              		.loc 1 242 0
 370 001c FFF7FEFF 		bl	LOS_TaskUnlock
 371              	.LVL15:
 243:../../iot_link/os/liteos/cmsis/2.0/cmsis_liteos2.c ****         {
 372              		.loc 1 243 0
 373 0020 2388     		ldrh	r3, [r4]
 374 0022 002B     		cmp	r3, #0
 375 0024 F3D1     		bne	.L43
 247:../../iot_link/os/liteos/cmsis/2.0/cmsis_liteos2.c ****     }
 376              		.loc 1 247 0
 377 0026 0120     		movs	r0, #1
 378 0028 F3E7     		b	.L40
 379              	.L44:
 232:../../iot_link/os/liteos/cmsis/2.0/cmsis_liteos2.c ****     }
 380              		.loc 1 232 0
 381 002a 6FF00500 		mvn	r0, #5
 382 002e F0E7     		b	.L40
 383              	.L47:
 384              		.align	2
 385              	.L46:
 386 0030 00000000 		.word	g_vuwIntCount
 387 0034 00000000 		.word	g_bTaskScheduled
 388 0038 00000000 		.word	g_usLosTaskLock
 389              		.cfi_endproc
 390              	.LFE294:
 392              		.section	.text.osKernelRestoreLock,"ax",%progbits
 393              		.align	1
 394              		.global	osKernelRestoreLock
 395              		.syntax unified
 396              		.thumb
 397              		.thumb_func
 398              		.fpu fpv4-sp-d16
 400              	osKernelRestoreLock:
 401              	.LFB295:
 256:../../iot_link/os/liteos/cmsis/2.0/cmsis_liteos2.c **** 
 257:../../iot_link/os/liteos/cmsis/2.0/cmsis_liteos2.c **** 
 258:../../iot_link/os/liteos/cmsis/2.0/cmsis_liteos2.c **** int32_t osKernelRestoreLock (int32_t lock)
 259:../../iot_link/os/liteos/cmsis/2.0/cmsis_liteos2.c **** {
 402              		.loc 1 259 0
 403              		.cfi_startproc
 404              		@ args = 0, pretend = 0, frame = 0
 405              		@ frame_needed = 0, uses_anonymous_args = 0
 406              	.LVL16:
 260:../../iot_link/os/liteos/cmsis/2.0/cmsis_liteos2.c ****     if(OS_INT_ACTIVE)
 407              		.loc 1 260 0
 408 0000 0E4B     		ldr	r3, .L56
 409 0002 1B68     		ldr	r3, [r3]
 259:../../iot_link/os/liteos/cmsis/2.0/cmsis_liteos2.c ****     if(OS_INT_ACTIVE)
 410              		.loc 1 259 0
 411 0004 10B5     		push	{r4, lr}
 412              	.LCFI5:
 413              		.cfi_def_cfa_offset 8
ARM GAS  C:\Users\LuckyE\AppData\Local\Temp\ccfppLKa.s 			page 13


 414              		.cfi_offset 4, -8
 415              		.cfi_offset 14, -4
 259:../../iot_link/os/liteos/cmsis/2.0/cmsis_liteos2.c ****     if(OS_INT_ACTIVE)
 416              		.loc 1 259 0
 417 0006 0446     		mov	r4, r0
 418              		.loc 1 260 0
 419 0008 ABB9     		cbnz	r3, .L52
 261:../../iot_link/os/liteos/cmsis/2.0/cmsis_liteos2.c ****     {
 262:../../iot_link/os/liteos/cmsis/2.0/cmsis_liteos2.c ****         return (int32_t)osErrorISR;
 263:../../iot_link/os/liteos/cmsis/2.0/cmsis_liteos2.c ****     }
 264:../../iot_link/os/liteos/cmsis/2.0/cmsis_liteos2.c **** 
 265:../../iot_link/os/liteos/cmsis/2.0/cmsis_liteos2.c ****     if(!g_bTaskScheduled)
 420              		.loc 1 265 0
 421 000a 0D4B     		ldr	r3, .L56+4
 422 000c 1B68     		ldr	r3, [r3]
 423 000e 13B1     		cbz	r3, .L55
 266:../../iot_link/os/liteos/cmsis/2.0/cmsis_liteos2.c ****     {
 267:../../iot_link/os/liteos/cmsis/2.0/cmsis_liteos2.c ****         return (int32_t)osError;
 268:../../iot_link/os/liteos/cmsis/2.0/cmsis_liteos2.c ****     }
 269:../../iot_link/os/liteos/cmsis/2.0/cmsis_liteos2.c **** 
 270:../../iot_link/os/liteos/cmsis/2.0/cmsis_liteos2.c ****     switch (lock)
 424              		.loc 1 270 0
 425 0010 20B1     		cbz	r0, .L50
 426 0012 0128     		cmp	r0, #1
 427 0014 0CD0     		beq	.L51
 428              	.L55:
 271:../../iot_link/os/liteos/cmsis/2.0/cmsis_liteos2.c ****     {
 272:../../iot_link/os/liteos/cmsis/2.0/cmsis_liteos2.c ****     case 0:
 273:../../iot_link/os/liteos/cmsis/2.0/cmsis_liteos2.c ****         LOS_TaskUnlock();
 274:../../iot_link/os/liteos/cmsis/2.0/cmsis_liteos2.c ****         if (g_usLosTaskLock != 0)
 275:../../iot_link/os/liteos/cmsis/2.0/cmsis_liteos2.c ****         {
 276:../../iot_link/os/liteos/cmsis/2.0/cmsis_liteos2.c ****             break;
 277:../../iot_link/os/liteos/cmsis/2.0/cmsis_liteos2.c ****         }
 278:../../iot_link/os/liteos/cmsis/2.0/cmsis_liteos2.c ****         return 0;
 279:../../iot_link/os/liteos/cmsis/2.0/cmsis_liteos2.c ****     case 1:
 280:../../iot_link/os/liteos/cmsis/2.0/cmsis_liteos2.c ****         LOS_TaskLock();
 281:../../iot_link/os/liteos/cmsis/2.0/cmsis_liteos2.c ****         return 1;
 282:../../iot_link/os/liteos/cmsis/2.0/cmsis_liteos2.c ****     default:
 283:../../iot_link/os/liteos/cmsis/2.0/cmsis_liteos2.c ****         break;
 284:../../iot_link/os/liteos/cmsis/2.0/cmsis_liteos2.c ****     }
 285:../../iot_link/os/liteos/cmsis/2.0/cmsis_liteos2.c **** 
 286:../../iot_link/os/liteos/cmsis/2.0/cmsis_liteos2.c ****     return (int32_t)osError;
 429              		.loc 1 286 0
 430 0016 4FF0FF34 		mov	r4, #-1
 431 001a 07E0     		b	.L49
 432              	.L50:
 273:../../iot_link/os/liteos/cmsis/2.0/cmsis_liteos2.c ****         if (g_usLosTaskLock != 0)
 433              		.loc 1 273 0
 434 001c FFF7FEFF 		bl	LOS_TaskUnlock
 435              	.LVL17:
 274:../../iot_link/os/liteos/cmsis/2.0/cmsis_liteos2.c ****         {
 436              		.loc 1 274 0
 437 0020 084B     		ldr	r3, .L56+8
 438 0022 1C88     		ldrh	r4, [r3]
 439              	.LVL18:
 440 0024 0034     		adds	r4, r4, #0
 441 0026 18BF     		it	ne
ARM GAS  C:\Users\LuckyE\AppData\Local\Temp\ccfppLKa.s 			page 14


 442 0028 0124     		movne	r4, #1
 443 002a 6442     		negs	r4, r4
 444              	.L49:
 287:../../iot_link/os/liteos/cmsis/2.0/cmsis_liteos2.c **** 
 288:../../iot_link/os/liteos/cmsis/2.0/cmsis_liteos2.c **** }
 445              		.loc 1 288 0
 446 002c 2046     		mov	r0, r4
 447 002e 10BD     		pop	{r4, pc}
 448              	.LVL19:
 449              	.L51:
 280:../../iot_link/os/liteos/cmsis/2.0/cmsis_liteos2.c ****         return 1;
 450              		.loc 1 280 0
 451 0030 FFF7FEFF 		bl	LOS_TaskLock
 452              	.LVL20:
 281:../../iot_link/os/liteos/cmsis/2.0/cmsis_liteos2.c ****     default:
 453              		.loc 1 281 0
 454 0034 FAE7     		b	.L49
 455              	.LVL21:
 456              	.L52:
 262:../../iot_link/os/liteos/cmsis/2.0/cmsis_liteos2.c ****     }
 457              		.loc 1 262 0
 458 0036 6FF00504 		mvn	r4, #5
 459 003a F7E7     		b	.L49
 460              	.L57:
 461              		.align	2
 462              	.L56:
 463 003c 00000000 		.word	g_vuwIntCount
 464 0040 00000000 		.word	g_bTaskScheduled
 465 0044 00000000 		.word	g_usLosTaskLock
 466              		.cfi_endproc
 467              	.LFE295:
 469              		.section	.text.osKernelGetTickCount,"ax",%progbits
 470              		.align	1
 471              		.global	osKernelGetTickCount
 472              		.syntax unified
 473              		.thumb
 474              		.thumb_func
 475              		.fpu fpv4-sp-d16
 477              	osKernelGetTickCount:
 478              	.LFB296:
 289:../../iot_link/os/liteos/cmsis/2.0/cmsis_liteos2.c **** 
 290:../../iot_link/os/liteos/cmsis/2.0/cmsis_liteos2.c **** 
 291:../../iot_link/os/liteos/cmsis/2.0/cmsis_liteos2.c **** uint64_t osKernelGetTickCount (void)
 292:../../iot_link/os/liteos/cmsis/2.0/cmsis_liteos2.c **** {
 479              		.loc 1 292 0
 480              		.cfi_startproc
 481              		@ args = 0, pretend = 0, frame = 0
 482              		@ frame_needed = 0, uses_anonymous_args = 0
 483 0000 38B5     		push	{r3, r4, r5, lr}
 484              	.LCFI6:
 485              		.cfi_def_cfa_offset 16
 486              		.cfi_offset 3, -16
 487              		.cfi_offset 4, -12
 488              		.cfi_offset 5, -8
 489              		.cfi_offset 14, -4
 293:../../iot_link/os/liteos/cmsis/2.0/cmsis_liteos2.c ****     uint64_t ticks;
 294:../../iot_link/os/liteos/cmsis/2.0/cmsis_liteos2.c ****     UINTPTR uvIntSave;
ARM GAS  C:\Users\LuckyE\AppData\Local\Temp\ccfppLKa.s 			page 15


 295:../../iot_link/os/liteos/cmsis/2.0/cmsis_liteos2.c **** 
 296:../../iot_link/os/liteos/cmsis/2.0/cmsis_liteos2.c ****     if(OS_INT_ACTIVE)
 490              		.loc 1 296 0
 491 0002 084B     		ldr	r3, .L61
 492 0004 1B68     		ldr	r3, [r3]
 493 0006 4BB9     		cbnz	r3, .L60
 494              	.LBB4:
 495              	.LBB5:
 297:../../iot_link/os/liteos/cmsis/2.0/cmsis_liteos2.c ****     {
 298:../../iot_link/os/liteos/cmsis/2.0/cmsis_liteos2.c ****         ticks = 0U;
 299:../../iot_link/os/liteos/cmsis/2.0/cmsis_liteos2.c ****     }
 300:../../iot_link/os/liteos/cmsis/2.0/cmsis_liteos2.c ****     else
 301:../../iot_link/os/liteos/cmsis/2.0/cmsis_liteos2.c ****     {
 302:../../iot_link/os/liteos/cmsis/2.0/cmsis_liteos2.c ****         uvIntSave = LOS_IntLock();
 496              		.loc 1 302 0
 497 0008 FFF7FEFF 		bl	LOS_IntLock
 498              	.LVL22:
 303:../../iot_link/os/liteos/cmsis/2.0/cmsis_liteos2.c ****         ticks = g_ullTickCount;
 499              		.loc 1 303 0
 500 000c 064B     		ldr	r3, .L61+4
 501 000e D3E90045 		ldrd	r4, [r3]
 502              	.LVL23:
 304:../../iot_link/os/liteos/cmsis/2.0/cmsis_liteos2.c ****         LOS_IntRestore(uvIntSave);
 503              		.loc 1 304 0
 504 0012 FFF7FEFF 		bl	LOS_IntRestore
 505              	.LVL24:
 506              	.L58:
 507              	.LBE5:
 508              	.LBE4:
 305:../../iot_link/os/liteos/cmsis/2.0/cmsis_liteos2.c ****     }
 306:../../iot_link/os/liteos/cmsis/2.0/cmsis_liteos2.c **** 
 307:../../iot_link/os/liteos/cmsis/2.0/cmsis_liteos2.c ****     return ticks;
 308:../../iot_link/os/liteos/cmsis/2.0/cmsis_liteos2.c **** }
 509              		.loc 1 308 0
 510 0016 2046     		mov	r0, r4
 511 0018 2946     		mov	r1, r5
 512 001a 38BD     		pop	{r3, r4, r5, pc}
 513              	.L60:
 298:../../iot_link/os/liteos/cmsis/2.0/cmsis_liteos2.c ****     }
 514              		.loc 1 298 0
 515 001c 0024     		movs	r4, #0
 516 001e 0025     		movs	r5, #0
 517              	.LVL25:
 307:../../iot_link/os/liteos/cmsis/2.0/cmsis_liteos2.c **** }
 518              		.loc 1 307 0
 519 0020 F9E7     		b	.L58
 520              	.L62:
 521 0022 00BF     		.align	2
 522              	.L61:
 523 0024 00000000 		.word	g_vuwIntCount
 524 0028 00000000 		.word	g_ullTickCount
 525              		.cfi_endproc
 526              	.LFE296:
 528              		.section	.text.osKernelGetTick2ms,"ax",%progbits
 529              		.align	1
 530              		.global	osKernelGetTick2ms
 531              		.syntax unified
ARM GAS  C:\Users\LuckyE\AppData\Local\Temp\ccfppLKa.s 			page 16


 532              		.thumb
 533              		.thumb_func
 534              		.fpu fpv4-sp-d16
 536              	osKernelGetTick2ms:
 537              	.LFB297:
 309:../../iot_link/os/liteos/cmsis/2.0/cmsis_liteos2.c **** 
 310:../../iot_link/os/liteos/cmsis/2.0/cmsis_liteos2.c **** 
 311:../../iot_link/os/liteos/cmsis/2.0/cmsis_liteos2.c **** uint64_t osKernelGetTick2ms(void)
 312:../../iot_link/os/liteos/cmsis/2.0/cmsis_liteos2.c **** {
 538              		.loc 1 312 0
 539              		.cfi_startproc
 540              		@ args = 0, pretend = 0, frame = 0
 541              		@ frame_needed = 0, uses_anonymous_args = 0
 542              		@ link register save eliminated.
 313:../../iot_link/os/liteos/cmsis/2.0/cmsis_liteos2.c ****     return osKernelGetTickCount() * (OS_SYS_MS_PER_SECOND / LOSCFG_BASE_CORE_TICK_PER_SECOND);
 543              		.loc 1 313 0
 544 0000 FFF7FEBF 		b	osKernelGetTickCount
 545              	.LVL26:
 546              		.cfi_endproc
 547              	.LFE297:
 549              		.section	.text.osMs2Tick,"ax",%progbits
 550              		.align	1
 551              		.global	osMs2Tick
 552              		.syntax unified
 553              		.thumb
 554              		.thumb_func
 555              		.fpu fpv4-sp-d16
 557              	osMs2Tick:
 558              	.LFB298:
 314:../../iot_link/os/liteos/cmsis/2.0/cmsis_liteos2.c **** }
 315:../../iot_link/os/liteos/cmsis/2.0/cmsis_liteos2.c **** 
 316:../../iot_link/os/liteos/cmsis/2.0/cmsis_liteos2.c **** 
 317:../../iot_link/os/liteos/cmsis/2.0/cmsis_liteos2.c **** uint64_t osMs2Tick(uint64_t ms)
 318:../../iot_link/os/liteos/cmsis/2.0/cmsis_liteos2.c **** {
 559              		.loc 1 318 0
 560              		.cfi_startproc
 561              		@ args = 0, pretend = 0, frame = 0
 562              		@ frame_needed = 0, uses_anonymous_args = 0
 563              		@ link register save eliminated.
 564              	.LVL27:
 319:../../iot_link/os/liteos/cmsis/2.0/cmsis_liteos2.c **** 
 320:../../iot_link/os/liteos/cmsis/2.0/cmsis_liteos2.c ****     return ms * (LOSCFG_BASE_CORE_TICK_PER_SECOND / OS_SYS_MS_PER_SECOND);
 321:../../iot_link/os/liteos/cmsis/2.0/cmsis_liteos2.c **** }
 565              		.loc 1 321 0
 566 0000 7047     		bx	lr
 567              		.cfi_endproc
 568              	.LFE298:
 570              		.section	.text.osKernelGetTickFreq,"ax",%progbits
 571              		.align	1
 572              		.global	osKernelGetTickFreq
 573              		.syntax unified
 574              		.thumb
 575              		.thumb_func
 576              		.fpu fpv4-sp-d16
 578              	osKernelGetTickFreq:
 579              	.LFB299:
 322:../../iot_link/os/liteos/cmsis/2.0/cmsis_liteos2.c **** 
ARM GAS  C:\Users\LuckyE\AppData\Local\Temp\ccfppLKa.s 			page 17


 323:../../iot_link/os/liteos/cmsis/2.0/cmsis_liteos2.c **** 
 324:../../iot_link/os/liteos/cmsis/2.0/cmsis_liteos2.c **** uint32_t osKernelGetTickFreq (void)
 325:../../iot_link/os/liteos/cmsis/2.0/cmsis_liteos2.c **** {
 580              		.loc 1 325 0
 581              		.cfi_startproc
 582              		@ args = 0, pretend = 0, frame = 0
 583              		@ frame_needed = 0, uses_anonymous_args = 0
 584              		@ link register save eliminated.
 326:../../iot_link/os/liteos/cmsis/2.0/cmsis_liteos2.c ****     uint32_t freq;
 327:../../iot_link/os/liteos/cmsis/2.0/cmsis_liteos2.c **** 
 328:../../iot_link/os/liteos/cmsis/2.0/cmsis_liteos2.c ****     if (OS_INT_ACTIVE)
 585              		.loc 1 328 0
 586 0000 034B     		ldr	r3, .L68
 587 0002 1B68     		ldr	r3, [r3]
 588 0004 002B     		cmp	r3, #0
 329:../../iot_link/os/liteos/cmsis/2.0/cmsis_liteos2.c ****     {
 330:../../iot_link/os/liteos/cmsis/2.0/cmsis_liteos2.c ****         freq = 0U;
 331:../../iot_link/os/liteos/cmsis/2.0/cmsis_liteos2.c ****     }
 332:../../iot_link/os/liteos/cmsis/2.0/cmsis_liteos2.c ****     else
 333:../../iot_link/os/liteos/cmsis/2.0/cmsis_liteos2.c ****     {
 334:../../iot_link/os/liteos/cmsis/2.0/cmsis_liteos2.c ****         freq = LOSCFG_BASE_CORE_TICK_PER_SECOND;
 335:../../iot_link/os/liteos/cmsis/2.0/cmsis_liteos2.c ****     }
 336:../../iot_link/os/liteos/cmsis/2.0/cmsis_liteos2.c **** 
 337:../../iot_link/os/liteos/cmsis/2.0/cmsis_liteos2.c ****     return (freq);
 338:../../iot_link/os/liteos/cmsis/2.0/cmsis_liteos2.c **** }
 589              		.loc 1 338 0
 590 0006 0CBF     		ite	eq
 591 0008 4FF47A70 		moveq	r0, #1000
 592 000c 0020     		movne	r0, #0
 593 000e 7047     		bx	lr
 594              	.L69:
 595              		.align	2
 596              	.L68:
 597 0010 00000000 		.word	g_vuwIntCount
 598              		.cfi_endproc
 599              	.LFE299:
 601              		.section	.text.osKernelGetSysTimerCount,"ax",%progbits
 602              		.align	1
 603              		.global	osKernelGetSysTimerCount
 604              		.syntax unified
 605              		.thumb
 606              		.thumb_func
 607              		.fpu fpv4-sp-d16
 609              	osKernelGetSysTimerCount:
 610              	.LFB300:
 339:../../iot_link/os/liteos/cmsis/2.0/cmsis_liteos2.c **** 
 340:../../iot_link/os/liteos/cmsis/2.0/cmsis_liteos2.c **** 
 341:../../iot_link/os/liteos/cmsis/2.0/cmsis_liteos2.c **** uint32_t osKernelGetSysTimerCount (void)
 342:../../iot_link/os/liteos/cmsis/2.0/cmsis_liteos2.c **** {
 611              		.loc 1 342 0
 612              		.cfi_startproc
 613              		@ args = 0, pretend = 0, frame = 8
 614              		@ frame_needed = 0, uses_anonymous_args = 0
 615 0000 07B5     		push	{r0, r1, r2, lr}
 616              	.LCFI7:
 617              		.cfi_def_cfa_offset 16
 618              		.cfi_offset 14, -4
ARM GAS  C:\Users\LuckyE\AppData\Local\Temp\ccfppLKa.s 			page 18


 343:../../iot_link/os/liteos/cmsis/2.0/cmsis_liteos2.c ****     uint32_t count_high = 0;
 619              		.loc 1 343 0
 620 0002 0023     		movs	r3, #0
 344:../../iot_link/os/liteos/cmsis/2.0/cmsis_liteos2.c ****     uint32_t count_low = 0;
 621              		.loc 1 344 0
 622 0004 CDE90033 		strd	r3, r3, [sp]
 345:../../iot_link/os/liteos/cmsis/2.0/cmsis_liteos2.c ****     if (OS_INT_ACTIVE)
 623              		.loc 1 345 0
 624 0008 054B     		ldr	r3, .L72
 625 000a 1B68     		ldr	r3, [r3]
 626 000c 1BB9     		cbnz	r3, .L71
 346:../../iot_link/os/liteos/cmsis/2.0/cmsis_liteos2.c ****     {
 347:../../iot_link/os/liteos/cmsis/2.0/cmsis_liteos2.c ****         count_low = 0U;
 348:../../iot_link/os/liteos/cmsis/2.0/cmsis_liteos2.c ****     }
 349:../../iot_link/os/liteos/cmsis/2.0/cmsis_liteos2.c ****     else
 350:../../iot_link/os/liteos/cmsis/2.0/cmsis_liteos2.c ****     {
 351:../../iot_link/os/liteos/cmsis/2.0/cmsis_liteos2.c ****         LOS_GetSystickCycle((UINT32 *)&count_high, (UINT32 *)&count_low);
 627              		.loc 1 351 0
 628 000e 01A9     		add	r1, sp, #4
 629 0010 6846     		mov	r0, sp
 630 0012 FFF7FEFF 		bl	LOS_GetSystickCycle
 631              	.LVL28:
 632              	.L71:
 352:../../iot_link/os/liteos/cmsis/2.0/cmsis_liteos2.c ****     }
 353:../../iot_link/os/liteos/cmsis/2.0/cmsis_liteos2.c ****     return count_low;
 354:../../iot_link/os/liteos/cmsis/2.0/cmsis_liteos2.c **** }
 633              		.loc 1 354 0
 634 0016 0198     		ldr	r0, [sp, #4]
 635 0018 03B0     		add	sp, sp, #12
 636              	.LCFI8:
 637              		.cfi_def_cfa_offset 4
 638              		@ sp needed
 639 001a 5DF804FB 		ldr	pc, [sp], #4
 640              	.L73:
 641 001e 00BF     		.align	2
 642              	.L72:
 643 0020 00000000 		.word	g_vuwIntCount
 644              		.cfi_endproc
 645              	.LFE300:
 647              		.section	.text.osKernelGetSysTimerFreq,"ax",%progbits
 648              		.align	1
 649              		.global	osKernelGetSysTimerFreq
 650              		.syntax unified
 651              		.thumb
 652              		.thumb_func
 653              		.fpu fpv4-sp-d16
 655              	osKernelGetSysTimerFreq:
 656              	.LFB301:
 355:../../iot_link/os/liteos/cmsis/2.0/cmsis_liteos2.c **** 
 356:../../iot_link/os/liteos/cmsis/2.0/cmsis_liteos2.c **** 
 357:../../iot_link/os/liteos/cmsis/2.0/cmsis_liteos2.c **** uint32_t osKernelGetSysTimerFreq (void)
 358:../../iot_link/os/liteos/cmsis/2.0/cmsis_liteos2.c **** {
 657              		.loc 1 358 0
 658              		.cfi_startproc
 659              		@ args = 0, pretend = 0, frame = 0
 660              		@ frame_needed = 0, uses_anonymous_args = 0
 661              		@ link register save eliminated.
ARM GAS  C:\Users\LuckyE\AppData\Local\Temp\ccfppLKa.s 			page 19


 359:../../iot_link/os/liteos/cmsis/2.0/cmsis_liteos2.c ****     return OS_SYS_CLOCK;
 360:../../iot_link/os/liteos/cmsis/2.0/cmsis_liteos2.c **** }
 662              		.loc 1 360 0
 663 0000 014B     		ldr	r3, .L75
 664 0002 1868     		ldr	r0, [r3]
 665 0004 7047     		bx	lr
 666              	.L76:
 667 0006 00BF     		.align	2
 668              	.L75:
 669 0008 00000000 		.word	SystemCoreClock
 670              		.cfi_endproc
 671              	.LFE301:
 673              		.section	.text.osThreadNew,"ax",%progbits
 674              		.align	1
 675              		.global	osThreadNew
 676              		.syntax unified
 677              		.thumb
 678              		.thumb_func
 679              		.fpu fpv4-sp-d16
 681              	osThreadNew:
 682              	.LFB302:
 361:../../iot_link/os/liteos/cmsis/2.0/cmsis_liteos2.c **** 
 362:../../iot_link/os/liteos/cmsis/2.0/cmsis_liteos2.c **** 
 363:../../iot_link/os/liteos/cmsis/2.0/cmsis_liteos2.c **** //  ==== Thread Management Functions ====
 364:../../iot_link/os/liteos/cmsis/2.0/cmsis_liteos2.c **** 
 365:../../iot_link/os/liteos/cmsis/2.0/cmsis_liteos2.c **** #if (LOSCFG_STATIC_TASK == NO)
 366:../../iot_link/os/liteos/cmsis/2.0/cmsis_liteos2.c **** osThreadId_t osThreadNew (osThreadFunc_t func, void *argument, const osThreadAttr_t *attr)
 367:../../iot_link/os/liteos/cmsis/2.0/cmsis_liteos2.c **** {
 683              		.loc 1 367 0
 684              		.cfi_startproc
 685              		@ args = 0, pretend = 0, frame = 32
 686              		@ frame_needed = 0, uses_anonymous_args = 0
 687              	.LVL29:
 688 0000 70B5     		push	{r4, r5, r6, lr}
 689              	.LCFI9:
 690              		.cfi_def_cfa_offset 16
 691              		.cfi_offset 4, -16
 692              		.cfi_offset 5, -12
 693              		.cfi_offset 6, -8
 694              		.cfi_offset 14, -4
 368:../../iot_link/os/liteos/cmsis/2.0/cmsis_liteos2.c ****     UNUSED(argument);
 369:../../iot_link/os/liteos/cmsis/2.0/cmsis_liteos2.c **** 
 370:../../iot_link/os/liteos/cmsis/2.0/cmsis_liteos2.c ****     UINT32 uwTid;
 371:../../iot_link/os/liteos/cmsis/2.0/cmsis_liteos2.c ****     UINT32 uwRet;
 372:../../iot_link/os/liteos/cmsis/2.0/cmsis_liteos2.c ****     LOS_TASK_CB *pstTaskCB = NULL;
 373:../../iot_link/os/liteos/cmsis/2.0/cmsis_liteos2.c ****     TSK_INIT_PARAM_S stTskInitParam;
 374:../../iot_link/os/liteos/cmsis/2.0/cmsis_liteos2.c **** 
 375:../../iot_link/os/liteos/cmsis/2.0/cmsis_liteos2.c ****     if (OS_INT_ACTIVE)
 695              		.loc 1 375 0
 696 0002 174B     		ldr	r3, .L87
 697 0004 1968     		ldr	r1, [r3]
 698              	.LVL30:
 367:../../iot_link/os/liteos/cmsis/2.0/cmsis_liteos2.c ****     UNUSED(argument);
 699              		.loc 1 367 0
 700 0006 88B0     		sub	sp, sp, #32
 701              	.LCFI10:
 702              		.cfi_def_cfa_offset 48
ARM GAS  C:\Users\LuckyE\AppData\Local\Temp\ccfppLKa.s 			page 20


 367:../../iot_link/os/liteos/cmsis/2.0/cmsis_liteos2.c ****     UNUSED(argument);
 703              		.loc 1 367 0
 704 0008 0646     		mov	r6, r0
 705 000a 1546     		mov	r5, r2
 706              		.loc 1 375 0
 707 000c 11B1     		cbz	r1, .L78
 708              	.LVL31:
 709              	.L80:
 376:../../iot_link/os/liteos/cmsis/2.0/cmsis_liteos2.c ****     {
 377:../../iot_link/os/liteos/cmsis/2.0/cmsis_liteos2.c ****         return NULL;
 710              		.loc 1 377 0
 711 000e 0020     		movs	r0, #0
 712              	.LVL32:
 713              	.L77:
 378:../../iot_link/os/liteos/cmsis/2.0/cmsis_liteos2.c ****     }
 379:../../iot_link/os/liteos/cmsis/2.0/cmsis_liteos2.c **** 
 380:../../iot_link/os/liteos/cmsis/2.0/cmsis_liteos2.c ****     if ((attr == NULL) ||
 381:../../iot_link/os/liteos/cmsis/2.0/cmsis_liteos2.c ****             (func == NULL) ||
 382:../../iot_link/os/liteos/cmsis/2.0/cmsis_liteos2.c ****             (attr->priority < osPriorityLow1) ||
 383:../../iot_link/os/liteos/cmsis/2.0/cmsis_liteos2.c ****             (attr->priority > osPriorityAboveNormal6))
 384:../../iot_link/os/liteos/cmsis/2.0/cmsis_liteos2.c ****     {
 385:../../iot_link/os/liteos/cmsis/2.0/cmsis_liteos2.c ****         return (osThreadId_t)NULL;
 386:../../iot_link/os/liteos/cmsis/2.0/cmsis_liteos2.c ****     }
 387:../../iot_link/os/liteos/cmsis/2.0/cmsis_liteos2.c **** 
 388:../../iot_link/os/liteos/cmsis/2.0/cmsis_liteos2.c ****     memset(&stTskInitParam, 0, sizeof(TSK_INIT_PARAM_S));
 389:../../iot_link/os/liteos/cmsis/2.0/cmsis_liteos2.c ****     stTskInitParam.pfnTaskEntry = (TSK_ENTRY_FUNC)func;
 390:../../iot_link/os/liteos/cmsis/2.0/cmsis_liteos2.c ****     stTskInitParam.uwStackSize  = attr->stack_size * 4;
 391:../../iot_link/os/liteos/cmsis/2.0/cmsis_liteos2.c ****     stTskInitParam.pcName       = (CHAR *)attr->name;
 392:../../iot_link/os/liteos/cmsis/2.0/cmsis_liteos2.c ****     stTskInitParam.usTaskPrio   = OS_TASK_PRIORITY_LOWEST - ((UINT16)(attr->priority) - LOS_PRIORIT
 393:../../iot_link/os/liteos/cmsis/2.0/cmsis_liteos2.c **** 
 394:../../iot_link/os/liteos/cmsis/2.0/cmsis_liteos2.c ****     uwRet = LOS_TaskCreate(&uwTid, &stTskInitParam);
 395:../../iot_link/os/liteos/cmsis/2.0/cmsis_liteos2.c **** 
 396:../../iot_link/os/liteos/cmsis/2.0/cmsis_liteos2.c ****     if (LOS_OK != uwRet)
 397:../../iot_link/os/liteos/cmsis/2.0/cmsis_liteos2.c ****     {
 398:../../iot_link/os/liteos/cmsis/2.0/cmsis_liteos2.c ****         return (osThreadId_t)NULL;
 399:../../iot_link/os/liteos/cmsis/2.0/cmsis_liteos2.c ****     }
 400:../../iot_link/os/liteos/cmsis/2.0/cmsis_liteos2.c **** 
 401:../../iot_link/os/liteos/cmsis/2.0/cmsis_liteos2.c ****     pstTaskCB = OS_TCB_FROM_TID(uwTid);
 402:../../iot_link/os/liteos/cmsis/2.0/cmsis_liteos2.c **** 
 403:../../iot_link/os/liteos/cmsis/2.0/cmsis_liteos2.c ****     return (osThreadId_t)pstTaskCB;
 404:../../iot_link/os/liteos/cmsis/2.0/cmsis_liteos2.c **** }
 714              		.loc 1 404 0
 715 0010 08B0     		add	sp, sp, #32
 716              	.LCFI11:
 717              		.cfi_remember_state
 718              		.cfi_def_cfa_offset 16
 719              		@ sp needed
 720 0012 70BD     		pop	{r4, r5, r6, pc}
 721              	.LVL33:
 722              	.L78:
 723              	.LCFI12:
 724              		.cfi_restore_state
 380:../../iot_link/os/liteos/cmsis/2.0/cmsis_liteos2.c ****             (func == NULL) ||
 725              		.loc 1 380 0
 726 0014 002A     		cmp	r2, #0
 727 0016 FAD0     		beq	.L80
 380:../../iot_link/os/liteos/cmsis/2.0/cmsis_liteos2.c ****             (func == NULL) ||
ARM GAS  C:\Users\LuckyE\AppData\Local\Temp\ccfppLKa.s 			page 21


 728              		.loc 1 380 0 is_stmt 0 discriminator 1
 729 0018 0028     		cmp	r0, #0
 730 001a F8D0     		beq	.L80
 382:../../iot_link/os/liteos/cmsis/2.0/cmsis_liteos2.c ****             (attr->priority > osPriorityAboveNormal6))
 731              		.loc 1 382 0 is_stmt 1
 732 001c 9469     		ldr	r4, [r2, #24]
 381:../../iot_link/os/liteos/cmsis/2.0/cmsis_liteos2.c ****             (attr->priority < osPriorityLow1) ||
 733              		.loc 1 381 0
 734 001e A4F10903 		sub	r3, r4, #9
 735 0022 1D2B     		cmp	r3, #29
 736 0024 F3D8     		bhi	.L80
 388:../../iot_link/os/liteos/cmsis/2.0/cmsis_liteos2.c ****     stTskInitParam.pfnTaskEntry = (TSK_ENTRY_FUNC)func;
 737              		.loc 1 388 0
 738 0026 1222     		movs	r2, #18
 739              	.LVL34:
 740 0028 0DF10E00 		add	r0, sp, #14
 741              	.LVL35:
 742 002c FFF7FEFF 		bl	memset
 743              	.LVL36:
 390:../../iot_link/os/liteos/cmsis/2.0/cmsis_liteos2.c ****     stTskInitParam.pcName       = (CHAR *)attr->name;
 744              		.loc 1 390 0
 745 0030 6B69     		ldr	r3, [r5, #20]
 389:../../iot_link/os/liteos/cmsis/2.0/cmsis_liteos2.c ****     stTskInitParam.uwStackSize  = attr->stack_size * 4;
 746              		.loc 1 389 0
 747 0032 0296     		str	r6, [sp, #8]
 390:../../iot_link/os/liteos/cmsis/2.0/cmsis_liteos2.c ****     stTskInitParam.pcName       = (CHAR *)attr->name;
 748              		.loc 1 390 0
 749 0034 9B00     		lsls	r3, r3, #2
 750 0036 0593     		str	r3, [sp, #20]
 392:../../iot_link/os/liteos/cmsis/2.0/cmsis_liteos2.c **** 
 751              		.loc 1 392 0
 752 0038 C4F12704 		rsb	r4, r4, #39
 391:../../iot_link/os/liteos/cmsis/2.0/cmsis_liteos2.c ****     stTskInitParam.usTaskPrio   = OS_TASK_PRIORITY_LOWEST - ((UINT16)(attr->priority) - LOS_PRIORIT
 753              		.loc 1 391 0
 754 003c 2B68     		ldr	r3, [r5]
 755 003e 0693     		str	r3, [sp, #24]
 394:../../iot_link/os/liteos/cmsis/2.0/cmsis_liteos2.c **** 
 756              		.loc 1 394 0
 757 0040 02A9     		add	r1, sp, #8
 758 0042 01A8     		add	r0, sp, #4
 392:../../iot_link/os/liteos/cmsis/2.0/cmsis_liteos2.c **** 
 759              		.loc 1 392 0
 760 0044 ADF80C40 		strh	r4, [sp, #12]	@ movhi
 394:../../iot_link/os/liteos/cmsis/2.0/cmsis_liteos2.c **** 
 761              		.loc 1 394 0
 762 0048 FFF7FEFF 		bl	LOS_TaskCreate
 763              	.LVL37:
 396:../../iot_link/os/liteos/cmsis/2.0/cmsis_liteos2.c ****     {
 764              		.loc 1 396 0
 765 004c 0028     		cmp	r0, #0
 766 004e DED1     		bne	.L80
 401:../../iot_link/os/liteos/cmsis/2.0/cmsis_liteos2.c **** 
 767              		.loc 1 401 0
 768 0050 044B     		ldr	r3, .L87+4
 769 0052 0198     		ldr	r0, [sp, #4]
 770              	.LVL38:
 771 0054 1B68     		ldr	r3, [r3]
ARM GAS  C:\Users\LuckyE\AppData\Local\Temp\ccfppLKa.s 			page 22


 772 0056 5422     		movs	r2, #84
 773 0058 02FB0030 		mla	r0, r2, r0, r3
 774              	.LVL39:
 403:../../iot_link/os/liteos/cmsis/2.0/cmsis_liteos2.c **** }
 775              		.loc 1 403 0
 776 005c D8E7     		b	.L77
 777              	.L88:
 778 005e 00BF     		.align	2
 779              	.L87:
 780 0060 00000000 		.word	g_vuwIntCount
 781 0064 00000000 		.word	g_pstTaskCBArray
 782              		.cfi_endproc
 783              	.LFE302:
 785              		.section	.text.osThreadGetName,"ax",%progbits
 786              		.align	1
 787              		.global	osThreadGetName
 788              		.syntax unified
 789              		.thumb
 790              		.thumb_func
 791              		.fpu fpv4-sp-d16
 793              	osThreadGetName:
 794              	.LFB303:
 405:../../iot_link/os/liteos/cmsis/2.0/cmsis_liteos2.c **** #endif
 406:../../iot_link/os/liteos/cmsis/2.0/cmsis_liteos2.c **** 
 407:../../iot_link/os/liteos/cmsis/2.0/cmsis_liteos2.c **** 
 408:../../iot_link/os/liteos/cmsis/2.0/cmsis_liteos2.c **** const char *osThreadGetName (osThreadId_t thread_id)
 409:../../iot_link/os/liteos/cmsis/2.0/cmsis_liteos2.c **** {
 795              		.loc 1 409 0
 796              		.cfi_startproc
 797              		@ args = 0, pretend = 0, frame = 0
 798              		@ frame_needed = 0, uses_anonymous_args = 0
 799              		@ link register save eliminated.
 800              	.LVL40:
 410:../../iot_link/os/liteos/cmsis/2.0/cmsis_liteos2.c ****     LOS_TASK_CB *pstTaskCB = NULL;
 411:../../iot_link/os/liteos/cmsis/2.0/cmsis_liteos2.c **** 
 412:../../iot_link/os/liteos/cmsis/2.0/cmsis_liteos2.c ****     if (OS_INT_ACTIVE || thread_id == NULL)
 801              		.loc 1 412 0
 802 0000 034B     		ldr	r3, .L93
 803 0002 1B68     		ldr	r3, [r3]
 804 0004 13B9     		cbnz	r3, .L91
 805              		.loc 1 412 0 is_stmt 0 discriminator 1
 806 0006 10B1     		cbz	r0, .L89
 807              	.LVL41:
 413:../../iot_link/os/liteos/cmsis/2.0/cmsis_liteos2.c ****     {
 414:../../iot_link/os/liteos/cmsis/2.0/cmsis_liteos2.c ****         return NULL;
 415:../../iot_link/os/liteos/cmsis/2.0/cmsis_liteos2.c ****     }
 416:../../iot_link/os/liteos/cmsis/2.0/cmsis_liteos2.c **** 
 417:../../iot_link/os/liteos/cmsis/2.0/cmsis_liteos2.c ****     pstTaskCB = (LOS_TASK_CB *)thread_id;
 418:../../iot_link/os/liteos/cmsis/2.0/cmsis_liteos2.c **** 
 419:../../iot_link/os/liteos/cmsis/2.0/cmsis_liteos2.c ****     return pstTaskCB->pcTaskName;
 808              		.loc 1 419 0 is_stmt 1
 809 0008 406A     		ldr	r0, [r0, #36]
 810              	.LVL42:
 811 000a 7047     		bx	lr
 812              	.LVL43:
 813              	.L91:
 414:../../iot_link/os/liteos/cmsis/2.0/cmsis_liteos2.c ****     }
ARM GAS  C:\Users\LuckyE\AppData\Local\Temp\ccfppLKa.s 			page 23


 814              		.loc 1 414 0
 815 000c 0020     		movs	r0, #0
 816              	.LVL44:
 817              	.L89:
 420:../../iot_link/os/liteos/cmsis/2.0/cmsis_liteos2.c **** }
 818              		.loc 1 420 0
 819 000e 7047     		bx	lr
 820              	.L94:
 821              		.align	2
 822              	.L93:
 823 0010 00000000 		.word	g_vuwIntCount
 824              		.cfi_endproc
 825              	.LFE303:
 827              		.section	.text.osThreadGetId,"ax",%progbits
 828              		.align	1
 829              		.global	osThreadGetId
 830              		.syntax unified
 831              		.thumb
 832              		.thumb_func
 833              		.fpu fpv4-sp-d16
 835              	osThreadGetId:
 836              	.LFB304:
 421:../../iot_link/os/liteos/cmsis/2.0/cmsis_liteos2.c **** 
 422:../../iot_link/os/liteos/cmsis/2.0/cmsis_liteos2.c **** 
 423:../../iot_link/os/liteos/cmsis/2.0/cmsis_liteos2.c **** osThreadId_t osThreadGetId (void)
 424:../../iot_link/os/liteos/cmsis/2.0/cmsis_liteos2.c **** {
 837              		.loc 1 424 0
 838              		.cfi_startproc
 839              		@ args = 0, pretend = 0, frame = 0
 840              		@ frame_needed = 0, uses_anonymous_args = 0
 841              		@ link register save eliminated.
 425:../../iot_link/os/liteos/cmsis/2.0/cmsis_liteos2.c ****     if (OS_INT_ACTIVE)
 842              		.loc 1 425 0
 843 0000 034B     		ldr	r3, .L98
 844 0002 1B68     		ldr	r3, [r3]
 845 0004 13B9     		cbnz	r3, .L97
 426:../../iot_link/os/liteos/cmsis/2.0/cmsis_liteos2.c ****     {
 427:../../iot_link/os/liteos/cmsis/2.0/cmsis_liteos2.c ****         return NULL;
 428:../../iot_link/os/liteos/cmsis/2.0/cmsis_liteos2.c ****     }
 429:../../iot_link/os/liteos/cmsis/2.0/cmsis_liteos2.c **** 
 430:../../iot_link/os/liteos/cmsis/2.0/cmsis_liteos2.c ****     return (osThreadId_t)(g_stLosTask.pstRunTask);
 846              		.loc 1 430 0
 847 0006 034B     		ldr	r3, .L98+4
 848 0008 1868     		ldr	r0, [r3]
 849 000a 7047     		bx	lr
 850              	.L97:
 427:../../iot_link/os/liteos/cmsis/2.0/cmsis_liteos2.c ****     }
 851              		.loc 1 427 0
 852 000c 0020     		movs	r0, #0
 431:../../iot_link/os/liteos/cmsis/2.0/cmsis_liteos2.c **** }
 853              		.loc 1 431 0
 854 000e 7047     		bx	lr
 855              	.L99:
 856              		.align	2
 857              	.L98:
 858 0010 00000000 		.word	g_vuwIntCount
 859 0014 00000000 		.word	g_stLosTask
ARM GAS  C:\Users\LuckyE\AppData\Local\Temp\ccfppLKa.s 			page 24


 860              		.cfi_endproc
 861              	.LFE304:
 863              		.section	.text.osThreadGetState,"ax",%progbits
 864              		.align	1
 865              		.global	osThreadGetState
 866              		.syntax unified
 867              		.thumb
 868              		.thumb_func
 869              		.fpu fpv4-sp-d16
 871              	osThreadGetState:
 872              	.LFB305:
 432:../../iot_link/os/liteos/cmsis/2.0/cmsis_liteos2.c **** 
 433:../../iot_link/os/liteos/cmsis/2.0/cmsis_liteos2.c **** 
 434:../../iot_link/os/liteos/cmsis/2.0/cmsis_liteos2.c **** osThreadState_t osThreadGetState (osThreadId_t thread_id)
 435:../../iot_link/os/liteos/cmsis/2.0/cmsis_liteos2.c **** {
 873              		.loc 1 435 0
 874              		.cfi_startproc
 875              		@ args = 0, pretend = 0, frame = 0
 876              		@ frame_needed = 0, uses_anonymous_args = 0
 877              		@ link register save eliminated.
 878              	.LVL45:
 436:../../iot_link/os/liteos/cmsis/2.0/cmsis_liteos2.c ****     UINT16 usTaskStatus;
 437:../../iot_link/os/liteos/cmsis/2.0/cmsis_liteos2.c ****     osThreadState_t stState;
 438:../../iot_link/os/liteos/cmsis/2.0/cmsis_liteos2.c ****     LOS_TASK_CB *pstTaskCB = NULL;
 439:../../iot_link/os/liteos/cmsis/2.0/cmsis_liteos2.c **** 
 440:../../iot_link/os/liteos/cmsis/2.0/cmsis_liteos2.c ****     if (OS_INT_ACTIVE || thread_id == NULL)
 879              		.loc 1 440 0
 880 0000 0C4B     		ldr	r3, .L107
 881 0002 1B68     		ldr	r3, [r3]
 882 0004 6BB9     		cbnz	r3, .L103
 883              		.loc 1 440 0 is_stmt 0 discriminator 1
 884 0006 60B1     		cbz	r0, .L103
 885              	.LVL46:
 441:../../iot_link/os/liteos/cmsis/2.0/cmsis_liteos2.c ****     {
 442:../../iot_link/os/liteos/cmsis/2.0/cmsis_liteos2.c ****         return osThreadError;
 443:../../iot_link/os/liteos/cmsis/2.0/cmsis_liteos2.c ****     }
 444:../../iot_link/os/liteos/cmsis/2.0/cmsis_liteos2.c **** 
 445:../../iot_link/os/liteos/cmsis/2.0/cmsis_liteos2.c ****     pstTaskCB = (LOS_TASK_CB *)thread_id;
 446:../../iot_link/os/liteos/cmsis/2.0/cmsis_liteos2.c ****     usTaskStatus = pstTaskCB->usTaskStatus;
 886              		.loc 1 446 0 is_stmt 1
 887 0008 8088     		ldrh	r0, [r0, #4]
 888              	.LVL47:
 447:../../iot_link/os/liteos/cmsis/2.0/cmsis_liteos2.c **** 
 448:../../iot_link/os/liteos/cmsis/2.0/cmsis_liteos2.c ****     if (usTaskStatus & OS_TASK_STATUS_RUNNING)
 889              		.loc 1 448 0
 890 000a C206     		lsls	r2, r0, #27
 891 000c 0CD4     		bmi	.L104
 449:../../iot_link/os/liteos/cmsis/2.0/cmsis_liteos2.c ****     {
 450:../../iot_link/os/liteos/cmsis/2.0/cmsis_liteos2.c ****         stState = osThreadRunning;
 451:../../iot_link/os/liteos/cmsis/2.0/cmsis_liteos2.c ****     }
 452:../../iot_link/os/liteos/cmsis/2.0/cmsis_liteos2.c ****     else if (usTaskStatus & OS_TASK_STATUS_READY)
 892              		.loc 1 452 0
 893 000e 4307     		lsls	r3, r0, #29
 894 0010 0CD4     		bmi	.L105
 453:../../iot_link/os/liteos/cmsis/2.0/cmsis_liteos2.c ****     {
 454:../../iot_link/os/liteos/cmsis/2.0/cmsis_liteos2.c ****         stState = osThreadReady;
 455:../../iot_link/os/liteos/cmsis/2.0/cmsis_liteos2.c ****     }
ARM GAS  C:\Users\LuckyE\AppData\Local\Temp\ccfppLKa.s 			page 25


 456:../../iot_link/os/liteos/cmsis/2.0/cmsis_liteos2.c ****     else if (usTaskStatus &
 895              		.loc 1 456 0
 896 0012 42F22A03 		movw	r3, #8234
 897 0016 1842     		tst	r0, r3
 898 0018 0AD1     		bne	.L106
 457:../../iot_link/os/liteos/cmsis/2.0/cmsis_liteos2.c ****              (OS_TASK_STATUS_DELAY | OS_TASK_STATUS_PEND |
 458:../../iot_link/os/liteos/cmsis/2.0/cmsis_liteos2.c ****               OS_TASK_STATUS_SUSPEND | OS_TASK_STATUS_PEND_QUEUE))
 459:../../iot_link/os/liteos/cmsis/2.0/cmsis_liteos2.c ****     {
 460:../../iot_link/os/liteos/cmsis/2.0/cmsis_liteos2.c ****         stState = osThreadBlocked;
 461:../../iot_link/os/liteos/cmsis/2.0/cmsis_liteos2.c ****     }
 462:../../iot_link/os/liteos/cmsis/2.0/cmsis_liteos2.c ****     else if (usTaskStatus & OS_TASK_STATUS_UNUSED)
 899              		.loc 1 462 0
 900 001a C043     		mvns	r0, r0
 901              	.LVL48:
 902 001c 40F30000 		sbfx	r0, r0, #0, #1
 903              	.LVL49:
 904 0020 7047     		bx	lr
 905              	.LVL50:
 906              	.L103:
 442:../../iot_link/os/liteos/cmsis/2.0/cmsis_liteos2.c ****     }
 907              		.loc 1 442 0
 908 0022 4FF0FF30 		mov	r0, #-1
 909              	.LVL51:
 910 0026 7047     		bx	lr
 911              	.LVL52:
 912              	.L104:
 450:../../iot_link/os/liteos/cmsis/2.0/cmsis_liteos2.c ****     }
 913              		.loc 1 450 0
 914 0028 0220     		movs	r0, #2
 915              	.LVL53:
 916 002a 7047     		bx	lr
 917              	.LVL54:
 918              	.L105:
 454:../../iot_link/os/liteos/cmsis/2.0/cmsis_liteos2.c ****     }
 919              		.loc 1 454 0
 920 002c 0120     		movs	r0, #1
 921              	.LVL55:
 922 002e 7047     		bx	lr
 923              	.LVL56:
 924              	.L106:
 460:../../iot_link/os/liteos/cmsis/2.0/cmsis_liteos2.c ****     }
 925              		.loc 1 460 0
 926 0030 0320     		movs	r0, #3
 927              	.LVL57:
 463:../../iot_link/os/liteos/cmsis/2.0/cmsis_liteos2.c ****     {
 464:../../iot_link/os/liteos/cmsis/2.0/cmsis_liteos2.c ****         stState = osThreadInactive;
 465:../../iot_link/os/liteos/cmsis/2.0/cmsis_liteos2.c ****     }
 466:../../iot_link/os/liteos/cmsis/2.0/cmsis_liteos2.c ****     else
 467:../../iot_link/os/liteos/cmsis/2.0/cmsis_liteos2.c ****     {
 468:../../iot_link/os/liteos/cmsis/2.0/cmsis_liteos2.c ****         stState = osThreadError;
 469:../../iot_link/os/liteos/cmsis/2.0/cmsis_liteos2.c ****     }
 470:../../iot_link/os/liteos/cmsis/2.0/cmsis_liteos2.c **** 
 471:../../iot_link/os/liteos/cmsis/2.0/cmsis_liteos2.c ****     return stState;
 472:../../iot_link/os/liteos/cmsis/2.0/cmsis_liteos2.c **** }
 928              		.loc 1 472 0
 929 0032 7047     		bx	lr
 930              	.L108:
ARM GAS  C:\Users\LuckyE\AppData\Local\Temp\ccfppLKa.s 			page 26


 931              		.align	2
 932              	.L107:
 933 0034 00000000 		.word	g_vuwIntCount
 934              		.cfi_endproc
 935              	.LFE305:
 937              		.section	.text.osThreadGetStackSize,"ax",%progbits
 938              		.align	1
 939              		.global	osThreadGetStackSize
 940              		.syntax unified
 941              		.thumb
 942              		.thumb_func
 943              		.fpu fpv4-sp-d16
 945              	osThreadGetStackSize:
 946              	.LFB306:
 473:../../iot_link/os/liteos/cmsis/2.0/cmsis_liteos2.c **** 
 474:../../iot_link/os/liteos/cmsis/2.0/cmsis_liteos2.c **** 
 475:../../iot_link/os/liteos/cmsis/2.0/cmsis_liteos2.c **** uint32_t osThreadGetStackSize (osThreadId_t thread_id)
 476:../../iot_link/os/liteos/cmsis/2.0/cmsis_liteos2.c **** {
 947              		.loc 1 476 0
 948              		.cfi_startproc
 949              		@ args = 0, pretend = 0, frame = 0
 950              		@ frame_needed = 0, uses_anonymous_args = 0
 951              		@ link register save eliminated.
 952              	.LVL58:
 477:../../iot_link/os/liteos/cmsis/2.0/cmsis_liteos2.c ****     LOS_TASK_CB *pstTaskCB = NULL;
 478:../../iot_link/os/liteos/cmsis/2.0/cmsis_liteos2.c **** 
 479:../../iot_link/os/liteos/cmsis/2.0/cmsis_liteos2.c ****     if (OS_INT_ACTIVE || thread_id == NULL)
 953              		.loc 1 479 0
 954 0000 034B     		ldr	r3, .L113
 955 0002 1B68     		ldr	r3, [r3]
 956 0004 13B9     		cbnz	r3, .L111
 957              		.loc 1 479 0 is_stmt 0 discriminator 1
 958 0006 10B1     		cbz	r0, .L109
 959              	.LVL59:
 480:../../iot_link/os/liteos/cmsis/2.0/cmsis_liteos2.c ****     {
 481:../../iot_link/os/liteos/cmsis/2.0/cmsis_liteos2.c ****         return 0U;
 482:../../iot_link/os/liteos/cmsis/2.0/cmsis_liteos2.c ****     }
 483:../../iot_link/os/liteos/cmsis/2.0/cmsis_liteos2.c **** 
 484:../../iot_link/os/liteos/cmsis/2.0/cmsis_liteos2.c ****     pstTaskCB = (LOS_TASK_CB *)thread_id;
 485:../../iot_link/os/liteos/cmsis/2.0/cmsis_liteos2.c **** 
 486:../../iot_link/os/liteos/cmsis/2.0/cmsis_liteos2.c ****     return pstTaskCB->uwStackSize;
 960              		.loc 1 486 0 is_stmt 1
 961 0008 8068     		ldr	r0, [r0, #8]
 962              	.LVL60:
 963 000a 7047     		bx	lr
 964              	.LVL61:
 965              	.L111:
 481:../../iot_link/os/liteos/cmsis/2.0/cmsis_liteos2.c ****     }
 966              		.loc 1 481 0
 967 000c 0020     		movs	r0, #0
 968              	.LVL62:
 969              	.L109:
 487:../../iot_link/os/liteos/cmsis/2.0/cmsis_liteos2.c **** }
 970              		.loc 1 487 0
 971 000e 7047     		bx	lr
 972              	.L114:
 973              		.align	2
ARM GAS  C:\Users\LuckyE\AppData\Local\Temp\ccfppLKa.s 			page 27


 974              	.L113:
 975 0010 00000000 		.word	g_vuwIntCount
 976              		.cfi_endproc
 977              	.LFE306:
 979              		.section	.text.osTaskStackWaterMarkGet,"ax",%progbits
 980              		.align	1
 981              		.global	osTaskStackWaterMarkGet
 982              		.syntax unified
 983              		.thumb
 984              		.thumb_func
 985              		.fpu fpv4-sp-d16
 987              	osTaskStackWaterMarkGet:
 988              	.LFB307:
 488:../../iot_link/os/liteos/cmsis/2.0/cmsis_liteos2.c **** 
 489:../../iot_link/os/liteos/cmsis/2.0/cmsis_liteos2.c **** 
 490:../../iot_link/os/liteos/cmsis/2.0/cmsis_liteos2.c **** uint32_t osTaskStackWaterMarkGet(UINT32 uwTaskID)
 491:../../iot_link/os/liteos/cmsis/2.0/cmsis_liteos2.c **** {
 989              		.loc 1 491 0
 990              		.cfi_startproc
 991              		@ args = 0, pretend = 0, frame = 0
 992              		@ frame_needed = 0, uses_anonymous_args = 0
 993              	.LVL63:
 492:../../iot_link/os/liteos/cmsis/2.0/cmsis_liteos2.c ****     UINT32 uwCount = 0;
 493:../../iot_link/os/liteos/cmsis/2.0/cmsis_liteos2.c ****     UINT32 *puwTopOfStack;
 494:../../iot_link/os/liteos/cmsis/2.0/cmsis_liteos2.c ****     UINTPTR uvIntSave;
 495:../../iot_link/os/liteos/cmsis/2.0/cmsis_liteos2.c ****     LOS_TASK_CB *pstTaskCB = NULL;
 496:../../iot_link/os/liteos/cmsis/2.0/cmsis_liteos2.c **** 
 497:../../iot_link/os/liteos/cmsis/2.0/cmsis_liteos2.c ****     if (uwTaskID > LOSCFG_BASE_CORE_TSK_LIMIT)
 994              		.loc 1 497 0
 995 0000 0F28     		cmp	r0, #15
 491:../../iot_link/os/liteos/cmsis/2.0/cmsis_liteos2.c ****     UINT32 uwCount = 0;
 996              		.loc 1 491 0
 997 0002 10B5     		push	{r4, lr}
 998              	.LCFI13:
 999              		.cfi_def_cfa_offset 8
 1000              		.cfi_offset 4, -8
 1001              		.cfi_offset 14, -4
 491:../../iot_link/os/liteos/cmsis/2.0/cmsis_liteos2.c ****     UINT32 uwCount = 0;
 1002              		.loc 1 491 0
 1003 0004 0446     		mov	r4, r0
 1004              		.loc 1 497 0
 1005 0006 0DD8     		bhi	.L120
 1006              	.LVL64:
 1007              	.LBB8:
 1008              	.LBB9:
 498:../../iot_link/os/liteos/cmsis/2.0/cmsis_liteos2.c ****     {
 499:../../iot_link/os/liteos/cmsis/2.0/cmsis_liteos2.c ****         return 0;
 500:../../iot_link/os/liteos/cmsis/2.0/cmsis_liteos2.c ****     }
 501:../../iot_link/os/liteos/cmsis/2.0/cmsis_liteos2.c **** 
 502:../../iot_link/os/liteos/cmsis/2.0/cmsis_liteos2.c ****     uvIntSave = LOS_IntLock();
 1009              		.loc 1 502 0
 1010 0008 FFF7FEFF 		bl	LOS_IntLock
 1011              	.LVL65:
 503:../../iot_link/os/liteos/cmsis/2.0/cmsis_liteos2.c **** 
 504:../../iot_link/os/liteos/cmsis/2.0/cmsis_liteos2.c ****     pstTaskCB = OS_TCB_FROM_TID(uwTaskID);
 1012              		.loc 1 504 0
 1013 000c 0E4B     		ldr	r3, .L121
ARM GAS  C:\Users\LuckyE\AppData\Local\Temp\ccfppLKa.s 			page 28


 1014 000e 1B68     		ldr	r3, [r3]
 1015 0010 5421     		movs	r1, #84
 1016 0012 01FB0433 		mla	r3, r1, r4, r3
 502:../../iot_link/os/liteos/cmsis/2.0/cmsis_liteos2.c **** 
 1017              		.loc 1 502 0
 1018 0016 0246     		mov	r2, r0
 1019              	.LVL66:
 505:../../iot_link/os/liteos/cmsis/2.0/cmsis_liteos2.c ****     if (OS_TASK_STATUS_UNUSED & (pstTaskCB->usTaskStatus))
 1020              		.loc 1 505 0
 1021 0018 9C88     		ldrh	r4, [r3, #4]
 1022              	.LVL67:
 1023 001a 14F00104 		ands	r4, r4, #1
 1024 001e 03D0     		beq	.L117
 506:../../iot_link/os/liteos/cmsis/2.0/cmsis_liteos2.c ****     {
 507:../../iot_link/os/liteos/cmsis/2.0/cmsis_liteos2.c ****         (VOID)LOS_IntRestore(uvIntSave);
 1025              		.loc 1 507 0
 1026 0020 FFF7FEFF 		bl	LOS_IntRestore
 1027              	.LVL68:
 1028              	.L120:
 1029              	.LBE9:
 1030              	.LBE8:
 499:../../iot_link/os/liteos/cmsis/2.0/cmsis_liteos2.c ****     }
 1031              		.loc 1 499 0
 1032 0024 0024     		movs	r4, #0
 1033 0026 09E0     		b	.L115
 1034              	.LVL69:
 1035              	.L117:
 1036              	.LBB12:
 1037              	.LBB10:
 508:../../iot_link/os/liteos/cmsis/2.0/cmsis_liteos2.c ****         return 0;
 509:../../iot_link/os/liteos/cmsis/2.0/cmsis_liteos2.c ****     }
 510:../../iot_link/os/liteos/cmsis/2.0/cmsis_liteos2.c **** 
 511:../../iot_link/os/liteos/cmsis/2.0/cmsis_liteos2.c ****     // first 4 bytes is OS_TASK_MAGIC_WORD, skip
 512:../../iot_link/os/liteos/cmsis/2.0/cmsis_liteos2.c ****     puwTopOfStack = (UINT32 *)pstTaskCB->uwTopOfStack + 1;
 1038              		.loc 1 512 0
 1039 0028 DB68     		ldr	r3, [r3, #12]
 1040              	.LVL70:
 1041 002a 0433     		adds	r3, r3, #4
 1042              	.LVL71:
 1043              	.L118:
 513:../../iot_link/os/liteos/cmsis/2.0/cmsis_liteos2.c **** 
 514:../../iot_link/os/liteos/cmsis/2.0/cmsis_liteos2.c ****     while (*puwTopOfStack == (UINT32)OS_TASK_STACK_INIT)
 1044              		.loc 1 514 0
 1045 002c 1968     		ldr	r1, [r3]
 1046 002e B1F1CA3F 		cmp	r1, #-892679478
 1047 0032 05D0     		beq	.L119
 515:../../iot_link/os/liteos/cmsis/2.0/cmsis_liteos2.c ****     {
 516:../../iot_link/os/liteos/cmsis/2.0/cmsis_liteos2.c ****         ++puwTopOfStack;
 517:../../iot_link/os/liteos/cmsis/2.0/cmsis_liteos2.c ****         ++uwCount;
 518:../../iot_link/os/liteos/cmsis/2.0/cmsis_liteos2.c ****     }
 519:../../iot_link/os/liteos/cmsis/2.0/cmsis_liteos2.c **** 
 520:../../iot_link/os/liteos/cmsis/2.0/cmsis_liteos2.c ****     uwCount *= sizeof(UINT32);
 521:../../iot_link/os/liteos/cmsis/2.0/cmsis_liteos2.c **** 
 522:../../iot_link/os/liteos/cmsis/2.0/cmsis_liteos2.c ****     (VOID)LOS_IntRestore(uvIntSave);
 1048              		.loc 1 522 0
 1049 0034 1046     		mov	r0, r2
 1050              	.LVL72:
ARM GAS  C:\Users\LuckyE\AppData\Local\Temp\ccfppLKa.s 			page 29


 520:../../iot_link/os/liteos/cmsis/2.0/cmsis_liteos2.c **** 
 1051              		.loc 1 520 0
 1052 0036 A400     		lsls	r4, r4, #2
 1053              	.LVL73:
 1054              		.loc 1 522 0
 1055 0038 FFF7FEFF 		bl	LOS_IntRestore
 1056              	.LVL74:
 1057              	.L115:
 1058              	.LBE10:
 1059              	.LBE12:
 523:../../iot_link/os/liteos/cmsis/2.0/cmsis_liteos2.c ****     return uwCount;
 524:../../iot_link/os/liteos/cmsis/2.0/cmsis_liteos2.c **** }
 1060              		.loc 1 524 0
 1061 003c 2046     		mov	r0, r4
 1062 003e 10BD     		pop	{r4, pc}
 1063              	.LVL75:
 1064              	.L119:
 1065              	.LBB13:
 1066              	.LBB11:
 516:../../iot_link/os/liteos/cmsis/2.0/cmsis_liteos2.c ****         ++uwCount;
 1067              		.loc 1 516 0
 1068 0040 0433     		adds	r3, r3, #4
 1069              	.LVL76:
 517:../../iot_link/os/liteos/cmsis/2.0/cmsis_liteos2.c ****     }
 1070              		.loc 1 517 0
 1071 0042 0134     		adds	r4, r4, #1
 1072              	.LVL77:
 1073 0044 F2E7     		b	.L118
 1074              	.L122:
 1075 0046 00BF     		.align	2
 1076              	.L121:
 1077 0048 00000000 		.word	g_pstTaskCBArray
 1078              	.LBE11:
 1079              	.LBE13:
 1080              		.cfi_endproc
 1081              	.LFE307:
 1083              		.section	.text.osThreadGetStackSpace,"ax",%progbits
 1084              		.align	1
 1085              		.global	osThreadGetStackSpace
 1086              		.syntax unified
 1087              		.thumb
 1088              		.thumb_func
 1089              		.fpu fpv4-sp-d16
 1091              	osThreadGetStackSpace:
 1092              	.LFB308:
 525:../../iot_link/os/liteos/cmsis/2.0/cmsis_liteos2.c **** 
 526:../../iot_link/os/liteos/cmsis/2.0/cmsis_liteos2.c **** 
 527:../../iot_link/os/liteos/cmsis/2.0/cmsis_liteos2.c **** uint32_t osThreadGetStackSpace (osThreadId_t thread_id)
 528:../../iot_link/os/liteos/cmsis/2.0/cmsis_liteos2.c **** {
 1093              		.loc 1 528 0
 1094              		.cfi_startproc
 1095              		@ args = 0, pretend = 0, frame = 0
 1096              		@ frame_needed = 0, uses_anonymous_args = 0
 1097              		@ link register save eliminated.
 1098              	.LVL78:
 529:../../iot_link/os/liteos/cmsis/2.0/cmsis_liteos2.c ****     LOS_TASK_CB *pstTaskCB = NULL;
 530:../../iot_link/os/liteos/cmsis/2.0/cmsis_liteos2.c **** 
ARM GAS  C:\Users\LuckyE\AppData\Local\Temp\ccfppLKa.s 			page 30


 531:../../iot_link/os/liteos/cmsis/2.0/cmsis_liteos2.c ****     if (OS_INT_ACTIVE || thread_id == NULL)
 1099              		.loc 1 531 0
 1100 0000 044B     		ldr	r3, .L128
 1101 0002 1B68     		ldr	r3, [r3]
 1102 0004 1BB9     		cbnz	r3, .L123
 1103              		.loc 1 531 0 is_stmt 0 discriminator 1
 1104 0006 10B1     		cbz	r0, .L123
 1105              	.LVL79:
 532:../../iot_link/os/liteos/cmsis/2.0/cmsis_liteos2.c ****     {
 533:../../iot_link/os/liteos/cmsis/2.0/cmsis_liteos2.c ****         return 0U;
 534:../../iot_link/os/liteos/cmsis/2.0/cmsis_liteos2.c ****     }
 535:../../iot_link/os/liteos/cmsis/2.0/cmsis_liteos2.c **** 
 536:../../iot_link/os/liteos/cmsis/2.0/cmsis_liteos2.c ****     pstTaskCB = (LOS_TASK_CB *)thread_id;
 537:../../iot_link/os/liteos/cmsis/2.0/cmsis_liteos2.c **** 
 538:../../iot_link/os/liteos/cmsis/2.0/cmsis_liteos2.c ****     return osTaskStackWaterMarkGet(pstTaskCB->uwTaskID);
 1106              		.loc 1 538 0 is_stmt 1
 1107 0008 0069     		ldr	r0, [r0, #16]
 1108              	.LVL80:
 1109 000a FFF7FEBF 		b	osTaskStackWaterMarkGet
 1110              	.LVL81:
 1111              	.L123:
 539:../../iot_link/os/liteos/cmsis/2.0/cmsis_liteos2.c **** }
 1112              		.loc 1 539 0
 1113 000e 0020     		movs	r0, #0
 1114              	.LVL82:
 1115 0010 7047     		bx	lr
 1116              	.L129:
 1117 0012 00BF     		.align	2
 1118              	.L128:
 1119 0014 00000000 		.word	g_vuwIntCount
 1120              		.cfi_endproc
 1121              	.LFE308:
 1123              		.section	.text.osThreadSetPriority,"ax",%progbits
 1124              		.align	1
 1125              		.global	osThreadSetPriority
 1126              		.syntax unified
 1127              		.thumb
 1128              		.thumb_func
 1129              		.fpu fpv4-sp-d16
 1131              	osThreadSetPriority:
 1132              	.LFB309:
 540:../../iot_link/os/liteos/cmsis/2.0/cmsis_liteos2.c **** 
 541:../../iot_link/os/liteos/cmsis/2.0/cmsis_liteos2.c **** 
 542:../../iot_link/os/liteos/cmsis/2.0/cmsis_liteos2.c **** osStatus_t osThreadSetPriority (osThreadId_t thread_id, osPriority_t priority)
 543:../../iot_link/os/liteos/cmsis/2.0/cmsis_liteos2.c **** {
 1133              		.loc 1 543 0
 1134              		.cfi_startproc
 1135              		@ args = 0, pretend = 0, frame = 0
 1136              		@ frame_needed = 0, uses_anonymous_args = 0
 1137              	.LVL83:
 1138 0000 08B5     		push	{r3, lr}
 1139              	.LCFI14:
 1140              		.cfi_def_cfa_offset 8
 1141              		.cfi_offset 3, -8
 1142              		.cfi_offset 14, -4
 544:../../iot_link/os/liteos/cmsis/2.0/cmsis_liteos2.c ****     UINT32  uwRet;
 545:../../iot_link/os/liteos/cmsis/2.0/cmsis_liteos2.c ****     UINT16  usPriority;
ARM GAS  C:\Users\LuckyE\AppData\Local\Temp\ccfppLKa.s 			page 31


 546:../../iot_link/os/liteos/cmsis/2.0/cmsis_liteos2.c ****     LOS_TASK_CB *pstTaskCB = NULL;
 547:../../iot_link/os/liteos/cmsis/2.0/cmsis_liteos2.c **** 
 548:../../iot_link/os/liteos/cmsis/2.0/cmsis_liteos2.c ****     if (OS_INT_ACTIVE)
 1143              		.loc 1 548 0
 1144 0002 124B     		ldr	r3, .L141
 1145 0004 1B68     		ldr	r3, [r3]
 1146 0006 F3B9     		cbnz	r3, .L135
 549:../../iot_link/os/liteos/cmsis/2.0/cmsis_liteos2.c ****     {
 550:../../iot_link/os/liteos/cmsis/2.0/cmsis_liteos2.c ****         return osErrorISR;
 551:../../iot_link/os/liteos/cmsis/2.0/cmsis_liteos2.c ****     }
 552:../../iot_link/os/liteos/cmsis/2.0/cmsis_liteos2.c **** 
 553:../../iot_link/os/liteos/cmsis/2.0/cmsis_liteos2.c ****     if (thread_id == NULL)
 1147              		.loc 1 553 0
 1148 0008 80B1     		cbz	r0, .L138
 554:../../iot_link/os/liteos/cmsis/2.0/cmsis_liteos2.c ****     {
 555:../../iot_link/os/liteos/cmsis/2.0/cmsis_liteos2.c ****         return osErrorParameter;
 556:../../iot_link/os/liteos/cmsis/2.0/cmsis_liteos2.c ****     }
 557:../../iot_link/os/liteos/cmsis/2.0/cmsis_liteos2.c **** 
 558:../../iot_link/os/liteos/cmsis/2.0/cmsis_liteos2.c ****     if (priority < osPriorityLow1 || priority > osPriorityAboveNormal6)
 1149              		.loc 1 558 0
 1150 000a A1F10903 		sub	r3, r1, #9
 1151 000e 1D2B     		cmp	r3, #29
 1152 0010 0CD8     		bhi	.L138
 1153              	.LVL84:
 559:../../iot_link/os/liteos/cmsis/2.0/cmsis_liteos2.c ****     {
 560:../../iot_link/os/liteos/cmsis/2.0/cmsis_liteos2.c ****         return osErrorParameter;
 561:../../iot_link/os/liteos/cmsis/2.0/cmsis_liteos2.c ****     }
 562:../../iot_link/os/liteos/cmsis/2.0/cmsis_liteos2.c **** 
 563:../../iot_link/os/liteos/cmsis/2.0/cmsis_liteos2.c ****     pstTaskCB   = (LOS_TASK_CB *)thread_id;
 564:../../iot_link/os/liteos/cmsis/2.0/cmsis_liteos2.c ****     usPriority  = OS_TASK_PRIORITY_LOWEST - ((UINT16)priority - LOS_PRIORITY_WIN);
 1154              		.loc 1 564 0
 1155 0012 C1F12701 		rsb	r1, r1, #39
 1156              	.LVL85:
 565:../../iot_link/os/liteos/cmsis/2.0/cmsis_liteos2.c ****     uwRet       = LOS_TaskPriSet(pstTaskCB->uwTaskID, usPriority);
 1157              		.loc 1 565 0
 1158 0016 89B2     		uxth	r1, r1
 1159 0018 0069     		ldr	r0, [r0, #16]
 1160              	.LVL86:
 1161 001a FFF7FEFF 		bl	LOS_TaskPriSet
 1162              	.LVL87:
 566:../../iot_link/os/liteos/cmsis/2.0/cmsis_liteos2.c ****     switch (uwRet)
 1163              		.loc 1 566 0
 1164 001e 0C4B     		ldr	r3, .L141+4
 1165 0020 9842     		cmp	r0, r3
 1166 0022 03D0     		beq	.L138
 1167 0024 05D8     		bhi	.L133
 1168 0026 043B     		subs	r3, r3, #4
 1169              	.L140:
 1170 0028 9842     		cmp	r0, r3
 1171 002a 0AD1     		bne	.L132
 1172              	.LVL88:
 1173              	.L138:
 567:../../iot_link/os/liteos/cmsis/2.0/cmsis_liteos2.c ****     {
 568:../../iot_link/os/liteos/cmsis/2.0/cmsis_liteos2.c ****     case LOS_ERRNO_TSK_PRIOR_ERROR:
 569:../../iot_link/os/liteos/cmsis/2.0/cmsis_liteos2.c ****     case LOS_ERRNO_TSK_OPERATE_IDLE:
 570:../../iot_link/os/liteos/cmsis/2.0/cmsis_liteos2.c ****     case LOS_ERRNO_TSK_ID_INVALID:
 571:../../iot_link/os/liteos/cmsis/2.0/cmsis_liteos2.c ****         return osErrorParameter;
ARM GAS  C:\Users\LuckyE\AppData\Local\Temp\ccfppLKa.s 			page 32


 1174              		.loc 1 571 0
 1175 002c 6FF00300 		mvn	r0, #3
 1176 0030 06E0     		b	.L130
 1177              	.LVL89:
 1178              	.L133:
 566:../../iot_link/os/liteos/cmsis/2.0/cmsis_liteos2.c ****     switch (uwRet)
 1179              		.loc 1 566 0
 1180 0032 084B     		ldr	r3, .L141+8
 1181 0034 9842     		cmp	r0, r3
 1182 0036 01D0     		beq	.L134
 1183 0038 0A33     		adds	r3, r3, #10
 1184 003a F5E7     		b	.L140
 1185              	.L134:
 572:../../iot_link/os/liteos/cmsis/2.0/cmsis_liteos2.c **** 
 573:../../iot_link/os/liteos/cmsis/2.0/cmsis_liteos2.c ****     case LOS_ERRNO_TSK_NOT_CREATED:
 574:../../iot_link/os/liteos/cmsis/2.0/cmsis_liteos2.c ****         return osErrorResource;
 1186              		.loc 1 574 0
 1187 003c 6FF00200 		mvn	r0, #2
 1188              	.LVL90:
 1189              	.L130:
 575:../../iot_link/os/liteos/cmsis/2.0/cmsis_liteos2.c **** 
 576:../../iot_link/os/liteos/cmsis/2.0/cmsis_liteos2.c ****     default:
 577:../../iot_link/os/liteos/cmsis/2.0/cmsis_liteos2.c ****         return osOK;
 578:../../iot_link/os/liteos/cmsis/2.0/cmsis_liteos2.c ****     }
 579:../../iot_link/os/liteos/cmsis/2.0/cmsis_liteos2.c **** }
 1190              		.loc 1 579 0
 1191 0040 08BD     		pop	{r3, pc}
 1192              	.LVL91:
 1193              	.L132:
 577:../../iot_link/os/liteos/cmsis/2.0/cmsis_liteos2.c ****     }
 1194              		.loc 1 577 0
 1195 0042 0020     		movs	r0, #0
 1196              	.LVL92:
 1197 0044 FCE7     		b	.L130
 1198              	.LVL93:
 1199              	.L135:
 550:../../iot_link/os/liteos/cmsis/2.0/cmsis_liteos2.c ****     }
 1200              		.loc 1 550 0
 1201 0046 6FF00500 		mvn	r0, #5
 1202              	.LVL94:
 1203 004a F9E7     		b	.L130
 1204              	.L142:
 1205              		.align	2
 1206              	.L141:
 1207 004c 00000000 		.word	g_vuwIntCount
 1208 0050 07020002 		.word	33554951
 1209 0054 0A020002 		.word	33554954
 1210              		.cfi_endproc
 1211              	.LFE309:
 1213              		.section	.text.osThreadGetPriority,"ax",%progbits
 1214              		.align	1
 1215              		.global	osThreadGetPriority
 1216              		.syntax unified
 1217              		.thumb
 1218              		.thumb_func
 1219              		.fpu fpv4-sp-d16
 1221              	osThreadGetPriority:
ARM GAS  C:\Users\LuckyE\AppData\Local\Temp\ccfppLKa.s 			page 33


 1222              	.LFB310:
 580:../../iot_link/os/liteos/cmsis/2.0/cmsis_liteos2.c **** 
 581:../../iot_link/os/liteos/cmsis/2.0/cmsis_liteos2.c **** 
 582:../../iot_link/os/liteos/cmsis/2.0/cmsis_liteos2.c **** osPriority_t osThreadGetPriority (osThreadId_t thread_id)
 583:../../iot_link/os/liteos/cmsis/2.0/cmsis_liteos2.c **** {
 1223              		.loc 1 583 0
 1224              		.cfi_startproc
 1225              		@ args = 0, pretend = 0, frame = 0
 1226              		@ frame_needed = 0, uses_anonymous_args = 0
 1227              	.LVL95:
 1228 0000 08B5     		push	{r3, lr}
 1229              	.LCFI15:
 1230              		.cfi_def_cfa_offset 8
 1231              		.cfi_offset 3, -8
 1232              		.cfi_offset 14, -4
 584:../../iot_link/os/liteos/cmsis/2.0/cmsis_liteos2.c ****     UINT16 usRet;
 585:../../iot_link/os/liteos/cmsis/2.0/cmsis_liteos2.c ****     LOS_TASK_CB *pstTaskCB = NULL;
 586:../../iot_link/os/liteos/cmsis/2.0/cmsis_liteos2.c **** 
 587:../../iot_link/os/liteos/cmsis/2.0/cmsis_liteos2.c ****     if (OS_INT_ACTIVE || thread_id == NULL)
 1233              		.loc 1 587 0
 1234 0002 094B     		ldr	r3, .L150
 1235 0004 1B68     		ldr	r3, [r3]
 1236 0006 13B1     		cbz	r3, .L144
 1237              	.LVL96:
 1238              	.L146:
 588:../../iot_link/os/liteos/cmsis/2.0/cmsis_liteos2.c ****     {
 589:../../iot_link/os/liteos/cmsis/2.0/cmsis_liteos2.c ****         return osPriorityError;
 1239              		.loc 1 589 0
 1240 0008 4FF0FF30 		mov	r0, #-1
 1241              	.L143:
 590:../../iot_link/os/liteos/cmsis/2.0/cmsis_liteos2.c ****     }
 591:../../iot_link/os/liteos/cmsis/2.0/cmsis_liteos2.c **** 
 592:../../iot_link/os/liteos/cmsis/2.0/cmsis_liteos2.c ****     pstTaskCB = (LOS_TASK_CB *)thread_id;
 593:../../iot_link/os/liteos/cmsis/2.0/cmsis_liteos2.c ****     usRet = LOS_TaskPriGet(pstTaskCB->uwTaskID);
 594:../../iot_link/os/liteos/cmsis/2.0/cmsis_liteos2.c **** 
 595:../../iot_link/os/liteos/cmsis/2.0/cmsis_liteos2.c ****     if (usRet == (UINT16)OS_INVALID)
 596:../../iot_link/os/liteos/cmsis/2.0/cmsis_liteos2.c ****     {
 597:../../iot_link/os/liteos/cmsis/2.0/cmsis_liteos2.c ****         return osPriorityError;
 598:../../iot_link/os/liteos/cmsis/2.0/cmsis_liteos2.c ****     }
 599:../../iot_link/os/liteos/cmsis/2.0/cmsis_liteos2.c **** 
 600:../../iot_link/os/liteos/cmsis/2.0/cmsis_liteos2.c ****     return (osPriority_t)(OS_TASK_PRIORITY_LOWEST - (usRet - LOS_PRIORITY_WIN));
 601:../../iot_link/os/liteos/cmsis/2.0/cmsis_liteos2.c **** }
 1242              		.loc 1 601 0
 1243 000c 08BD     		pop	{r3, pc}
 1244              	.LVL97:
 1245              	.L144:
 587:../../iot_link/os/liteos/cmsis/2.0/cmsis_liteos2.c ****     {
 1246              		.loc 1 587 0 discriminator 1
 1247 000e 0028     		cmp	r0, #0
 1248 0010 FAD0     		beq	.L146
 1249              	.LVL98:
 593:../../iot_link/os/liteos/cmsis/2.0/cmsis_liteos2.c **** 
 1250              		.loc 1 593 0
 1251 0012 0069     		ldr	r0, [r0, #16]
 1252              	.LVL99:
 1253 0014 FFF7FEFF 		bl	LOS_TaskPriGet
 1254              	.LVL100:
ARM GAS  C:\Users\LuckyE\AppData\Local\Temp\ccfppLKa.s 			page 34


 595:../../iot_link/os/liteos/cmsis/2.0/cmsis_liteos2.c ****     {
 1255              		.loc 1 595 0
 1256 0018 4FF6FF73 		movw	r3, #65535
 1257 001c 9842     		cmp	r0, r3
 1258 001e F3D0     		beq	.L146
 600:../../iot_link/os/liteos/cmsis/2.0/cmsis_liteos2.c **** }
 1259              		.loc 1 600 0
 1260 0020 C0F12700 		rsb	r0, r0, #39
 1261              	.LVL101:
 1262 0024 F2E7     		b	.L143
 1263              	.L151:
 1264 0026 00BF     		.align	2
 1265              	.L150:
 1266 0028 00000000 		.word	g_vuwIntCount
 1267              		.cfi_endproc
 1268              	.LFE310:
 1270              		.section	.text.osThreadYield,"ax",%progbits
 1271              		.align	1
 1272              		.global	osThreadYield
 1273              		.syntax unified
 1274              		.thumb
 1275              		.thumb_func
 1276              		.fpu fpv4-sp-d16
 1278              	osThreadYield:
 1279              	.LFB311:
 602:../../iot_link/os/liteos/cmsis/2.0/cmsis_liteos2.c **** 
 603:../../iot_link/os/liteos/cmsis/2.0/cmsis_liteos2.c **** 
 604:../../iot_link/os/liteos/cmsis/2.0/cmsis_liteos2.c **** osStatus_t osThreadYield (void)
 605:../../iot_link/os/liteos/cmsis/2.0/cmsis_liteos2.c **** {
 1280              		.loc 1 605 0
 1281              		.cfi_startproc
 1282              		@ args = 0, pretend = 0, frame = 0
 1283              		@ frame_needed = 0, uses_anonymous_args = 0
 1284 0000 08B5     		push	{r3, lr}
 1285              	.LCFI16:
 1286              		.cfi_def_cfa_offset 8
 1287              		.cfi_offset 3, -8
 1288              		.cfi_offset 14, -4
 606:../../iot_link/os/liteos/cmsis/2.0/cmsis_liteos2.c ****     UINT32 uwRet;
 607:../../iot_link/os/liteos/cmsis/2.0/cmsis_liteos2.c **** 
 608:../../iot_link/os/liteos/cmsis/2.0/cmsis_liteos2.c ****     if (OS_INT_ACTIVE)
 1289              		.loc 1 608 0
 1290 0002 064B     		ldr	r3, .L155
 1291 0004 1B68     		ldr	r3, [r3]
 1292 0006 33B9     		cbnz	r3, .L154
 609:../../iot_link/os/liteos/cmsis/2.0/cmsis_liteos2.c ****     {
 610:../../iot_link/os/liteos/cmsis/2.0/cmsis_liteos2.c ****         return osErrorISR;
 611:../../iot_link/os/liteos/cmsis/2.0/cmsis_liteos2.c ****     }
 612:../../iot_link/os/liteos/cmsis/2.0/cmsis_liteos2.c **** 
 613:../../iot_link/os/liteos/cmsis/2.0/cmsis_liteos2.c ****     uwRet = LOS_TaskYield();
 1293              		.loc 1 613 0
 1294 0008 FFF7FEFF 		bl	LOS_TaskYield
 1295              	.LVL102:
 614:../../iot_link/os/liteos/cmsis/2.0/cmsis_liteos2.c **** 
 615:../../iot_link/os/liteos/cmsis/2.0/cmsis_liteos2.c ****     if (uwRet == LOS_OK)
 1296              		.loc 1 615 0
 1297 000c 0030     		adds	r0, r0, #0
ARM GAS  C:\Users\LuckyE\AppData\Local\Temp\ccfppLKa.s 			page 35


 1298 000e 18BF     		it	ne
 1299 0010 0120     		movne	r0, #1
 1300              	.LVL103:
 1301 0012 4042     		negs	r0, r0
 1302              	.L152:
 616:../../iot_link/os/liteos/cmsis/2.0/cmsis_liteos2.c ****     {
 617:../../iot_link/os/liteos/cmsis/2.0/cmsis_liteos2.c ****         return osOK;
 618:../../iot_link/os/liteos/cmsis/2.0/cmsis_liteos2.c ****     }
 619:../../iot_link/os/liteos/cmsis/2.0/cmsis_liteos2.c **** 
 620:../../iot_link/os/liteos/cmsis/2.0/cmsis_liteos2.c ****     return osError;
 621:../../iot_link/os/liteos/cmsis/2.0/cmsis_liteos2.c **** }
 1303              		.loc 1 621 0
 1304 0014 08BD     		pop	{r3, pc}
 1305              	.L154:
 610:../../iot_link/os/liteos/cmsis/2.0/cmsis_liteos2.c ****     }
 1306              		.loc 1 610 0
 1307 0016 6FF00500 		mvn	r0, #5
 1308 001a FBE7     		b	.L152
 1309              	.L156:
 1310              		.align	2
 1311              	.L155:
 1312 001c 00000000 		.word	g_vuwIntCount
 1313              		.cfi_endproc
 1314              	.LFE311:
 1316              		.section	.text.osThreadSuspend,"ax",%progbits
 1317              		.align	1
 1318              		.global	osThreadSuspend
 1319              		.syntax unified
 1320              		.thumb
 1321              		.thumb_func
 1322              		.fpu fpv4-sp-d16
 1324              	osThreadSuspend:
 1325              	.LFB312:
 622:../../iot_link/os/liteos/cmsis/2.0/cmsis_liteos2.c **** 
 623:../../iot_link/os/liteos/cmsis/2.0/cmsis_liteos2.c **** 
 624:../../iot_link/os/liteos/cmsis/2.0/cmsis_liteos2.c **** osStatus_t osThreadSuspend (osThreadId_t thread_id)
 625:../../iot_link/os/liteos/cmsis/2.0/cmsis_liteos2.c **** {
 1326              		.loc 1 625 0
 1327              		.cfi_startproc
 1328              		@ args = 0, pretend = 0, frame = 0
 1329              		@ frame_needed = 0, uses_anonymous_args = 0
 1330              	.LVL104:
 1331 0000 08B5     		push	{r3, lr}
 1332              	.LCFI17:
 1333              		.cfi_def_cfa_offset 8
 1334              		.cfi_offset 3, -8
 1335              		.cfi_offset 14, -4
 626:../../iot_link/os/liteos/cmsis/2.0/cmsis_liteos2.c ****     UINT32 uwRet;
 627:../../iot_link/os/liteos/cmsis/2.0/cmsis_liteos2.c ****     LOS_TASK_CB *pstTaskCB = NULL;
 628:../../iot_link/os/liteos/cmsis/2.0/cmsis_liteos2.c **** 
 629:../../iot_link/os/liteos/cmsis/2.0/cmsis_liteos2.c ****     if (OS_INT_ACTIVE)
 1336              		.loc 1 629 0
 1337 0002 124B     		ldr	r3, .L165
 1338 0004 1B68     		ldr	r3, [r3]
 1339 0006 F3B9     		cbnz	r3, .L162
 630:../../iot_link/os/liteos/cmsis/2.0/cmsis_liteos2.c ****     {
 631:../../iot_link/os/liteos/cmsis/2.0/cmsis_liteos2.c ****         return osErrorISR;
ARM GAS  C:\Users\LuckyE\AppData\Local\Temp\ccfppLKa.s 			page 36


 632:../../iot_link/os/liteos/cmsis/2.0/cmsis_liteos2.c ****     }
 633:../../iot_link/os/liteos/cmsis/2.0/cmsis_liteos2.c **** 
 634:../../iot_link/os/liteos/cmsis/2.0/cmsis_liteos2.c ****     if (thread_id == NULL)
 1340              		.loc 1 634 0
 1341 0008 C0B1     		cbz	r0, .L164
 1342              	.LVL105:
 635:../../iot_link/os/liteos/cmsis/2.0/cmsis_liteos2.c ****     {
 636:../../iot_link/os/liteos/cmsis/2.0/cmsis_liteos2.c ****         return osErrorParameter;
 637:../../iot_link/os/liteos/cmsis/2.0/cmsis_liteos2.c ****     }
 638:../../iot_link/os/liteos/cmsis/2.0/cmsis_liteos2.c **** 
 639:../../iot_link/os/liteos/cmsis/2.0/cmsis_liteos2.c ****     pstTaskCB = (LOS_TASK_CB *)thread_id;
 640:../../iot_link/os/liteos/cmsis/2.0/cmsis_liteos2.c ****     uwRet = LOS_TaskSuspend(pstTaskCB->uwTaskID);
 1343              		.loc 1 640 0
 1344 000a 0069     		ldr	r0, [r0, #16]
 1345              	.LVL106:
 1346 000c FFF7FEFF 		bl	LOS_TaskSuspend
 1347              	.LVL107:
 641:../../iot_link/os/liteos/cmsis/2.0/cmsis_liteos2.c ****     switch (uwRet)
 1348              		.loc 1 641 0
 1349 0010 0F4B     		ldr	r3, .L165+4
 1350 0012 9842     		cmp	r0, r3
 1351 0014 06D0     		beq	.L160
 1352 0016 08D8     		bhi	.L161
 1353 0018 033B     		subs	r3, r3, #3
 1354 001a 9842     		cmp	r0, r3
 1355 001c 0ED0     		beq	.L164
 1356 001e 0133     		adds	r3, r3, #1
 1357 0020 9842     		cmp	r0, r3
 1358 0022 0ED1     		bne	.L159
 1359              	.L160:
 642:../../iot_link/os/liteos/cmsis/2.0/cmsis_liteos2.c ****     {
 643:../../iot_link/os/liteos/cmsis/2.0/cmsis_liteos2.c ****     case LOS_ERRNO_TSK_OPERATE_IDLE:
 644:../../iot_link/os/liteos/cmsis/2.0/cmsis_liteos2.c ****     case LOS_ERRNO_TSK_SUSPEND_SWTMR_NOT_ALLOWED:
 645:../../iot_link/os/liteos/cmsis/2.0/cmsis_liteos2.c ****     case LOS_ERRNO_TSK_ID_INVALID:
 646:../../iot_link/os/liteos/cmsis/2.0/cmsis_liteos2.c ****         return osErrorParameter;
 647:../../iot_link/os/liteos/cmsis/2.0/cmsis_liteos2.c **** 
 648:../../iot_link/os/liteos/cmsis/2.0/cmsis_liteos2.c ****     case LOS_ERRNO_TSK_NOT_CREATED:
 649:../../iot_link/os/liteos/cmsis/2.0/cmsis_liteos2.c ****     case LOS_ERRNO_TSK_ALREADY_SUSPENDED:
 650:../../iot_link/os/liteos/cmsis/2.0/cmsis_liteos2.c ****     case LOS_ERRNO_TSK_SUSPEND_LOCKED:
 651:../../iot_link/os/liteos/cmsis/2.0/cmsis_liteos2.c ****         return osErrorResource;
 1360              		.loc 1 651 0
 1361 0024 6FF00200 		mvn	r0, #2
 1362              	.LVL108:
 1363              	.L157:
 652:../../iot_link/os/liteos/cmsis/2.0/cmsis_liteos2.c **** 
 653:../../iot_link/os/liteos/cmsis/2.0/cmsis_liteos2.c ****     default:
 654:../../iot_link/os/liteos/cmsis/2.0/cmsis_liteos2.c ****         return osOK;
 655:../../iot_link/os/liteos/cmsis/2.0/cmsis_liteos2.c ****     }
 656:../../iot_link/os/liteos/cmsis/2.0/cmsis_liteos2.c **** }
 1364              		.loc 1 656 0
 1365 0028 08BD     		pop	{r3, pc}
 1366              	.LVL109:
 1367              	.L161:
 641:../../iot_link/os/liteos/cmsis/2.0/cmsis_liteos2.c ****     {
 1368              		.loc 1 641 0
 1369 002a 0A4B     		ldr	r3, .L165+8
 1370 002c 9842     		cmp	r0, r3
ARM GAS  C:\Users\LuckyE\AppData\Local\Temp\ccfppLKa.s 			page 37


 1371 002e 05D0     		beq	.L164
 1372 0030 094B     		ldr	r3, .L165+12
 1373 0032 9842     		cmp	r0, r3
 1374 0034 F6D0     		beq	.L160
 1375 0036 094B     		ldr	r3, .L165+16
 1376 0038 9842     		cmp	r0, r3
 1377 003a 02D1     		bne	.L159
 1378              	.LVL110:
 1379              	.L164:
 646:../../iot_link/os/liteos/cmsis/2.0/cmsis_liteos2.c **** 
 1380              		.loc 1 646 0
 1381 003c 6FF00300 		mvn	r0, #3
 1382 0040 F2E7     		b	.L157
 1383              	.LVL111:
 1384              	.L159:
 654:../../iot_link/os/liteos/cmsis/2.0/cmsis_liteos2.c ****     }
 1385              		.loc 1 654 0
 1386 0042 0020     		movs	r0, #0
 1387              	.LVL112:
 1388 0044 F0E7     		b	.L157
 1389              	.LVL113:
 1390              	.L162:
 631:../../iot_link/os/liteos/cmsis/2.0/cmsis_liteos2.c ****     }
 1391              		.loc 1 631 0
 1392 0046 6FF00500 		mvn	r0, #5
 1393              	.LVL114:
 1394 004a EDE7     		b	.L157
 1395              	.L166:
 1396              		.align	2
 1397              	.L165:
 1398 004c 00000000 		.word	g_vuwIntCount
 1399 0050 0A020002 		.word	33554954
 1400 0054 21020002 		.word	33554977
 1401 0058 15020003 		.word	50332181
 1402 005c 14020002 		.word	33554964
 1403              		.cfi_endproc
 1404              	.LFE312:
 1406              		.section	.text.osThreadResume,"ax",%progbits
 1407              		.align	1
 1408              		.global	osThreadResume
 1409              		.syntax unified
 1410              		.thumb
 1411              		.thumb_func
 1412              		.fpu fpv4-sp-d16
 1414              	osThreadResume:
 1415              	.LFB313:
 657:../../iot_link/os/liteos/cmsis/2.0/cmsis_liteos2.c **** 
 658:../../iot_link/os/liteos/cmsis/2.0/cmsis_liteos2.c **** 
 659:../../iot_link/os/liteos/cmsis/2.0/cmsis_liteos2.c **** osStatus_t osThreadResume (osThreadId_t thread_id)
 660:../../iot_link/os/liteos/cmsis/2.0/cmsis_liteos2.c **** {
 1416              		.loc 1 660 0
 1417              		.cfi_startproc
 1418              		@ args = 0, pretend = 0, frame = 0
 1419              		@ frame_needed = 0, uses_anonymous_args = 0
 1420              	.LVL115:
 1421 0000 08B5     		push	{r3, lr}
 1422              	.LCFI18:
ARM GAS  C:\Users\LuckyE\AppData\Local\Temp\ccfppLKa.s 			page 38


 1423              		.cfi_def_cfa_offset 8
 1424              		.cfi_offset 3, -8
 1425              		.cfi_offset 14, -4
 661:../../iot_link/os/liteos/cmsis/2.0/cmsis_liteos2.c ****     UINT32 uwRet;
 662:../../iot_link/os/liteos/cmsis/2.0/cmsis_liteos2.c ****     LOS_TASK_CB *pstTaskCB = NULL;
 663:../../iot_link/os/liteos/cmsis/2.0/cmsis_liteos2.c **** 
 664:../../iot_link/os/liteos/cmsis/2.0/cmsis_liteos2.c ****     if (OS_INT_ACTIVE)
 1426              		.loc 1 664 0
 1427 0002 0D4B     		ldr	r3, .L174
 1428 0004 1B68     		ldr	r3, [r3]
 1429 0006 8BB9     		cbnz	r3, .L171
 665:../../iot_link/os/liteos/cmsis/2.0/cmsis_liteos2.c ****     {
 666:../../iot_link/os/liteos/cmsis/2.0/cmsis_liteos2.c ****         return osErrorISR;
 667:../../iot_link/os/liteos/cmsis/2.0/cmsis_liteos2.c ****     }
 668:../../iot_link/os/liteos/cmsis/2.0/cmsis_liteos2.c **** 
 669:../../iot_link/os/liteos/cmsis/2.0/cmsis_liteos2.c ****     if (thread_id == NULL)
 1430              		.loc 1 669 0
 1431 0008 98B1     		cbz	r0, .L173
 1432              	.LVL116:
 670:../../iot_link/os/liteos/cmsis/2.0/cmsis_liteos2.c ****     {
 671:../../iot_link/os/liteos/cmsis/2.0/cmsis_liteos2.c ****         return osErrorParameter;
 672:../../iot_link/os/liteos/cmsis/2.0/cmsis_liteos2.c ****     }
 673:../../iot_link/os/liteos/cmsis/2.0/cmsis_liteos2.c **** 
 674:../../iot_link/os/liteos/cmsis/2.0/cmsis_liteos2.c ****     pstTaskCB = (LOS_TASK_CB *)thread_id;
 675:../../iot_link/os/liteos/cmsis/2.0/cmsis_liteos2.c ****     uwRet = LOS_TaskResume(pstTaskCB->uwTaskID);
 1433              		.loc 1 675 0
 1434 000a 0069     		ldr	r0, [r0, #16]
 1435              	.LVL117:
 1436 000c FFF7FEFF 		bl	LOS_TaskResume
 1437              	.LVL118:
 676:../../iot_link/os/liteos/cmsis/2.0/cmsis_liteos2.c **** 
 677:../../iot_link/os/liteos/cmsis/2.0/cmsis_liteos2.c ****     switch (uwRet)
 1438              		.loc 1 677 0
 1439 0010 0A4B     		ldr	r3, .L174+4
 1440 0012 9842     		cmp	r0, r3
 1441 0014 0DD0     		beq	.L173
 1442 0016 07D3     		bcc	.L169
 1443 0018 A0F10220 		sub	r0, r0, #33554944
 1444              	.LVL119:
 1445 001c 0938     		subs	r0, r0, #9
 1446              	.LVL120:
 1447 001e 0128     		cmp	r0, #1
 1448 0020 02D8     		bhi	.L169
 678:../../iot_link/os/liteos/cmsis/2.0/cmsis_liteos2.c ****     {
 679:../../iot_link/os/liteos/cmsis/2.0/cmsis_liteos2.c ****     case LOS_ERRNO_TSK_ID_INVALID:
 680:../../iot_link/os/liteos/cmsis/2.0/cmsis_liteos2.c ****         return osErrorParameter;
 681:../../iot_link/os/liteos/cmsis/2.0/cmsis_liteos2.c **** 
 682:../../iot_link/os/liteos/cmsis/2.0/cmsis_liteos2.c ****     case LOS_ERRNO_TSK_NOT_CREATED:
 683:../../iot_link/os/liteos/cmsis/2.0/cmsis_liteos2.c ****     case LOS_ERRNO_TSK_NOT_SUSPENDED:
 684:../../iot_link/os/liteos/cmsis/2.0/cmsis_liteos2.c ****         return osErrorResource;
 1449              		.loc 1 684 0
 1450 0022 6FF00200 		mvn	r0, #2
 1451              	.LVL121:
 1452              	.L167:
 685:../../iot_link/os/liteos/cmsis/2.0/cmsis_liteos2.c **** 
 686:../../iot_link/os/liteos/cmsis/2.0/cmsis_liteos2.c ****     default:
 687:../../iot_link/os/liteos/cmsis/2.0/cmsis_liteos2.c ****         return osOK;
ARM GAS  C:\Users\LuckyE\AppData\Local\Temp\ccfppLKa.s 			page 39


 688:../../iot_link/os/liteos/cmsis/2.0/cmsis_liteos2.c ****     }
 689:../../iot_link/os/liteos/cmsis/2.0/cmsis_liteos2.c **** 
 690:../../iot_link/os/liteos/cmsis/2.0/cmsis_liteos2.c **** }
 1453              		.loc 1 690 0
 1454 0026 08BD     		pop	{r3, pc}
 1455              	.LVL122:
 1456              	.L169:
 687:../../iot_link/os/liteos/cmsis/2.0/cmsis_liteos2.c ****     }
 1457              		.loc 1 687 0
 1458 0028 0020     		movs	r0, #0
 1459 002a FCE7     		b	.L167
 1460              	.LVL123:
 1461              	.L171:
 666:../../iot_link/os/liteos/cmsis/2.0/cmsis_liteos2.c ****     }
 1462              		.loc 1 666 0
 1463 002c 6FF00500 		mvn	r0, #5
 1464              	.LVL124:
 1465 0030 F9E7     		b	.L167
 1466              	.LVL125:
 1467              	.L173:
 680:../../iot_link/os/liteos/cmsis/2.0/cmsis_liteos2.c **** 
 1468              		.loc 1 680 0
 1469 0032 6FF00300 		mvn	r0, #3
 1470 0036 F6E7     		b	.L167
 1471              	.L175:
 1472              		.align	2
 1473              	.L174:
 1474 0038 00000000 		.word	g_vuwIntCount
 1475 003c 07020002 		.word	33554951
 1476              		.cfi_endproc
 1477              	.LFE313:
 1479              		.section	.text.osThreadTerminate,"ax",%progbits
 1480              		.align	1
 1481              		.global	osThreadTerminate
 1482              		.syntax unified
 1483              		.thumb
 1484              		.thumb_func
 1485              		.fpu fpv4-sp-d16
 1487              	osThreadTerminate:
 1488              	.LFB314:
 691:../../iot_link/os/liteos/cmsis/2.0/cmsis_liteos2.c **** 
 692:../../iot_link/os/liteos/cmsis/2.0/cmsis_liteos2.c **** 
 693:../../iot_link/os/liteos/cmsis/2.0/cmsis_liteos2.c **** osStatus_t osThreadTerminate (osThreadId_t thread_id)
 694:../../iot_link/os/liteos/cmsis/2.0/cmsis_liteos2.c **** {
 1489              		.loc 1 694 0
 1490              		.cfi_startproc
 1491              		@ args = 0, pretend = 0, frame = 0
 1492              		@ frame_needed = 0, uses_anonymous_args = 0
 1493              	.LVL126:
 1494 0000 08B5     		push	{r3, lr}
 1495              	.LCFI19:
 1496              		.cfi_def_cfa_offset 8
 1497              		.cfi_offset 3, -8
 1498              		.cfi_offset 14, -4
 695:../../iot_link/os/liteos/cmsis/2.0/cmsis_liteos2.c ****     UINT32 uwRet;
 696:../../iot_link/os/liteos/cmsis/2.0/cmsis_liteos2.c ****     LOS_TASK_CB *pstTaskCB = NULL;
 697:../../iot_link/os/liteos/cmsis/2.0/cmsis_liteos2.c **** 
ARM GAS  C:\Users\LuckyE\AppData\Local\Temp\ccfppLKa.s 			page 40


 698:../../iot_link/os/liteos/cmsis/2.0/cmsis_liteos2.c ****     if (OS_INT_ACTIVE)
 1499              		.loc 1 698 0
 1500 0002 0F4B     		ldr	r3, .L186
 1501 0004 1B68     		ldr	r3, [r3]
 1502 0006 BBB9     		cbnz	r3, .L181
 699:../../iot_link/os/liteos/cmsis/2.0/cmsis_liteos2.c ****     {
 700:../../iot_link/os/liteos/cmsis/2.0/cmsis_liteos2.c ****         return osErrorISR;
 701:../../iot_link/os/liteos/cmsis/2.0/cmsis_liteos2.c ****     }
 702:../../iot_link/os/liteos/cmsis/2.0/cmsis_liteos2.c **** 
 703:../../iot_link/os/liteos/cmsis/2.0/cmsis_liteos2.c ****     if (thread_id == NULL)
 1503              		.loc 1 703 0
 1504 0008 48B1     		cbz	r0, .L183
 1505              	.LVL127:
 704:../../iot_link/os/liteos/cmsis/2.0/cmsis_liteos2.c ****     {
 705:../../iot_link/os/liteos/cmsis/2.0/cmsis_liteos2.c ****         return osErrorParameter;
 706:../../iot_link/os/liteos/cmsis/2.0/cmsis_liteos2.c ****     }
 707:../../iot_link/os/liteos/cmsis/2.0/cmsis_liteos2.c **** 
 708:../../iot_link/os/liteos/cmsis/2.0/cmsis_liteos2.c ****     pstTaskCB = (LOS_TASK_CB *)thread_id;
 709:../../iot_link/os/liteos/cmsis/2.0/cmsis_liteos2.c ****     uwRet = LOS_TaskDelete(pstTaskCB->uwTaskID);
 1506              		.loc 1 709 0
 1507 000a 0069     		ldr	r0, [r0, #16]
 1508              	.LVL128:
 1509 000c FFF7FEFF 		bl	LOS_TaskDelete
 1510              	.LVL129:
 710:../../iot_link/os/liteos/cmsis/2.0/cmsis_liteos2.c **** 
 711:../../iot_link/os/liteos/cmsis/2.0/cmsis_liteos2.c ****     switch (uwRet)
 1511              		.loc 1 711 0
 1512 0010 0C4B     		ldr	r3, .L186+4
 1513 0012 9842     		cmp	r0, r3
 1514 0014 0BD0     		beq	.L179
 1515 0016 05D8     		bhi	.L180
 1516 0018 033B     		subs	r3, r3, #3
 1517              	.L185:
 1518 001a 9842     		cmp	r0, r3
 1519 001c 0AD1     		bne	.L178
 1520              	.LVL130:
 1521              	.L183:
 712:../../iot_link/os/liteos/cmsis/2.0/cmsis_liteos2.c ****     {
 713:../../iot_link/os/liteos/cmsis/2.0/cmsis_liteos2.c ****     case LOS_ERRNO_TSK_OPERATE_IDLE:
 714:../../iot_link/os/liteos/cmsis/2.0/cmsis_liteos2.c ****     case LOS_ERRNO_TSK_SUSPEND_SWTMR_NOT_ALLOWED:
 715:../../iot_link/os/liteos/cmsis/2.0/cmsis_liteos2.c ****     case LOS_ERRNO_TSK_ID_INVALID:
 716:../../iot_link/os/liteos/cmsis/2.0/cmsis_liteos2.c ****         return osErrorParameter;
 1522              		.loc 1 716 0
 1523 001e 6FF00300 		mvn	r0, #3
 1524 0022 06E0     		b	.L176
 1525              	.LVL131:
 1526              	.L180:
 711:../../iot_link/os/liteos/cmsis/2.0/cmsis_liteos2.c ****     {
 1527              		.loc 1 711 0
 1528 0024 084B     		ldr	r3, .L186+8
 1529 0026 9842     		cmp	r0, r3
 1530 0028 F9D0     		beq	.L183
 1531 002a 0D33     		adds	r3, r3, #13
 1532 002c F5E7     		b	.L185
 1533              	.L179:
 717:../../iot_link/os/liteos/cmsis/2.0/cmsis_liteos2.c **** 
 718:../../iot_link/os/liteos/cmsis/2.0/cmsis_liteos2.c ****     case LOS_ERRNO_TSK_NOT_CREATED:
ARM GAS  C:\Users\LuckyE\AppData\Local\Temp\ccfppLKa.s 			page 41


 719:../../iot_link/os/liteos/cmsis/2.0/cmsis_liteos2.c ****         return osErrorResource;
 1534              		.loc 1 719 0
 1535 002e 6FF00200 		mvn	r0, #2
 1536              	.LVL132:
 1537              	.L176:
 720:../../iot_link/os/liteos/cmsis/2.0/cmsis_liteos2.c **** 
 721:../../iot_link/os/liteos/cmsis/2.0/cmsis_liteos2.c ****     default:
 722:../../iot_link/os/liteos/cmsis/2.0/cmsis_liteos2.c ****         return osOK;
 723:../../iot_link/os/liteos/cmsis/2.0/cmsis_liteos2.c ****     }
 724:../../iot_link/os/liteos/cmsis/2.0/cmsis_liteos2.c **** }
 1538              		.loc 1 724 0
 1539 0032 08BD     		pop	{r3, pc}
 1540              	.LVL133:
 1541              	.L178:
 722:../../iot_link/os/liteos/cmsis/2.0/cmsis_liteos2.c ****     }
 1542              		.loc 1 722 0
 1543 0034 0020     		movs	r0, #0
 1544              	.LVL134:
 1545 0036 FCE7     		b	.L176
 1546              	.LVL135:
 1547              	.L181:
 700:../../iot_link/os/liteos/cmsis/2.0/cmsis_liteos2.c ****     }
 1548              		.loc 1 700 0
 1549 0038 6FF00500 		mvn	r0, #5
 1550              	.LVL136:
 1551 003c F9E7     		b	.L176
 1552              	.L187:
 1553 003e 00BF     		.align	2
 1554              	.L186:
 1555 0040 00000000 		.word	g_vuwIntCount
 1556 0044 0A020002 		.word	33554954
 1557 0048 14020002 		.word	33554964
 1558              		.cfi_endproc
 1559              	.LFE314:
 1561              		.section	.text.osThreadGetCount,"ax",%progbits
 1562              		.align	1
 1563              		.global	osThreadGetCount
 1564              		.syntax unified
 1565              		.thumb
 1566              		.thumb_func
 1567              		.fpu fpv4-sp-d16
 1569              	osThreadGetCount:
 1570              	.LFB315:
 725:../../iot_link/os/liteos/cmsis/2.0/cmsis_liteos2.c **** 
 726:../../iot_link/os/liteos/cmsis/2.0/cmsis_liteos2.c **** 
 727:../../iot_link/os/liteos/cmsis/2.0/cmsis_liteos2.c **** uint32_t osThreadGetCount (void)
 728:../../iot_link/os/liteos/cmsis/2.0/cmsis_liteos2.c **** {
 1571              		.loc 1 728 0
 1572              		.cfi_startproc
 1573              		@ args = 0, pretend = 0, frame = 0
 1574              		@ frame_needed = 0, uses_anonymous_args = 0
 1575              		@ link register save eliminated.
 1576              	.LVL137:
 729:../../iot_link/os/liteos/cmsis/2.0/cmsis_liteos2.c ****     uint32_t uwCount = 0;
 730:../../iot_link/os/liteos/cmsis/2.0/cmsis_liteos2.c ****     int index = 0;
 731:../../iot_link/os/liteos/cmsis/2.0/cmsis_liteos2.c **** 
 732:../../iot_link/os/liteos/cmsis/2.0/cmsis_liteos2.c ****     if (OS_INT_ACTIVE)
ARM GAS  C:\Users\LuckyE\AppData\Local\Temp\ccfppLKa.s 			page 42


 1577              		.loc 1 732 0
 1578 0000 084B     		ldr	r3, .L194
 1579 0002 1868     		ldr	r0, [r3]
 1580 0004 58B9     		cbnz	r0, .L192
 733:../../iot_link/os/liteos/cmsis/2.0/cmsis_liteos2.c ****     {
 734:../../iot_link/os/liteos/cmsis/2.0/cmsis_liteos2.c ****         return 0U;
 735:../../iot_link/os/liteos/cmsis/2.0/cmsis_liteos2.c ****     }
 736:../../iot_link/os/liteos/cmsis/2.0/cmsis_liteos2.c **** 
 737:../../iot_link/os/liteos/cmsis/2.0/cmsis_liteos2.c ****     for(; index <= LOSCFG_BASE_CORE_TSK_LIMIT; index++)
 738:../../iot_link/os/liteos/cmsis/2.0/cmsis_liteos2.c ****     {
 739:../../iot_link/os/liteos/cmsis/2.0/cmsis_liteos2.c ****         if (!((OS_TCB_FROM_TID(index))->usTaskStatus & OS_TASK_STATUS_UNUSED))
 1581              		.loc 1 739 0
 1582 0006 084B     		ldr	r3, .L194+4
 1583 0008 1B68     		ldr	r3, [r3]
 1584 000a 03F5A862 		add	r2, r3, #1344
 1585              	.LVL138:
 1586              	.L191:
 1587 000e 9988     		ldrh	r1, [r3, #4]
 1588 0010 5433     		adds	r3, r3, #84
 1589 0012 C907     		lsls	r1, r1, #31
 740:../../iot_link/os/liteos/cmsis/2.0/cmsis_liteos2.c ****         {
 741:../../iot_link/os/liteos/cmsis/2.0/cmsis_liteos2.c ****             uwCount++;
 1590              		.loc 1 741 0
 1591 0014 58BF     		it	pl
 1592 0016 0130     		addpl	r0, r0, #1
 1593              	.LVL139:
 737:../../iot_link/os/liteos/cmsis/2.0/cmsis_liteos2.c ****     {
 1594              		.loc 1 737 0
 1595 0018 9342     		cmp	r3, r2
 1596 001a F8D1     		bne	.L191
 1597 001c 7047     		bx	lr
 1598              	.LVL140:
 1599              	.L192:
 734:../../iot_link/os/liteos/cmsis/2.0/cmsis_liteos2.c ****     }
 1600              		.loc 1 734 0
 1601 001e 0020     		movs	r0, #0
 742:../../iot_link/os/liteos/cmsis/2.0/cmsis_liteos2.c ****         }
 743:../../iot_link/os/liteos/cmsis/2.0/cmsis_liteos2.c ****     }
 744:../../iot_link/os/liteos/cmsis/2.0/cmsis_liteos2.c **** 
 745:../../iot_link/os/liteos/cmsis/2.0/cmsis_liteos2.c ****     return uwCount;
 746:../../iot_link/os/liteos/cmsis/2.0/cmsis_liteos2.c **** }
 1602              		.loc 1 746 0
 1603 0020 7047     		bx	lr
 1604              	.L195:
 1605 0022 00BF     		.align	2
 1606              	.L194:
 1607 0024 00000000 		.word	g_vuwIntCount
 1608 0028 00000000 		.word	g_pstTaskCBArray
 1609              		.cfi_endproc
 1610              	.LFE315:
 1612              		.section	.text.osDelay,"ax",%progbits
 1613              		.align	1
 1614              		.global	osDelay
 1615              		.syntax unified
 1616              		.thumb
 1617              		.thumb_func
 1618              		.fpu fpv4-sp-d16
ARM GAS  C:\Users\LuckyE\AppData\Local\Temp\ccfppLKa.s 			page 43


 1620              	osDelay:
 1621              	.LFB316:
 747:../../iot_link/os/liteos/cmsis/2.0/cmsis_liteos2.c **** 
 748:../../iot_link/os/liteos/cmsis/2.0/cmsis_liteos2.c **** 
 749:../../iot_link/os/liteos/cmsis/2.0/cmsis_liteos2.c **** //  ==== Generic Wait Functions ====
 750:../../iot_link/os/liteos/cmsis/2.0/cmsis_liteos2.c **** 
 751:../../iot_link/os/liteos/cmsis/2.0/cmsis_liteos2.c **** osStatus_t osDelay (uint32_t ticks)
 752:../../iot_link/os/liteos/cmsis/2.0/cmsis_liteos2.c **** {
 1622              		.loc 1 752 0
 1623              		.cfi_startproc
 1624              		@ args = 0, pretend = 0, frame = 0
 1625              		@ frame_needed = 0, uses_anonymous_args = 0
 1626              	.LVL141:
 1627 0000 08B5     		push	{r3, lr}
 1628              	.LCFI20:
 1629              		.cfi_def_cfa_offset 8
 1630              		.cfi_offset 3, -8
 1631              		.cfi_offset 14, -4
 753:../../iot_link/os/liteos/cmsis/2.0/cmsis_liteos2.c ****     UINT32 uwRet = 0;
 754:../../iot_link/os/liteos/cmsis/2.0/cmsis_liteos2.c **** 
 755:../../iot_link/os/liteos/cmsis/2.0/cmsis_liteos2.c ****     uwRet = LOS_TaskDelay(ticks);
 1632              		.loc 1 755 0
 1633 0002 FFF7FEFF 		bl	LOS_TaskDelay
 1634              	.LVL142:
 756:../../iot_link/os/liteos/cmsis/2.0/cmsis_liteos2.c ****     if(uwRet == LOS_OK)
 1635              		.loc 1 756 0
 1636 0006 0030     		adds	r0, r0, #0
 1637 0008 18BF     		it	ne
 1638 000a 0120     		movne	r0, #1
 1639              	.LVL143:
 757:../../iot_link/os/liteos/cmsis/2.0/cmsis_liteos2.c ****     {
 758:../../iot_link/os/liteos/cmsis/2.0/cmsis_liteos2.c ****         return osOK;
 759:../../iot_link/os/liteos/cmsis/2.0/cmsis_liteos2.c ****     }
 760:../../iot_link/os/liteos/cmsis/2.0/cmsis_liteos2.c ****     else
 761:../../iot_link/os/liteos/cmsis/2.0/cmsis_liteos2.c ****     {
 762:../../iot_link/os/liteos/cmsis/2.0/cmsis_liteos2.c ****         return osError;
 763:../../iot_link/os/liteos/cmsis/2.0/cmsis_liteos2.c ****     }
 764:../../iot_link/os/liteos/cmsis/2.0/cmsis_liteos2.c **** }
 1640              		.loc 1 764 0
 1641 000c 4042     		negs	r0, r0
 1642 000e 08BD     		pop	{r3, pc}
 1643              		.cfi_endproc
 1644              	.LFE316:
 1646              		.section	.text.osDelayUntil,"ax",%progbits
 1647              		.align	1
 1648              		.global	osDelayUntil
 1649              		.syntax unified
 1650              		.thumb
 1651              		.thumb_func
 1652              		.fpu fpv4-sp-d16
 1654              	osDelayUntil:
 1655              	.LFB317:
 765:../../iot_link/os/liteos/cmsis/2.0/cmsis_liteos2.c **** 
 766:../../iot_link/os/liteos/cmsis/2.0/cmsis_liteos2.c **** 
 767:../../iot_link/os/liteos/cmsis/2.0/cmsis_liteos2.c **** osStatus_t osDelayUntil (uint64_t ticks)
 768:../../iot_link/os/liteos/cmsis/2.0/cmsis_liteos2.c **** {
 1656              		.loc 1 768 0
ARM GAS  C:\Users\LuckyE\AppData\Local\Temp\ccfppLKa.s 			page 44


 1657              		.cfi_startproc
 1658              		@ args = 0, pretend = 0, frame = 0
 1659              		@ frame_needed = 0, uses_anonymous_args = 0
 1660              	.LVL144:
 1661 0000 38B5     		push	{r3, r4, r5, lr}
 1662              	.LCFI21:
 1663              		.cfi_def_cfa_offset 16
 1664              		.cfi_offset 3, -16
 1665              		.cfi_offset 4, -12
 1666              		.cfi_offset 5, -8
 1667              		.cfi_offset 14, -4
 1668              		.loc 1 768 0
 1669 0002 0446     		mov	r4, r0
 1670 0004 0D46     		mov	r5, r1
 769:../../iot_link/os/liteos/cmsis/2.0/cmsis_liteos2.c ****     UINT32 uwRet;
 770:../../iot_link/os/liteos/cmsis/2.0/cmsis_liteos2.c ****     UINT32 uwTicks;
 771:../../iot_link/os/liteos/cmsis/2.0/cmsis_liteos2.c ****     UINT64 tickCount = osKernelGetTickCount();
 1671              		.loc 1 771 0
 1672 0006 FFF7FEFF 		bl	osKernelGetTickCount
 1673              	.LVL145:
 772:../../iot_link/os/liteos/cmsis/2.0/cmsis_liteos2.c **** 
 773:../../iot_link/os/liteos/cmsis/2.0/cmsis_liteos2.c ****     if(ticks < tickCount)
 1674              		.loc 1 773 0
 1675 000a 8D42     		cmp	r5, r1
 1676 000c 08BF     		it	eq
 1677 000e 8442     		cmpeq	r4, r0
 1678 0010 07D3     		bcc	.L199
 1679              	.LVL146:
 774:../../iot_link/os/liteos/cmsis/2.0/cmsis_liteos2.c ****     {
 775:../../iot_link/os/liteos/cmsis/2.0/cmsis_liteos2.c ****         return osError;
 776:../../iot_link/os/liteos/cmsis/2.0/cmsis_liteos2.c ****     }
 777:../../iot_link/os/liteos/cmsis/2.0/cmsis_liteos2.c **** 
 778:../../iot_link/os/liteos/cmsis/2.0/cmsis_liteos2.c ****     uwTicks = (UINT32)(ticks - tickCount);
 779:../../iot_link/os/liteos/cmsis/2.0/cmsis_liteos2.c **** 
 780:../../iot_link/os/liteos/cmsis/2.0/cmsis_liteos2.c ****     uwRet = LOS_TaskDelay(uwTicks);
 1680              		.loc 1 780 0
 1681 0012 201A     		subs	r0, r4, r0
 1682              	.LVL147:
 1683 0014 FFF7FEFF 		bl	LOS_TaskDelay
 1684              	.LVL148:
 781:../../iot_link/os/liteos/cmsis/2.0/cmsis_liteos2.c ****     if(uwRet == LOS_OK)
 1685              		.loc 1 781 0
 1686 0018 0030     		adds	r0, r0, #0
 1687 001a 18BF     		it	ne
 1688 001c 0120     		movne	r0, #1
 1689              	.LVL149:
 1690 001e 4042     		negs	r0, r0
 1691              	.L197:
 782:../../iot_link/os/liteos/cmsis/2.0/cmsis_liteos2.c ****     {
 783:../../iot_link/os/liteos/cmsis/2.0/cmsis_liteos2.c ****         return osOK;
 784:../../iot_link/os/liteos/cmsis/2.0/cmsis_liteos2.c ****     }
 785:../../iot_link/os/liteos/cmsis/2.0/cmsis_liteos2.c ****     else
 786:../../iot_link/os/liteos/cmsis/2.0/cmsis_liteos2.c ****     {
 787:../../iot_link/os/liteos/cmsis/2.0/cmsis_liteos2.c ****         return osError;
 788:../../iot_link/os/liteos/cmsis/2.0/cmsis_liteos2.c ****     }
 789:../../iot_link/os/liteos/cmsis/2.0/cmsis_liteos2.c **** }
 1692              		.loc 1 789 0
ARM GAS  C:\Users\LuckyE\AppData\Local\Temp\ccfppLKa.s 			page 45


 1693 0020 38BD     		pop	{r3, r4, r5, pc}
 1694              	.LVL150:
 1695              	.L199:
 775:../../iot_link/os/liteos/cmsis/2.0/cmsis_liteos2.c ****     }
 1696              		.loc 1 775 0
 1697 0022 4FF0FF30 		mov	r0, #-1
 1698              	.LVL151:
 1699 0026 FBE7     		b	.L197
 1700              		.cfi_endproc
 1701              	.LFE317:
 1703              		.section	.text.osEventFlagsNew,"ax",%progbits
 1704              		.align	1
 1705              		.global	osEventFlagsNew
 1706              		.syntax unified
 1707              		.thumb
 1708              		.thumb_func
 1709              		.fpu fpv4-sp-d16
 1711              	osEventFlagsNew:
 1712              	.LFB318:
 790:../../iot_link/os/liteos/cmsis/2.0/cmsis_liteos2.c **** 
 791:../../iot_link/os/liteos/cmsis/2.0/cmsis_liteos2.c **** //  ==== Timer Management Functions ====
 792:../../iot_link/os/liteos/cmsis/2.0/cmsis_liteos2.c **** #if (LOSCFG_BASE_CORE_SWTMR == YES)
 793:../../iot_link/os/liteos/cmsis/2.0/cmsis_liteos2.c **** osTimerId_t osTimerNew (osTimerFunc_t func, osTimerType_t type, void *argument, const osTimerAttr_t
 794:../../iot_link/os/liteos/cmsis/2.0/cmsis_liteos2.c **** {
 795:../../iot_link/os/liteos/cmsis/2.0/cmsis_liteos2.c ****     UNUSED(attr);
 796:../../iot_link/os/liteos/cmsis/2.0/cmsis_liteos2.c ****     UINT16 usSwTmrID;
 797:../../iot_link/os/liteos/cmsis/2.0/cmsis_liteos2.c ****     UINT8 mode;
 798:../../iot_link/os/liteos/cmsis/2.0/cmsis_liteos2.c **** 
 799:../../iot_link/os/liteos/cmsis/2.0/cmsis_liteos2.c ****     if ((OS_INT_ACTIVE) || (NULL == func) ||
 800:../../iot_link/os/liteos/cmsis/2.0/cmsis_liteos2.c ****             ((osTimerOnce != type) && (osTimerPeriodic != type)))
 801:../../iot_link/os/liteos/cmsis/2.0/cmsis_liteos2.c ****     {
 802:../../iot_link/os/liteos/cmsis/2.0/cmsis_liteos2.c ****         return (osTimerId_t)NULL;
 803:../../iot_link/os/liteos/cmsis/2.0/cmsis_liteos2.c ****     }
 804:../../iot_link/os/liteos/cmsis/2.0/cmsis_liteos2.c **** 
 805:../../iot_link/os/liteos/cmsis/2.0/cmsis_liteos2.c ****     if(osTimerOnce == type)
 806:../../iot_link/os/liteos/cmsis/2.0/cmsis_liteos2.c ****     {
 807:../../iot_link/os/liteos/cmsis/2.0/cmsis_liteos2.c ****         mode = LOS_SWTMR_MODE_NO_SELFDELETE;
 808:../../iot_link/os/liteos/cmsis/2.0/cmsis_liteos2.c ****     }
 809:../../iot_link/os/liteos/cmsis/2.0/cmsis_liteos2.c ****     else
 810:../../iot_link/os/liteos/cmsis/2.0/cmsis_liteos2.c ****     {
 811:../../iot_link/os/liteos/cmsis/2.0/cmsis_liteos2.c ****         mode = LOS_SWTMR_MODE_PERIOD;
 812:../../iot_link/os/liteos/cmsis/2.0/cmsis_liteos2.c ****     }
 813:../../iot_link/os/liteos/cmsis/2.0/cmsis_liteos2.c **** #if (LOSCFG_BASE_CORE_SWTMR_ALIGN == YES)
 814:../../iot_link/os/liteos/cmsis/2.0/cmsis_liteos2.c ****     if (LOS_OK != LOS_SwtmrCreate(1, mode, (SWTMR_PROC_FUNC)func, &usSwTmrID, (UINT32)argument, OS_
 815:../../iot_link/os/liteos/cmsis/2.0/cmsis_liteos2.c ****     {
 816:../../iot_link/os/liteos/cmsis/2.0/cmsis_liteos2.c ****         return (osTimerId_t)NULL;
 817:../../iot_link/os/liteos/cmsis/2.0/cmsis_liteos2.c ****     }
 818:../../iot_link/os/liteos/cmsis/2.0/cmsis_liteos2.c **** #else
 819:../../iot_link/os/liteos/cmsis/2.0/cmsis_liteos2.c ****     if (LOS_OK != LOS_SwtmrCreate(1, mode, (SWTMR_PROC_FUNC)func, &usSwTmrID, (UINT32)argument))
 820:../../iot_link/os/liteos/cmsis/2.0/cmsis_liteos2.c ****     {
 821:../../iot_link/os/liteos/cmsis/2.0/cmsis_liteos2.c ****         return (osTimerId_t)NULL;
 822:../../iot_link/os/liteos/cmsis/2.0/cmsis_liteos2.c ****     }
 823:../../iot_link/os/liteos/cmsis/2.0/cmsis_liteos2.c **** #endif
 824:../../iot_link/os/liteos/cmsis/2.0/cmsis_liteos2.c **** 
 825:../../iot_link/os/liteos/cmsis/2.0/cmsis_liteos2.c ****     return (osTimerId_t)OS_SWT_FROM_SID(usSwTmrID);
 826:../../iot_link/os/liteos/cmsis/2.0/cmsis_liteos2.c **** }
 827:../../iot_link/os/liteos/cmsis/2.0/cmsis_liteos2.c **** 
ARM GAS  C:\Users\LuckyE\AppData\Local\Temp\ccfppLKa.s 			page 46


 828:../../iot_link/os/liteos/cmsis/2.0/cmsis_liteos2.c **** 
 829:../../iot_link/os/liteos/cmsis/2.0/cmsis_liteos2.c **** osStatus_t osTimerStart (osTimerId_t timer_id, uint32_t ticks)
 830:../../iot_link/os/liteos/cmsis/2.0/cmsis_liteos2.c **** {
 831:../../iot_link/os/liteos/cmsis/2.0/cmsis_liteos2.c ****     UINT32 uwRet;
 832:../../iot_link/os/liteos/cmsis/2.0/cmsis_liteos2.c ****     SWTMR_CTRL_S *pstSwtmr;
 833:../../iot_link/os/liteos/cmsis/2.0/cmsis_liteos2.c **** 
 834:../../iot_link/os/liteos/cmsis/2.0/cmsis_liteos2.c ****     if ((0 == ticks) || (NULL == timer_id))
 835:../../iot_link/os/liteos/cmsis/2.0/cmsis_liteos2.c ****     {
 836:../../iot_link/os/liteos/cmsis/2.0/cmsis_liteos2.c ****         return osErrorParameter;
 837:../../iot_link/os/liteos/cmsis/2.0/cmsis_liteos2.c ****     }
 838:../../iot_link/os/liteos/cmsis/2.0/cmsis_liteos2.c **** 
 839:../../iot_link/os/liteos/cmsis/2.0/cmsis_liteos2.c ****     pstSwtmr = (SWTMR_CTRL_S *)timer_id;
 840:../../iot_link/os/liteos/cmsis/2.0/cmsis_liteos2.c ****     pstSwtmr->uwInterval = LOS_Tick2MS(ticks);
 841:../../iot_link/os/liteos/cmsis/2.0/cmsis_liteos2.c ****     //pstSwtmr->uwExpiry = LOS_Tick2MS(ticks);
 842:../../iot_link/os/liteos/cmsis/2.0/cmsis_liteos2.c ****     uwRet = LOS_SwtmrStart(pstSwtmr->usTimerID);
 843:../../iot_link/os/liteos/cmsis/2.0/cmsis_liteos2.c ****     if (LOS_OK == uwRet)
 844:../../iot_link/os/liteos/cmsis/2.0/cmsis_liteos2.c ****     {
 845:../../iot_link/os/liteos/cmsis/2.0/cmsis_liteos2.c ****         return osOK;
 846:../../iot_link/os/liteos/cmsis/2.0/cmsis_liteos2.c ****     }
 847:../../iot_link/os/liteos/cmsis/2.0/cmsis_liteos2.c ****     else if (LOS_ERRNO_SWTMR_ID_INVALID == uwRet)
 848:../../iot_link/os/liteos/cmsis/2.0/cmsis_liteos2.c ****     {
 849:../../iot_link/os/liteos/cmsis/2.0/cmsis_liteos2.c ****         return osErrorParameter;
 850:../../iot_link/os/liteos/cmsis/2.0/cmsis_liteos2.c ****     }
 851:../../iot_link/os/liteos/cmsis/2.0/cmsis_liteos2.c ****     else
 852:../../iot_link/os/liteos/cmsis/2.0/cmsis_liteos2.c ****     {
 853:../../iot_link/os/liteos/cmsis/2.0/cmsis_liteos2.c ****         return osErrorResource;
 854:../../iot_link/os/liteos/cmsis/2.0/cmsis_liteos2.c ****     }
 855:../../iot_link/os/liteos/cmsis/2.0/cmsis_liteos2.c **** }
 856:../../iot_link/os/liteos/cmsis/2.0/cmsis_liteos2.c **** 
 857:../../iot_link/os/liteos/cmsis/2.0/cmsis_liteos2.c **** 
 858:../../iot_link/os/liteos/cmsis/2.0/cmsis_liteos2.c **** const char *osTimerGetName(osTimerId_t timer_id)
 859:../../iot_link/os/liteos/cmsis/2.0/cmsis_liteos2.c **** {
 860:../../iot_link/os/liteos/cmsis/2.0/cmsis_liteos2.c ****     UNUSED(timer_id);
 861:../../iot_link/os/liteos/cmsis/2.0/cmsis_liteos2.c ****     return (const char *)NULL;
 862:../../iot_link/os/liteos/cmsis/2.0/cmsis_liteos2.c **** }
 863:../../iot_link/os/liteos/cmsis/2.0/cmsis_liteos2.c **** 
 864:../../iot_link/os/liteos/cmsis/2.0/cmsis_liteos2.c **** 
 865:../../iot_link/os/liteos/cmsis/2.0/cmsis_liteos2.c **** osStatus_t osTimerStop (osTimerId_t timer_id)
 866:../../iot_link/os/liteos/cmsis/2.0/cmsis_liteos2.c **** {
 867:../../iot_link/os/liteos/cmsis/2.0/cmsis_liteos2.c ****     UINT32 uwRet;
 868:../../iot_link/os/liteos/cmsis/2.0/cmsis_liteos2.c ****     SWTMR_CTRL_S *pstSwtmr = (SWTMR_CTRL_S *)timer_id;
 869:../../iot_link/os/liteos/cmsis/2.0/cmsis_liteos2.c **** 
 870:../../iot_link/os/liteos/cmsis/2.0/cmsis_liteos2.c ****     if (OS_INT_ACTIVE)
 871:../../iot_link/os/liteos/cmsis/2.0/cmsis_liteos2.c ****     {
 872:../../iot_link/os/liteos/cmsis/2.0/cmsis_liteos2.c ****         return osErrorISR;
 873:../../iot_link/os/liteos/cmsis/2.0/cmsis_liteos2.c ****     }
 874:../../iot_link/os/liteos/cmsis/2.0/cmsis_liteos2.c **** 
 875:../../iot_link/os/liteos/cmsis/2.0/cmsis_liteos2.c ****     if (NULL == pstSwtmr)
 876:../../iot_link/os/liteos/cmsis/2.0/cmsis_liteos2.c ****     {
 877:../../iot_link/os/liteos/cmsis/2.0/cmsis_liteos2.c ****         return osErrorParameter;
 878:../../iot_link/os/liteos/cmsis/2.0/cmsis_liteos2.c ****     }
 879:../../iot_link/os/liteos/cmsis/2.0/cmsis_liteos2.c **** 
 880:../../iot_link/os/liteos/cmsis/2.0/cmsis_liteos2.c ****     uwRet = LOS_SwtmrStop(pstSwtmr->usTimerID);
 881:../../iot_link/os/liteos/cmsis/2.0/cmsis_liteos2.c ****     if (LOS_OK == uwRet)
 882:../../iot_link/os/liteos/cmsis/2.0/cmsis_liteos2.c ****     {
 883:../../iot_link/os/liteos/cmsis/2.0/cmsis_liteos2.c ****         return osOK;
 884:../../iot_link/os/liteos/cmsis/2.0/cmsis_liteos2.c ****     }
ARM GAS  C:\Users\LuckyE\AppData\Local\Temp\ccfppLKa.s 			page 47


 885:../../iot_link/os/liteos/cmsis/2.0/cmsis_liteos2.c ****     else if (LOS_ERRNO_SWTMR_ID_INVALID == uwRet)
 886:../../iot_link/os/liteos/cmsis/2.0/cmsis_liteos2.c ****     {
 887:../../iot_link/os/liteos/cmsis/2.0/cmsis_liteos2.c ****         return osErrorParameter;
 888:../../iot_link/os/liteos/cmsis/2.0/cmsis_liteos2.c ****     }
 889:../../iot_link/os/liteos/cmsis/2.0/cmsis_liteos2.c ****     else
 890:../../iot_link/os/liteos/cmsis/2.0/cmsis_liteos2.c ****     {
 891:../../iot_link/os/liteos/cmsis/2.0/cmsis_liteos2.c ****         return osErrorResource;
 892:../../iot_link/os/liteos/cmsis/2.0/cmsis_liteos2.c ****     }
 893:../../iot_link/os/liteos/cmsis/2.0/cmsis_liteos2.c **** }
 894:../../iot_link/os/liteos/cmsis/2.0/cmsis_liteos2.c **** 
 895:../../iot_link/os/liteos/cmsis/2.0/cmsis_liteos2.c **** 
 896:../../iot_link/os/liteos/cmsis/2.0/cmsis_liteos2.c **** uint32_t osTimerIsRunning (osTimerId_t timer_id)
 897:../../iot_link/os/liteos/cmsis/2.0/cmsis_liteos2.c **** {
 898:../../iot_link/os/liteos/cmsis/2.0/cmsis_liteos2.c ****     if ((OS_INT_ACTIVE) || (NULL == timer_id))
 899:../../iot_link/os/liteos/cmsis/2.0/cmsis_liteos2.c ****     {
 900:../../iot_link/os/liteos/cmsis/2.0/cmsis_liteos2.c ****         return 0;
 901:../../iot_link/os/liteos/cmsis/2.0/cmsis_liteos2.c ****     }
 902:../../iot_link/os/liteos/cmsis/2.0/cmsis_liteos2.c **** 
 903:../../iot_link/os/liteos/cmsis/2.0/cmsis_liteos2.c ****     return (OS_SWTMR_STATUS_TICKING == ((SWTMR_CTRL_S *)timer_id)->ucState);
 904:../../iot_link/os/liteos/cmsis/2.0/cmsis_liteos2.c **** }
 905:../../iot_link/os/liteos/cmsis/2.0/cmsis_liteos2.c **** 
 906:../../iot_link/os/liteos/cmsis/2.0/cmsis_liteos2.c **** 
 907:../../iot_link/os/liteos/cmsis/2.0/cmsis_liteos2.c **** osStatus_t osTimerDelete (osTimerId_t timer_id)
 908:../../iot_link/os/liteos/cmsis/2.0/cmsis_liteos2.c **** {
 909:../../iot_link/os/liteos/cmsis/2.0/cmsis_liteos2.c ****     UINT32 uwRet;
 910:../../iot_link/os/liteos/cmsis/2.0/cmsis_liteos2.c ****     SWTMR_CTRL_S  *pstSwtmr = (SWTMR_CTRL_S *)timer_id;
 911:../../iot_link/os/liteos/cmsis/2.0/cmsis_liteos2.c **** 
 912:../../iot_link/os/liteos/cmsis/2.0/cmsis_liteos2.c ****     if (OS_INT_ACTIVE)
 913:../../iot_link/os/liteos/cmsis/2.0/cmsis_liteos2.c ****     {
 914:../../iot_link/os/liteos/cmsis/2.0/cmsis_liteos2.c ****         return osErrorISR;
 915:../../iot_link/os/liteos/cmsis/2.0/cmsis_liteos2.c ****     }
 916:../../iot_link/os/liteos/cmsis/2.0/cmsis_liteos2.c **** 
 917:../../iot_link/os/liteos/cmsis/2.0/cmsis_liteos2.c ****     if (NULL == pstSwtmr)
 918:../../iot_link/os/liteos/cmsis/2.0/cmsis_liteos2.c ****     {
 919:../../iot_link/os/liteos/cmsis/2.0/cmsis_liteos2.c ****         return osErrorParameter;
 920:../../iot_link/os/liteos/cmsis/2.0/cmsis_liteos2.c ****     }
 921:../../iot_link/os/liteos/cmsis/2.0/cmsis_liteos2.c **** 
 922:../../iot_link/os/liteos/cmsis/2.0/cmsis_liteos2.c ****     uwRet = LOS_SwtmrDelete(pstSwtmr->usTimerID);
 923:../../iot_link/os/liteos/cmsis/2.0/cmsis_liteos2.c ****     if (LOS_OK == uwRet)
 924:../../iot_link/os/liteos/cmsis/2.0/cmsis_liteos2.c ****     {
 925:../../iot_link/os/liteos/cmsis/2.0/cmsis_liteos2.c ****         return osOK;
 926:../../iot_link/os/liteos/cmsis/2.0/cmsis_liteos2.c ****     }
 927:../../iot_link/os/liteos/cmsis/2.0/cmsis_liteos2.c ****     else if (LOS_ERRNO_SWTMR_ID_INVALID == uwRet)
 928:../../iot_link/os/liteos/cmsis/2.0/cmsis_liteos2.c ****     {
 929:../../iot_link/os/liteos/cmsis/2.0/cmsis_liteos2.c ****         return osErrorParameter;
 930:../../iot_link/os/liteos/cmsis/2.0/cmsis_liteos2.c ****     }
 931:../../iot_link/os/liteos/cmsis/2.0/cmsis_liteos2.c ****     else
 932:../../iot_link/os/liteos/cmsis/2.0/cmsis_liteos2.c ****     {
 933:../../iot_link/os/liteos/cmsis/2.0/cmsis_liteos2.c ****         return osErrorResource;
 934:../../iot_link/os/liteos/cmsis/2.0/cmsis_liteos2.c ****     }
 935:../../iot_link/os/liteos/cmsis/2.0/cmsis_liteos2.c **** }
 936:../../iot_link/os/liteos/cmsis/2.0/cmsis_liteos2.c **** #endif
 937:../../iot_link/os/liteos/cmsis/2.0/cmsis_liteos2.c **** 
 938:../../iot_link/os/liteos/cmsis/2.0/cmsis_liteos2.c **** osEventFlagsId_t osEventFlagsNew (const osEventFlagsAttr_t *attr)
 939:../../iot_link/os/liteos/cmsis/2.0/cmsis_liteos2.c **** {
 1713              		.loc 1 939 0
 1714              		.cfi_startproc
ARM GAS  C:\Users\LuckyE\AppData\Local\Temp\ccfppLKa.s 			page 48


 1715              		@ args = 0, pretend = 0, frame = 0
 1716              		@ frame_needed = 0, uses_anonymous_args = 0
 1717              	.LVL152:
 940:../../iot_link/os/liteos/cmsis/2.0/cmsis_liteos2.c ****     PEVENT_CB_S pstEventCB = NULL;
 941:../../iot_link/os/liteos/cmsis/2.0/cmsis_liteos2.c ****     UINT32 uwRet;
 942:../../iot_link/os/liteos/cmsis/2.0/cmsis_liteos2.c **** 
 943:../../iot_link/os/liteos/cmsis/2.0/cmsis_liteos2.c ****     UNUSED(attr);
 944:../../iot_link/os/liteos/cmsis/2.0/cmsis_liteos2.c **** 
 945:../../iot_link/os/liteos/cmsis/2.0/cmsis_liteos2.c ****     if (OS_INT_ACTIVE)
 1718              		.loc 1 945 0
 1719 0000 0A4B     		ldr	r3, .L207
 1720 0002 1B68     		ldr	r3, [r3]
 939:../../iot_link/os/liteos/cmsis/2.0/cmsis_liteos2.c ****     PEVENT_CB_S pstEventCB = NULL;
 1721              		.loc 1 939 0
 1722 0004 10B5     		push	{r4, lr}
 1723              	.LCFI22:
 1724              		.cfi_def_cfa_offset 8
 1725              		.cfi_offset 4, -8
 1726              		.cfi_offset 14, -4
 1727              		.loc 1 945 0
 1728 0006 13B1     		cbz	r3, .L201
 1729              	.LVL153:
 1730              	.L203:
 946:../../iot_link/os/liteos/cmsis/2.0/cmsis_liteos2.c ****     {
 947:../../iot_link/os/liteos/cmsis/2.0/cmsis_liteos2.c ****         return (osEventFlagsId_t)NULL;
 1731              		.loc 1 947 0
 1732 0008 0024     		movs	r4, #0
 1733              	.L200:
 948:../../iot_link/os/liteos/cmsis/2.0/cmsis_liteos2.c ****     }
 949:../../iot_link/os/liteos/cmsis/2.0/cmsis_liteos2.c **** 
 950:../../iot_link/os/liteos/cmsis/2.0/cmsis_liteos2.c ****     pstEventCB = (PEVENT_CB_S)LOS_MemAlloc(m_aucSysMem0, sizeof(EVENT_CB_S));
 951:../../iot_link/os/liteos/cmsis/2.0/cmsis_liteos2.c ****     if(pstEventCB == NULL )
 952:../../iot_link/os/liteos/cmsis/2.0/cmsis_liteos2.c ****     {
 953:../../iot_link/os/liteos/cmsis/2.0/cmsis_liteos2.c ****         return (osEventFlagsId_t)NULL;
 954:../../iot_link/os/liteos/cmsis/2.0/cmsis_liteos2.c ****     }
 955:../../iot_link/os/liteos/cmsis/2.0/cmsis_liteos2.c **** 
 956:../../iot_link/os/liteos/cmsis/2.0/cmsis_liteos2.c ****     uwRet = LOS_EventInit(pstEventCB);
 957:../../iot_link/os/liteos/cmsis/2.0/cmsis_liteos2.c ****     if (uwRet == LOS_ERRNO_EVENT_PTR_NULL)
 958:../../iot_link/os/liteos/cmsis/2.0/cmsis_liteos2.c ****     {
 959:../../iot_link/os/liteos/cmsis/2.0/cmsis_liteos2.c ****         return (osEventFlagsId_t)NULL;
 960:../../iot_link/os/liteos/cmsis/2.0/cmsis_liteos2.c ****     }
 961:../../iot_link/os/liteos/cmsis/2.0/cmsis_liteos2.c ****     else
 962:../../iot_link/os/liteos/cmsis/2.0/cmsis_liteos2.c ****     {
 963:../../iot_link/os/liteos/cmsis/2.0/cmsis_liteos2.c ****         return (osEventFlagsId_t)pstEventCB;
 964:../../iot_link/os/liteos/cmsis/2.0/cmsis_liteos2.c ****     }
 965:../../iot_link/os/liteos/cmsis/2.0/cmsis_liteos2.c **** }
 1734              		.loc 1 965 0
 1735 000a 2046     		mov	r0, r4
 1736 000c 10BD     		pop	{r4, pc}
 1737              	.LVL154:
 1738              	.L201:
 950:../../iot_link/os/liteos/cmsis/2.0/cmsis_liteos2.c ****     if(pstEventCB == NULL )
 1739              		.loc 1 950 0
 1740 000e 084B     		ldr	r3, .L207+4
 1741 0010 0C21     		movs	r1, #12
 1742 0012 1868     		ldr	r0, [r3]
 1743              	.LVL155:
ARM GAS  C:\Users\LuckyE\AppData\Local\Temp\ccfppLKa.s 			page 49


 1744 0014 FFF7FEFF 		bl	LOS_MemAlloc
 1745              	.LVL156:
 951:../../iot_link/os/liteos/cmsis/2.0/cmsis_liteos2.c ****     {
 1746              		.loc 1 951 0
 1747 0018 0446     		mov	r4, r0
 1748 001a 0028     		cmp	r0, #0
 1749 001c F4D0     		beq	.L203
 956:../../iot_link/os/liteos/cmsis/2.0/cmsis_liteos2.c ****     if (uwRet == LOS_ERRNO_EVENT_PTR_NULL)
 1750              		.loc 1 956 0
 1751 001e FFF7FEFF 		bl	LOS_EventInit
 1752              	.LVL157:
 957:../../iot_link/os/liteos/cmsis/2.0/cmsis_liteos2.c ****     {
 1753              		.loc 1 957 0
 1754 0022 044B     		ldr	r3, .L207+8
 1755 0024 9842     		cmp	r0, r3
 1756 0026 F0D1     		bne	.L200
 1757 0028 EEE7     		b	.L203
 1758              	.L208:
 1759 002a 00BF     		.align	2
 1760              	.L207:
 1761 002c 00000000 		.word	g_vuwIntCount
 1762 0030 00000000 		.word	m_aucSysMem0
 1763 0034 061C0002 		.word	33561606
 1764              		.cfi_endproc
 1765              	.LFE318:
 1767              		.section	.text.osEventFlagsGetName,"ax",%progbits
 1768              		.align	1
 1769              		.global	osEventFlagsGetName
 1770              		.syntax unified
 1771              		.thumb
 1772              		.thumb_func
 1773              		.fpu fpv4-sp-d16
 1775              	osEventFlagsGetName:
 1776              	.LFB319:
 966:../../iot_link/os/liteos/cmsis/2.0/cmsis_liteos2.c **** 
 967:../../iot_link/os/liteos/cmsis/2.0/cmsis_liteos2.c **** 
 968:../../iot_link/os/liteos/cmsis/2.0/cmsis_liteos2.c **** const char *osEventFlagsGetName (osEventFlagsId_t ef_id)
 969:../../iot_link/os/liteos/cmsis/2.0/cmsis_liteos2.c **** {
 1777              		.loc 1 969 0
 1778              		.cfi_startproc
 1779              		@ args = 0, pretend = 0, frame = 0
 1780              		@ frame_needed = 0, uses_anonymous_args = 0
 1781              		@ link register save eliminated.
 1782              	.LVL158:
 970:../../iot_link/os/liteos/cmsis/2.0/cmsis_liteos2.c ****     UNUSED(ef_id);
 971:../../iot_link/os/liteos/cmsis/2.0/cmsis_liteos2.c **** 
 972:../../iot_link/os/liteos/cmsis/2.0/cmsis_liteos2.c ****     if (OS_INT_ACTIVE)
 973:../../iot_link/os/liteos/cmsis/2.0/cmsis_liteos2.c ****     {
 974:../../iot_link/os/liteos/cmsis/2.0/cmsis_liteos2.c ****         return (const char *)NULL;
 975:../../iot_link/os/liteos/cmsis/2.0/cmsis_liteos2.c ****     }
 976:../../iot_link/os/liteos/cmsis/2.0/cmsis_liteos2.c **** 
 977:../../iot_link/os/liteos/cmsis/2.0/cmsis_liteos2.c ****     return (const char *)NULL;
 978:../../iot_link/os/liteos/cmsis/2.0/cmsis_liteos2.c **** }
 1783              		.loc 1 978 0
 1784 0000 0020     		movs	r0, #0
 1785              	.LVL159:
 1786 0002 7047     		bx	lr
ARM GAS  C:\Users\LuckyE\AppData\Local\Temp\ccfppLKa.s 			page 50


 1787              		.cfi_endproc
 1788              	.LFE319:
 1790              		.section	.text.osEventFlagsSet,"ax",%progbits
 1791              		.align	1
 1792              		.global	osEventFlagsSet
 1793              		.syntax unified
 1794              		.thumb
 1795              		.thumb_func
 1796              		.fpu fpv4-sp-d16
 1798              	osEventFlagsSet:
 1799              	.LFB320:
 979:../../iot_link/os/liteos/cmsis/2.0/cmsis_liteos2.c **** 
 980:../../iot_link/os/liteos/cmsis/2.0/cmsis_liteos2.c **** 
 981:../../iot_link/os/liteos/cmsis/2.0/cmsis_liteos2.c **** uint32_t osEventFlagsSet (osEventFlagsId_t ef_id, uint32_t flags)
 982:../../iot_link/os/liteos/cmsis/2.0/cmsis_liteos2.c **** {
 1800              		.loc 1 982 0
 1801              		.cfi_startproc
 1802              		@ args = 0, pretend = 0, frame = 0
 1803              		@ frame_needed = 0, uses_anonymous_args = 0
 1804              	.LVL160:
 1805 0000 10B5     		push	{r4, lr}
 1806              	.LCFI23:
 1807              		.cfi_def_cfa_offset 8
 1808              		.cfi_offset 4, -8
 1809              		.cfi_offset 14, -4
 1810              		.loc 1 982 0
 1811 0002 0446     		mov	r4, r0
 1812              	.LVL161:
 983:../../iot_link/os/liteos/cmsis/2.0/cmsis_liteos2.c ****     PEVENT_CB_S pstEventCB = (PEVENT_CB_S)ef_id;
 984:../../iot_link/os/liteos/cmsis/2.0/cmsis_liteos2.c ****     UINT32 uwRet;
 985:../../iot_link/os/liteos/cmsis/2.0/cmsis_liteos2.c ****     uint32_t rflags;
 986:../../iot_link/os/liteos/cmsis/2.0/cmsis_liteos2.c **** 
 987:../../iot_link/os/liteos/cmsis/2.0/cmsis_liteos2.c ****     uwRet = LOS_EventWrite(pstEventCB, (UINT32)flags);
 1813              		.loc 1 987 0
 1814 0004 FFF7FEFF 		bl	LOS_EventWrite
 1815              	.LVL162:
 988:../../iot_link/os/liteos/cmsis/2.0/cmsis_liteos2.c ****     if (uwRet != LOS_OK)
 1816              		.loc 1 988 0
 1817 0008 08B9     		cbnz	r0, .L212
 989:../../iot_link/os/liteos/cmsis/2.0/cmsis_liteos2.c ****     {
 990:../../iot_link/os/liteos/cmsis/2.0/cmsis_liteos2.c ****         return (uint32_t)osFlagsErrorParameter;
 991:../../iot_link/os/liteos/cmsis/2.0/cmsis_liteos2.c ****     }
 992:../../iot_link/os/liteos/cmsis/2.0/cmsis_liteos2.c ****     else
 993:../../iot_link/os/liteos/cmsis/2.0/cmsis_liteos2.c ****     {
 994:../../iot_link/os/liteos/cmsis/2.0/cmsis_liteos2.c ****         rflags = pstEventCB->uwEventID;
 1818              		.loc 1 994 0
 1819 000a 2068     		ldr	r0, [r4]
 1820              	.LVL163:
 1821              	.L210:
 995:../../iot_link/os/liteos/cmsis/2.0/cmsis_liteos2.c ****         return rflags;
 996:../../iot_link/os/liteos/cmsis/2.0/cmsis_liteos2.c ****     }
 997:../../iot_link/os/liteos/cmsis/2.0/cmsis_liteos2.c **** }
 1822              		.loc 1 997 0
 1823 000c 10BD     		pop	{r4, pc}
 1824              	.LVL164:
 1825              	.L212:
 990:../../iot_link/os/liteos/cmsis/2.0/cmsis_liteos2.c ****     }
ARM GAS  C:\Users\LuckyE\AppData\Local\Temp\ccfppLKa.s 			page 51


 1826              		.loc 1 990 0
 1827 000e 6FF00300 		mvn	r0, #3
 1828              	.LVL165:
 1829 0012 FBE7     		b	.L210
 1830              		.cfi_endproc
 1831              	.LFE320:
 1833              		.section	.text.osEventFlagsClear,"ax",%progbits
 1834              		.align	1
 1835              		.global	osEventFlagsClear
 1836              		.syntax unified
 1837              		.thumb
 1838              		.thumb_func
 1839              		.fpu fpv4-sp-d16
 1841              	osEventFlagsClear:
 1842              	.LFB321:
 998:../../iot_link/os/liteos/cmsis/2.0/cmsis_liteos2.c **** 
 999:../../iot_link/os/liteos/cmsis/2.0/cmsis_liteos2.c **** 
1000:../../iot_link/os/liteos/cmsis/2.0/cmsis_liteos2.c **** uint32_t osEventFlagsClear (osEventFlagsId_t ef_id, uint32_t flags)
1001:../../iot_link/os/liteos/cmsis/2.0/cmsis_liteos2.c **** {
 1843              		.loc 1 1001 0
 1844              		.cfi_startproc
 1845              		@ args = 0, pretend = 0, frame = 0
 1846              		@ frame_needed = 0, uses_anonymous_args = 0
 1847              	.LVL166:
 1848 0000 F8B5     		push	{r3, r4, r5, r6, r7, lr}
 1849              	.LCFI24:
 1850              		.cfi_def_cfa_offset 24
 1851              		.cfi_offset 3, -24
 1852              		.cfi_offset 4, -20
 1853              		.cfi_offset 5, -16
 1854              		.cfi_offset 6, -12
 1855              		.cfi_offset 7, -8
 1856              		.cfi_offset 14, -4
 1857              		.loc 1 1001 0
 1858 0002 0F46     		mov	r7, r1
1002:../../iot_link/os/liteos/cmsis/2.0/cmsis_liteos2.c ****     PEVENT_CB_S pstEventCB = (PEVENT_CB_S)ef_id;
1003:../../iot_link/os/liteos/cmsis/2.0/cmsis_liteos2.c ****     UINTPTR uwIntSave;
1004:../../iot_link/os/liteos/cmsis/2.0/cmsis_liteos2.c ****     uint32_t rflags;
1005:../../iot_link/os/liteos/cmsis/2.0/cmsis_liteos2.c ****     UINT32 uwRet;
1006:../../iot_link/os/liteos/cmsis/2.0/cmsis_liteos2.c **** 
1007:../../iot_link/os/liteos/cmsis/2.0/cmsis_liteos2.c ****     if (pstEventCB == NULL)
 1859              		.loc 1 1007 0
 1860 0004 0446     		mov	r4, r0
 1861 0006 18B9     		cbnz	r0, .L214
 1862              	.LVL167:
 1863              	.L216:
1008:../../iot_link/os/liteos/cmsis/2.0/cmsis_liteos2.c ****     {
1009:../../iot_link/os/liteos/cmsis/2.0/cmsis_liteos2.c ****         return (uint32_t)osFlagsErrorParameter;
 1864              		.loc 1 1009 0
 1865 0008 6FF00305 		mvn	r5, #3
 1866              	.L213:
1010:../../iot_link/os/liteos/cmsis/2.0/cmsis_liteos2.c ****     }
1011:../../iot_link/os/liteos/cmsis/2.0/cmsis_liteos2.c **** 
1012:../../iot_link/os/liteos/cmsis/2.0/cmsis_liteos2.c ****     uwIntSave = LOS_IntLock();
1013:../../iot_link/os/liteos/cmsis/2.0/cmsis_liteos2.c ****     rflags = pstEventCB->uwEventID;
1014:../../iot_link/os/liteos/cmsis/2.0/cmsis_liteos2.c **** 
1015:../../iot_link/os/liteos/cmsis/2.0/cmsis_liteos2.c ****     uwRet = LOS_EventClear(pstEventCB, ~flags);
ARM GAS  C:\Users\LuckyE\AppData\Local\Temp\ccfppLKa.s 			page 52


1016:../../iot_link/os/liteos/cmsis/2.0/cmsis_liteos2.c ****     LOS_IntRestore(uwIntSave);
1017:../../iot_link/os/liteos/cmsis/2.0/cmsis_liteos2.c ****     if (uwRet !=  LOS_OK)
1018:../../iot_link/os/liteos/cmsis/2.0/cmsis_liteos2.c ****     {
1019:../../iot_link/os/liteos/cmsis/2.0/cmsis_liteos2.c ****         return (uint32_t)osFlagsErrorParameter;
1020:../../iot_link/os/liteos/cmsis/2.0/cmsis_liteos2.c ****     }
1021:../../iot_link/os/liteos/cmsis/2.0/cmsis_liteos2.c ****     else
1022:../../iot_link/os/liteos/cmsis/2.0/cmsis_liteos2.c ****     {
1023:../../iot_link/os/liteos/cmsis/2.0/cmsis_liteos2.c ****         return rflags;
1024:../../iot_link/os/liteos/cmsis/2.0/cmsis_liteos2.c ****     }
1025:../../iot_link/os/liteos/cmsis/2.0/cmsis_liteos2.c **** }
 1867              		.loc 1 1025 0
 1868 000c 2846     		mov	r0, r5
 1869 000e F8BD     		pop	{r3, r4, r5, r6, r7, pc}
 1870              	.LVL168:
 1871              	.L214:
1012:../../iot_link/os/liteos/cmsis/2.0/cmsis_liteos2.c ****     rflags = pstEventCB->uwEventID;
 1872              		.loc 1 1012 0
 1873 0010 FFF7FEFF 		bl	LOS_IntLock
 1874              	.LVL169:
1015:../../iot_link/os/liteos/cmsis/2.0/cmsis_liteos2.c ****     LOS_IntRestore(uwIntSave);
 1875              		.loc 1 1015 0
 1876 0014 F943     		mvns	r1, r7
1012:../../iot_link/os/liteos/cmsis/2.0/cmsis_liteos2.c ****     rflags = pstEventCB->uwEventID;
 1877              		.loc 1 1012 0
 1878 0016 0646     		mov	r6, r0
 1879              	.LVL170:
1015:../../iot_link/os/liteos/cmsis/2.0/cmsis_liteos2.c ****     LOS_IntRestore(uwIntSave);
 1880              		.loc 1 1015 0
 1881 0018 2046     		mov	r0, r4
 1882              	.LVL171:
1013:../../iot_link/os/liteos/cmsis/2.0/cmsis_liteos2.c **** 
 1883              		.loc 1 1013 0
 1884 001a 2568     		ldr	r5, [r4]
 1885              	.LVL172:
1015:../../iot_link/os/liteos/cmsis/2.0/cmsis_liteos2.c ****     LOS_IntRestore(uwIntSave);
 1886              		.loc 1 1015 0
 1887 001c FFF7FEFF 		bl	LOS_EventClear
 1888              	.LVL173:
 1889 0020 0446     		mov	r4, r0
 1890              	.LVL174:
1016:../../iot_link/os/liteos/cmsis/2.0/cmsis_liteos2.c ****     if (uwRet !=  LOS_OK)
 1891              		.loc 1 1016 0
 1892 0022 3046     		mov	r0, r6
 1893              	.LVL175:
 1894 0024 FFF7FEFF 		bl	LOS_IntRestore
 1895              	.LVL176:
1017:../../iot_link/os/liteos/cmsis/2.0/cmsis_liteos2.c ****     {
 1896              		.loc 1 1017 0
 1897 0028 002C     		cmp	r4, #0
 1898 002a EFD0     		beq	.L213
 1899 002c ECE7     		b	.L216
 1900              		.cfi_endproc
 1901              	.LFE321:
 1903              		.section	.text.osEventFlagsGet,"ax",%progbits
 1904              		.align	1
 1905              		.global	osEventFlagsGet
 1906              		.syntax unified
ARM GAS  C:\Users\LuckyE\AppData\Local\Temp\ccfppLKa.s 			page 53


 1907              		.thumb
 1908              		.thumb_func
 1909              		.fpu fpv4-sp-d16
 1911              	osEventFlagsGet:
 1912              	.LFB322:
1026:../../iot_link/os/liteos/cmsis/2.0/cmsis_liteos2.c **** 
1027:../../iot_link/os/liteos/cmsis/2.0/cmsis_liteos2.c **** 
1028:../../iot_link/os/liteos/cmsis/2.0/cmsis_liteos2.c **** uint32_t osEventFlagsGet (osEventFlagsId_t ef_id)
1029:../../iot_link/os/liteos/cmsis/2.0/cmsis_liteos2.c **** {
 1913              		.loc 1 1029 0
 1914              		.cfi_startproc
 1915              		@ args = 0, pretend = 0, frame = 0
 1916              		@ frame_needed = 0, uses_anonymous_args = 0
 1917              	.LVL177:
 1918 0000 10B5     		push	{r4, lr}
 1919              	.LCFI25:
 1920              		.cfi_def_cfa_offset 8
 1921              		.cfi_offset 4, -8
 1922              		.cfi_offset 14, -4
1030:../../iot_link/os/liteos/cmsis/2.0/cmsis_liteos2.c ****     PEVENT_CB_S pstEventCB = (PEVENT_CB_S)ef_id;
1031:../../iot_link/os/liteos/cmsis/2.0/cmsis_liteos2.c ****     UINTPTR uwIntSave;
1032:../../iot_link/os/liteos/cmsis/2.0/cmsis_liteos2.c ****     uint32_t rflags;
1033:../../iot_link/os/liteos/cmsis/2.0/cmsis_liteos2.c **** 
1034:../../iot_link/os/liteos/cmsis/2.0/cmsis_liteos2.c ****     if (pstEventCB == NULL)
 1923              		.loc 1 1034 0
 1924 0002 0446     		mov	r4, r0
 1925 0004 30B1     		cbz	r0, .L219
1035:../../iot_link/os/liteos/cmsis/2.0/cmsis_liteos2.c ****     {
1036:../../iot_link/os/liteos/cmsis/2.0/cmsis_liteos2.c ****         return (uint32_t)osFlagsErrorParameter;
1037:../../iot_link/os/liteos/cmsis/2.0/cmsis_liteos2.c ****     }
1038:../../iot_link/os/liteos/cmsis/2.0/cmsis_liteos2.c **** 
1039:../../iot_link/os/liteos/cmsis/2.0/cmsis_liteos2.c ****     uwIntSave = LOS_IntLock();
 1926              		.loc 1 1039 0
 1927 0006 FFF7FEFF 		bl	LOS_IntLock
 1928              	.LVL178:
1040:../../iot_link/os/liteos/cmsis/2.0/cmsis_liteos2.c ****     rflags = pstEventCB->uwEventID;
 1929              		.loc 1 1040 0
 1930 000a 2468     		ldr	r4, [r4]
 1931              	.LVL179:
1041:../../iot_link/os/liteos/cmsis/2.0/cmsis_liteos2.c ****     LOS_IntRestore(uwIntSave);
 1932              		.loc 1 1041 0
 1933 000c FFF7FEFF 		bl	LOS_IntRestore
 1934              	.LVL180:
 1935              	.L217:
1042:../../iot_link/os/liteos/cmsis/2.0/cmsis_liteos2.c **** 
1043:../../iot_link/os/liteos/cmsis/2.0/cmsis_liteos2.c ****     return rflags;
1044:../../iot_link/os/liteos/cmsis/2.0/cmsis_liteos2.c **** }
 1936              		.loc 1 1044 0
 1937 0010 2046     		mov	r0, r4
 1938 0012 10BD     		pop	{r4, pc}
 1939              	.LVL181:
 1940              	.L219:
1036:../../iot_link/os/liteos/cmsis/2.0/cmsis_liteos2.c ****     }
 1941              		.loc 1 1036 0
 1942 0014 6FF00304 		mvn	r4, #3
 1943 0018 FAE7     		b	.L217
 1944              		.cfi_endproc
ARM GAS  C:\Users\LuckyE\AppData\Local\Temp\ccfppLKa.s 			page 54


 1945              	.LFE322:
 1947              		.section	.text.osEventFlagsWait,"ax",%progbits
 1948              		.align	1
 1949              		.global	osEventFlagsWait
 1950              		.syntax unified
 1951              		.thumb
 1952              		.thumb_func
 1953              		.fpu fpv4-sp-d16
 1955              	osEventFlagsWait:
 1956              	.LFB323:
1045:../../iot_link/os/liteos/cmsis/2.0/cmsis_liteos2.c **** 
1046:../../iot_link/os/liteos/cmsis/2.0/cmsis_liteos2.c **** uint32_t osEventFlagsWait (osEventFlagsId_t ef_id, uint32_t flags, uint32_t options, uint32_t timeo
1047:../../iot_link/os/liteos/cmsis/2.0/cmsis_liteos2.c **** {
 1957              		.loc 1 1047 0
 1958              		.cfi_startproc
 1959              		@ args = 0, pretend = 0, frame = 0
 1960              		@ frame_needed = 0, uses_anonymous_args = 0
 1961              	.LVL182:
1048:../../iot_link/os/liteos/cmsis/2.0/cmsis_liteos2.c ****     PEVENT_CB_S pstEventCB = (PEVENT_CB_S)ef_id;
1049:../../iot_link/os/liteos/cmsis/2.0/cmsis_liteos2.c ****     UINT32 uwMode = 0;
1050:../../iot_link/os/liteos/cmsis/2.0/cmsis_liteos2.c ****     UINT32 uwRet;
1051:../../iot_link/os/liteos/cmsis/2.0/cmsis_liteos2.c ****     uint32_t rflags = 0;
1052:../../iot_link/os/liteos/cmsis/2.0/cmsis_liteos2.c **** 
1053:../../iot_link/os/liteos/cmsis/2.0/cmsis_liteos2.c ****     if (options > (osFlagsWaitAny | osFlagsWaitAll | osFlagsNoClear))
 1962              		.loc 1 1053 0
 1963 0000 032A     		cmp	r2, #3
1047:../../iot_link/os/liteos/cmsis/2.0/cmsis_liteos2.c ****     PEVENT_CB_S pstEventCB = (PEVENT_CB_S)ef_id;
 1964              		.loc 1 1047 0
 1965 0002 10B5     		push	{r4, lr}
 1966              	.LCFI26:
 1967              		.cfi_def_cfa_offset 8
 1968              		.cfi_offset 4, -8
 1969              		.cfi_offset 14, -4
1047:../../iot_link/os/liteos/cmsis/2.0/cmsis_liteos2.c ****     PEVENT_CB_S pstEventCB = (PEVENT_CB_S)ef_id;
 1970              		.loc 1 1047 0
 1971 0004 1446     		mov	r4, r2
 1972              		.loc 1 1053 0
 1973 0006 02D9     		bls	.L221
 1974              	.LVL183:
 1975              	.L225:
1054:../../iot_link/os/liteos/cmsis/2.0/cmsis_liteos2.c ****     {
1055:../../iot_link/os/liteos/cmsis/2.0/cmsis_liteos2.c ****         return (uint32_t)osFlagsErrorParameter;
 1976              		.loc 1 1055 0
 1977 0008 6FF00300 		mvn	r0, #3
 1978              	.L220:
1056:../../iot_link/os/liteos/cmsis/2.0/cmsis_liteos2.c ****     }
1057:../../iot_link/os/liteos/cmsis/2.0/cmsis_liteos2.c **** 
1058:../../iot_link/os/liteos/cmsis/2.0/cmsis_liteos2.c ****     if ((options & osFlagsWaitAll) == osFlagsWaitAll)
1059:../../iot_link/os/liteos/cmsis/2.0/cmsis_liteos2.c ****     {
1060:../../iot_link/os/liteos/cmsis/2.0/cmsis_liteos2.c ****         uwMode |= LOS_WAITMODE_AND;
1061:../../iot_link/os/liteos/cmsis/2.0/cmsis_liteos2.c ****     }
1062:../../iot_link/os/liteos/cmsis/2.0/cmsis_liteos2.c ****     else
1063:../../iot_link/os/liteos/cmsis/2.0/cmsis_liteos2.c ****     {
1064:../../iot_link/os/liteos/cmsis/2.0/cmsis_liteos2.c ****         uwMode |= LOS_WAITMODE_OR;
1065:../../iot_link/os/liteos/cmsis/2.0/cmsis_liteos2.c ****     }
1066:../../iot_link/os/liteos/cmsis/2.0/cmsis_liteos2.c **** 
1067:../../iot_link/os/liteos/cmsis/2.0/cmsis_liteos2.c ****     if ((options & osFlagsNoClear)  == osFlagsNoClear)
ARM GAS  C:\Users\LuckyE\AppData\Local\Temp\ccfppLKa.s 			page 55


1068:../../iot_link/os/liteos/cmsis/2.0/cmsis_liteos2.c ****     {
1069:../../iot_link/os/liteos/cmsis/2.0/cmsis_liteos2.c ****         uwMode &= ~LOS_WAITMODE_CLR;
1070:../../iot_link/os/liteos/cmsis/2.0/cmsis_liteos2.c ****     }
1071:../../iot_link/os/liteos/cmsis/2.0/cmsis_liteos2.c ****     else
1072:../../iot_link/os/liteos/cmsis/2.0/cmsis_liteos2.c ****     {
1073:../../iot_link/os/liteos/cmsis/2.0/cmsis_liteos2.c ****         uwMode |= LOS_WAITMODE_CLR;
1074:../../iot_link/os/liteos/cmsis/2.0/cmsis_liteos2.c ****     }
1075:../../iot_link/os/liteos/cmsis/2.0/cmsis_liteos2.c **** 
1076:../../iot_link/os/liteos/cmsis/2.0/cmsis_liteos2.c ****     uwRet = LOS_EventRead(pstEventCB, (UINT32)flags, uwMode, (UINT32)timeout);
1077:../../iot_link/os/liteos/cmsis/2.0/cmsis_liteos2.c ****     switch(uwRet)
1078:../../iot_link/os/liteos/cmsis/2.0/cmsis_liteos2.c ****     {
1079:../../iot_link/os/liteos/cmsis/2.0/cmsis_liteos2.c ****     case LOS_ERRNO_EVENT_PTR_NULL:
1080:../../iot_link/os/liteos/cmsis/2.0/cmsis_liteos2.c ****     case LOS_ERRNO_EVENT_EVENTMASK_INVALID:
1081:../../iot_link/os/liteos/cmsis/2.0/cmsis_liteos2.c ****     case LOS_ERRNO_EVENT_SETBIT_INVALID:
1082:../../iot_link/os/liteos/cmsis/2.0/cmsis_liteos2.c ****         return (uint32_t)osFlagsErrorParameter;
1083:../../iot_link/os/liteos/cmsis/2.0/cmsis_liteos2.c **** 
1084:../../iot_link/os/liteos/cmsis/2.0/cmsis_liteos2.c ****     case LOS_ERRNO_EVENT_READ_IN_INTERRUPT:
1085:../../iot_link/os/liteos/cmsis/2.0/cmsis_liteos2.c ****     case LOS_ERRNO_EVENT_FLAGS_INVALID:
1086:../../iot_link/os/liteos/cmsis/2.0/cmsis_liteos2.c ****     case LOS_ERRNO_EVENT_READ_IN_LOCK:
1087:../../iot_link/os/liteos/cmsis/2.0/cmsis_liteos2.c ****         return (uint32_t)osFlagsErrorResource;
1088:../../iot_link/os/liteos/cmsis/2.0/cmsis_liteos2.c **** 
1089:../../iot_link/os/liteos/cmsis/2.0/cmsis_liteos2.c ****     case LOS_ERRNO_EVENT_READ_TIMEOUT:
1090:../../iot_link/os/liteos/cmsis/2.0/cmsis_liteos2.c ****         return (uint32_t)osFlagsErrorTimeout;
1091:../../iot_link/os/liteos/cmsis/2.0/cmsis_liteos2.c **** 
1092:../../iot_link/os/liteos/cmsis/2.0/cmsis_liteos2.c ****     default :
1093:../../iot_link/os/liteos/cmsis/2.0/cmsis_liteos2.c ****         rflags = (uint32_t)uwRet;
1094:../../iot_link/os/liteos/cmsis/2.0/cmsis_liteos2.c ****         return rflags;
1095:../../iot_link/os/liteos/cmsis/2.0/cmsis_liteos2.c ****     }
1096:../../iot_link/os/liteos/cmsis/2.0/cmsis_liteos2.c **** }
 1979              		.loc 1 1096 0
 1980 000c 10BD     		pop	{r4, pc}
 1981              	.LVL184:
 1982              	.L221:
1058:../../iot_link/os/liteos/cmsis/2.0/cmsis_liteos2.c ****     {
 1983              		.loc 1 1058 0
 1984 000e 12F0010F 		tst	r2, #1
1064:../../iot_link/os/liteos/cmsis/2.0/cmsis_liteos2.c ****     }
 1985              		.loc 1 1064 0
 1986 0012 14BF     		ite	ne
 1987 0014 0422     		movne	r2, #4
 1988              	.LVL185:
 1989 0016 0222     		moveq	r2, #2
 1990              	.LVL186:
1067:../../iot_link/os/liteos/cmsis/2.0/cmsis_liteos2.c ****     {
 1991              		.loc 1 1067 0
 1992 0018 A407     		lsls	r4, r4, #30
 1993              	.LVL187:
1073:../../iot_link/os/liteos/cmsis/2.0/cmsis_liteos2.c ****     }
 1994              		.loc 1 1073 0
 1995 001a 58BF     		it	pl
 1996 001c 42F00102 		orrpl	r2, r2, #1
 1997              	.LVL188:
1076:../../iot_link/os/liteos/cmsis/2.0/cmsis_liteos2.c ****     switch(uwRet)
 1998              		.loc 1 1076 0
 1999 0020 FFF7FEFF 		bl	LOS_EventRead
 2000              	.LVL189:
 2001 0024 00F17E42 		add	r2, r0, #-33554432
ARM GAS  C:\Users\LuckyE\AppData\Local\Temp\ccfppLKa.s 			page 56


 2002 0028 A2F5E052 		sub	r2, r2, #7168
 2003 002c 062A     		cmp	r2, #6
 2004 002e EDD8     		bhi	.L220
 2005 0030 0123     		movs	r3, #1
 2006 0032 9340     		lsls	r3, r3, r2
 2007 0034 13F0450F 		tst	r3, #69
 2008 0038 E6D1     		bne	.L225
 2009 003a 9A07     		lsls	r2, r3, #30
 2010 003c 05D4     		bmi	.L227
 2011 003e 13F0380F 		tst	r3, #56
1087:../../iot_link/os/liteos/cmsis/2.0/cmsis_liteos2.c **** 
 2012              		.loc 1 1087 0
 2013 0042 18BF     		it	ne
 2014 0044 6FF00200 		mvnne	r0, #2
 2015              	.LVL190:
 2016 0048 E0E7     		b	.L220
 2017              	.LVL191:
 2018              	.L227:
1090:../../iot_link/os/liteos/cmsis/2.0/cmsis_liteos2.c **** 
 2019              		.loc 1 1090 0
 2020 004a 6FF00100 		mvn	r0, #1
 2021              	.LVL192:
 2022 004e DDE7     		b	.L220
 2023              		.cfi_endproc
 2024              	.LFE323:
 2026              		.section	.text.osEventFlagsDelete,"ax",%progbits
 2027              		.align	1
 2028              		.global	osEventFlagsDelete
 2029              		.syntax unified
 2030              		.thumb
 2031              		.thumb_func
 2032              		.fpu fpv4-sp-d16
 2034              	osEventFlagsDelete:
 2035              	.LFB324:
1097:../../iot_link/os/liteos/cmsis/2.0/cmsis_liteos2.c **** 
1098:../../iot_link/os/liteos/cmsis/2.0/cmsis_liteos2.c **** 
1099:../../iot_link/os/liteos/cmsis/2.0/cmsis_liteos2.c **** osStatus_t osEventFlagsDelete (osEventFlagsId_t ef_id)
1100:../../iot_link/os/liteos/cmsis/2.0/cmsis_liteos2.c **** {
 2036              		.loc 1 1100 0
 2037              		.cfi_startproc
 2038              		@ args = 0, pretend = 0, frame = 0
 2039              		@ frame_needed = 0, uses_anonymous_args = 0
 2040              	.LVL193:
 2041 0000 38B5     		push	{r3, r4, r5, lr}
 2042              	.LCFI27:
 2043              		.cfi_def_cfa_offset 16
 2044              		.cfi_offset 3, -16
 2045              		.cfi_offset 4, -12
 2046              		.cfi_offset 5, -8
 2047              		.cfi_offset 14, -4
 2048              		.loc 1 1100 0
 2049 0002 0446     		mov	r4, r0
 2050              	.LVL194:
1101:../../iot_link/os/liteos/cmsis/2.0/cmsis_liteos2.c ****     PEVENT_CB_S pstEventCB = (PEVENT_CB_S)ef_id;
1102:../../iot_link/os/liteos/cmsis/2.0/cmsis_liteos2.c ****     UINTPTR uwIntSave;
1103:../../iot_link/os/liteos/cmsis/2.0/cmsis_liteos2.c ****     osStatus_t uwRet;
1104:../../iot_link/os/liteos/cmsis/2.0/cmsis_liteos2.c **** 
ARM GAS  C:\Users\LuckyE\AppData\Local\Temp\ccfppLKa.s 			page 57


1105:../../iot_link/os/liteos/cmsis/2.0/cmsis_liteos2.c ****     uwIntSave = LOS_IntLock();
 2051              		.loc 1 1105 0
 2052 0004 FFF7FEFF 		bl	LOS_IntLock
 2053              	.LVL195:
 2054 0008 0546     		mov	r5, r0
 2055              	.LVL196:
1106:../../iot_link/os/liteos/cmsis/2.0/cmsis_liteos2.c ****     if (LOS_EventDestroy(pstEventCB) == LOS_OK)
 2056              		.loc 1 1106 0
 2057 000a 2046     		mov	r0, r4
 2058              	.LVL197:
 2059 000c FFF7FEFF 		bl	LOS_EventDestroy
 2060              	.LVL198:
1107:../../iot_link/os/liteos/cmsis/2.0/cmsis_liteos2.c ****     {
1108:../../iot_link/os/liteos/cmsis/2.0/cmsis_liteos2.c ****         uwRet = osOK;
1109:../../iot_link/os/liteos/cmsis/2.0/cmsis_liteos2.c ****     }
1110:../../iot_link/os/liteos/cmsis/2.0/cmsis_liteos2.c ****     else
1111:../../iot_link/os/liteos/cmsis/2.0/cmsis_liteos2.c ****     {
1112:../../iot_link/os/liteos/cmsis/2.0/cmsis_liteos2.c ****         uwRet = osErrorParameter;
1113:../../iot_link/os/liteos/cmsis/2.0/cmsis_liteos2.c ****     }
1114:../../iot_link/os/liteos/cmsis/2.0/cmsis_liteos2.c ****     LOS_IntRestore(uwIntSave);
 2061              		.loc 1 1114 0
 2062 0010 2846     		mov	r0, r5
 2063 0012 FFF7FEFF 		bl	LOS_IntRestore
 2064              	.LVL199:
1115:../../iot_link/os/liteos/cmsis/2.0/cmsis_liteos2.c **** 
1116:../../iot_link/os/liteos/cmsis/2.0/cmsis_liteos2.c ****     if (LOS_MemFree(m_aucSysMem0, (void *)pstEventCB) == LOS_OK)
 2065              		.loc 1 1116 0
 2066 0016 054B     		ldr	r3, .L232
 2067 0018 2146     		mov	r1, r4
 2068 001a 1868     		ldr	r0, [r3]
 2069 001c FFF7FEFF 		bl	LOS_MemFree
 2070              	.LVL200:
 2071 0020 0028     		cmp	r0, #0
1117:../../iot_link/os/liteos/cmsis/2.0/cmsis_liteos2.c ****     {
1118:../../iot_link/os/liteos/cmsis/2.0/cmsis_liteos2.c ****         uwRet = osOK;
1119:../../iot_link/os/liteos/cmsis/2.0/cmsis_liteos2.c ****     }
1120:../../iot_link/os/liteos/cmsis/2.0/cmsis_liteos2.c ****     else
1121:../../iot_link/os/liteos/cmsis/2.0/cmsis_liteos2.c ****     {
1122:../../iot_link/os/liteos/cmsis/2.0/cmsis_liteos2.c ****         uwRet = osErrorParameter;
1123:../../iot_link/os/liteos/cmsis/2.0/cmsis_liteos2.c ****     }
1124:../../iot_link/os/liteos/cmsis/2.0/cmsis_liteos2.c **** 
1125:../../iot_link/os/liteos/cmsis/2.0/cmsis_liteos2.c ****     return uwRet;
1126:../../iot_link/os/liteos/cmsis/2.0/cmsis_liteos2.c **** }
 2072              		.loc 1 1126 0
 2073 0022 14BF     		ite	ne
 2074 0024 6FF00300 		mvnne	r0, #3
 2075 0028 0020     		moveq	r0, #0
 2076 002a 38BD     		pop	{r3, r4, r5, pc}
 2077              	.LVL201:
 2078              	.L233:
 2079              		.align	2
 2080              	.L232:
 2081 002c 00000000 		.word	m_aucSysMem0
 2082              		.cfi_endproc
 2083              	.LFE324:
 2085              		.section	.text.osMutexNew,"ax",%progbits
 2086              		.align	1
ARM GAS  C:\Users\LuckyE\AppData\Local\Temp\ccfppLKa.s 			page 58


 2087              		.global	osMutexNew
 2088              		.syntax unified
 2089              		.thumb
 2090              		.thumb_func
 2091              		.fpu fpv4-sp-d16
 2093              	osMutexNew:
 2094              	.LFB325:
1127:../../iot_link/os/liteos/cmsis/2.0/cmsis_liteos2.c **** 
1128:../../iot_link/os/liteos/cmsis/2.0/cmsis_liteos2.c **** 
1129:../../iot_link/os/liteos/cmsis/2.0/cmsis_liteos2.c **** //  ==== Mutex Management Functions ====
1130:../../iot_link/os/liteos/cmsis/2.0/cmsis_liteos2.c **** #if (LOSCFG_BASE_IPC_MUX == YES)
1131:../../iot_link/os/liteos/cmsis/2.0/cmsis_liteos2.c **** osMutexId_t osMutexNew (const osMutexAttr_t *attr)
1132:../../iot_link/os/liteos/cmsis/2.0/cmsis_liteos2.c **** {
 2095              		.loc 1 1132 0
 2096              		.cfi_startproc
 2097              		@ args = 0, pretend = 0, frame = 8
 2098              		@ frame_needed = 0, uses_anonymous_args = 0
 2099              	.LVL202:
1133:../../iot_link/os/liteos/cmsis/2.0/cmsis_liteos2.c ****     UINT32 uwRet;
1134:../../iot_link/os/liteos/cmsis/2.0/cmsis_liteos2.c ****     UINT32 uwMuxId;
1135:../../iot_link/os/liteos/cmsis/2.0/cmsis_liteos2.c **** 
1136:../../iot_link/os/liteos/cmsis/2.0/cmsis_liteos2.c ****     UNUSED(attr);
1137:../../iot_link/os/liteos/cmsis/2.0/cmsis_liteos2.c **** 
1138:../../iot_link/os/liteos/cmsis/2.0/cmsis_liteos2.c ****     if (OS_INT_ACTIVE)
 2100              		.loc 1 1138 0
 2101 0000 094B     		ldr	r3, .L238
 2102 0002 1B68     		ldr	r3, [r3]
1132:../../iot_link/os/liteos/cmsis/2.0/cmsis_liteos2.c ****     UINT32 uwRet;
 2103              		.loc 1 1132 0
 2104 0004 07B5     		push	{r0, r1, r2, lr}
 2105              	.LCFI28:
 2106              		.cfi_def_cfa_offset 16
 2107              		.cfi_offset 14, -4
 2108              		.loc 1 1138 0
 2109 0006 1BB1     		cbz	r3, .L235
 2110              	.LVL203:
 2111              	.L237:
1139:../../iot_link/os/liteos/cmsis/2.0/cmsis_liteos2.c ****     {
1140:../../iot_link/os/liteos/cmsis/2.0/cmsis_liteos2.c ****         return NULL;
 2112              		.loc 1 1140 0
 2113 0008 0020     		movs	r0, #0
 2114              	.L234:
1141:../../iot_link/os/liteos/cmsis/2.0/cmsis_liteos2.c ****     }
1142:../../iot_link/os/liteos/cmsis/2.0/cmsis_liteos2.c **** 
1143:../../iot_link/os/liteos/cmsis/2.0/cmsis_liteos2.c ****     uwRet = LOS_MuxCreate(&uwMuxId);
1144:../../iot_link/os/liteos/cmsis/2.0/cmsis_liteos2.c **** 
1145:../../iot_link/os/liteos/cmsis/2.0/cmsis_liteos2.c ****     if(uwRet == LOS_OK)
1146:../../iot_link/os/liteos/cmsis/2.0/cmsis_liteos2.c ****     {
1147:../../iot_link/os/liteos/cmsis/2.0/cmsis_liteos2.c ****         return (osMutexId_t)(GET_MUX(uwMuxId));
1148:../../iot_link/os/liteos/cmsis/2.0/cmsis_liteos2.c ****     }
1149:../../iot_link/os/liteos/cmsis/2.0/cmsis_liteos2.c ****     else
1150:../../iot_link/os/liteos/cmsis/2.0/cmsis_liteos2.c ****     {
1151:../../iot_link/os/liteos/cmsis/2.0/cmsis_liteos2.c ****         return (osMutexId_t)NULL;
1152:../../iot_link/os/liteos/cmsis/2.0/cmsis_liteos2.c ****     }
1153:../../iot_link/os/liteos/cmsis/2.0/cmsis_liteos2.c **** }
 2115              		.loc 1 1153 0
 2116 000a 03B0     		add	sp, sp, #12
ARM GAS  C:\Users\LuckyE\AppData\Local\Temp\ccfppLKa.s 			page 59


 2117              	.LCFI29:
 2118              		.cfi_remember_state
 2119              		.cfi_def_cfa_offset 4
 2120              		@ sp needed
 2121 000c 5DF804FB 		ldr	pc, [sp], #4
 2122              	.LVL204:
 2123              	.L235:
 2124              	.LCFI30:
 2125              		.cfi_restore_state
1143:../../iot_link/os/liteos/cmsis/2.0/cmsis_liteos2.c **** 
 2126              		.loc 1 1143 0
 2127 0010 01A8     		add	r0, sp, #4
 2128              	.LVL205:
 2129 0012 FFF7FEFF 		bl	LOS_MuxCreate
 2130              	.LVL206:
1145:../../iot_link/os/liteos/cmsis/2.0/cmsis_liteos2.c ****     {
 2131              		.loc 1 1145 0
 2132 0016 0028     		cmp	r0, #0
 2133 0018 F6D1     		bne	.L237
1147:../../iot_link/os/liteos/cmsis/2.0/cmsis_liteos2.c ****     }
 2134              		.loc 1 1147 0
 2135 001a 044B     		ldr	r3, .L238+4
 2136 001c 0198     		ldr	r0, [sp, #4]
 2137              	.LVL207:
 2138 001e 1B68     		ldr	r3, [r3]
 2139 0020 1822     		movs	r2, #24
 2140 0022 02FB0030 		mla	r0, r2, r0, r3
 2141 0026 F0E7     		b	.L234
 2142              	.L239:
 2143              		.align	2
 2144              	.L238:
 2145 0028 00000000 		.word	g_vuwIntCount
 2146 002c 00000000 		.word	g_pstAllMux
 2147              		.cfi_endproc
 2148              	.LFE325:
 2150              		.section	.text.osMutexAcquire,"ax",%progbits
 2151              		.align	1
 2152              		.global	osMutexAcquire
 2153              		.syntax unified
 2154              		.thumb
 2155              		.thumb_func
 2156              		.fpu fpv4-sp-d16
 2158              	osMutexAcquire:
 2159              	.LFB326:
1154:../../iot_link/os/liteos/cmsis/2.0/cmsis_liteos2.c **** 
1155:../../iot_link/os/liteos/cmsis/2.0/cmsis_liteos2.c **** 
1156:../../iot_link/os/liteos/cmsis/2.0/cmsis_liteos2.c **** osStatus_t osMutexAcquire (osMutexId_t mutex_id, uint32_t timeout)
1157:../../iot_link/os/liteos/cmsis/2.0/cmsis_liteos2.c **** {
 2160              		.loc 1 1157 0
 2161              		.cfi_startproc
 2162              		@ args = 0, pretend = 0, frame = 0
 2163              		@ frame_needed = 0, uses_anonymous_args = 0
 2164              	.LVL208:
 2165 0000 08B5     		push	{r3, lr}
 2166              	.LCFI31:
 2167              		.cfi_def_cfa_offset 8
 2168              		.cfi_offset 3, -8
ARM GAS  C:\Users\LuckyE\AppData\Local\Temp\ccfppLKa.s 			page 60


 2169              		.cfi_offset 14, -4
1158:../../iot_link/os/liteos/cmsis/2.0/cmsis_liteos2.c ****     UINT32  uwRet;
1159:../../iot_link/os/liteos/cmsis/2.0/cmsis_liteos2.c **** 
1160:../../iot_link/os/liteos/cmsis/2.0/cmsis_liteos2.c ****     if (mutex_id == NULL)
 2170              		.loc 1 1160 0
 2171 0002 10B9     		cbnz	r0, .L241
 2172              	.LVL209:
 2173              	.L244:
1161:../../iot_link/os/liteos/cmsis/2.0/cmsis_liteos2.c ****     {
1162:../../iot_link/os/liteos/cmsis/2.0/cmsis_liteos2.c ****         return osErrorParameter;
 2174              		.loc 1 1162 0
 2175 0004 6FF00300 		mvn	r0, #3
 2176              	.L240:
1163:../../iot_link/os/liteos/cmsis/2.0/cmsis_liteos2.c ****     }
1164:../../iot_link/os/liteos/cmsis/2.0/cmsis_liteos2.c **** 
1165:../../iot_link/os/liteos/cmsis/2.0/cmsis_liteos2.c ****     if (OS_INT_ACTIVE && (timeout != LOS_NO_WAIT))
1166:../../iot_link/os/liteos/cmsis/2.0/cmsis_liteos2.c ****     {
1167:../../iot_link/os/liteos/cmsis/2.0/cmsis_liteos2.c ****         timeout = 0;
1168:../../iot_link/os/liteos/cmsis/2.0/cmsis_liteos2.c ****     }
1169:../../iot_link/os/liteos/cmsis/2.0/cmsis_liteos2.c **** 
1170:../../iot_link/os/liteos/cmsis/2.0/cmsis_liteos2.c ****     uwRet = LOS_MuxPend(((MUX_CB_S *)mutex_id)->ucMuxID, timeout);
1171:../../iot_link/os/liteos/cmsis/2.0/cmsis_liteos2.c **** 
1172:../../iot_link/os/liteos/cmsis/2.0/cmsis_liteos2.c ****     if(uwRet == LOS_OK)
1173:../../iot_link/os/liteos/cmsis/2.0/cmsis_liteos2.c ****     {
1174:../../iot_link/os/liteos/cmsis/2.0/cmsis_liteos2.c ****         return osOK;
1175:../../iot_link/os/liteos/cmsis/2.0/cmsis_liteos2.c ****     }
1176:../../iot_link/os/liteos/cmsis/2.0/cmsis_liteos2.c ****     else if (uwRet == LOS_ERRNO_MUX_TIMEOUT)
1177:../../iot_link/os/liteos/cmsis/2.0/cmsis_liteos2.c ****     {
1178:../../iot_link/os/liteos/cmsis/2.0/cmsis_liteos2.c ****         return osErrorTimeout;
1179:../../iot_link/os/liteos/cmsis/2.0/cmsis_liteos2.c ****     }
1180:../../iot_link/os/liteos/cmsis/2.0/cmsis_liteos2.c ****     else if (uwRet == LOS_ERRNO_MUX_INVALID)
1181:../../iot_link/os/liteos/cmsis/2.0/cmsis_liteos2.c ****     {
1182:../../iot_link/os/liteos/cmsis/2.0/cmsis_liteos2.c ****         return osErrorParameter;
1183:../../iot_link/os/liteos/cmsis/2.0/cmsis_liteos2.c ****     }
1184:../../iot_link/os/liteos/cmsis/2.0/cmsis_liteos2.c ****     else
1185:../../iot_link/os/liteos/cmsis/2.0/cmsis_liteos2.c ****     {
1186:../../iot_link/os/liteos/cmsis/2.0/cmsis_liteos2.c ****         return osErrorResource;
1187:../../iot_link/os/liteos/cmsis/2.0/cmsis_liteos2.c ****     }
1188:../../iot_link/os/liteos/cmsis/2.0/cmsis_liteos2.c **** }
 2177              		.loc 1 1188 0
 2178 0008 08BD     		pop	{r3, pc}
 2179              	.LVL210:
 2180              	.L241:
1165:../../iot_link/os/liteos/cmsis/2.0/cmsis_liteos2.c ****     {
 2181              		.loc 1 1165 0
 2182 000a 0B4B     		ldr	r3, .L249
1170:../../iot_link/os/liteos/cmsis/2.0/cmsis_liteos2.c **** 
 2183              		.loc 1 1170 0
 2184 000c 4068     		ldr	r0, [r0, #4]
 2185              	.LVL211:
1165:../../iot_link/os/liteos/cmsis/2.0/cmsis_liteos2.c ****     {
 2186              		.loc 1 1165 0
 2187 000e 1B68     		ldr	r3, [r3]
1167:../../iot_link/os/liteos/cmsis/2.0/cmsis_liteos2.c ****     }
 2188              		.loc 1 1167 0
 2189 0010 002B     		cmp	r3, #0
 2190              	.LVL212:
ARM GAS  C:\Users\LuckyE\AppData\Local\Temp\ccfppLKa.s 			page 61


1170:../../iot_link/os/liteos/cmsis/2.0/cmsis_liteos2.c **** 
 2191              		.loc 1 1170 0
 2192 0012 18BF     		it	ne
 2193 0014 0021     		movne	r1, #0
 2194              	.LVL213:
 2195 0016 FFF7FEFF 		bl	LOS_MuxPend
 2196              	.LVL214:
1172:../../iot_link/os/liteos/cmsis/2.0/cmsis_liteos2.c ****     {
 2197              		.loc 1 1172 0
 2198 001a 0028     		cmp	r0, #0
 2199 001c F4D0     		beq	.L240
1176:../../iot_link/os/liteos/cmsis/2.0/cmsis_liteos2.c ****     {
 2200              		.loc 1 1176 0
 2201 001e 074B     		ldr	r3, .L249+4
 2202 0020 9842     		cmp	r0, r3
 2203 0022 05D0     		beq	.L246
1180:../../iot_link/os/liteos/cmsis/2.0/cmsis_liteos2.c ****     {
 2204              		.loc 1 1180 0
 2205 0024 063B     		subs	r3, r3, #6
 2206 0026 9842     		cmp	r0, r3
 2207 0028 ECD0     		beq	.L244
1186:../../iot_link/os/liteos/cmsis/2.0/cmsis_liteos2.c ****     }
 2208              		.loc 1 1186 0
 2209 002a 6FF00200 		mvn	r0, #2
 2210              	.LVL215:
 2211 002e EBE7     		b	.L240
 2212              	.LVL216:
 2213              	.L246:
1178:../../iot_link/os/liteos/cmsis/2.0/cmsis_liteos2.c ****     }
 2214              		.loc 1 1178 0
 2215 0030 6FF00100 		mvn	r0, #1
 2216              	.LVL217:
 2217 0034 E8E7     		b	.L240
 2218              	.L250:
 2219 0036 00BF     		.align	2
 2220              	.L249:
 2221 0038 00000000 		.word	g_vuwIntCount
 2222 003c 071D0002 		.word	33561863
 2223              		.cfi_endproc
 2224              	.LFE326:
 2226              		.section	.text.osMutexRelease,"ax",%progbits
 2227              		.align	1
 2228              		.global	osMutexRelease
 2229              		.syntax unified
 2230              		.thumb
 2231              		.thumb_func
 2232              		.fpu fpv4-sp-d16
 2234              	osMutexRelease:
 2235              	.LFB327:
1189:../../iot_link/os/liteos/cmsis/2.0/cmsis_liteos2.c **** 
1190:../../iot_link/os/liteos/cmsis/2.0/cmsis_liteos2.c **** 
1191:../../iot_link/os/liteos/cmsis/2.0/cmsis_liteos2.c **** osStatus_t osMutexRelease (osMutexId_t mutex_id)
1192:../../iot_link/os/liteos/cmsis/2.0/cmsis_liteos2.c **** {
 2236              		.loc 1 1192 0
 2237              		.cfi_startproc
 2238              		@ args = 0, pretend = 0, frame = 0
 2239              		@ frame_needed = 0, uses_anonymous_args = 0
ARM GAS  C:\Users\LuckyE\AppData\Local\Temp\ccfppLKa.s 			page 62


 2240              	.LVL218:
 2241 0000 08B5     		push	{r3, lr}
 2242              	.LCFI32:
 2243              		.cfi_def_cfa_offset 8
 2244              		.cfi_offset 3, -8
 2245              		.cfi_offset 14, -4
1193:../../iot_link/os/liteos/cmsis/2.0/cmsis_liteos2.c ****     UINT32  uwRet;
1194:../../iot_link/os/liteos/cmsis/2.0/cmsis_liteos2.c **** 
1195:../../iot_link/os/liteos/cmsis/2.0/cmsis_liteos2.c ****     if (mutex_id == NULL)
 2246              		.loc 1 1195 0
 2247 0002 40B1     		cbz	r0, .L253
1196:../../iot_link/os/liteos/cmsis/2.0/cmsis_liteos2.c ****     {
1197:../../iot_link/os/liteos/cmsis/2.0/cmsis_liteos2.c ****         return osErrorParameter;
1198:../../iot_link/os/liteos/cmsis/2.0/cmsis_liteos2.c ****     }
1199:../../iot_link/os/liteos/cmsis/2.0/cmsis_liteos2.c **** 
1200:../../iot_link/os/liteos/cmsis/2.0/cmsis_liteos2.c ****     uwRet = LOS_MuxPost(((MUX_CB_S *)mutex_id)->ucMuxID);
 2248              		.loc 1 1200 0
 2249 0004 4068     		ldr	r0, [r0, #4]
 2250              	.LVL219:
 2251 0006 FFF7FEFF 		bl	LOS_MuxPost
 2252              	.LVL220:
1201:../../iot_link/os/liteos/cmsis/2.0/cmsis_liteos2.c **** 
1202:../../iot_link/os/liteos/cmsis/2.0/cmsis_liteos2.c ****     if (uwRet == LOS_OK)
 2253              		.loc 1 1202 0
 2254 000a 0028     		cmp	r0, #0
1203:../../iot_link/os/liteos/cmsis/2.0/cmsis_liteos2.c ****     {
1204:../../iot_link/os/liteos/cmsis/2.0/cmsis_liteos2.c ****         return osOK;
1205:../../iot_link/os/liteos/cmsis/2.0/cmsis_liteos2.c ****     }
1206:../../iot_link/os/liteos/cmsis/2.0/cmsis_liteos2.c ****     else
1207:../../iot_link/os/liteos/cmsis/2.0/cmsis_liteos2.c ****     {
1208:../../iot_link/os/liteos/cmsis/2.0/cmsis_liteos2.c ****         return osErrorResource;
 2255              		.loc 1 1208 0
 2256 000c 0CBF     		ite	eq
 2257 000e 0020     		moveq	r0, #0
 2258              	.LVL221:
 2259 0010 6FF00200 		mvnne	r0, #2
 2260              	.L251:
1209:../../iot_link/os/liteos/cmsis/2.0/cmsis_liteos2.c ****     }
1210:../../iot_link/os/liteos/cmsis/2.0/cmsis_liteos2.c **** }
 2261              		.loc 1 1210 0
 2262 0014 08BD     		pop	{r3, pc}
 2263              	.LVL222:
 2264              	.L253:
1197:../../iot_link/os/liteos/cmsis/2.0/cmsis_liteos2.c ****     }
 2265              		.loc 1 1197 0
 2266 0016 6FF00300 		mvn	r0, #3
 2267              	.LVL223:
 2268 001a FBE7     		b	.L251
 2269              		.cfi_endproc
 2270              	.LFE327:
 2272              		.section	.text.osMutexGetOwner,"ax",%progbits
 2273              		.align	1
 2274              		.global	osMutexGetOwner
 2275              		.syntax unified
 2276              		.thumb
 2277              		.thumb_func
 2278              		.fpu fpv4-sp-d16
ARM GAS  C:\Users\LuckyE\AppData\Local\Temp\ccfppLKa.s 			page 63


 2280              	osMutexGetOwner:
 2281              	.LFB328:
1211:../../iot_link/os/liteos/cmsis/2.0/cmsis_liteos2.c **** 
1212:../../iot_link/os/liteos/cmsis/2.0/cmsis_liteos2.c **** 
1213:../../iot_link/os/liteos/cmsis/2.0/cmsis_liteos2.c **** osThreadId_t osMutexGetOwner (osMutexId_t mutex_id)
1214:../../iot_link/os/liteos/cmsis/2.0/cmsis_liteos2.c **** {
 2282              		.loc 1 1214 0
 2283              		.cfi_startproc
 2284              		@ args = 0, pretend = 0, frame = 0
 2285              		@ frame_needed = 0, uses_anonymous_args = 0
 2286              	.LVL224:
1215:../../iot_link/os/liteos/cmsis/2.0/cmsis_liteos2.c ****     UINT32 uwIntSave;
1216:../../iot_link/os/liteos/cmsis/2.0/cmsis_liteos2.c ****     LOS_TASK_CB *pstTaskCB;
1217:../../iot_link/os/liteos/cmsis/2.0/cmsis_liteos2.c **** 
1218:../../iot_link/os/liteos/cmsis/2.0/cmsis_liteos2.c ****     if (OS_INT_ACTIVE)
 2287              		.loc 1 1218 0
 2288 0000 074B     		ldr	r3, .L259
 2289 0002 1B68     		ldr	r3, [r3]
1214:../../iot_link/os/liteos/cmsis/2.0/cmsis_liteos2.c ****     UINT32 uwIntSave;
 2290              		.loc 1 1214 0
 2291 0004 10B5     		push	{r4, lr}
 2292              	.LCFI33:
 2293              		.cfi_def_cfa_offset 8
 2294              		.cfi_offset 4, -8
 2295              		.cfi_offset 14, -4
1214:../../iot_link/os/liteos/cmsis/2.0/cmsis_liteos2.c ****     UINT32 uwIntSave;
 2296              		.loc 1 1214 0
 2297 0006 0446     		mov	r4, r0
 2298              		.loc 1 1218 0
 2299 0008 3BB9     		cbnz	r3, .L257
1219:../../iot_link/os/liteos/cmsis/2.0/cmsis_liteos2.c ****     {
1220:../../iot_link/os/liteos/cmsis/2.0/cmsis_liteos2.c ****         return NULL;
1221:../../iot_link/os/liteos/cmsis/2.0/cmsis_liteos2.c ****     }
1222:../../iot_link/os/liteos/cmsis/2.0/cmsis_liteos2.c **** 
1223:../../iot_link/os/liteos/cmsis/2.0/cmsis_liteos2.c ****     if (mutex_id == NULL)
 2300              		.loc 1 1223 0
 2301 000a 20B1     		cbz	r0, .L255
1224:../../iot_link/os/liteos/cmsis/2.0/cmsis_liteos2.c ****     {
1225:../../iot_link/os/liteos/cmsis/2.0/cmsis_liteos2.c ****         return NULL;
1226:../../iot_link/os/liteos/cmsis/2.0/cmsis_liteos2.c ****     }
1227:../../iot_link/os/liteos/cmsis/2.0/cmsis_liteos2.c **** 
1228:../../iot_link/os/liteos/cmsis/2.0/cmsis_liteos2.c ****     uwIntSave = LOS_IntLock();
 2302              		.loc 1 1228 0
 2303 000c FFF7FEFF 		bl	LOS_IntLock
 2304              	.LVL225:
1229:../../iot_link/os/liteos/cmsis/2.0/cmsis_liteos2.c ****     pstTaskCB = ((MUX_CB_S *)mutex_id)->pstOwner;
 2305              		.loc 1 1229 0
 2306 0010 2469     		ldr	r4, [r4, #16]
 2307              	.LVL226:
1230:../../iot_link/os/liteos/cmsis/2.0/cmsis_liteos2.c ****     (VOID)LOS_IntRestore(uwIntSave);
 2308              		.loc 1 1230 0
 2309 0012 FFF7FEFF 		bl	LOS_IntRestore
 2310              	.LVL227:
 2311              	.L255:
1231:../../iot_link/os/liteos/cmsis/2.0/cmsis_liteos2.c **** 
1232:../../iot_link/os/liteos/cmsis/2.0/cmsis_liteos2.c ****     return (osThreadId_t)pstTaskCB;
1233:../../iot_link/os/liteos/cmsis/2.0/cmsis_liteos2.c **** }
ARM GAS  C:\Users\LuckyE\AppData\Local\Temp\ccfppLKa.s 			page 64


 2312              		.loc 1 1233 0
 2313 0016 2046     		mov	r0, r4
 2314 0018 10BD     		pop	{r4, pc}
 2315              	.LVL228:
 2316              	.L257:
1220:../../iot_link/os/liteos/cmsis/2.0/cmsis_liteos2.c ****     }
 2317              		.loc 1 1220 0
 2318 001a 0024     		movs	r4, #0
 2319 001c FBE7     		b	.L255
 2320              	.L260:
 2321 001e 00BF     		.align	2
 2322              	.L259:
 2323 0020 00000000 		.word	g_vuwIntCount
 2324              		.cfi_endproc
 2325              	.LFE328:
 2327              		.section	.text.osMutexDelete,"ax",%progbits
 2328              		.align	1
 2329              		.global	osMutexDelete
 2330              		.syntax unified
 2331              		.thumb
 2332              		.thumb_func
 2333              		.fpu fpv4-sp-d16
 2335              	osMutexDelete:
 2336              	.LFB329:
1234:../../iot_link/os/liteos/cmsis/2.0/cmsis_liteos2.c **** 
1235:../../iot_link/os/liteos/cmsis/2.0/cmsis_liteos2.c **** 
1236:../../iot_link/os/liteos/cmsis/2.0/cmsis_liteos2.c **** osStatus_t osMutexDelete (osMutexId_t mutex_id)
1237:../../iot_link/os/liteos/cmsis/2.0/cmsis_liteos2.c **** {
 2337              		.loc 1 1237 0
 2338              		.cfi_startproc
 2339              		@ args = 0, pretend = 0, frame = 0
 2340              		@ frame_needed = 0, uses_anonymous_args = 0
 2341              	.LVL229:
 2342 0000 08B5     		push	{r3, lr}
 2343              	.LCFI34:
 2344              		.cfi_def_cfa_offset 8
 2345              		.cfi_offset 3, -8
 2346              		.cfi_offset 14, -4
1238:../../iot_link/os/liteos/cmsis/2.0/cmsis_liteos2.c ****     UINT32  uwRet;
1239:../../iot_link/os/liteos/cmsis/2.0/cmsis_liteos2.c **** 
1240:../../iot_link/os/liteos/cmsis/2.0/cmsis_liteos2.c ****     if (OS_INT_ACTIVE)
 2347              		.loc 1 1240 0
 2348 0002 0A4B     		ldr	r3, .L267
 2349 0004 1B68     		ldr	r3, [r3]
 2350 0006 73B9     		cbnz	r3, .L265
1241:../../iot_link/os/liteos/cmsis/2.0/cmsis_liteos2.c ****     {
1242:../../iot_link/os/liteos/cmsis/2.0/cmsis_liteos2.c ****         return osErrorISR;
1243:../../iot_link/os/liteos/cmsis/2.0/cmsis_liteos2.c ****     }
1244:../../iot_link/os/liteos/cmsis/2.0/cmsis_liteos2.c **** 
1245:../../iot_link/os/liteos/cmsis/2.0/cmsis_liteos2.c ****     if (mutex_id == NULL)
 2351              		.loc 1 1245 0
 2352 0008 10B9     		cbnz	r0, .L263
 2353              	.LVL230:
 2354              	.L264:
1246:../../iot_link/os/liteos/cmsis/2.0/cmsis_liteos2.c ****     {
1247:../../iot_link/os/liteos/cmsis/2.0/cmsis_liteos2.c ****         return osErrorParameter;
 2355              		.loc 1 1247 0
ARM GAS  C:\Users\LuckyE\AppData\Local\Temp\ccfppLKa.s 			page 65


 2356 000a 6FF00300 		mvn	r0, #3
 2357              	.L261:
1248:../../iot_link/os/liteos/cmsis/2.0/cmsis_liteos2.c ****     }
1249:../../iot_link/os/liteos/cmsis/2.0/cmsis_liteos2.c **** 
1250:../../iot_link/os/liteos/cmsis/2.0/cmsis_liteos2.c ****     uwRet = LOS_MuxDelete(((MUX_CB_S *)mutex_id)->ucMuxID);
1251:../../iot_link/os/liteos/cmsis/2.0/cmsis_liteos2.c **** 
1252:../../iot_link/os/liteos/cmsis/2.0/cmsis_liteos2.c ****     if(uwRet == LOS_OK)
1253:../../iot_link/os/liteos/cmsis/2.0/cmsis_liteos2.c ****     {
1254:../../iot_link/os/liteos/cmsis/2.0/cmsis_liteos2.c ****         return osOK;
1255:../../iot_link/os/liteos/cmsis/2.0/cmsis_liteos2.c ****     }
1256:../../iot_link/os/liteos/cmsis/2.0/cmsis_liteos2.c ****     else if (uwRet == LOS_ERRNO_MUX_INVALID)
1257:../../iot_link/os/liteos/cmsis/2.0/cmsis_liteos2.c ****     {
1258:../../iot_link/os/liteos/cmsis/2.0/cmsis_liteos2.c ****         return osErrorParameter;
1259:../../iot_link/os/liteos/cmsis/2.0/cmsis_liteos2.c ****     }
1260:../../iot_link/os/liteos/cmsis/2.0/cmsis_liteos2.c ****     else
1261:../../iot_link/os/liteos/cmsis/2.0/cmsis_liteos2.c ****     {
1262:../../iot_link/os/liteos/cmsis/2.0/cmsis_liteos2.c ****         return osErrorResource;
1263:../../iot_link/os/liteos/cmsis/2.0/cmsis_liteos2.c ****     }
1264:../../iot_link/os/liteos/cmsis/2.0/cmsis_liteos2.c **** }
 2358              		.loc 1 1264 0
 2359 000e 08BD     		pop	{r3, pc}
 2360              	.LVL231:
 2361              	.L263:
1250:../../iot_link/os/liteos/cmsis/2.0/cmsis_liteos2.c **** 
 2362              		.loc 1 1250 0
 2363 0010 4068     		ldr	r0, [r0, #4]
 2364              	.LVL232:
 2365 0012 FFF7FEFF 		bl	LOS_MuxDelete
 2366              	.LVL233:
1252:../../iot_link/os/liteos/cmsis/2.0/cmsis_liteos2.c ****     {
 2367              		.loc 1 1252 0
 2368 0016 0028     		cmp	r0, #0
 2369 0018 F9D0     		beq	.L261
1256:../../iot_link/os/liteos/cmsis/2.0/cmsis_liteos2.c ****     {
 2370              		.loc 1 1256 0
 2371 001a 054B     		ldr	r3, .L267+4
 2372 001c 9842     		cmp	r0, r3
 2373 001e F4D0     		beq	.L264
1262:../../iot_link/os/liteos/cmsis/2.0/cmsis_liteos2.c ****     }
 2374              		.loc 1 1262 0
 2375 0020 6FF00200 		mvn	r0, #2
 2376              	.LVL234:
 2377 0024 F3E7     		b	.L261
 2378              	.LVL235:
 2379              	.L265:
1242:../../iot_link/os/liteos/cmsis/2.0/cmsis_liteos2.c ****     }
 2380              		.loc 1 1242 0
 2381 0026 6FF00500 		mvn	r0, #5
 2382              	.LVL236:
 2383 002a F0E7     		b	.L261
 2384              	.L268:
 2385              		.align	2
 2386              	.L267:
 2387 002c 00000000 		.word	g_vuwIntCount
 2388 0030 011D0002 		.word	33561857
 2389              		.cfi_endproc
 2390              	.LFE329:
ARM GAS  C:\Users\LuckyE\AppData\Local\Temp\ccfppLKa.s 			page 66


 2392              		.section	.text.osSemaphoreNew,"ax",%progbits
 2393              		.align	1
 2394              		.global	osSemaphoreNew
 2395              		.syntax unified
 2396              		.thumb
 2397              		.thumb_func
 2398              		.fpu fpv4-sp-d16
 2400              	osSemaphoreNew:
 2401              	.LFB330:
1265:../../iot_link/os/liteos/cmsis/2.0/cmsis_liteos2.c **** #endif
1266:../../iot_link/os/liteos/cmsis/2.0/cmsis_liteos2.c **** 
1267:../../iot_link/os/liteos/cmsis/2.0/cmsis_liteos2.c **** //  ==== Semaphore Management Functions ====
1268:../../iot_link/os/liteos/cmsis/2.0/cmsis_liteos2.c **** #if (LOSCFG_BASE_IPC_SEM == YES)
1269:../../iot_link/os/liteos/cmsis/2.0/cmsis_liteos2.c **** 
1270:../../iot_link/os/liteos/cmsis/2.0/cmsis_liteos2.c **** osSemaphoreId_t osSemaphoreNew (uint32_t max_count, uint32_t initial_count, const osSemaphoreAttr_t
1271:../../iot_link/os/liteos/cmsis/2.0/cmsis_liteos2.c **** {
 2402              		.loc 1 1271 0
 2403              		.cfi_startproc
 2404              		@ args = 0, pretend = 0, frame = 8
 2405              		@ frame_needed = 0, uses_anonymous_args = 0
 2406              	.LVL237:
 2407 0000 07B5     		push	{r0, r1, r2, lr}
 2408              	.LCFI35:
 2409              		.cfi_def_cfa_offset 16
 2410              		.cfi_offset 14, -4
1272:../../iot_link/os/liteos/cmsis/2.0/cmsis_liteos2.c ****     UINT32 uwRet;
1273:../../iot_link/os/liteos/cmsis/2.0/cmsis_liteos2.c ****     UINT32 uwSemId;
1274:../../iot_link/os/liteos/cmsis/2.0/cmsis_liteos2.c **** 
1275:../../iot_link/os/liteos/cmsis/2.0/cmsis_liteos2.c ****     UNUSED(attr);
1276:../../iot_link/os/liteos/cmsis/2.0/cmsis_liteos2.c **** 
1277:../../iot_link/os/liteos/cmsis/2.0/cmsis_liteos2.c ****     if (OS_INT_ACTIVE)
 2411              		.loc 1 1277 0
 2412 0002 0C4A     		ldr	r2, .L275
 2413              	.LVL238:
 2414 0004 1268     		ldr	r2, [r2]
1271:../../iot_link/os/liteos/cmsis/2.0/cmsis_liteos2.c ****     UINT32 uwRet;
 2415              		.loc 1 1271 0
 2416 0006 0346     		mov	r3, r0
 2417              		.loc 1 1277 0
 2418 0008 1AB1     		cbz	r2, .L270
 2419              	.LVL239:
 2420              	.L274:
1278:../../iot_link/os/liteos/cmsis/2.0/cmsis_liteos2.c ****     {
1279:../../iot_link/os/liteos/cmsis/2.0/cmsis_liteos2.c ****         return (osSemaphoreId_t)NULL;
 2421              		.loc 1 1279 0
 2422 000a 0020     		movs	r0, #0
 2423              	.L269:
1280:../../iot_link/os/liteos/cmsis/2.0/cmsis_liteos2.c ****     }
1281:../../iot_link/os/liteos/cmsis/2.0/cmsis_liteos2.c **** 
1282:../../iot_link/os/liteos/cmsis/2.0/cmsis_liteos2.c ****     if(1 == max_count)
1283:../../iot_link/os/liteos/cmsis/2.0/cmsis_liteos2.c ****     {
1284:../../iot_link/os/liteos/cmsis/2.0/cmsis_liteos2.c ****         uwRet = LOS_BinarySemCreate((UINT16)initial_count, &uwSemId);
1285:../../iot_link/os/liteos/cmsis/2.0/cmsis_liteos2.c ****     }
1286:../../iot_link/os/liteos/cmsis/2.0/cmsis_liteos2.c ****     else
1287:../../iot_link/os/liteos/cmsis/2.0/cmsis_liteos2.c ****     {
1288:../../iot_link/os/liteos/cmsis/2.0/cmsis_liteos2.c ****         uwRet = LOS_SemCreate((UINT16)initial_count, &uwSemId);
1289:../../iot_link/os/liteos/cmsis/2.0/cmsis_liteos2.c ****     }
ARM GAS  C:\Users\LuckyE\AppData\Local\Temp\ccfppLKa.s 			page 67


1290:../../iot_link/os/liteos/cmsis/2.0/cmsis_liteos2.c **** 
1291:../../iot_link/os/liteos/cmsis/2.0/cmsis_liteos2.c ****     if (uwRet == LOS_OK)
1292:../../iot_link/os/liteos/cmsis/2.0/cmsis_liteos2.c ****     {
1293:../../iot_link/os/liteos/cmsis/2.0/cmsis_liteos2.c ****         return (osSemaphoreId_t)(GET_SEM(uwSemId));
1294:../../iot_link/os/liteos/cmsis/2.0/cmsis_liteos2.c ****     }
1295:../../iot_link/os/liteos/cmsis/2.0/cmsis_liteos2.c ****     else
1296:../../iot_link/os/liteos/cmsis/2.0/cmsis_liteos2.c ****     {
1297:../../iot_link/os/liteos/cmsis/2.0/cmsis_liteos2.c ****         return (osSemaphoreId_t)NULL;
1298:../../iot_link/os/liteos/cmsis/2.0/cmsis_liteos2.c ****     }
1299:../../iot_link/os/liteos/cmsis/2.0/cmsis_liteos2.c **** }
 2424              		.loc 1 1299 0
 2425 000c 03B0     		add	sp, sp, #12
 2426              	.LCFI36:
 2427              		.cfi_remember_state
 2428              		.cfi_def_cfa_offset 4
 2429              		@ sp needed
 2430 000e 5DF804FB 		ldr	pc, [sp], #4
 2431              	.LVL240:
 2432              	.L270:
 2433              	.LCFI37:
 2434              		.cfi_restore_state
1282:../../iot_link/os/liteos/cmsis/2.0/cmsis_liteos2.c ****     {
 2435              		.loc 1 1282 0
 2436 0012 012B     		cmp	r3, #1
 2437 0014 88B2     		uxth	r0, r1
 2438              	.LVL241:
1284:../../iot_link/os/liteos/cmsis/2.0/cmsis_liteos2.c ****     }
 2439              		.loc 1 1284 0
 2440 0016 01A9     		add	r1, sp, #4
 2441              	.LVL242:
1282:../../iot_link/os/liteos/cmsis/2.0/cmsis_liteos2.c ****     {
 2442              		.loc 1 1282 0
 2443 0018 09D1     		bne	.L272
1284:../../iot_link/os/liteos/cmsis/2.0/cmsis_liteos2.c ****     }
 2444              		.loc 1 1284 0
 2445 001a FFF7FEFF 		bl	LOS_BinarySemCreate
 2446              	.LVL243:
 2447              	.L273:
1291:../../iot_link/os/liteos/cmsis/2.0/cmsis_liteos2.c ****     {
 2448              		.loc 1 1291 0
 2449 001e 0028     		cmp	r0, #0
 2450 0020 F3D1     		bne	.L274
1293:../../iot_link/os/liteos/cmsis/2.0/cmsis_liteos2.c ****     }
 2451              		.loc 1 1293 0
 2452 0022 054B     		ldr	r3, .L275+4
 2453 0024 1868     		ldr	r0, [r3]
 2454              	.LVL244:
 2455 0026 019B     		ldr	r3, [sp, #4]
 2456 0028 00EB0310 		add	r0, r0, r3, lsl #4
 2457 002c EEE7     		b	.L269
 2458              	.LVL245:
 2459              	.L272:
1288:../../iot_link/os/liteos/cmsis/2.0/cmsis_liteos2.c ****     }
 2460              		.loc 1 1288 0
 2461 002e FFF7FEFF 		bl	LOS_SemCreate
 2462              	.LVL246:
 2463 0032 F4E7     		b	.L273
ARM GAS  C:\Users\LuckyE\AppData\Local\Temp\ccfppLKa.s 			page 68


 2464              	.L276:
 2465              		.align	2
 2466              	.L275:
 2467 0034 00000000 		.word	g_vuwIntCount
 2468 0038 00000000 		.word	g_pstAllSem
 2469              		.cfi_endproc
 2470              	.LFE330:
 2472              		.section	.text.osSemaphoreAcquire,"ax",%progbits
 2473              		.align	1
 2474              		.global	osSemaphoreAcquire
 2475              		.syntax unified
 2476              		.thumb
 2477              		.thumb_func
 2478              		.fpu fpv4-sp-d16
 2480              	osSemaphoreAcquire:
 2481              	.LFB331:
1300:../../iot_link/os/liteos/cmsis/2.0/cmsis_liteos2.c **** 
1301:../../iot_link/os/liteos/cmsis/2.0/cmsis_liteos2.c **** 
1302:../../iot_link/os/liteos/cmsis/2.0/cmsis_liteos2.c **** osStatus_t osSemaphoreAcquire (osSemaphoreId_t semaphore_id, uint32_t timeout)
1303:../../iot_link/os/liteos/cmsis/2.0/cmsis_liteos2.c **** {
 2482              		.loc 1 1303 0
 2483              		.cfi_startproc
 2484              		@ args = 0, pretend = 0, frame = 0
 2485              		@ frame_needed = 0, uses_anonymous_args = 0
 2486              	.LVL247:
 2487 0000 08B5     		push	{r3, lr}
 2488              	.LCFI38:
 2489              		.cfi_def_cfa_offset 8
 2490              		.cfi_offset 3, -8
 2491              		.cfi_offset 14, -4
1304:../../iot_link/os/liteos/cmsis/2.0/cmsis_liteos2.c ****     UINT32 uwRet;
1305:../../iot_link/os/liteos/cmsis/2.0/cmsis_liteos2.c **** 
1306:../../iot_link/os/liteos/cmsis/2.0/cmsis_liteos2.c ****     if (semaphore_id == NULL)
 2492              		.loc 1 1306 0
 2493 0002 10B9     		cbnz	r0, .L278
 2494              	.LVL248:
 2495              	.L281:
1307:../../iot_link/os/liteos/cmsis/2.0/cmsis_liteos2.c ****     {
1308:../../iot_link/os/liteos/cmsis/2.0/cmsis_liteos2.c ****         return osErrorParameter;
 2496              		.loc 1 1308 0
 2497 0004 6FF00300 		mvn	r0, #3
 2498              	.L277:
1309:../../iot_link/os/liteos/cmsis/2.0/cmsis_liteos2.c ****     }
1310:../../iot_link/os/liteos/cmsis/2.0/cmsis_liteos2.c **** 
1311:../../iot_link/os/liteos/cmsis/2.0/cmsis_liteos2.c ****     if (OS_INT_ACTIVE && (timeout != LOS_NO_WAIT))
1312:../../iot_link/os/liteos/cmsis/2.0/cmsis_liteos2.c ****     {
1313:../../iot_link/os/liteos/cmsis/2.0/cmsis_liteos2.c ****         return osErrorISR;
1314:../../iot_link/os/liteos/cmsis/2.0/cmsis_liteos2.c ****     }
1315:../../iot_link/os/liteos/cmsis/2.0/cmsis_liteos2.c **** 
1316:../../iot_link/os/liteos/cmsis/2.0/cmsis_liteos2.c ****     uwRet = LOS_SemPend(((SEM_CB_S *)semaphore_id)->usSemID, timeout);
1317:../../iot_link/os/liteos/cmsis/2.0/cmsis_liteos2.c **** 
1318:../../iot_link/os/liteos/cmsis/2.0/cmsis_liteos2.c ****     if (uwRet == LOS_OK)
1319:../../iot_link/os/liteos/cmsis/2.0/cmsis_liteos2.c ****     {
1320:../../iot_link/os/liteos/cmsis/2.0/cmsis_liteos2.c ****         return osOK;
1321:../../iot_link/os/liteos/cmsis/2.0/cmsis_liteos2.c ****     }
1322:../../iot_link/os/liteos/cmsis/2.0/cmsis_liteos2.c ****     else if (uwRet == LOS_ERRNO_SEM_TIMEOUT)
1323:../../iot_link/os/liteos/cmsis/2.0/cmsis_liteos2.c ****     {
ARM GAS  C:\Users\LuckyE\AppData\Local\Temp\ccfppLKa.s 			page 69


1324:../../iot_link/os/liteos/cmsis/2.0/cmsis_liteos2.c ****         return osErrorTimeout;
1325:../../iot_link/os/liteos/cmsis/2.0/cmsis_liteos2.c ****     }
1326:../../iot_link/os/liteos/cmsis/2.0/cmsis_liteos2.c ****     else if (uwRet == LOS_ERRNO_SEM_INVALID)
1327:../../iot_link/os/liteos/cmsis/2.0/cmsis_liteos2.c ****     {
1328:../../iot_link/os/liteos/cmsis/2.0/cmsis_liteos2.c ****         return osErrorParameter;
1329:../../iot_link/os/liteos/cmsis/2.0/cmsis_liteos2.c ****     }
1330:../../iot_link/os/liteos/cmsis/2.0/cmsis_liteos2.c ****     else if (uwRet == LOS_ERRNO_SEM_PEND_INTERR)
1331:../../iot_link/os/liteos/cmsis/2.0/cmsis_liteos2.c ****     {
1332:../../iot_link/os/liteos/cmsis/2.0/cmsis_liteos2.c ****         return osErrorISR;
1333:../../iot_link/os/liteos/cmsis/2.0/cmsis_liteos2.c ****     }
1334:../../iot_link/os/liteos/cmsis/2.0/cmsis_liteos2.c ****     else
1335:../../iot_link/os/liteos/cmsis/2.0/cmsis_liteos2.c ****     {
1336:../../iot_link/os/liteos/cmsis/2.0/cmsis_liteos2.c ****         return osErrorResource;
1337:../../iot_link/os/liteos/cmsis/2.0/cmsis_liteos2.c ****     }
1338:../../iot_link/os/liteos/cmsis/2.0/cmsis_liteos2.c **** }
 2499              		.loc 1 1338 0
 2500 0008 08BD     		pop	{r3, pc}
 2501              	.LVL249:
 2502              	.L278:
1311:../../iot_link/os/liteos/cmsis/2.0/cmsis_liteos2.c ****     {
 2503              		.loc 1 1311 0
 2504 000a 0D4B     		ldr	r3, .L291
 2505 000c 1B68     		ldr	r3, [r3]
 2506 000e 1BB1     		cbz	r3, .L280
1311:../../iot_link/os/liteos/cmsis/2.0/cmsis_liteos2.c ****     {
 2507              		.loc 1 1311 0 is_stmt 0 discriminator 1
 2508 0010 11B1     		cbz	r1, .L280
 2509              	.LVL250:
 2510              	.L282:
1313:../../iot_link/os/liteos/cmsis/2.0/cmsis_liteos2.c ****     }
 2511              		.loc 1 1313 0 is_stmt 1
 2512 0012 6FF00500 		mvn	r0, #5
 2513 0016 F7E7     		b	.L277
 2514              	.LVL251:
 2515              	.L280:
1316:../../iot_link/os/liteos/cmsis/2.0/cmsis_liteos2.c **** 
 2516              		.loc 1 1316 0
 2517 0018 C088     		ldrh	r0, [r0, #6]
 2518              	.LVL252:
 2519 001a FFF7FEFF 		bl	LOS_SemPend
 2520              	.LVL253:
1318:../../iot_link/os/liteos/cmsis/2.0/cmsis_liteos2.c ****     {
 2521              		.loc 1 1318 0
 2522 001e 0028     		cmp	r0, #0
 2523 0020 F2D0     		beq	.L277
1322:../../iot_link/os/liteos/cmsis/2.0/cmsis_liteos2.c ****     {
 2524              		.loc 1 1322 0
 2525 0022 084B     		ldr	r3, .L291+4
 2526 0024 9842     		cmp	r0, r3
 2527 0026 08D0     		beq	.L284
1326:../../iot_link/os/liteos/cmsis/2.0/cmsis_liteos2.c ****     {
 2528              		.loc 1 1326 0
 2529 0028 063B     		subs	r3, r3, #6
 2530 002a 9842     		cmp	r0, r3
 2531 002c EAD0     		beq	.L281
1330:../../iot_link/os/liteos/cmsis/2.0/cmsis_liteos2.c ****     {
 2532              		.loc 1 1330 0
ARM GAS  C:\Users\LuckyE\AppData\Local\Temp\ccfppLKa.s 			page 70


 2533 002e 0433     		adds	r3, r3, #4
 2534 0030 9842     		cmp	r0, r3
 2535 0032 EED0     		beq	.L282
1336:../../iot_link/os/liteos/cmsis/2.0/cmsis_liteos2.c ****     }
 2536              		.loc 1 1336 0
 2537 0034 6FF00200 		mvn	r0, #2
 2538              	.LVL254:
 2539 0038 E6E7     		b	.L277
 2540              	.LVL255:
 2541              	.L284:
1324:../../iot_link/os/liteos/cmsis/2.0/cmsis_liteos2.c ****     }
 2542              		.loc 1 1324 0
 2543 003a 6FF00100 		mvn	r0, #1
 2544              	.LVL256:
 2545 003e E3E7     		b	.L277
 2546              	.L292:
 2547              		.align	2
 2548              	.L291:
 2549 0040 00000000 		.word	g_vuwIntCount
 2550 0044 07070002 		.word	33556231
 2551              		.cfi_endproc
 2552              	.LFE331:
 2554              		.section	.text.osSemaphoreRelease,"ax",%progbits
 2555              		.align	1
 2556              		.global	osSemaphoreRelease
 2557              		.syntax unified
 2558              		.thumb
 2559              		.thumb_func
 2560              		.fpu fpv4-sp-d16
 2562              	osSemaphoreRelease:
 2563              	.LFB332:
1339:../../iot_link/os/liteos/cmsis/2.0/cmsis_liteos2.c **** 
1340:../../iot_link/os/liteos/cmsis/2.0/cmsis_liteos2.c **** 
1341:../../iot_link/os/liteos/cmsis/2.0/cmsis_liteos2.c **** osStatus_t osSemaphoreRelease (osSemaphoreId_t semaphore_id)
1342:../../iot_link/os/liteos/cmsis/2.0/cmsis_liteos2.c **** {
 2564              		.loc 1 1342 0
 2565              		.cfi_startproc
 2566              		@ args = 0, pretend = 0, frame = 0
 2567              		@ frame_needed = 0, uses_anonymous_args = 0
 2568              	.LVL257:
 2569 0000 08B5     		push	{r3, lr}
 2570              	.LCFI39:
 2571              		.cfi_def_cfa_offset 8
 2572              		.cfi_offset 3, -8
 2573              		.cfi_offset 14, -4
1343:../../iot_link/os/liteos/cmsis/2.0/cmsis_liteos2.c ****     UINT32  uwRet;
1344:../../iot_link/os/liteos/cmsis/2.0/cmsis_liteos2.c **** 
1345:../../iot_link/os/liteos/cmsis/2.0/cmsis_liteos2.c ****     if (semaphore_id == NULL)
 2574              		.loc 1 1345 0
 2575 0002 10B9     		cbnz	r0, .L294
 2576              	.LVL258:
 2577              	.L296:
1346:../../iot_link/os/liteos/cmsis/2.0/cmsis_liteos2.c ****     {
1347:../../iot_link/os/liteos/cmsis/2.0/cmsis_liteos2.c ****         return osErrorParameter;
 2578              		.loc 1 1347 0
 2579 0004 6FF00300 		mvn	r0, #3
 2580              	.L293:
ARM GAS  C:\Users\LuckyE\AppData\Local\Temp\ccfppLKa.s 			page 71


1348:../../iot_link/os/liteos/cmsis/2.0/cmsis_liteos2.c ****     }
1349:../../iot_link/os/liteos/cmsis/2.0/cmsis_liteos2.c **** 
1350:../../iot_link/os/liteos/cmsis/2.0/cmsis_liteos2.c ****     uwRet = LOS_SemPost(((SEM_CB_S *)semaphore_id)->usSemID);
1351:../../iot_link/os/liteos/cmsis/2.0/cmsis_liteos2.c **** 
1352:../../iot_link/os/liteos/cmsis/2.0/cmsis_liteos2.c ****     if (uwRet == LOS_OK)
1353:../../iot_link/os/liteos/cmsis/2.0/cmsis_liteos2.c ****     {
1354:../../iot_link/os/liteos/cmsis/2.0/cmsis_liteos2.c ****         return osOK;
1355:../../iot_link/os/liteos/cmsis/2.0/cmsis_liteos2.c ****     }
1356:../../iot_link/os/liteos/cmsis/2.0/cmsis_liteos2.c ****     else if (uwRet == LOS_ERRNO_SEM_INVALID)
1357:../../iot_link/os/liteos/cmsis/2.0/cmsis_liteos2.c ****     {
1358:../../iot_link/os/liteos/cmsis/2.0/cmsis_liteos2.c ****         return osErrorParameter;
1359:../../iot_link/os/liteos/cmsis/2.0/cmsis_liteos2.c ****     }
1360:../../iot_link/os/liteos/cmsis/2.0/cmsis_liteos2.c ****     else
1361:../../iot_link/os/liteos/cmsis/2.0/cmsis_liteos2.c ****     {
1362:../../iot_link/os/liteos/cmsis/2.0/cmsis_liteos2.c ****         return osErrorResource;
1363:../../iot_link/os/liteos/cmsis/2.0/cmsis_liteos2.c ****     }
1364:../../iot_link/os/liteos/cmsis/2.0/cmsis_liteos2.c **** }
 2581              		.loc 1 1364 0
 2582 0008 08BD     		pop	{r3, pc}
 2583              	.LVL259:
 2584              	.L294:
1350:../../iot_link/os/liteos/cmsis/2.0/cmsis_liteos2.c **** 
 2585              		.loc 1 1350 0
 2586 000a C088     		ldrh	r0, [r0, #6]
 2587              	.LVL260:
 2588 000c FFF7FEFF 		bl	LOS_SemPost
 2589              	.LVL261:
1352:../../iot_link/os/liteos/cmsis/2.0/cmsis_liteos2.c ****     {
 2590              		.loc 1 1352 0
 2591 0010 0028     		cmp	r0, #0
 2592 0012 F9D0     		beq	.L293
1356:../../iot_link/os/liteos/cmsis/2.0/cmsis_liteos2.c ****     {
 2593              		.loc 1 1356 0
 2594 0014 024B     		ldr	r3, .L298
 2595 0016 9842     		cmp	r0, r3
 2596 0018 F4D0     		beq	.L296
1362:../../iot_link/os/liteos/cmsis/2.0/cmsis_liteos2.c ****     }
 2597              		.loc 1 1362 0
 2598 001a 6FF00200 		mvn	r0, #2
 2599              	.LVL262:
 2600 001e F3E7     		b	.L293
 2601              	.L299:
 2602              		.align	2
 2603              	.L298:
 2604 0020 01070002 		.word	33556225
 2605              		.cfi_endproc
 2606              	.LFE332:
 2608              		.section	.text.osSemaphoreGetCount,"ax",%progbits
 2609              		.align	1
 2610              		.global	osSemaphoreGetCount
 2611              		.syntax unified
 2612              		.thumb
 2613              		.thumb_func
 2614              		.fpu fpv4-sp-d16
 2616              	osSemaphoreGetCount:
 2617              	.LFB333:
1365:../../iot_link/os/liteos/cmsis/2.0/cmsis_liteos2.c **** 
ARM GAS  C:\Users\LuckyE\AppData\Local\Temp\ccfppLKa.s 			page 72


1366:../../iot_link/os/liteos/cmsis/2.0/cmsis_liteos2.c **** 
1367:../../iot_link/os/liteos/cmsis/2.0/cmsis_liteos2.c **** uint32_t osSemaphoreGetCount (osSemaphoreId_t semaphore_id)
1368:../../iot_link/os/liteos/cmsis/2.0/cmsis_liteos2.c **** {
 2618              		.loc 1 1368 0
 2619              		.cfi_startproc
 2620              		@ args = 0, pretend = 0, frame = 0
 2621              		@ frame_needed = 0, uses_anonymous_args = 0
 2622              	.LVL263:
1369:../../iot_link/os/liteos/cmsis/2.0/cmsis_liteos2.c ****     UINT32 uwIntSave;
1370:../../iot_link/os/liteos/cmsis/2.0/cmsis_liteos2.c ****     UINT32 uwCount;
1371:../../iot_link/os/liteos/cmsis/2.0/cmsis_liteos2.c **** 
1372:../../iot_link/os/liteos/cmsis/2.0/cmsis_liteos2.c ****     if (OS_INT_ACTIVE)
 2623              		.loc 1 1372 0
 2624 0000 074B     		ldr	r3, .L304
 2625 0002 1B68     		ldr	r3, [r3]
1368:../../iot_link/os/liteos/cmsis/2.0/cmsis_liteos2.c ****     UINT32 uwIntSave;
 2626              		.loc 1 1368 0
 2627 0004 10B5     		push	{r4, lr}
 2628              	.LCFI40:
 2629              		.cfi_def_cfa_offset 8
 2630              		.cfi_offset 4, -8
 2631              		.cfi_offset 14, -4
1368:../../iot_link/os/liteos/cmsis/2.0/cmsis_liteos2.c ****     UINT32 uwIntSave;
 2632              		.loc 1 1368 0
 2633 0006 0446     		mov	r4, r0
 2634              		.loc 1 1372 0
 2635 0008 3BB9     		cbnz	r3, .L302
1373:../../iot_link/os/liteos/cmsis/2.0/cmsis_liteos2.c ****     {
1374:../../iot_link/os/liteos/cmsis/2.0/cmsis_liteos2.c ****         return 0;
1375:../../iot_link/os/liteos/cmsis/2.0/cmsis_liteos2.c ****     }
1376:../../iot_link/os/liteos/cmsis/2.0/cmsis_liteos2.c **** 
1377:../../iot_link/os/liteos/cmsis/2.0/cmsis_liteos2.c ****     if (semaphore_id == NULL)
 2636              		.loc 1 1377 0
 2637 000a 20B1     		cbz	r0, .L300
1378:../../iot_link/os/liteos/cmsis/2.0/cmsis_liteos2.c ****     {
1379:../../iot_link/os/liteos/cmsis/2.0/cmsis_liteos2.c ****         return 0;
1380:../../iot_link/os/liteos/cmsis/2.0/cmsis_liteos2.c ****     }
1381:../../iot_link/os/liteos/cmsis/2.0/cmsis_liteos2.c **** 
1382:../../iot_link/os/liteos/cmsis/2.0/cmsis_liteos2.c ****     uwIntSave = LOS_IntLock();
 2638              		.loc 1 1382 0
 2639 000c FFF7FEFF 		bl	LOS_IntLock
 2640              	.LVL264:
1383:../../iot_link/os/liteos/cmsis/2.0/cmsis_liteos2.c ****     uwCount = ((SEM_CB_S *)semaphore_id)->usSemCount;
 2641              		.loc 1 1383 0
 2642 0010 6488     		ldrh	r4, [r4, #2]
 2643              	.LVL265:
1384:../../iot_link/os/liteos/cmsis/2.0/cmsis_liteos2.c ****     (VOID)LOS_IntRestore(uwIntSave);
 2644              		.loc 1 1384 0
 2645 0012 FFF7FEFF 		bl	LOS_IntRestore
 2646              	.LVL266:
 2647              	.L300:
1385:../../iot_link/os/liteos/cmsis/2.0/cmsis_liteos2.c **** 
1386:../../iot_link/os/liteos/cmsis/2.0/cmsis_liteos2.c ****     return uwCount;
1387:../../iot_link/os/liteos/cmsis/2.0/cmsis_liteos2.c **** }
 2648              		.loc 1 1387 0
 2649 0016 2046     		mov	r0, r4
 2650 0018 10BD     		pop	{r4, pc}
ARM GAS  C:\Users\LuckyE\AppData\Local\Temp\ccfppLKa.s 			page 73


 2651              	.LVL267:
 2652              	.L302:
1374:../../iot_link/os/liteos/cmsis/2.0/cmsis_liteos2.c ****     }
 2653              		.loc 1 1374 0
 2654 001a 0024     		movs	r4, #0
 2655 001c FBE7     		b	.L300
 2656              	.L305:
 2657 001e 00BF     		.align	2
 2658              	.L304:
 2659 0020 00000000 		.word	g_vuwIntCount
 2660              		.cfi_endproc
 2661              	.LFE333:
 2663              		.section	.text.osSemaphoreDelete,"ax",%progbits
 2664              		.align	1
 2665              		.global	osSemaphoreDelete
 2666              		.syntax unified
 2667              		.thumb
 2668              		.thumb_func
 2669              		.fpu fpv4-sp-d16
 2671              	osSemaphoreDelete:
 2672              	.LFB334:
1388:../../iot_link/os/liteos/cmsis/2.0/cmsis_liteos2.c **** 
1389:../../iot_link/os/liteos/cmsis/2.0/cmsis_liteos2.c **** 
1390:../../iot_link/os/liteos/cmsis/2.0/cmsis_liteos2.c **** osStatus_t osSemaphoreDelete (osSemaphoreId_t semaphore_id)
1391:../../iot_link/os/liteos/cmsis/2.0/cmsis_liteos2.c **** {
 2673              		.loc 1 1391 0
 2674              		.cfi_startproc
 2675              		@ args = 0, pretend = 0, frame = 0
 2676              		@ frame_needed = 0, uses_anonymous_args = 0
 2677              	.LVL268:
 2678 0000 08B5     		push	{r3, lr}
 2679              	.LCFI41:
 2680              		.cfi_def_cfa_offset 8
 2681              		.cfi_offset 3, -8
 2682              		.cfi_offset 14, -4
1392:../../iot_link/os/liteos/cmsis/2.0/cmsis_liteos2.c ****     UINT32  uwRet;
1393:../../iot_link/os/liteos/cmsis/2.0/cmsis_liteos2.c **** 
1394:../../iot_link/os/liteos/cmsis/2.0/cmsis_liteos2.c ****     if (OS_INT_ACTIVE)
 2683              		.loc 1 1394 0
 2684 0002 0A4B     		ldr	r3, .L312
 2685 0004 1B68     		ldr	r3, [r3]
 2686 0006 73B9     		cbnz	r3, .L310
1395:../../iot_link/os/liteos/cmsis/2.0/cmsis_liteos2.c ****     {
1396:../../iot_link/os/liteos/cmsis/2.0/cmsis_liteos2.c ****         return osErrorISR;
1397:../../iot_link/os/liteos/cmsis/2.0/cmsis_liteos2.c ****     }
1398:../../iot_link/os/liteos/cmsis/2.0/cmsis_liteos2.c **** 
1399:../../iot_link/os/liteos/cmsis/2.0/cmsis_liteos2.c ****     if (semaphore_id == NULL)
 2687              		.loc 1 1399 0
 2688 0008 10B9     		cbnz	r0, .L308
 2689              	.LVL269:
 2690              	.L309:
1400:../../iot_link/os/liteos/cmsis/2.0/cmsis_liteos2.c ****     {
1401:../../iot_link/os/liteos/cmsis/2.0/cmsis_liteos2.c ****         return osErrorParameter;
 2691              		.loc 1 1401 0
 2692 000a 6FF00300 		mvn	r0, #3
 2693              	.L306:
1402:../../iot_link/os/liteos/cmsis/2.0/cmsis_liteos2.c ****     }
ARM GAS  C:\Users\LuckyE\AppData\Local\Temp\ccfppLKa.s 			page 74


1403:../../iot_link/os/liteos/cmsis/2.0/cmsis_liteos2.c **** 
1404:../../iot_link/os/liteos/cmsis/2.0/cmsis_liteos2.c ****     uwRet = LOS_SemDelete(((SEM_CB_S *)semaphore_id)->usSemID);
1405:../../iot_link/os/liteos/cmsis/2.0/cmsis_liteos2.c **** 
1406:../../iot_link/os/liteos/cmsis/2.0/cmsis_liteos2.c ****     if (uwRet == LOS_OK)
1407:../../iot_link/os/liteos/cmsis/2.0/cmsis_liteos2.c ****     {
1408:../../iot_link/os/liteos/cmsis/2.0/cmsis_liteos2.c ****         return osOK;
1409:../../iot_link/os/liteos/cmsis/2.0/cmsis_liteos2.c ****     }
1410:../../iot_link/os/liteos/cmsis/2.0/cmsis_liteos2.c ****     else if (uwRet == LOS_ERRNO_SEM_INVALID)
1411:../../iot_link/os/liteos/cmsis/2.0/cmsis_liteos2.c ****     {
1412:../../iot_link/os/liteos/cmsis/2.0/cmsis_liteos2.c ****         return osErrorParameter;
1413:../../iot_link/os/liteos/cmsis/2.0/cmsis_liteos2.c ****     }
1414:../../iot_link/os/liteos/cmsis/2.0/cmsis_liteos2.c ****     else
1415:../../iot_link/os/liteos/cmsis/2.0/cmsis_liteos2.c ****     {
1416:../../iot_link/os/liteos/cmsis/2.0/cmsis_liteos2.c ****         return osErrorResource;
1417:../../iot_link/os/liteos/cmsis/2.0/cmsis_liteos2.c ****     }
1418:../../iot_link/os/liteos/cmsis/2.0/cmsis_liteos2.c **** }
 2694              		.loc 1 1418 0
 2695 000e 08BD     		pop	{r3, pc}
 2696              	.LVL270:
 2697              	.L308:
1404:../../iot_link/os/liteos/cmsis/2.0/cmsis_liteos2.c **** 
 2698              		.loc 1 1404 0
 2699 0010 C088     		ldrh	r0, [r0, #6]
 2700              	.LVL271:
 2701 0012 FFF7FEFF 		bl	LOS_SemDelete
 2702              	.LVL272:
1406:../../iot_link/os/liteos/cmsis/2.0/cmsis_liteos2.c ****     {
 2703              		.loc 1 1406 0
 2704 0016 0028     		cmp	r0, #0
 2705 0018 F9D0     		beq	.L306
1410:../../iot_link/os/liteos/cmsis/2.0/cmsis_liteos2.c ****     {
 2706              		.loc 1 1410 0
 2707 001a 054B     		ldr	r3, .L312+4
 2708 001c 9842     		cmp	r0, r3
 2709 001e F4D0     		beq	.L309
1416:../../iot_link/os/liteos/cmsis/2.0/cmsis_liteos2.c ****     }
 2710              		.loc 1 1416 0
 2711 0020 6FF00200 		mvn	r0, #2
 2712              	.LVL273:
 2713 0024 F3E7     		b	.L306
 2714              	.LVL274:
 2715              	.L310:
1396:../../iot_link/os/liteos/cmsis/2.0/cmsis_liteos2.c ****     }
 2716              		.loc 1 1396 0
 2717 0026 6FF00500 		mvn	r0, #5
 2718              	.LVL275:
 2719 002a F0E7     		b	.L306
 2720              	.L313:
 2721              		.align	2
 2722              	.L312:
 2723 002c 00000000 		.word	g_vuwIntCount
 2724 0030 01070002 		.word	33556225
 2725              		.cfi_endproc
 2726              	.LFE334:
 2728              		.section	.text.osMessageQueueNew,"ax",%progbits
 2729              		.align	1
 2730              		.global	osMessageQueueNew
ARM GAS  C:\Users\LuckyE\AppData\Local\Temp\ccfppLKa.s 			page 75


 2731              		.syntax unified
 2732              		.thumb
 2733              		.thumb_func
 2734              		.fpu fpv4-sp-d16
 2736              	osMessageQueueNew:
 2737              	.LFB335:
1419:../../iot_link/os/liteos/cmsis/2.0/cmsis_liteos2.c **** #endif
1420:../../iot_link/os/liteos/cmsis/2.0/cmsis_liteos2.c **** 
1421:../../iot_link/os/liteos/cmsis/2.0/cmsis_liteos2.c **** 
1422:../../iot_link/os/liteos/cmsis/2.0/cmsis_liteos2.c **** //  ==== Message Queue Management Functions ====
1423:../../iot_link/os/liteos/cmsis/2.0/cmsis_liteos2.c **** #if (LOSCFG_BASE_IPC_QUEUE == YES)
1424:../../iot_link/os/liteos/cmsis/2.0/cmsis_liteos2.c **** osMessageQueueId_t osMessageQueueNew (uint32_t msg_count, uint32_t msg_size, const osMessageQueueAt
1425:../../iot_link/os/liteos/cmsis/2.0/cmsis_liteos2.c **** {
 2738              		.loc 1 1425 0
 2739              		.cfi_startproc
 2740              		@ args = 0, pretend = 0, frame = 8
 2741              		@ frame_needed = 0, uses_anonymous_args = 0
 2742              	.LVL276:
 2743 0000 1FB5     		push	{r0, r1, r2, r3, r4, lr}
 2744              	.LCFI42:
 2745              		.cfi_def_cfa_offset 24
 2746              		.cfi_offset 14, -4
1426:../../iot_link/os/liteos/cmsis/2.0/cmsis_liteos2.c ****     UINT32 uwQueueID;
1427:../../iot_link/os/liteos/cmsis/2.0/cmsis_liteos2.c ****     UINT32 uwRet;
1428:../../iot_link/os/liteos/cmsis/2.0/cmsis_liteos2.c ****     UNUSED(attr);
1429:../../iot_link/os/liteos/cmsis/2.0/cmsis_liteos2.c ****     osMessageQueueId_t handle;
1430:../../iot_link/os/liteos/cmsis/2.0/cmsis_liteos2.c **** 
1431:../../iot_link/os/liteos/cmsis/2.0/cmsis_liteos2.c ****     if(0 == msg_count || 0 == msg_size || OS_INT_ACTIVE)
 2747              		.loc 1 1431 0
 2748 0002 18B9     		cbnz	r0, .L315
 2749              	.LVL277:
 2750              	.L317:
1432:../../iot_link/os/liteos/cmsis/2.0/cmsis_liteos2.c ****     {
1433:../../iot_link/os/liteos/cmsis/2.0/cmsis_liteos2.c ****         return (osMessageQueueId_t)NULL;
 2751              		.loc 1 1433 0
 2752 0004 0020     		movs	r0, #0
 2753              	.L314:
1434:../../iot_link/os/liteos/cmsis/2.0/cmsis_liteos2.c ****     }
1435:../../iot_link/os/liteos/cmsis/2.0/cmsis_liteos2.c **** 
1436:../../iot_link/os/liteos/cmsis/2.0/cmsis_liteos2.c ****     uwRet = LOS_QueueCreate((char *)NULL, (UINT16)msg_count, &uwQueueID, 0, (UINT16)msg_size);
1437:../../iot_link/os/liteos/cmsis/2.0/cmsis_liteos2.c ****     if (uwRet == LOS_OK)
1438:../../iot_link/os/liteos/cmsis/2.0/cmsis_liteos2.c ****     {
1439:../../iot_link/os/liteos/cmsis/2.0/cmsis_liteos2.c ****         handle = (osMessageQueueId_t)(GET_QUEUE_HANDLE(uwQueueID));
1440:../../iot_link/os/liteos/cmsis/2.0/cmsis_liteos2.c ****     }
1441:../../iot_link/os/liteos/cmsis/2.0/cmsis_liteos2.c ****     else
1442:../../iot_link/os/liteos/cmsis/2.0/cmsis_liteos2.c ****     {
1443:../../iot_link/os/liteos/cmsis/2.0/cmsis_liteos2.c ****         handle = (osMessageQueueId_t)NULL;
1444:../../iot_link/os/liteos/cmsis/2.0/cmsis_liteos2.c ****     }
1445:../../iot_link/os/liteos/cmsis/2.0/cmsis_liteos2.c **** 
1446:../../iot_link/os/liteos/cmsis/2.0/cmsis_liteos2.c ****     return handle;
1447:../../iot_link/os/liteos/cmsis/2.0/cmsis_liteos2.c **** }
 2754              		.loc 1 1447 0
 2755 0006 05B0     		add	sp, sp, #20
 2756              	.LCFI43:
 2757              		.cfi_remember_state
 2758              		.cfi_def_cfa_offset 4
 2759              		@ sp needed
ARM GAS  C:\Users\LuckyE\AppData\Local\Temp\ccfppLKa.s 			page 76


 2760 0008 5DF804FB 		ldr	pc, [sp], #4
 2761              	.LVL278:
 2762              	.L315:
 2763              	.LCFI44:
 2764              		.cfi_restore_state
1431:../../iot_link/os/liteos/cmsis/2.0/cmsis_liteos2.c ****     {
 2765              		.loc 1 1431 0 discriminator 1
 2766 000c 0029     		cmp	r1, #0
 2767 000e F9D0     		beq	.L317
1431:../../iot_link/os/liteos/cmsis/2.0/cmsis_liteos2.c ****     {
 2768              		.loc 1 1431 0 is_stmt 0 discriminator 2
 2769 0010 094B     		ldr	r3, .L321
 2770 0012 1B68     		ldr	r3, [r3]
 2771 0014 002B     		cmp	r3, #0
 2772 0016 F5D1     		bne	.L317
1436:../../iot_link/os/liteos/cmsis/2.0/cmsis_liteos2.c ****     if (uwRet == LOS_OK)
 2773              		.loc 1 1436 0 is_stmt 1
 2774 0018 89B2     		uxth	r1, r1
 2775              	.LVL279:
 2776 001a 0091     		str	r1, [sp]
 2777 001c 03AA     		add	r2, sp, #12
 2778              	.LVL280:
 2779 001e 81B2     		uxth	r1, r0
 2780 0020 1846     		mov	r0, r3
 2781              	.LVL281:
 2782 0022 FFF7FEFF 		bl	LOS_QueueCreate
 2783              	.LVL282:
1437:../../iot_link/os/liteos/cmsis/2.0/cmsis_liteos2.c ****     {
 2784              		.loc 1 1437 0
 2785 0026 0028     		cmp	r0, #0
 2786 0028 ECD1     		bne	.L317
1439:../../iot_link/os/liteos/cmsis/2.0/cmsis_liteos2.c ****     }
 2787              		.loc 1 1439 0
 2788 002a 044B     		ldr	r3, .L321+4
 2789 002c 0398     		ldr	r0, [sp, #12]
 2790              	.LVL283:
 2791 002e 1B68     		ldr	r3, [r3]
 2792 0030 2C22     		movs	r2, #44
 2793 0032 02FB0030 		mla	r0, r2, r0, r3
 2794              	.LVL284:
 2795 0036 E6E7     		b	.L314
 2796              	.L322:
 2797              		.align	2
 2798              	.L321:
 2799 0038 00000000 		.word	g_vuwIntCount
 2800 003c 00000000 		.word	g_pstAllQueue
 2801              		.cfi_endproc
 2802              	.LFE335:
 2804              		.section	.text.osMessageQueuePut,"ax",%progbits
 2805              		.align	1
 2806              		.global	osMessageQueuePut
 2807              		.syntax unified
 2808              		.thumb
 2809              		.thumb_func
 2810              		.fpu fpv4-sp-d16
 2812              	osMessageQueuePut:
 2813              	.LFB336:
ARM GAS  C:\Users\LuckyE\AppData\Local\Temp\ccfppLKa.s 			page 77


1448:../../iot_link/os/liteos/cmsis/2.0/cmsis_liteos2.c **** 
1449:../../iot_link/os/liteos/cmsis/2.0/cmsis_liteos2.c **** 
1450:../../iot_link/os/liteos/cmsis/2.0/cmsis_liteos2.c **** osStatus_t osMessageQueuePut (osMessageQueueId_t mq_id, const void *msg_ptr, uint8_t msg_prio, uint
1451:../../iot_link/os/liteos/cmsis/2.0/cmsis_liteos2.c **** {
 2814              		.loc 1 1451 0
 2815              		.cfi_startproc
 2816              		@ args = 0, pretend = 0, frame = 0
 2817              		@ frame_needed = 0, uses_anonymous_args = 0
 2818              	.LVL285:
 2819 0000 08B5     		push	{r3, lr}
 2820              	.LCFI45:
 2821              		.cfi_def_cfa_offset 8
 2822              		.cfi_offset 3, -8
 2823              		.cfi_offset 14, -4
1452:../../iot_link/os/liteos/cmsis/2.0/cmsis_liteos2.c ****     UNUSED(msg_prio);
1453:../../iot_link/os/liteos/cmsis/2.0/cmsis_liteos2.c ****     UINT32 uwRet;
1454:../../iot_link/os/liteos/cmsis/2.0/cmsis_liteos2.c ****     UINT32 uwBufferSize;
1455:../../iot_link/os/liteos/cmsis/2.0/cmsis_liteos2.c ****     QUEUE_CB_S *pstQueue = (QUEUE_CB_S *)mq_id;
1456:../../iot_link/os/liteos/cmsis/2.0/cmsis_liteos2.c **** 
1457:../../iot_link/os/liteos/cmsis/2.0/cmsis_liteos2.c ****     if (pstQueue == NULL || msg_ptr == NULL || ((OS_INT_ACTIVE) && (0 != timeout)))
 2824              		.loc 1 1457 0
 2825 0002 10B9     		cbnz	r0, .L324
 2826              	.LVL286:
 2827              	.L326:
1458:../../iot_link/os/liteos/cmsis/2.0/cmsis_liteos2.c ****     {
1459:../../iot_link/os/liteos/cmsis/2.0/cmsis_liteos2.c ****         return osErrorParameter;
 2828              		.loc 1 1459 0
 2829 0004 6FF00300 		mvn	r0, #3
 2830              	.L323:
1460:../../iot_link/os/liteos/cmsis/2.0/cmsis_liteos2.c ****     }
1461:../../iot_link/os/liteos/cmsis/2.0/cmsis_liteos2.c **** 
1462:../../iot_link/os/liteos/cmsis/2.0/cmsis_liteos2.c ****     uwBufferSize = (UINT32)(pstQueue->usQueueSize - sizeof(UINT32));
1463:../../iot_link/os/liteos/cmsis/2.0/cmsis_liteos2.c ****     uwRet = LOS_QueueWriteCopy((UINT32)pstQueue->usQueueID, (void *)msg_ptr, uwBufferSize, timeout)
1464:../../iot_link/os/liteos/cmsis/2.0/cmsis_liteos2.c ****     if (uwRet == LOS_OK)
1465:../../iot_link/os/liteos/cmsis/2.0/cmsis_liteos2.c ****     {
1466:../../iot_link/os/liteos/cmsis/2.0/cmsis_liteos2.c ****         return osOK;
1467:../../iot_link/os/liteos/cmsis/2.0/cmsis_liteos2.c ****     }
1468:../../iot_link/os/liteos/cmsis/2.0/cmsis_liteos2.c ****     else if(uwRet == LOS_ERRNO_QUEUE_INVALID || uwRet == LOS_ERRNO_QUEUE_NOT_CREATE)
1469:../../iot_link/os/liteos/cmsis/2.0/cmsis_liteos2.c ****     {
1470:../../iot_link/os/liteos/cmsis/2.0/cmsis_liteos2.c ****         return osErrorParameter;
1471:../../iot_link/os/liteos/cmsis/2.0/cmsis_liteos2.c ****     }
1472:../../iot_link/os/liteos/cmsis/2.0/cmsis_liteos2.c ****     else if (uwRet == LOS_ERRNO_QUEUE_TIMEOUT)
1473:../../iot_link/os/liteos/cmsis/2.0/cmsis_liteos2.c ****     {
1474:../../iot_link/os/liteos/cmsis/2.0/cmsis_liteos2.c ****         return osErrorTimeout;
1475:../../iot_link/os/liteos/cmsis/2.0/cmsis_liteos2.c ****     }
1476:../../iot_link/os/liteos/cmsis/2.0/cmsis_liteos2.c ****     else
1477:../../iot_link/os/liteos/cmsis/2.0/cmsis_liteos2.c ****     {
1478:../../iot_link/os/liteos/cmsis/2.0/cmsis_liteos2.c ****         return osErrorResource;
1479:../../iot_link/os/liteos/cmsis/2.0/cmsis_liteos2.c ****     }
1480:../../iot_link/os/liteos/cmsis/2.0/cmsis_liteos2.c **** }
 2831              		.loc 1 1480 0
 2832 0008 08BD     		pop	{r3, pc}
 2833              	.LVL287:
 2834              	.L324:
1457:../../iot_link/os/liteos/cmsis/2.0/cmsis_liteos2.c ****     {
 2835              		.loc 1 1457 0 discriminator 1
 2836 000a 0029     		cmp	r1, #0
ARM GAS  C:\Users\LuckyE\AppData\Local\Temp\ccfppLKa.s 			page 78


 2837 000c FAD0     		beq	.L326
1457:../../iot_link/os/liteos/cmsis/2.0/cmsis_liteos2.c ****     {
 2838              		.loc 1 1457 0 is_stmt 0 discriminator 2
 2839 000e 0C4A     		ldr	r2, .L336
 2840              	.LVL288:
 2841 0010 1268     		ldr	r2, [r2]
 2842 0012 0AB1     		cbz	r2, .L327
1457:../../iot_link/os/liteos/cmsis/2.0/cmsis_liteos2.c ****     {
 2843              		.loc 1 1457 0 discriminator 3
 2844 0014 002B     		cmp	r3, #0
 2845 0016 F5D1     		bne	.L326
 2846              	.L327:
 2847              	.LVL289:
1462:../../iot_link/os/liteos/cmsis/2.0/cmsis_liteos2.c ****     uwRet = LOS_QueueWriteCopy((UINT32)pstQueue->usQueueID, (void *)msg_ptr, uwBufferSize, timeout)
 2848              		.loc 1 1462 0 is_stmt 1
 2849 0018 0289     		ldrh	r2, [r0, #8]
1463:../../iot_link/os/liteos/cmsis/2.0/cmsis_liteos2.c ****     if (uwRet == LOS_OK)
 2850              		.loc 1 1463 0
 2851 001a 4089     		ldrh	r0, [r0, #10]
 2852              	.LVL290:
 2853 001c 043A     		subs	r2, r2, #4
 2854              	.LVL291:
 2855 001e FFF7FEFF 		bl	LOS_QueueWriteCopy
 2856              	.LVL292:
1464:../../iot_link/os/liteos/cmsis/2.0/cmsis_liteos2.c ****     {
 2857              		.loc 1 1464 0
 2858 0022 0028     		cmp	r0, #0
 2859 0024 F0D0     		beq	.L323
1468:../../iot_link/os/liteos/cmsis/2.0/cmsis_liteos2.c ****     {
 2860              		.loc 1 1468 0 discriminator 1
 2861 0026 074B     		ldr	r3, .L336+4
 2862 0028 20F00402 		bic	r2, r0, #4
 2863 002c 9A42     		cmp	r2, r3
 2864 002e E9D0     		beq	.L326
1472:../../iot_link/os/liteos/cmsis/2.0/cmsis_liteos2.c ****     {
 2865              		.loc 1 1472 0
 2866 0030 033B     		subs	r3, r3, #3
1478:../../iot_link/os/liteos/cmsis/2.0/cmsis_liteos2.c ****     }
 2867              		.loc 1 1478 0
 2868 0032 9842     		cmp	r0, r3
 2869 0034 0CBF     		ite	eq
 2870 0036 6FF00100 		mvneq	r0, #1
 2871              	.LVL293:
 2872 003a 6FF00200 		mvnne	r0, #2
 2873 003e E3E7     		b	.L323
 2874              	.L337:
 2875              		.align	2
 2876              	.L336:
 2877 0040 00000000 		.word	g_vuwIntCount
 2878 0044 0A060002 		.word	33555978
 2879              		.cfi_endproc
 2880              	.LFE336:
 2882              		.section	.text.osMessageQueueGet,"ax",%progbits
 2883              		.align	1
 2884              		.global	osMessageQueueGet
 2885              		.syntax unified
 2886              		.thumb
ARM GAS  C:\Users\LuckyE\AppData\Local\Temp\ccfppLKa.s 			page 79


 2887              		.thumb_func
 2888              		.fpu fpv4-sp-d16
 2890              	osMessageQueueGet:
 2891              	.LFB337:
1481:../../iot_link/os/liteos/cmsis/2.0/cmsis_liteos2.c **** 
1482:../../iot_link/os/liteos/cmsis/2.0/cmsis_liteos2.c **** 
1483:../../iot_link/os/liteos/cmsis/2.0/cmsis_liteos2.c **** osStatus_t osMessageQueueGet (osMessageQueueId_t mq_id, void *msg_ptr, uint8_t *msg_prio, uint32_t 
1484:../../iot_link/os/liteos/cmsis/2.0/cmsis_liteos2.c **** {
 2892              		.loc 1 1484 0
 2893              		.cfi_startproc
 2894              		@ args = 0, pretend = 0, frame = 8
 2895              		@ frame_needed = 0, uses_anonymous_args = 0
 2896              	.LVL294:
 2897 0000 13B5     		push	{r0, r1, r4, lr}
 2898              	.LCFI46:
 2899              		.cfi_def_cfa_offset 16
 2900              		.cfi_offset 4, -8
 2901              		.cfi_offset 14, -4
1485:../../iot_link/os/liteos/cmsis/2.0/cmsis_liteos2.c ****     UNUSED(msg_prio);
1486:../../iot_link/os/liteos/cmsis/2.0/cmsis_liteos2.c ****     UINT32 uwRet;
1487:../../iot_link/os/liteos/cmsis/2.0/cmsis_liteos2.c ****     UINT32 uwBufferSize;
1488:../../iot_link/os/liteos/cmsis/2.0/cmsis_liteos2.c ****     QUEUE_CB_S *pstQueue = (QUEUE_CB_S *)mq_id;
1489:../../iot_link/os/liteos/cmsis/2.0/cmsis_liteos2.c **** 
1490:../../iot_link/os/liteos/cmsis/2.0/cmsis_liteos2.c ****     if (pstQueue == NULL || msg_ptr == NULL || ((OS_INT_ACTIVE) && (0 != timeout)))
 2902              		.loc 1 1490 0
 2903 0002 18B9     		cbnz	r0, .L339
 2904              	.LVL295:
 2905              	.L341:
1491:../../iot_link/os/liteos/cmsis/2.0/cmsis_liteos2.c ****     {
1492:../../iot_link/os/liteos/cmsis/2.0/cmsis_liteos2.c ****         return osErrorParameter;
 2906              		.loc 1 1492 0
 2907 0004 6FF00300 		mvn	r0, #3
 2908              	.L338:
1493:../../iot_link/os/liteos/cmsis/2.0/cmsis_liteos2.c ****     }
1494:../../iot_link/os/liteos/cmsis/2.0/cmsis_liteos2.c **** 
1495:../../iot_link/os/liteos/cmsis/2.0/cmsis_liteos2.c ****     uwBufferSize = (UINT32)(pstQueue->usQueueSize - sizeof(UINT32));
1496:../../iot_link/os/liteos/cmsis/2.0/cmsis_liteos2.c ****     uwRet = LOS_QueueReadCopy((UINT32)pstQueue->usQueueID, msg_ptr, &uwBufferSize, timeout);
1497:../../iot_link/os/liteos/cmsis/2.0/cmsis_liteos2.c ****     if (uwRet == LOS_OK)
1498:../../iot_link/os/liteos/cmsis/2.0/cmsis_liteos2.c ****     {
1499:../../iot_link/os/liteos/cmsis/2.0/cmsis_liteos2.c ****         return osOK;
1500:../../iot_link/os/liteos/cmsis/2.0/cmsis_liteos2.c ****     }
1501:../../iot_link/os/liteos/cmsis/2.0/cmsis_liteos2.c ****     else if (uwRet == LOS_ERRNO_QUEUE_INVALID || uwRet == LOS_ERRNO_QUEUE_NOT_CREATE)
1502:../../iot_link/os/liteos/cmsis/2.0/cmsis_liteos2.c ****     {
1503:../../iot_link/os/liteos/cmsis/2.0/cmsis_liteos2.c ****         return osErrorParameter;
1504:../../iot_link/os/liteos/cmsis/2.0/cmsis_liteos2.c ****     }
1505:../../iot_link/os/liteos/cmsis/2.0/cmsis_liteos2.c ****     else if (uwRet == LOS_ERRNO_QUEUE_TIMEOUT)
1506:../../iot_link/os/liteos/cmsis/2.0/cmsis_liteos2.c ****     {
1507:../../iot_link/os/liteos/cmsis/2.0/cmsis_liteos2.c ****         return osErrorTimeout;
1508:../../iot_link/os/liteos/cmsis/2.0/cmsis_liteos2.c ****     }
1509:../../iot_link/os/liteos/cmsis/2.0/cmsis_liteos2.c ****     else
1510:../../iot_link/os/liteos/cmsis/2.0/cmsis_liteos2.c ****     {
1511:../../iot_link/os/liteos/cmsis/2.0/cmsis_liteos2.c ****         return osErrorResource;
1512:../../iot_link/os/liteos/cmsis/2.0/cmsis_liteos2.c ****     }
1513:../../iot_link/os/liteos/cmsis/2.0/cmsis_liteos2.c **** }
 2909              		.loc 1 1513 0
 2910 0008 02B0     		add	sp, sp, #8
 2911              	.LCFI47:
ARM GAS  C:\Users\LuckyE\AppData\Local\Temp\ccfppLKa.s 			page 80


 2912              		.cfi_remember_state
 2913              		.cfi_def_cfa_offset 8
 2914              		@ sp needed
 2915 000a 10BD     		pop	{r4, pc}
 2916              	.LVL296:
 2917              	.L339:
 2918              	.LCFI48:
 2919              		.cfi_restore_state
1490:../../iot_link/os/liteos/cmsis/2.0/cmsis_liteos2.c ****     {
 2920              		.loc 1 1490 0 discriminator 1
 2921 000c 0029     		cmp	r1, #0
 2922 000e F9D0     		beq	.L341
1490:../../iot_link/os/liteos/cmsis/2.0/cmsis_liteos2.c ****     {
 2923              		.loc 1 1490 0 is_stmt 0 discriminator 2
 2924 0010 0D4A     		ldr	r2, .L351
 2925              	.LVL297:
 2926 0012 1268     		ldr	r2, [r2]
 2927 0014 0AB1     		cbz	r2, .L342
1490:../../iot_link/os/liteos/cmsis/2.0/cmsis_liteos2.c ****     {
 2928              		.loc 1 1490 0 discriminator 3
 2929 0016 002B     		cmp	r3, #0
 2930 0018 F4D1     		bne	.L341
 2931              	.L342:
1495:../../iot_link/os/liteos/cmsis/2.0/cmsis_liteos2.c ****     uwRet = LOS_QueueReadCopy((UINT32)pstQueue->usQueueID, msg_ptr, &uwBufferSize, timeout);
 2932              		.loc 1 1495 0 is_stmt 1
 2933 001a 0489     		ldrh	r4, [r0, #8]
1496:../../iot_link/os/liteos/cmsis/2.0/cmsis_liteos2.c ****     if (uwRet == LOS_OK)
 2934              		.loc 1 1496 0
 2935 001c 4089     		ldrh	r0, [r0, #10]
 2936              	.LVL298:
1495:../../iot_link/os/liteos/cmsis/2.0/cmsis_liteos2.c ****     uwRet = LOS_QueueReadCopy((UINT32)pstQueue->usQueueID, msg_ptr, &uwBufferSize, timeout);
 2937              		.loc 1 1495 0
 2938 001e 02AA     		add	r2, sp, #8
 2939 0020 043C     		subs	r4, r4, #4
 2940 0022 42F8044D 		str	r4, [r2, #-4]!
1496:../../iot_link/os/liteos/cmsis/2.0/cmsis_liteos2.c ****     if (uwRet == LOS_OK)
 2941              		.loc 1 1496 0
 2942 0026 FFF7FEFF 		bl	LOS_QueueReadCopy
 2943              	.LVL299:
1497:../../iot_link/os/liteos/cmsis/2.0/cmsis_liteos2.c ****     {
 2944              		.loc 1 1497 0
 2945 002a 0028     		cmp	r0, #0
 2946 002c ECD0     		beq	.L338
1501:../../iot_link/os/liteos/cmsis/2.0/cmsis_liteos2.c ****     {
 2947              		.loc 1 1501 0 discriminator 1
 2948 002e 074B     		ldr	r3, .L351+4
 2949 0030 20F00402 		bic	r2, r0, #4
 2950 0034 9A42     		cmp	r2, r3
 2951 0036 E5D0     		beq	.L341
1505:../../iot_link/os/liteos/cmsis/2.0/cmsis_liteos2.c ****     {
 2952              		.loc 1 1505 0
 2953 0038 033B     		subs	r3, r3, #3
1511:../../iot_link/os/liteos/cmsis/2.0/cmsis_liteos2.c ****     }
 2954              		.loc 1 1511 0
 2955 003a 9842     		cmp	r0, r3
 2956 003c 0CBF     		ite	eq
 2957 003e 6FF00100 		mvneq	r0, #1
ARM GAS  C:\Users\LuckyE\AppData\Local\Temp\ccfppLKa.s 			page 81


 2958              	.LVL300:
 2959 0042 6FF00200 		mvnne	r0, #2
 2960 0046 DFE7     		b	.L338
 2961              	.L352:
 2962              		.align	2
 2963              	.L351:
 2964 0048 00000000 		.word	g_vuwIntCount
 2965 004c 0A060002 		.word	33555978
 2966              		.cfi_endproc
 2967              	.LFE337:
 2969              		.section	.text.osMessageQueueGetCapacity,"ax",%progbits
 2970              		.align	1
 2971              		.global	osMessageQueueGetCapacity
 2972              		.syntax unified
 2973              		.thumb
 2974              		.thumb_func
 2975              		.fpu fpv4-sp-d16
 2977              	osMessageQueueGetCapacity:
 2978              	.LFB338:
1514:../../iot_link/os/liteos/cmsis/2.0/cmsis_liteos2.c **** 
1515:../../iot_link/os/liteos/cmsis/2.0/cmsis_liteos2.c **** uint32_t osMessageQueueGetCapacity(osMessageQueueId_t mq_id)
1516:../../iot_link/os/liteos/cmsis/2.0/cmsis_liteos2.c **** {
 2979              		.loc 1 1516 0
 2980              		.cfi_startproc
 2981              		@ args = 0, pretend = 0, frame = 0
 2982              		@ frame_needed = 0, uses_anonymous_args = 0
 2983              		@ link register save eliminated.
 2984              	.LVL301:
1517:../../iot_link/os/liteos/cmsis/2.0/cmsis_liteos2.c ****     uint32_t capacity;
1518:../../iot_link/os/liteos/cmsis/2.0/cmsis_liteos2.c ****     QUEUE_CB_S *pstQueue = (QUEUE_CB_S *)mq_id;
1519:../../iot_link/os/liteos/cmsis/2.0/cmsis_liteos2.c **** 
1520:../../iot_link/os/liteos/cmsis/2.0/cmsis_liteos2.c ****     if (pstQueue == NULL)
 2985              		.loc 1 1520 0
 2986 0000 00B1     		cbz	r0, .L353
1521:../../iot_link/os/liteos/cmsis/2.0/cmsis_liteos2.c ****     {
1522:../../iot_link/os/liteos/cmsis/2.0/cmsis_liteos2.c ****         capacity = 0U;
1523:../../iot_link/os/liteos/cmsis/2.0/cmsis_liteos2.c ****     }
1524:../../iot_link/os/liteos/cmsis/2.0/cmsis_liteos2.c ****     else
1525:../../iot_link/os/liteos/cmsis/2.0/cmsis_liteos2.c ****     {
1526:../../iot_link/os/liteos/cmsis/2.0/cmsis_liteos2.c ****         capacity = pstQueue->usQueueLen;
 2987              		.loc 1 1526 0
 2988 0002 C088     		ldrh	r0, [r0, #6]
 2989              	.LVL302:
 2990              	.L353:
1527:../../iot_link/os/liteos/cmsis/2.0/cmsis_liteos2.c ****     }
1528:../../iot_link/os/liteos/cmsis/2.0/cmsis_liteos2.c **** 
1529:../../iot_link/os/liteos/cmsis/2.0/cmsis_liteos2.c ****     return (capacity);
1530:../../iot_link/os/liteos/cmsis/2.0/cmsis_liteos2.c **** }
 2991              		.loc 1 1530 0
 2992 0004 7047     		bx	lr
 2993              		.cfi_endproc
 2994              	.LFE338:
 2996              		.section	.text.osMessageQueueGetMsgSize,"ax",%progbits
 2997              		.align	1
 2998              		.global	osMessageQueueGetMsgSize
 2999              		.syntax unified
 3000              		.thumb
ARM GAS  C:\Users\LuckyE\AppData\Local\Temp\ccfppLKa.s 			page 82


 3001              		.thumb_func
 3002              		.fpu fpv4-sp-d16
 3004              	osMessageQueueGetMsgSize:
 3005              	.LFB339:
1531:../../iot_link/os/liteos/cmsis/2.0/cmsis_liteos2.c **** 
1532:../../iot_link/os/liteos/cmsis/2.0/cmsis_liteos2.c **** uint32_t osMessageQueueGetMsgSize(osMessageQueueId_t mq_id)
1533:../../iot_link/os/liteos/cmsis/2.0/cmsis_liteos2.c **** {
 3006              		.loc 1 1533 0
 3007              		.cfi_startproc
 3008              		@ args = 0, pretend = 0, frame = 0
 3009              		@ frame_needed = 0, uses_anonymous_args = 0
 3010              		@ link register save eliminated.
 3011              	.LVL303:
1534:../../iot_link/os/liteos/cmsis/2.0/cmsis_liteos2.c ****     uint32_t size;
1535:../../iot_link/os/liteos/cmsis/2.0/cmsis_liteos2.c ****     QUEUE_CB_S *pstQueue = (QUEUE_CB_S *)mq_id;
1536:../../iot_link/os/liteos/cmsis/2.0/cmsis_liteos2.c **** 
1537:../../iot_link/os/liteos/cmsis/2.0/cmsis_liteos2.c ****     if (pstQueue == NULL)
 3012              		.loc 1 1537 0
 3013 0000 08B1     		cbz	r0, .L356
1538:../../iot_link/os/liteos/cmsis/2.0/cmsis_liteos2.c ****     {
1539:../../iot_link/os/liteos/cmsis/2.0/cmsis_liteos2.c ****         size = 0U;
1540:../../iot_link/os/liteos/cmsis/2.0/cmsis_liteos2.c ****     }
1541:../../iot_link/os/liteos/cmsis/2.0/cmsis_liteos2.c ****     else
1542:../../iot_link/os/liteos/cmsis/2.0/cmsis_liteos2.c ****     {
1543:../../iot_link/os/liteos/cmsis/2.0/cmsis_liteos2.c ****         size = pstQueue->usQueueSize - sizeof(UINT32);
 3014              		.loc 1 1543 0
 3015 0002 0089     		ldrh	r0, [r0, #8]
 3016              	.LVL304:
 3017 0004 0438     		subs	r0, r0, #4
 3018              	.LVL305:
 3019              	.L356:
1544:../../iot_link/os/liteos/cmsis/2.0/cmsis_liteos2.c ****     }
1545:../../iot_link/os/liteos/cmsis/2.0/cmsis_liteos2.c **** 
1546:../../iot_link/os/liteos/cmsis/2.0/cmsis_liteos2.c ****     return (size);
1547:../../iot_link/os/liteos/cmsis/2.0/cmsis_liteos2.c **** }
 3020              		.loc 1 1547 0
 3021 0006 7047     		bx	lr
 3022              		.cfi_endproc
 3023              	.LFE339:
 3025              		.section	.text.osMessageQueueGetCount,"ax",%progbits
 3026              		.align	1
 3027              		.global	osMessageQueueGetCount
 3028              		.syntax unified
 3029              		.thumb
 3030              		.thumb_func
 3031              		.fpu fpv4-sp-d16
 3033              	osMessageQueueGetCount:
 3034              	.LFB340:
1548:../../iot_link/os/liteos/cmsis/2.0/cmsis_liteos2.c **** 
1549:../../iot_link/os/liteos/cmsis/2.0/cmsis_liteos2.c **** 
1550:../../iot_link/os/liteos/cmsis/2.0/cmsis_liteos2.c **** uint32_t osMessageQueueGetCount (osMessageQueueId_t mq_id)
1551:../../iot_link/os/liteos/cmsis/2.0/cmsis_liteos2.c **** {
 3035              		.loc 1 1551 0
 3036              		.cfi_startproc
 3037              		@ args = 0, pretend = 0, frame = 0
 3038              		@ frame_needed = 0, uses_anonymous_args = 0
 3039              	.LVL306:
ARM GAS  C:\Users\LuckyE\AppData\Local\Temp\ccfppLKa.s 			page 83


 3040 0000 10B5     		push	{r4, lr}
 3041              	.LCFI49:
 3042              		.cfi_def_cfa_offset 8
 3043              		.cfi_offset 4, -8
 3044              		.cfi_offset 14, -4
1552:../../iot_link/os/liteos/cmsis/2.0/cmsis_liteos2.c ****     uint32_t count;
1553:../../iot_link/os/liteos/cmsis/2.0/cmsis_liteos2.c ****     UINTPTR uwIntSave;
1554:../../iot_link/os/liteos/cmsis/2.0/cmsis_liteos2.c ****     QUEUE_CB_S *pstQueue = (QUEUE_CB_S *)mq_id;
1555:../../iot_link/os/liteos/cmsis/2.0/cmsis_liteos2.c **** 
1556:../../iot_link/os/liteos/cmsis/2.0/cmsis_liteos2.c ****     if (pstQueue == NULL)
 3045              		.loc 1 1556 0
 3046 0002 0446     		mov	r4, r0
 3047 0004 20B1     		cbz	r0, .L359
1557:../../iot_link/os/liteos/cmsis/2.0/cmsis_liteos2.c ****     {
1558:../../iot_link/os/liteos/cmsis/2.0/cmsis_liteos2.c ****         count = 0U;
1559:../../iot_link/os/liteos/cmsis/2.0/cmsis_liteos2.c ****     }
1560:../../iot_link/os/liteos/cmsis/2.0/cmsis_liteos2.c ****     else
1561:../../iot_link/os/liteos/cmsis/2.0/cmsis_liteos2.c ****     {
1562:../../iot_link/os/liteos/cmsis/2.0/cmsis_liteos2.c ****         uwIntSave = LOS_IntLock();
 3048              		.loc 1 1562 0
 3049 0006 FFF7FEFF 		bl	LOS_IntLock
 3050              	.LVL307:
1563:../../iot_link/os/liteos/cmsis/2.0/cmsis_liteos2.c ****         count = (uint32_t)(pstQueue->usReadWriteableCnt[OS_QUEUE_READ]);
 3051              		.loc 1 1563 0
 3052 000a 248A     		ldrh	r4, [r4, #16]
 3053              	.LVL308:
1564:../../iot_link/os/liteos/cmsis/2.0/cmsis_liteos2.c ****         LOS_IntRestore(uwIntSave);
 3054              		.loc 1 1564 0
 3055 000c FFF7FEFF 		bl	LOS_IntRestore
 3056              	.LVL309:
 3057              	.L359:
1565:../../iot_link/os/liteos/cmsis/2.0/cmsis_liteos2.c ****     }
1566:../../iot_link/os/liteos/cmsis/2.0/cmsis_liteos2.c ****     return count;
1567:../../iot_link/os/liteos/cmsis/2.0/cmsis_liteos2.c **** }
