ARM GAS  C:\Users\LuckyE\AppData\Local\Temp\ccgn9LZs.s 			page 1


   1              		.cpu cortex-m4
   2              		.eabi_attribute 27, 1
   3              		.eabi_attribute 28, 1
   4              		.eabi_attribute 20, 1
   5              		.eabi_attribute 21, 1
   6              		.eabi_attribute 23, 3
   7              		.eabi_attribute 24, 1
   8              		.eabi_attribute 25, 1
   9              		.eabi_attribute 26, 1
  10              		.eabi_attribute 30, 4
  11              		.eabi_attribute 34, 1
  12              		.eabi_attribute 18, 4
  13              		.file	"cJSON.c"
  14              		.text
  15              	.Ltext0:
  16              		.cfi_sections	.debug_frame
  17              		.section	.text.parse_hex4,"ax",%progbits
  18              		.align	1
  19              		.syntax unified
  20              		.thumb
  21              		.thumb_func
  22              		.fpu fpv4-sp-d16
  24              	parse_hex4:
  25              	.LFB17:
  26              		.file 1 "../../iot_link/cJSON/cJSON.c"
   1:../../iot_link/cJSON/cJSON.c **** /*
   2:../../iot_link/cJSON/cJSON.c ****   Copyright (c) 2009-2017 Dave Gamble and cJSON contributors
   3:../../iot_link/cJSON/cJSON.c **** 
   4:../../iot_link/cJSON/cJSON.c ****   Permission is hereby granted, free of charge, to any person obtaining a copy
   5:../../iot_link/cJSON/cJSON.c ****   of this software and associated documentation files (the "Software"), to deal
   6:../../iot_link/cJSON/cJSON.c ****   in the Software without restriction, including without limitation the rights
   7:../../iot_link/cJSON/cJSON.c ****   to use, copy, modify, merge, publish, distribute, sublicense, and/or sell
   8:../../iot_link/cJSON/cJSON.c ****   copies of the Software, and to permit persons to whom the Software is
   9:../../iot_link/cJSON/cJSON.c ****   furnished to do so, subject to the following conditions:
  10:../../iot_link/cJSON/cJSON.c **** 
  11:../../iot_link/cJSON/cJSON.c ****   The above copyright notice and this permission notice shall be included in
  12:../../iot_link/cJSON/cJSON.c ****   all copies or substantial portions of the Software.
  13:../../iot_link/cJSON/cJSON.c **** 
  14:../../iot_link/cJSON/cJSON.c ****   THE SOFTWARE IS PROVIDED "AS IS", WITHOUT WARRANTY OF ANY KIND, EXPRESS OR
  15:../../iot_link/cJSON/cJSON.c ****   IMPLIED, INCLUDING BUT NOT LIMITED TO THE WARRANTIES OF MERCHANTABILITY,
  16:../../iot_link/cJSON/cJSON.c ****   FITNESS FOR A PARTICULAR PURPOSE AND NONINFRINGEMENT. IN NO EVENT SHALL THE
  17:../../iot_link/cJSON/cJSON.c ****   AUTHORS OR COPYRIGHT HOLDERS BE LIABLE FOR ANY CLAIM, DAMAGES OR OTHER
  18:../../iot_link/cJSON/cJSON.c ****   LIABILITY, WHETHER IN AN ACTION OF CONTRACT, TORT OR OTHERWISE, ARISING FROM,
  19:../../iot_link/cJSON/cJSON.c ****   OUT OF OR IN CONNECTION WITH THE SOFTWARE OR THE USE OR OTHER DEALINGS IN
  20:../../iot_link/cJSON/cJSON.c ****   THE SOFTWARE.
  21:../../iot_link/cJSON/cJSON.c **** */
  22:../../iot_link/cJSON/cJSON.c **** 
  23:../../iot_link/cJSON/cJSON.c **** /* cJSON */
  24:../../iot_link/cJSON/cJSON.c **** /* JSON parser in C. */
  25:../../iot_link/cJSON/cJSON.c **** 
  26:../../iot_link/cJSON/cJSON.c **** /* disable warnings about old C89 functions in MSVC */
  27:../../iot_link/cJSON/cJSON.c **** #if !defined(_CRT_SECURE_NO_DEPRECATE) && defined(_MSC_VER)
  28:../../iot_link/cJSON/cJSON.c **** #define _CRT_SECURE_NO_DEPRECATE
  29:../../iot_link/cJSON/cJSON.c **** #endif
  30:../../iot_link/cJSON/cJSON.c **** 
  31:../../iot_link/cJSON/cJSON.c **** #ifdef __GNUC__
  32:../../iot_link/cJSON/cJSON.c **** #pragma GCC visibility push(default)
ARM GAS  C:\Users\LuckyE\AppData\Local\Temp\ccgn9LZs.s 			page 2


  33:../../iot_link/cJSON/cJSON.c **** #endif
  34:../../iot_link/cJSON/cJSON.c **** #if defined(_MSC_VER)
  35:../../iot_link/cJSON/cJSON.c **** #pragma warning (push)
  36:../../iot_link/cJSON/cJSON.c **** /* disable warning about single line comments in system headers */
  37:../../iot_link/cJSON/cJSON.c **** #pragma warning (disable : 4001)
  38:../../iot_link/cJSON/cJSON.c **** #endif
  39:../../iot_link/cJSON/cJSON.c **** 
  40:../../iot_link/cJSON/cJSON.c **** #include <string.h>
  41:../../iot_link/cJSON/cJSON.c **** #include <stdio.h>
  42:../../iot_link/cJSON/cJSON.c **** #include <math.h>
  43:../../iot_link/cJSON/cJSON.c **** #include <stdlib.h>
  44:../../iot_link/cJSON/cJSON.c **** #include <limits.h>
  45:../../iot_link/cJSON/cJSON.c **** #include <ctype.h>
  46:../../iot_link/cJSON/cJSON.c **** 
  47:../../iot_link/cJSON/cJSON.c **** #ifdef ENABLE_LOCALES
  48:../../iot_link/cJSON/cJSON.c **** #include <locale.h>
  49:../../iot_link/cJSON/cJSON.c **** #endif
  50:../../iot_link/cJSON/cJSON.c **** 
  51:../../iot_link/cJSON/cJSON.c **** #if defined(_MSC_VER)
  52:../../iot_link/cJSON/cJSON.c **** #pragma warning (pop)
  53:../../iot_link/cJSON/cJSON.c **** #endif
  54:../../iot_link/cJSON/cJSON.c **** #ifdef __GNUC__
  55:../../iot_link/cJSON/cJSON.c **** #pragma GCC visibility pop
  56:../../iot_link/cJSON/cJSON.c **** #endif
  57:../../iot_link/cJSON/cJSON.c **** 
  58:../../iot_link/cJSON/cJSON.c **** #include "cJSON.h"
  59:../../iot_link/cJSON/cJSON.c **** 
  60:../../iot_link/cJSON/cJSON.c **** /* define our own boolean type */
  61:../../iot_link/cJSON/cJSON.c **** #define true ((cJSON_bool)1)
  62:../../iot_link/cJSON/cJSON.c **** #define false ((cJSON_bool)0)
  63:../../iot_link/cJSON/cJSON.c **** 
  64:../../iot_link/cJSON/cJSON.c **** typedef struct {
  65:../../iot_link/cJSON/cJSON.c ****     const unsigned char *json;
  66:../../iot_link/cJSON/cJSON.c ****     size_t position;
  67:../../iot_link/cJSON/cJSON.c **** } error;
  68:../../iot_link/cJSON/cJSON.c **** static error global_error = { NULL, 0 };
  69:../../iot_link/cJSON/cJSON.c **** 
  70:../../iot_link/cJSON/cJSON.c **** CJSON_PUBLIC(const char *) cJSON_GetErrorPtr(void)
  71:../../iot_link/cJSON/cJSON.c **** {
  72:../../iot_link/cJSON/cJSON.c ****     return (const char*) (global_error.json + global_error.position);
  73:../../iot_link/cJSON/cJSON.c **** }
  74:../../iot_link/cJSON/cJSON.c **** 
  75:../../iot_link/cJSON/cJSON.c **** CJSON_PUBLIC(char *) cJSON_GetStringValue(cJSON *item) {
  76:../../iot_link/cJSON/cJSON.c ****     if (!cJSON_IsString(item)) {
  77:../../iot_link/cJSON/cJSON.c ****         return NULL;
  78:../../iot_link/cJSON/cJSON.c ****     }
  79:../../iot_link/cJSON/cJSON.c **** 
  80:../../iot_link/cJSON/cJSON.c ****     return item->valuestring;
  81:../../iot_link/cJSON/cJSON.c **** }
  82:../../iot_link/cJSON/cJSON.c **** 
  83:../../iot_link/cJSON/cJSON.c **** /* This is a safeguard to prevent copy-pasters from using incompatible C and header files */
  84:../../iot_link/cJSON/cJSON.c **** #if (CJSON_VERSION_MAJOR != 1) || (CJSON_VERSION_MINOR != 7) || (CJSON_VERSION_PATCH != 8)
  85:../../iot_link/cJSON/cJSON.c ****     #error cJSON.h and cJSON.c have different versions. Make sure that both have the same.
  86:../../iot_link/cJSON/cJSON.c **** #endif
  87:../../iot_link/cJSON/cJSON.c **** 
  88:../../iot_link/cJSON/cJSON.c **** CJSON_PUBLIC(const char*) cJSON_Version(void)
  89:../../iot_link/cJSON/cJSON.c **** {
ARM GAS  C:\Users\LuckyE\AppData\Local\Temp\ccgn9LZs.s 			page 3


  90:../../iot_link/cJSON/cJSON.c ****     static char version[15];
  91:../../iot_link/cJSON/cJSON.c ****     sprintf(version, "%i.%i.%i", CJSON_VERSION_MAJOR, CJSON_VERSION_MINOR, CJSON_VERSION_PATCH);
  92:../../iot_link/cJSON/cJSON.c **** 
  93:../../iot_link/cJSON/cJSON.c ****     return version;
  94:../../iot_link/cJSON/cJSON.c **** }
  95:../../iot_link/cJSON/cJSON.c **** 
  96:../../iot_link/cJSON/cJSON.c **** /* Case insensitive string comparison, doesn't consider two NULL pointers equal though */
  97:../../iot_link/cJSON/cJSON.c **** static int case_insensitive_strcmp(const unsigned char *string1, const unsigned char *string2)
  98:../../iot_link/cJSON/cJSON.c **** {
  99:../../iot_link/cJSON/cJSON.c ****     if ((string1 == NULL) || (string2 == NULL))
 100:../../iot_link/cJSON/cJSON.c ****     {
 101:../../iot_link/cJSON/cJSON.c ****         return 1;
 102:../../iot_link/cJSON/cJSON.c ****     }
 103:../../iot_link/cJSON/cJSON.c **** 
 104:../../iot_link/cJSON/cJSON.c ****     if (string1 == string2)
 105:../../iot_link/cJSON/cJSON.c ****     {
 106:../../iot_link/cJSON/cJSON.c ****         return 0;
 107:../../iot_link/cJSON/cJSON.c ****     }
 108:../../iot_link/cJSON/cJSON.c **** 
 109:../../iot_link/cJSON/cJSON.c ****     for(; tolower(*string1) == tolower(*string2); (void)string1++, string2++)
 110:../../iot_link/cJSON/cJSON.c ****     {
 111:../../iot_link/cJSON/cJSON.c ****         if (*string1 == '\0')
 112:../../iot_link/cJSON/cJSON.c ****         {
 113:../../iot_link/cJSON/cJSON.c ****             return 0;
 114:../../iot_link/cJSON/cJSON.c ****         }
 115:../../iot_link/cJSON/cJSON.c ****     }
 116:../../iot_link/cJSON/cJSON.c **** 
 117:../../iot_link/cJSON/cJSON.c ****     return tolower(*string1) - tolower(*string2);
 118:../../iot_link/cJSON/cJSON.c **** }
 119:../../iot_link/cJSON/cJSON.c **** 
 120:../../iot_link/cJSON/cJSON.c **** typedef struct internal_hooks
 121:../../iot_link/cJSON/cJSON.c **** {
 122:../../iot_link/cJSON/cJSON.c ****     void *(CJSON_CDECL *allocate)(size_t size);
 123:../../iot_link/cJSON/cJSON.c ****     void (CJSON_CDECL *deallocate)(void *pointer);
 124:../../iot_link/cJSON/cJSON.c ****     void *(CJSON_CDECL *reallocate)(void *pointer, size_t size);
 125:../../iot_link/cJSON/cJSON.c **** } internal_hooks;
 126:../../iot_link/cJSON/cJSON.c **** 
 127:../../iot_link/cJSON/cJSON.c **** #if defined(_MSC_VER)
 128:../../iot_link/cJSON/cJSON.c **** /* work around MSVC error C2322: '...' address of dillimport '...' is not static */
 129:../../iot_link/cJSON/cJSON.c **** static void * CJSON_CDECL internal_malloc(size_t size)
 130:../../iot_link/cJSON/cJSON.c **** {
 131:../../iot_link/cJSON/cJSON.c ****     return malloc(size);
 132:../../iot_link/cJSON/cJSON.c **** }
 133:../../iot_link/cJSON/cJSON.c **** static void CJSON_CDECL internal_free(void *pointer)
 134:../../iot_link/cJSON/cJSON.c **** {
 135:../../iot_link/cJSON/cJSON.c ****     free(pointer);
 136:../../iot_link/cJSON/cJSON.c **** }
 137:../../iot_link/cJSON/cJSON.c **** static void * CJSON_CDECL internal_realloc(void *pointer, size_t size)
 138:../../iot_link/cJSON/cJSON.c **** {
 139:../../iot_link/cJSON/cJSON.c ****     return realloc(pointer, size);
 140:../../iot_link/cJSON/cJSON.c **** }
 141:../../iot_link/cJSON/cJSON.c **** #else
 142:../../iot_link/cJSON/cJSON.c **** #define internal_malloc malloc
 143:../../iot_link/cJSON/cJSON.c **** #define internal_free free
 144:../../iot_link/cJSON/cJSON.c **** #define internal_realloc realloc
 145:../../iot_link/cJSON/cJSON.c **** #endif
 146:../../iot_link/cJSON/cJSON.c **** 
ARM GAS  C:\Users\LuckyE\AppData\Local\Temp\ccgn9LZs.s 			page 4


 147:../../iot_link/cJSON/cJSON.c **** static internal_hooks global_hooks = { internal_malloc, internal_free, internal_realloc };
 148:../../iot_link/cJSON/cJSON.c **** 
 149:../../iot_link/cJSON/cJSON.c **** static unsigned char* cJSON_strdup(const unsigned char* string, const internal_hooks * const hooks)
 150:../../iot_link/cJSON/cJSON.c **** {
 151:../../iot_link/cJSON/cJSON.c ****     size_t length = 0;
 152:../../iot_link/cJSON/cJSON.c ****     unsigned char *copy = NULL;
 153:../../iot_link/cJSON/cJSON.c **** 
 154:../../iot_link/cJSON/cJSON.c ****     if (string == NULL)
 155:../../iot_link/cJSON/cJSON.c ****     {
 156:../../iot_link/cJSON/cJSON.c ****         return NULL;
 157:../../iot_link/cJSON/cJSON.c ****     }
 158:../../iot_link/cJSON/cJSON.c **** 
 159:../../iot_link/cJSON/cJSON.c ****     length = strlen((const char*)string) + sizeof("");
 160:../../iot_link/cJSON/cJSON.c ****     copy = (unsigned char*)hooks->allocate(length);
 161:../../iot_link/cJSON/cJSON.c ****     if (copy == NULL)
 162:../../iot_link/cJSON/cJSON.c ****     {
 163:../../iot_link/cJSON/cJSON.c ****         return NULL;
 164:../../iot_link/cJSON/cJSON.c ****     }
 165:../../iot_link/cJSON/cJSON.c ****     (void) memcpy(copy, string, length);
 166:../../iot_link/cJSON/cJSON.c **** 
 167:../../iot_link/cJSON/cJSON.c ****     return copy;
 168:../../iot_link/cJSON/cJSON.c **** }
 169:../../iot_link/cJSON/cJSON.c **** 
 170:../../iot_link/cJSON/cJSON.c **** CJSON_PUBLIC(void) cJSON_InitHooks(cJSON_Hooks* hooks)
 171:../../iot_link/cJSON/cJSON.c **** {
 172:../../iot_link/cJSON/cJSON.c ****     if (hooks == NULL)
 173:../../iot_link/cJSON/cJSON.c ****     {
 174:../../iot_link/cJSON/cJSON.c ****         /* Reset hooks */
 175:../../iot_link/cJSON/cJSON.c ****         global_hooks.allocate = malloc;
 176:../../iot_link/cJSON/cJSON.c ****         global_hooks.deallocate = free;
 177:../../iot_link/cJSON/cJSON.c ****         global_hooks.reallocate = realloc;
 178:../../iot_link/cJSON/cJSON.c ****         return;
 179:../../iot_link/cJSON/cJSON.c ****     }
 180:../../iot_link/cJSON/cJSON.c **** 
 181:../../iot_link/cJSON/cJSON.c ****     global_hooks.allocate = malloc;
 182:../../iot_link/cJSON/cJSON.c ****     if (hooks->malloc_fn != NULL)
 183:../../iot_link/cJSON/cJSON.c ****     {
 184:../../iot_link/cJSON/cJSON.c ****         global_hooks.allocate = hooks->malloc_fn;
 185:../../iot_link/cJSON/cJSON.c ****     }
 186:../../iot_link/cJSON/cJSON.c **** 
 187:../../iot_link/cJSON/cJSON.c ****     global_hooks.deallocate = free;
 188:../../iot_link/cJSON/cJSON.c ****     if (hooks->free_fn != NULL)
 189:../../iot_link/cJSON/cJSON.c ****     {
 190:../../iot_link/cJSON/cJSON.c ****         global_hooks.deallocate = hooks->free_fn;
 191:../../iot_link/cJSON/cJSON.c ****     }
 192:../../iot_link/cJSON/cJSON.c **** 
 193:../../iot_link/cJSON/cJSON.c ****     /* use realloc only if both free and malloc are used */
 194:../../iot_link/cJSON/cJSON.c ****     global_hooks.reallocate = NULL;
 195:../../iot_link/cJSON/cJSON.c ****     if ((global_hooks.allocate == malloc) && (global_hooks.deallocate == free))
 196:../../iot_link/cJSON/cJSON.c ****     {
 197:../../iot_link/cJSON/cJSON.c ****         global_hooks.reallocate = realloc;
 198:../../iot_link/cJSON/cJSON.c ****     }
 199:../../iot_link/cJSON/cJSON.c **** }
 200:../../iot_link/cJSON/cJSON.c **** 
 201:../../iot_link/cJSON/cJSON.c **** /* Internal constructor. */
 202:../../iot_link/cJSON/cJSON.c **** static cJSON *cJSON_New_Item(const internal_hooks * const hooks)
 203:../../iot_link/cJSON/cJSON.c **** {
ARM GAS  C:\Users\LuckyE\AppData\Local\Temp\ccgn9LZs.s 			page 5


 204:../../iot_link/cJSON/cJSON.c ****     cJSON* node = (cJSON*)hooks->allocate(sizeof(cJSON));
 205:../../iot_link/cJSON/cJSON.c ****     if (node)
 206:../../iot_link/cJSON/cJSON.c ****     {
 207:../../iot_link/cJSON/cJSON.c ****         memset(node, '\0', sizeof(cJSON));
 208:../../iot_link/cJSON/cJSON.c ****     }
 209:../../iot_link/cJSON/cJSON.c **** 
 210:../../iot_link/cJSON/cJSON.c ****     return node;
 211:../../iot_link/cJSON/cJSON.c **** }
 212:../../iot_link/cJSON/cJSON.c **** 
 213:../../iot_link/cJSON/cJSON.c **** /* Delete a cJSON structure. */
 214:../../iot_link/cJSON/cJSON.c **** CJSON_PUBLIC(void) cJSON_Delete(cJSON *item)
 215:../../iot_link/cJSON/cJSON.c **** {
 216:../../iot_link/cJSON/cJSON.c ****     cJSON *next = NULL;
 217:../../iot_link/cJSON/cJSON.c ****     while (item != NULL)
 218:../../iot_link/cJSON/cJSON.c ****     {
 219:../../iot_link/cJSON/cJSON.c ****         next = item->next;
 220:../../iot_link/cJSON/cJSON.c ****         if (!(item->type & cJSON_IsReference) && (item->child != NULL))
 221:../../iot_link/cJSON/cJSON.c ****         {
 222:../../iot_link/cJSON/cJSON.c ****             cJSON_Delete(item->child);
 223:../../iot_link/cJSON/cJSON.c ****         }
 224:../../iot_link/cJSON/cJSON.c ****         if (!(item->type & cJSON_IsReference) && (item->valuestring != NULL))
 225:../../iot_link/cJSON/cJSON.c ****         {
 226:../../iot_link/cJSON/cJSON.c ****             global_hooks.deallocate(item->valuestring);
 227:../../iot_link/cJSON/cJSON.c ****         }
 228:../../iot_link/cJSON/cJSON.c ****         if (!(item->type & cJSON_StringIsConst) && (item->string != NULL))
 229:../../iot_link/cJSON/cJSON.c ****         {
 230:../../iot_link/cJSON/cJSON.c ****             global_hooks.deallocate(item->string);
 231:../../iot_link/cJSON/cJSON.c ****         }
 232:../../iot_link/cJSON/cJSON.c ****         global_hooks.deallocate(item);
 233:../../iot_link/cJSON/cJSON.c ****         item = next;
 234:../../iot_link/cJSON/cJSON.c ****     }
 235:../../iot_link/cJSON/cJSON.c **** }
 236:../../iot_link/cJSON/cJSON.c **** 
 237:../../iot_link/cJSON/cJSON.c **** /* get the decimal point character of the current locale */
 238:../../iot_link/cJSON/cJSON.c **** static unsigned char get_decimal_point(void)
 239:../../iot_link/cJSON/cJSON.c **** {
 240:../../iot_link/cJSON/cJSON.c **** #ifdef ENABLE_LOCALES
 241:../../iot_link/cJSON/cJSON.c ****     struct lconv *lconv = localeconv();
 242:../../iot_link/cJSON/cJSON.c ****     return (unsigned char) lconv->decimal_point[0];
 243:../../iot_link/cJSON/cJSON.c **** #else
 244:../../iot_link/cJSON/cJSON.c ****     return '.';
 245:../../iot_link/cJSON/cJSON.c **** #endif
 246:../../iot_link/cJSON/cJSON.c **** }
 247:../../iot_link/cJSON/cJSON.c **** 
 248:../../iot_link/cJSON/cJSON.c **** typedef struct
 249:../../iot_link/cJSON/cJSON.c **** {
 250:../../iot_link/cJSON/cJSON.c ****     const unsigned char *content;
 251:../../iot_link/cJSON/cJSON.c ****     size_t length;
 252:../../iot_link/cJSON/cJSON.c ****     size_t offset;
 253:../../iot_link/cJSON/cJSON.c ****     size_t depth; /* How deeply nested (in arrays/objects) is the input at the current offset. */
 254:../../iot_link/cJSON/cJSON.c ****     internal_hooks hooks;
 255:../../iot_link/cJSON/cJSON.c **** } parse_buffer;
 256:../../iot_link/cJSON/cJSON.c **** 
 257:../../iot_link/cJSON/cJSON.c **** /* check if the given size is left to read in a given parse buffer (starting with 1) */
 258:../../iot_link/cJSON/cJSON.c **** #define can_read(buffer, size) ((buffer != NULL) && (((buffer)->offset + size) <= (buffer)->length)
 259:../../iot_link/cJSON/cJSON.c **** /* check if the buffer can be accessed at the given index (starting with 0) */
 260:../../iot_link/cJSON/cJSON.c **** #define can_access_at_index(buffer, index) ((buffer != NULL) && (((buffer)->offset + index) < (buff
ARM GAS  C:\Users\LuckyE\AppData\Local\Temp\ccgn9LZs.s 			page 6


 261:../../iot_link/cJSON/cJSON.c **** #define cannot_access_at_index(buffer, index) (!can_access_at_index(buffer, index))
 262:../../iot_link/cJSON/cJSON.c **** /* get a pointer to the buffer at the position */
 263:../../iot_link/cJSON/cJSON.c **** #define buffer_at_offset(buffer) ((buffer)->content + (buffer)->offset)
 264:../../iot_link/cJSON/cJSON.c **** 
 265:../../iot_link/cJSON/cJSON.c **** /* Parse the input text to generate a number, and populate the result into item. */
 266:../../iot_link/cJSON/cJSON.c **** static cJSON_bool parse_number(cJSON * const item, parse_buffer * const input_buffer)
 267:../../iot_link/cJSON/cJSON.c **** {
 268:../../iot_link/cJSON/cJSON.c ****     double number = 0;
 269:../../iot_link/cJSON/cJSON.c ****     unsigned char *after_end = NULL;
 270:../../iot_link/cJSON/cJSON.c ****     unsigned char number_c_string[64];
 271:../../iot_link/cJSON/cJSON.c ****     unsigned char decimal_point = get_decimal_point();
 272:../../iot_link/cJSON/cJSON.c ****     size_t i = 0;
 273:../../iot_link/cJSON/cJSON.c **** 
 274:../../iot_link/cJSON/cJSON.c ****     if ((input_buffer == NULL) || (input_buffer->content == NULL))
 275:../../iot_link/cJSON/cJSON.c ****     {
 276:../../iot_link/cJSON/cJSON.c ****         return false;
 277:../../iot_link/cJSON/cJSON.c ****     }
 278:../../iot_link/cJSON/cJSON.c **** 
 279:../../iot_link/cJSON/cJSON.c ****     /* copy the number into a temporary buffer and replace '.' with the decimal point
 280:../../iot_link/cJSON/cJSON.c ****      * of the current locale (for strtod)
 281:../../iot_link/cJSON/cJSON.c ****      * This also takes care of '\0' not necessarily being available for marking the end of the inpu
 282:../../iot_link/cJSON/cJSON.c ****     for (i = 0; (i < (sizeof(number_c_string) - 1)) && can_access_at_index(input_buffer, i); i++)
 283:../../iot_link/cJSON/cJSON.c ****     {
 284:../../iot_link/cJSON/cJSON.c ****         switch (buffer_at_offset(input_buffer)[i])
 285:../../iot_link/cJSON/cJSON.c ****         {
 286:../../iot_link/cJSON/cJSON.c ****             case '0':
 287:../../iot_link/cJSON/cJSON.c ****             case '1':
 288:../../iot_link/cJSON/cJSON.c ****             case '2':
 289:../../iot_link/cJSON/cJSON.c ****             case '3':
 290:../../iot_link/cJSON/cJSON.c ****             case '4':
 291:../../iot_link/cJSON/cJSON.c ****             case '5':
 292:../../iot_link/cJSON/cJSON.c ****             case '6':
 293:../../iot_link/cJSON/cJSON.c ****             case '7':
 294:../../iot_link/cJSON/cJSON.c ****             case '8':
 295:../../iot_link/cJSON/cJSON.c ****             case '9':
 296:../../iot_link/cJSON/cJSON.c ****             case '+':
 297:../../iot_link/cJSON/cJSON.c ****             case '-':
 298:../../iot_link/cJSON/cJSON.c ****             case 'e':
 299:../../iot_link/cJSON/cJSON.c ****             case 'E':
 300:../../iot_link/cJSON/cJSON.c ****                 number_c_string[i] = buffer_at_offset(input_buffer)[i];
 301:../../iot_link/cJSON/cJSON.c ****                 break;
 302:../../iot_link/cJSON/cJSON.c **** 
 303:../../iot_link/cJSON/cJSON.c ****             case '.':
 304:../../iot_link/cJSON/cJSON.c ****                 number_c_string[i] = decimal_point;
 305:../../iot_link/cJSON/cJSON.c ****                 break;
 306:../../iot_link/cJSON/cJSON.c **** 
 307:../../iot_link/cJSON/cJSON.c ****             default:
 308:../../iot_link/cJSON/cJSON.c ****                 goto loop_end;
 309:../../iot_link/cJSON/cJSON.c ****         }
 310:../../iot_link/cJSON/cJSON.c ****     }
 311:../../iot_link/cJSON/cJSON.c **** loop_end:
 312:../../iot_link/cJSON/cJSON.c ****     number_c_string[i] = '\0';
 313:../../iot_link/cJSON/cJSON.c **** 
 314:../../iot_link/cJSON/cJSON.c ****     number = strtod((const char*)number_c_string, (char**)&after_end);
 315:../../iot_link/cJSON/cJSON.c ****     if (number_c_string == after_end)
 316:../../iot_link/cJSON/cJSON.c ****     {
 317:../../iot_link/cJSON/cJSON.c ****         return false; /* parse_error */
ARM GAS  C:\Users\LuckyE\AppData\Local\Temp\ccgn9LZs.s 			page 7


 318:../../iot_link/cJSON/cJSON.c ****     }
 319:../../iot_link/cJSON/cJSON.c **** 
 320:../../iot_link/cJSON/cJSON.c ****     item->valuedouble = number;
 321:../../iot_link/cJSON/cJSON.c **** 
 322:../../iot_link/cJSON/cJSON.c ****     /* use saturation in case of overflow */
 323:../../iot_link/cJSON/cJSON.c ****     if (number >= INT_MAX)
 324:../../iot_link/cJSON/cJSON.c ****     {
 325:../../iot_link/cJSON/cJSON.c ****         item->valueint = INT_MAX;
 326:../../iot_link/cJSON/cJSON.c ****     }
 327:../../iot_link/cJSON/cJSON.c ****     else if (number <= INT_MIN)
 328:../../iot_link/cJSON/cJSON.c ****     {
 329:../../iot_link/cJSON/cJSON.c ****         item->valueint = INT_MIN;
 330:../../iot_link/cJSON/cJSON.c ****     }
 331:../../iot_link/cJSON/cJSON.c ****     else
 332:../../iot_link/cJSON/cJSON.c ****     {
 333:../../iot_link/cJSON/cJSON.c ****         item->valueint = (int)number;
 334:../../iot_link/cJSON/cJSON.c ****     }
 335:../../iot_link/cJSON/cJSON.c **** 
 336:../../iot_link/cJSON/cJSON.c ****     item->type = cJSON_Number;
 337:../../iot_link/cJSON/cJSON.c **** 
 338:../../iot_link/cJSON/cJSON.c ****     input_buffer->offset += (size_t)(after_end - number_c_string);
 339:../../iot_link/cJSON/cJSON.c ****     return true;
 340:../../iot_link/cJSON/cJSON.c **** }
 341:../../iot_link/cJSON/cJSON.c **** 
 342:../../iot_link/cJSON/cJSON.c **** /* don't ask me, but the original cJSON_SetNumberValue returns an integer or double */
 343:../../iot_link/cJSON/cJSON.c **** CJSON_PUBLIC(double) cJSON_SetNumberHelper(cJSON *object, double number)
 344:../../iot_link/cJSON/cJSON.c **** {
 345:../../iot_link/cJSON/cJSON.c ****     if (number >= INT_MAX)
 346:../../iot_link/cJSON/cJSON.c ****     {
 347:../../iot_link/cJSON/cJSON.c ****         object->valueint = INT_MAX;
 348:../../iot_link/cJSON/cJSON.c ****     }
 349:../../iot_link/cJSON/cJSON.c ****     else if (number <= INT_MIN)
 350:../../iot_link/cJSON/cJSON.c ****     {
 351:../../iot_link/cJSON/cJSON.c ****         object->valueint = INT_MIN;
 352:../../iot_link/cJSON/cJSON.c ****     }
 353:../../iot_link/cJSON/cJSON.c ****     else
 354:../../iot_link/cJSON/cJSON.c ****     {
 355:../../iot_link/cJSON/cJSON.c ****         object->valueint = (int)number;
 356:../../iot_link/cJSON/cJSON.c ****     }
 357:../../iot_link/cJSON/cJSON.c **** 
 358:../../iot_link/cJSON/cJSON.c ****     return object->valuedouble = number;
 359:../../iot_link/cJSON/cJSON.c **** }
 360:../../iot_link/cJSON/cJSON.c **** 
 361:../../iot_link/cJSON/cJSON.c **** typedef struct
 362:../../iot_link/cJSON/cJSON.c **** {
 363:../../iot_link/cJSON/cJSON.c ****     unsigned char *buffer;
 364:../../iot_link/cJSON/cJSON.c ****     size_t length;
 365:../../iot_link/cJSON/cJSON.c ****     size_t offset;
 366:../../iot_link/cJSON/cJSON.c ****     size_t depth; /* current nesting depth (for formatted printing) */
 367:../../iot_link/cJSON/cJSON.c ****     cJSON_bool noalloc;
 368:../../iot_link/cJSON/cJSON.c ****     cJSON_bool format; /* is this print a formatted print */
 369:../../iot_link/cJSON/cJSON.c ****     internal_hooks hooks;
 370:../../iot_link/cJSON/cJSON.c **** } printbuffer;
 371:../../iot_link/cJSON/cJSON.c **** 
 372:../../iot_link/cJSON/cJSON.c **** /* realloc printbuffer if necessary to have at least "needed" bytes more */
 373:../../iot_link/cJSON/cJSON.c **** static unsigned char* ensure(printbuffer * const p, size_t needed)
 374:../../iot_link/cJSON/cJSON.c **** {
ARM GAS  C:\Users\LuckyE\AppData\Local\Temp\ccgn9LZs.s 			page 8


 375:../../iot_link/cJSON/cJSON.c ****     unsigned char *newbuffer = NULL;
 376:../../iot_link/cJSON/cJSON.c ****     size_t newsize = 0;
 377:../../iot_link/cJSON/cJSON.c **** 
 378:../../iot_link/cJSON/cJSON.c ****     if ((p == NULL) || (p->buffer == NULL))
 379:../../iot_link/cJSON/cJSON.c ****     {
 380:../../iot_link/cJSON/cJSON.c ****         return NULL;
 381:../../iot_link/cJSON/cJSON.c ****     }
 382:../../iot_link/cJSON/cJSON.c **** 
 383:../../iot_link/cJSON/cJSON.c ****     if ((p->length > 0) && (p->offset >= p->length))
 384:../../iot_link/cJSON/cJSON.c ****     {
 385:../../iot_link/cJSON/cJSON.c ****         /* make sure that offset is valid */
 386:../../iot_link/cJSON/cJSON.c ****         return NULL;
 387:../../iot_link/cJSON/cJSON.c ****     }
 388:../../iot_link/cJSON/cJSON.c **** 
 389:../../iot_link/cJSON/cJSON.c ****     if (needed > INT_MAX)
 390:../../iot_link/cJSON/cJSON.c ****     {
 391:../../iot_link/cJSON/cJSON.c ****         /* sizes bigger than INT_MAX are currently not supported */
 392:../../iot_link/cJSON/cJSON.c ****         return NULL;
 393:../../iot_link/cJSON/cJSON.c ****     }
 394:../../iot_link/cJSON/cJSON.c **** 
 395:../../iot_link/cJSON/cJSON.c ****     needed += p->offset + 1;
 396:../../iot_link/cJSON/cJSON.c ****     if (needed <= p->length)
 397:../../iot_link/cJSON/cJSON.c ****     {
 398:../../iot_link/cJSON/cJSON.c ****         return p->buffer + p->offset;
 399:../../iot_link/cJSON/cJSON.c ****     }
 400:../../iot_link/cJSON/cJSON.c **** 
 401:../../iot_link/cJSON/cJSON.c ****     if (p->noalloc) {
 402:../../iot_link/cJSON/cJSON.c ****         return NULL;
 403:../../iot_link/cJSON/cJSON.c ****     }
 404:../../iot_link/cJSON/cJSON.c **** 
 405:../../iot_link/cJSON/cJSON.c ****     /* calculate new buffer size */
 406:../../iot_link/cJSON/cJSON.c ****     if (needed > (INT_MAX / 2))
 407:../../iot_link/cJSON/cJSON.c ****     {
 408:../../iot_link/cJSON/cJSON.c ****         /* overflow of int, use INT_MAX if possible */
 409:../../iot_link/cJSON/cJSON.c ****         if (needed <= INT_MAX)
 410:../../iot_link/cJSON/cJSON.c ****         {
 411:../../iot_link/cJSON/cJSON.c ****             newsize = INT_MAX;
 412:../../iot_link/cJSON/cJSON.c ****         }
 413:../../iot_link/cJSON/cJSON.c ****         else
 414:../../iot_link/cJSON/cJSON.c ****         {
 415:../../iot_link/cJSON/cJSON.c ****             return NULL;
 416:../../iot_link/cJSON/cJSON.c ****         }
 417:../../iot_link/cJSON/cJSON.c ****     }
 418:../../iot_link/cJSON/cJSON.c ****     else
 419:../../iot_link/cJSON/cJSON.c ****     {
 420:../../iot_link/cJSON/cJSON.c ****         newsize = needed * 2;
 421:../../iot_link/cJSON/cJSON.c ****     }
 422:../../iot_link/cJSON/cJSON.c **** 
 423:../../iot_link/cJSON/cJSON.c ****     if (p->hooks.reallocate != NULL)
 424:../../iot_link/cJSON/cJSON.c ****     {
 425:../../iot_link/cJSON/cJSON.c ****         /* reallocate with realloc if available */
 426:../../iot_link/cJSON/cJSON.c ****         newbuffer = (unsigned char*)p->hooks.reallocate(p->buffer, newsize);
 427:../../iot_link/cJSON/cJSON.c ****         if (newbuffer == NULL)
 428:../../iot_link/cJSON/cJSON.c ****         {
 429:../../iot_link/cJSON/cJSON.c ****             p->hooks.deallocate(p->buffer);
 430:../../iot_link/cJSON/cJSON.c ****             p->length = 0;
 431:../../iot_link/cJSON/cJSON.c ****             p->buffer = NULL;
ARM GAS  C:\Users\LuckyE\AppData\Local\Temp\ccgn9LZs.s 			page 9


 432:../../iot_link/cJSON/cJSON.c **** 
 433:../../iot_link/cJSON/cJSON.c ****             return NULL;
 434:../../iot_link/cJSON/cJSON.c ****         }
 435:../../iot_link/cJSON/cJSON.c ****     }
 436:../../iot_link/cJSON/cJSON.c ****     else
 437:../../iot_link/cJSON/cJSON.c ****     {
 438:../../iot_link/cJSON/cJSON.c ****         /* otherwise reallocate manually */
 439:../../iot_link/cJSON/cJSON.c ****         newbuffer = (unsigned char*)p->hooks.allocate(newsize);
 440:../../iot_link/cJSON/cJSON.c ****         if (!newbuffer)
 441:../../iot_link/cJSON/cJSON.c ****         {
 442:../../iot_link/cJSON/cJSON.c ****             p->hooks.deallocate(p->buffer);
 443:../../iot_link/cJSON/cJSON.c ****             p->length = 0;
 444:../../iot_link/cJSON/cJSON.c ****             p->buffer = NULL;
 445:../../iot_link/cJSON/cJSON.c **** 
 446:../../iot_link/cJSON/cJSON.c ****             return NULL;
 447:../../iot_link/cJSON/cJSON.c ****         }
 448:../../iot_link/cJSON/cJSON.c ****         if (newbuffer)
 449:../../iot_link/cJSON/cJSON.c ****         {
 450:../../iot_link/cJSON/cJSON.c ****             (void) memcpy(newbuffer, p->buffer, p->offset + 1);
 451:../../iot_link/cJSON/cJSON.c ****         }
 452:../../iot_link/cJSON/cJSON.c ****         p->hooks.deallocate(p->buffer);
 453:../../iot_link/cJSON/cJSON.c ****     }
 454:../../iot_link/cJSON/cJSON.c ****     p->length = newsize;
 455:../../iot_link/cJSON/cJSON.c ****     p->buffer = newbuffer;
 456:../../iot_link/cJSON/cJSON.c **** 
 457:../../iot_link/cJSON/cJSON.c ****     return newbuffer + p->offset;
 458:../../iot_link/cJSON/cJSON.c **** }
 459:../../iot_link/cJSON/cJSON.c **** 
 460:../../iot_link/cJSON/cJSON.c **** /* calculate the new length of the string in a printbuffer and update the offset */
 461:../../iot_link/cJSON/cJSON.c **** static void update_offset(printbuffer * const buffer)
 462:../../iot_link/cJSON/cJSON.c **** {
 463:../../iot_link/cJSON/cJSON.c ****     const unsigned char *buffer_pointer = NULL;
 464:../../iot_link/cJSON/cJSON.c ****     if ((buffer == NULL) || (buffer->buffer == NULL))
 465:../../iot_link/cJSON/cJSON.c ****     {
 466:../../iot_link/cJSON/cJSON.c ****         return;
 467:../../iot_link/cJSON/cJSON.c ****     }
 468:../../iot_link/cJSON/cJSON.c ****     buffer_pointer = buffer->buffer + buffer->offset;
 469:../../iot_link/cJSON/cJSON.c **** 
 470:../../iot_link/cJSON/cJSON.c ****     buffer->offset += strlen((const char*)buffer_pointer);
 471:../../iot_link/cJSON/cJSON.c **** }
 472:../../iot_link/cJSON/cJSON.c **** 
 473:../../iot_link/cJSON/cJSON.c **** /* Render the number nicely from the given item into a string. */
 474:../../iot_link/cJSON/cJSON.c **** static cJSON_bool print_number(const cJSON * const item, printbuffer * const output_buffer)
 475:../../iot_link/cJSON/cJSON.c **** {
 476:../../iot_link/cJSON/cJSON.c ****     unsigned char *output_pointer = NULL;
 477:../../iot_link/cJSON/cJSON.c ****     double d = item->valuedouble;
 478:../../iot_link/cJSON/cJSON.c ****     int length = 0;
 479:../../iot_link/cJSON/cJSON.c ****     size_t i = 0;
 480:../../iot_link/cJSON/cJSON.c ****     unsigned char number_buffer[26]; /* temporary buffer to print the number into */
 481:../../iot_link/cJSON/cJSON.c ****     unsigned char decimal_point = get_decimal_point();
 482:../../iot_link/cJSON/cJSON.c ****     double test;
 483:../../iot_link/cJSON/cJSON.c **** 
 484:../../iot_link/cJSON/cJSON.c ****     if (output_buffer == NULL)
 485:../../iot_link/cJSON/cJSON.c ****     {
 486:../../iot_link/cJSON/cJSON.c ****         return false;
 487:../../iot_link/cJSON/cJSON.c ****     }
 488:../../iot_link/cJSON/cJSON.c **** 
ARM GAS  C:\Users\LuckyE\AppData\Local\Temp\ccgn9LZs.s 			page 10


 489:../../iot_link/cJSON/cJSON.c ****     /* This checks for NaN and Infinity */
 490:../../iot_link/cJSON/cJSON.c ****     if ((d * 0) != 0)
 491:../../iot_link/cJSON/cJSON.c ****     {
 492:../../iot_link/cJSON/cJSON.c ****         length = sprintf((char*)number_buffer, "null");
 493:../../iot_link/cJSON/cJSON.c ****     }
 494:../../iot_link/cJSON/cJSON.c ****     else
 495:../../iot_link/cJSON/cJSON.c ****     {
 496:../../iot_link/cJSON/cJSON.c ****         /* Try 15 decimal places of precision to avoid nonsignificant nonzero digits */
 497:../../iot_link/cJSON/cJSON.c ****         length = sprintf((char*)number_buffer, "%1.15g", d);
 498:../../iot_link/cJSON/cJSON.c **** 
 499:../../iot_link/cJSON/cJSON.c ****         /* Check whether the original double can be recovered */
 500:../../iot_link/cJSON/cJSON.c ****         if ((sscanf((char*)number_buffer, "%lg", &test) != 1) || ((double)test != d))
 501:../../iot_link/cJSON/cJSON.c ****         {
 502:../../iot_link/cJSON/cJSON.c ****             /* If not, print with 17 decimal places of precision */
 503:../../iot_link/cJSON/cJSON.c ****             length = sprintf((char*)number_buffer, "%1.17g", d);
 504:../../iot_link/cJSON/cJSON.c ****         }
 505:../../iot_link/cJSON/cJSON.c ****     }
 506:../../iot_link/cJSON/cJSON.c **** 
 507:../../iot_link/cJSON/cJSON.c ****     /* sprintf failed or buffer overrun occured */
 508:../../iot_link/cJSON/cJSON.c ****     if ((length < 0) || (length > (int)(sizeof(number_buffer) - 1)))
 509:../../iot_link/cJSON/cJSON.c ****     {
 510:../../iot_link/cJSON/cJSON.c ****         return false;
 511:../../iot_link/cJSON/cJSON.c ****     }
 512:../../iot_link/cJSON/cJSON.c **** 
 513:../../iot_link/cJSON/cJSON.c ****     /* reserve appropriate space in the output */
 514:../../iot_link/cJSON/cJSON.c ****     output_pointer = ensure(output_buffer, (size_t)length + sizeof(""));
 515:../../iot_link/cJSON/cJSON.c ****     if (output_pointer == NULL)
 516:../../iot_link/cJSON/cJSON.c ****     {
 517:../../iot_link/cJSON/cJSON.c ****         return false;
 518:../../iot_link/cJSON/cJSON.c ****     }
 519:../../iot_link/cJSON/cJSON.c **** 
 520:../../iot_link/cJSON/cJSON.c ****     /* copy the printed number to the output and replace locale
 521:../../iot_link/cJSON/cJSON.c ****      * dependent decimal point with '.' */
 522:../../iot_link/cJSON/cJSON.c ****     for (i = 0; i < ((size_t)length); i++)
 523:../../iot_link/cJSON/cJSON.c ****     {
 524:../../iot_link/cJSON/cJSON.c ****         if (number_buffer[i] == decimal_point)
 525:../../iot_link/cJSON/cJSON.c ****         {
 526:../../iot_link/cJSON/cJSON.c ****             output_pointer[i] = '.';
 527:../../iot_link/cJSON/cJSON.c ****             continue;
 528:../../iot_link/cJSON/cJSON.c ****         }
 529:../../iot_link/cJSON/cJSON.c **** 
 530:../../iot_link/cJSON/cJSON.c ****         output_pointer[i] = number_buffer[i];
 531:../../iot_link/cJSON/cJSON.c ****     }
 532:../../iot_link/cJSON/cJSON.c ****     output_pointer[i] = '\0';
 533:../../iot_link/cJSON/cJSON.c **** 
 534:../../iot_link/cJSON/cJSON.c ****     output_buffer->offset += (size_t)length;
 535:../../iot_link/cJSON/cJSON.c **** 
 536:../../iot_link/cJSON/cJSON.c ****     return true;
 537:../../iot_link/cJSON/cJSON.c **** }
 538:../../iot_link/cJSON/cJSON.c **** 
 539:../../iot_link/cJSON/cJSON.c **** /* parse 4 digit hexadecimal number */
 540:../../iot_link/cJSON/cJSON.c **** static unsigned parse_hex4(const unsigned char * const input)
 541:../../iot_link/cJSON/cJSON.c **** {
  27              		.loc 1 541 0
  28              		.cfi_startproc
  29              		@ args = 0, pretend = 0, frame = 0
  30              		@ frame_needed = 0, uses_anonymous_args = 0
ARM GAS  C:\Users\LuckyE\AppData\Local\Temp\ccgn9LZs.s 			page 11


  31              	.LVL0:
  32 0000 10B5     		push	{r4, lr}
  33              	.LCFI0:
  34              		.cfi_def_cfa_offset 8
  35              		.cfi_offset 4, -8
  36              		.cfi_offset 14, -4
 542:../../iot_link/cJSON/cJSON.c ****     unsigned int h = 0;
 543:../../iot_link/cJSON/cJSON.c ****     size_t i = 0;
 544:../../iot_link/cJSON/cJSON.c **** 
 545:../../iot_link/cJSON/cJSON.c ****     for (i = 0; i < 4; i++)
  37              		.loc 1 545 0
  38 0002 0022     		movs	r2, #0
 542:../../iot_link/cJSON/cJSON.c ****     unsigned int h = 0;
  39              		.loc 1 542 0
  40 0004 1346     		mov	r3, r2
  41              	.LVL1:
  42              	.L7:
 546:../../iot_link/cJSON/cJSON.c ****     {
 547:../../iot_link/cJSON/cJSON.c ****         /* parse digit */
 548:../../iot_link/cJSON/cJSON.c ****         if ((input[i] >= '0') && (input[i] <= '9'))
  43              		.loc 1 548 0
  44 0006 815C     		ldrb	r1, [r0, r2]	@ zero_extendqisi2
  45 0008 A1F13004 		sub	r4, r1, #48
  46 000c 092C     		cmp	r4, #9
  47 000e 0AD8     		bhi	.L2
  48 0010 303B     		subs	r3, r3, #48
  49              	.LVL2:
  50              	.L13:
 549:../../iot_link/cJSON/cJSON.c ****         {
 550:../../iot_link/cJSON/cJSON.c ****             h += (unsigned int) input[i] - '0';
 551:../../iot_link/cJSON/cJSON.c ****         }
 552:../../iot_link/cJSON/cJSON.c ****         else if ((input[i] >= 'A') && (input[i] <= 'F'))
 553:../../iot_link/cJSON/cJSON.c ****         {
 554:../../iot_link/cJSON/cJSON.c ****             h += (unsigned int) 10 + input[i] - 'A';
 555:../../iot_link/cJSON/cJSON.c ****         }
 556:../../iot_link/cJSON/cJSON.c ****         else if ((input[i] >= 'a') && (input[i] <= 'f'))
 557:../../iot_link/cJSON/cJSON.c ****         {
 558:../../iot_link/cJSON/cJSON.c ****             h += (unsigned int) 10 + input[i] - 'a';
 559:../../iot_link/cJSON/cJSON.c ****         }
 560:../../iot_link/cJSON/cJSON.c ****         else /* invalid */
 561:../../iot_link/cJSON/cJSON.c ****         {
 562:../../iot_link/cJSON/cJSON.c ****             return 0;
 563:../../iot_link/cJSON/cJSON.c ****         }
 564:../../iot_link/cJSON/cJSON.c **** 
 565:../../iot_link/cJSON/cJSON.c ****         if (i < 3)
  51              		.loc 1 565 0
  52 0012 032A     		cmp	r2, #3
 558:../../iot_link/cJSON/cJSON.c ****         }
  53              		.loc 1 558 0
  54 0014 0B44     		add	r3, r3, r1
  55              	.LVL3:
 545:../../iot_link/cJSON/cJSON.c ****     {
  56              		.loc 1 545 0
  57 0016 02F10102 		add	r2, r2, #1
  58              	.LVL4:
 566:../../iot_link/cJSON/cJSON.c ****         {
 567:../../iot_link/cJSON/cJSON.c ****             /* shift left to make place for the next nibble */
ARM GAS  C:\Users\LuckyE\AppData\Local\Temp\ccgn9LZs.s 			page 12


 568:../../iot_link/cJSON/cJSON.c ****             h = h << 4;
  59              		.loc 1 568 0
  60 001a 18BF     		it	ne
  61 001c 1B01     		lslne	r3, r3, #4
  62              	.LVL5:
 545:../../iot_link/cJSON/cJSON.c ****     {
  63              		.loc 1 545 0
  64 001e 042A     		cmp	r2, #4
  65 0020 F1D1     		bne	.L7
  66              	.LVL6:
  67              	.L1:
 569:../../iot_link/cJSON/cJSON.c ****         }
 570:../../iot_link/cJSON/cJSON.c ****     }
 571:../../iot_link/cJSON/cJSON.c **** 
 572:../../iot_link/cJSON/cJSON.c ****     return h;
 573:../../iot_link/cJSON/cJSON.c **** }
  68              		.loc 1 573 0
  69 0022 1846     		mov	r0, r3
  70              	.LVL7:
  71 0024 10BD     		pop	{r4, pc}
  72              	.LVL8:
  73              	.L2:
 552:../../iot_link/cJSON/cJSON.c ****         {
  74              		.loc 1 552 0
  75 0026 A1F14104 		sub	r4, r1, #65
  76 002a 052C     		cmp	r4, #5
  77 002c 01D8     		bhi	.L4
  78 002e 373B     		subs	r3, r3, #55
  79              	.LVL9:
  80 0030 EFE7     		b	.L13
  81              	.LVL10:
  82              	.L4:
 556:../../iot_link/cJSON/cJSON.c ****         {
  83              		.loc 1 556 0
  84 0032 A1F16104 		sub	r4, r1, #97
  85 0036 052C     		cmp	r4, #5
  86 0038 01D8     		bhi	.L8
  87 003a 573B     		subs	r3, r3, #87
  88              	.LVL11:
  89 003c E9E7     		b	.L13
  90              	.LVL12:
  91              	.L8:
 562:../../iot_link/cJSON/cJSON.c ****         }
  92              		.loc 1 562 0
  93 003e 0023     		movs	r3, #0
  94              	.LVL13:
  95 0040 EFE7     		b	.L1
  96              		.cfi_endproc
  97              	.LFE17:
  99              		.section	.text.parse_string,"ax",%progbits
 100              		.align	1
 101              		.syntax unified
 102              		.thumb
 103              		.thumb_func
 104              		.fpu fpv4-sp-d16
 106              	parse_string:
 107              	.LFB19:
ARM GAS  C:\Users\LuckyE\AppData\Local\Temp\ccgn9LZs.s 			page 13


 574:../../iot_link/cJSON/cJSON.c **** 
 575:../../iot_link/cJSON/cJSON.c **** /* converts a UTF-16 literal to UTF-8
 576:../../iot_link/cJSON/cJSON.c ****  * A literal can be one or two sequences of the form \uXXXX */
 577:../../iot_link/cJSON/cJSON.c **** static unsigned char utf16_literal_to_utf8(const unsigned char * const input_pointer, const unsigne
 578:../../iot_link/cJSON/cJSON.c **** {
 579:../../iot_link/cJSON/cJSON.c ****     long unsigned int codepoint = 0;
 580:../../iot_link/cJSON/cJSON.c ****     unsigned int first_code = 0;
 581:../../iot_link/cJSON/cJSON.c ****     const unsigned char *first_sequence = input_pointer;
 582:../../iot_link/cJSON/cJSON.c ****     unsigned char utf8_length = 0;
 583:../../iot_link/cJSON/cJSON.c ****     unsigned char utf8_position = 0;
 584:../../iot_link/cJSON/cJSON.c ****     unsigned char sequence_length = 0;
 585:../../iot_link/cJSON/cJSON.c ****     unsigned char first_byte_mark = 0;
 586:../../iot_link/cJSON/cJSON.c **** 
 587:../../iot_link/cJSON/cJSON.c ****     if ((input_end - first_sequence) < 6)
 588:../../iot_link/cJSON/cJSON.c ****     {
 589:../../iot_link/cJSON/cJSON.c ****         /* input ends unexpectedly */
 590:../../iot_link/cJSON/cJSON.c ****         goto fail;
 591:../../iot_link/cJSON/cJSON.c ****     }
 592:../../iot_link/cJSON/cJSON.c **** 
 593:../../iot_link/cJSON/cJSON.c ****     /* get the first utf16 sequence */
 594:../../iot_link/cJSON/cJSON.c ****     first_code = parse_hex4(first_sequence + 2);
 595:../../iot_link/cJSON/cJSON.c **** 
 596:../../iot_link/cJSON/cJSON.c ****     /* check that the code is valid */
 597:../../iot_link/cJSON/cJSON.c ****     if (((first_code >= 0xDC00) && (first_code <= 0xDFFF)))
 598:../../iot_link/cJSON/cJSON.c ****     {
 599:../../iot_link/cJSON/cJSON.c ****         goto fail;
 600:../../iot_link/cJSON/cJSON.c ****     }
 601:../../iot_link/cJSON/cJSON.c **** 
 602:../../iot_link/cJSON/cJSON.c ****     /* UTF16 surrogate pair */
 603:../../iot_link/cJSON/cJSON.c ****     if ((first_code >= 0xD800) && (first_code <= 0xDBFF))
 604:../../iot_link/cJSON/cJSON.c ****     {
 605:../../iot_link/cJSON/cJSON.c ****         const unsigned char *second_sequence = first_sequence + 6;
 606:../../iot_link/cJSON/cJSON.c ****         unsigned int second_code = 0;
 607:../../iot_link/cJSON/cJSON.c ****         sequence_length = 12; /* \uXXXX\uXXXX */
 608:../../iot_link/cJSON/cJSON.c **** 
 609:../../iot_link/cJSON/cJSON.c ****         if ((input_end - second_sequence) < 6)
 610:../../iot_link/cJSON/cJSON.c ****         {
 611:../../iot_link/cJSON/cJSON.c ****             /* input ends unexpectedly */
 612:../../iot_link/cJSON/cJSON.c ****             goto fail;
 613:../../iot_link/cJSON/cJSON.c ****         }
 614:../../iot_link/cJSON/cJSON.c **** 
 615:../../iot_link/cJSON/cJSON.c ****         if ((second_sequence[0] != '\\') || (second_sequence[1] != 'u'))
 616:../../iot_link/cJSON/cJSON.c ****         {
 617:../../iot_link/cJSON/cJSON.c ****             /* missing second half of the surrogate pair */
 618:../../iot_link/cJSON/cJSON.c ****             goto fail;
 619:../../iot_link/cJSON/cJSON.c ****         }
 620:../../iot_link/cJSON/cJSON.c **** 
 621:../../iot_link/cJSON/cJSON.c ****         /* get the second utf16 sequence */
 622:../../iot_link/cJSON/cJSON.c ****         second_code = parse_hex4(second_sequence + 2);
 623:../../iot_link/cJSON/cJSON.c ****         /* check that the code is valid */
 624:../../iot_link/cJSON/cJSON.c ****         if ((second_code < 0xDC00) || (second_code > 0xDFFF))
 625:../../iot_link/cJSON/cJSON.c ****         {
 626:../../iot_link/cJSON/cJSON.c ****             /* invalid second half of the surrogate pair */
 627:../../iot_link/cJSON/cJSON.c ****             goto fail;
 628:../../iot_link/cJSON/cJSON.c ****         }
 629:../../iot_link/cJSON/cJSON.c **** 
 630:../../iot_link/cJSON/cJSON.c **** 
ARM GAS  C:\Users\LuckyE\AppData\Local\Temp\ccgn9LZs.s 			page 14


 631:../../iot_link/cJSON/cJSON.c ****         /* calculate the unicode codepoint from the surrogate pair */
 632:../../iot_link/cJSON/cJSON.c ****         codepoint = 0x10000 + (((first_code & 0x3FF) << 10) | (second_code & 0x3FF));
 633:../../iot_link/cJSON/cJSON.c ****     }
 634:../../iot_link/cJSON/cJSON.c ****     else
 635:../../iot_link/cJSON/cJSON.c ****     {
 636:../../iot_link/cJSON/cJSON.c ****         sequence_length = 6; /* \uXXXX */
 637:../../iot_link/cJSON/cJSON.c ****         codepoint = first_code;
 638:../../iot_link/cJSON/cJSON.c ****     }
 639:../../iot_link/cJSON/cJSON.c **** 
 640:../../iot_link/cJSON/cJSON.c ****     /* encode as UTF-8
 641:../../iot_link/cJSON/cJSON.c ****      * takes at maximum 4 bytes to encode:
 642:../../iot_link/cJSON/cJSON.c ****      * 11110xxx 10xxxxxx 10xxxxxx 10xxxxxx */
 643:../../iot_link/cJSON/cJSON.c ****     if (codepoint < 0x80)
 644:../../iot_link/cJSON/cJSON.c ****     {
 645:../../iot_link/cJSON/cJSON.c ****         /* normal ascii, encoding 0xxxxxxx */
 646:../../iot_link/cJSON/cJSON.c ****         utf8_length = 1;
 647:../../iot_link/cJSON/cJSON.c ****     }
 648:../../iot_link/cJSON/cJSON.c ****     else if (codepoint < 0x800)
 649:../../iot_link/cJSON/cJSON.c ****     {
 650:../../iot_link/cJSON/cJSON.c ****         /* two bytes, encoding 110xxxxx 10xxxxxx */
 651:../../iot_link/cJSON/cJSON.c ****         utf8_length = 2;
 652:../../iot_link/cJSON/cJSON.c ****         first_byte_mark = 0xC0; /* 11000000 */
 653:../../iot_link/cJSON/cJSON.c ****     }
 654:../../iot_link/cJSON/cJSON.c ****     else if (codepoint < 0x10000)
 655:../../iot_link/cJSON/cJSON.c ****     {
 656:../../iot_link/cJSON/cJSON.c ****         /* three bytes, encoding 1110xxxx 10xxxxxx 10xxxxxx */
 657:../../iot_link/cJSON/cJSON.c ****         utf8_length = 3;
 658:../../iot_link/cJSON/cJSON.c ****         first_byte_mark = 0xE0; /* 11100000 */
 659:../../iot_link/cJSON/cJSON.c ****     }
 660:../../iot_link/cJSON/cJSON.c ****     else if (codepoint <= 0x10FFFF)
 661:../../iot_link/cJSON/cJSON.c ****     {
 662:../../iot_link/cJSON/cJSON.c ****         /* four bytes, encoding 1110xxxx 10xxxxxx 10xxxxxx 10xxxxxx */
 663:../../iot_link/cJSON/cJSON.c ****         utf8_length = 4;
 664:../../iot_link/cJSON/cJSON.c ****         first_byte_mark = 0xF0; /* 11110000 */
 665:../../iot_link/cJSON/cJSON.c ****     }
 666:../../iot_link/cJSON/cJSON.c ****     else
 667:../../iot_link/cJSON/cJSON.c ****     {
 668:../../iot_link/cJSON/cJSON.c ****         /* invalid unicode codepoint */
 669:../../iot_link/cJSON/cJSON.c ****         goto fail;
 670:../../iot_link/cJSON/cJSON.c ****     }
 671:../../iot_link/cJSON/cJSON.c **** 
 672:../../iot_link/cJSON/cJSON.c ****     /* encode as utf8 */
 673:../../iot_link/cJSON/cJSON.c ****     for (utf8_position = (unsigned char)(utf8_length - 1); utf8_position > 0; utf8_position--)
 674:../../iot_link/cJSON/cJSON.c ****     {
 675:../../iot_link/cJSON/cJSON.c ****         /* 10xxxxxx */
 676:../../iot_link/cJSON/cJSON.c ****         (*output_pointer)[utf8_position] = (unsigned char)((codepoint | 0x80) & 0xBF);
 677:../../iot_link/cJSON/cJSON.c ****         codepoint >>= 6;
 678:../../iot_link/cJSON/cJSON.c ****     }
 679:../../iot_link/cJSON/cJSON.c ****     /* encode first byte */
 680:../../iot_link/cJSON/cJSON.c ****     if (utf8_length > 1)
 681:../../iot_link/cJSON/cJSON.c ****     {
 682:../../iot_link/cJSON/cJSON.c ****         (*output_pointer)[0] = (unsigned char)((codepoint | first_byte_mark) & 0xFF);
 683:../../iot_link/cJSON/cJSON.c ****     }
 684:../../iot_link/cJSON/cJSON.c ****     else
 685:../../iot_link/cJSON/cJSON.c ****     {
 686:../../iot_link/cJSON/cJSON.c ****         (*output_pointer)[0] = (unsigned char)(codepoint & 0x7F);
 687:../../iot_link/cJSON/cJSON.c ****     }
ARM GAS  C:\Users\LuckyE\AppData\Local\Temp\ccgn9LZs.s 			page 15


 688:../../iot_link/cJSON/cJSON.c **** 
 689:../../iot_link/cJSON/cJSON.c ****     *output_pointer += utf8_length;
 690:../../iot_link/cJSON/cJSON.c **** 
 691:../../iot_link/cJSON/cJSON.c ****     return sequence_length;
 692:../../iot_link/cJSON/cJSON.c **** 
 693:../../iot_link/cJSON/cJSON.c **** fail:
 694:../../iot_link/cJSON/cJSON.c ****     return 0;
 695:../../iot_link/cJSON/cJSON.c **** }
 696:../../iot_link/cJSON/cJSON.c **** 
 697:../../iot_link/cJSON/cJSON.c **** /* Parse the input text into an unescaped cinput, and populate item. */
 698:../../iot_link/cJSON/cJSON.c **** static cJSON_bool parse_string(cJSON * const item, parse_buffer * const input_buffer)
 699:../../iot_link/cJSON/cJSON.c **** {
 108              		.loc 1 699 0
 109              		.cfi_startproc
 110              		@ args = 0, pretend = 0, frame = 0
 111              		@ frame_needed = 0, uses_anonymous_args = 0
 112              	.LVL14:
 113 0000 2DE9F84F 		push	{r3, r4, r5, r6, r7, r8, r9, r10, fp, lr}
 114              	.LCFI1:
 115              		.cfi_def_cfa_offset 40
 116              		.cfi_offset 3, -40
 117              		.cfi_offset 4, -36
 118              		.cfi_offset 5, -32
 119              		.cfi_offset 6, -28
 120              		.cfi_offset 7, -24
 121              		.cfi_offset 8, -20
 122              		.cfi_offset 9, -16
 123              		.cfi_offset 10, -12
 124              		.cfi_offset 11, -8
 125              		.cfi_offset 14, -4
 700:../../iot_link/cJSON/cJSON.c ****     const unsigned char *input_pointer = buffer_at_offset(input_buffer) + 1;
 126              		.loc 1 700 0
 127 0004 0A68     		ldr	r2, [r1]
 128 0006 8B68     		ldr	r3, [r1, #8]
 699:../../iot_link/cJSON/cJSON.c ****     const unsigned char *input_pointer = buffer_at_offset(input_buffer) + 1;
 129              		.loc 1 699 0
 130 0008 8046     		mov	r8, r0
 131              		.loc 1 700 0
 132 000a 5D1C     		adds	r5, r3, #1
 701:../../iot_link/cJSON/cJSON.c ****     const unsigned char *input_end = buffer_at_offset(input_buffer) + 1;
 702:../../iot_link/cJSON/cJSON.c ****     unsigned char *output_pointer = NULL;
 703:../../iot_link/cJSON/cJSON.c ****     unsigned char *output = NULL;
 704:../../iot_link/cJSON/cJSON.c **** 
 705:../../iot_link/cJSON/cJSON.c ****     /* not a string */
 706:../../iot_link/cJSON/cJSON.c ****     if (buffer_at_offset(input_buffer)[0] != '\"')
 133              		.loc 1 706 0
 134 000c D018     		adds	r0, r2, r3
 135              	.LVL15:
 136 000e D35C     		ldrb	r3, [r2, r3]	@ zero_extendqisi2
 137 0010 222B     		cmp	r3, #34
 699:../../iot_link/cJSON/cJSON.c ****     const unsigned char *input_pointer = buffer_at_offset(input_buffer) + 1;
 138              		.loc 1 699 0
 139 0012 8B46     		mov	fp, r1
 700:../../iot_link/cJSON/cJSON.c ****     const unsigned char *input_end = buffer_at_offset(input_buffer) + 1;
 140              		.loc 1 700 0
 141 0014 1544     		add	r5, r5, r2
 142              	.LVL16:
ARM GAS  C:\Users\LuckyE\AppData\Local\Temp\ccgn9LZs.s 			page 16


 143              		.loc 1 706 0
 144 0016 40F0CE80 		bne	.L15
 145              	.LBB39:
 707:../../iot_link/cJSON/cJSON.c ****     {
 708:../../iot_link/cJSON/cJSON.c ****         goto fail;
 709:../../iot_link/cJSON/cJSON.c ****     }
 710:../../iot_link/cJSON/cJSON.c **** 
 711:../../iot_link/cJSON/cJSON.c ****     {
 712:../../iot_link/cJSON/cJSON.c ****         /* calculate approximate size of the output (overestimate) */
 713:../../iot_link/cJSON/cJSON.c ****         size_t allocation_length = 0;
 714:../../iot_link/cJSON/cJSON.c ****         size_t skipped_bytes = 0;
 715:../../iot_link/cJSON/cJSON.c ****         while (((size_t)(input_end - input_buffer->content) < input_buffer->length) && (*input_end 
 146              		.loc 1 715 0
 147 001a 4C68     		ldr	r4, [r1, #4]
 148              	.LBE39:
 701:../../iot_link/cJSON/cJSON.c ****     unsigned char *output_pointer = NULL;
 149              		.loc 1 701 0
 150 001c 2E46     		mov	r6, r5
 151              	.LBB40:
 714:../../iot_link/cJSON/cJSON.c ****         while (((size_t)(input_end - input_buffer->content) < input_buffer->length) && (*input_end 
 152              		.loc 1 714 0
 153 001e 0023     		movs	r3, #0
 154              	.LVL17:
 155              	.L16:
 156              		.loc 1 715 0
 157 0020 B11A     		subs	r1, r6, r2
 158 0022 A142     		cmp	r1, r4
 159 0024 80F0C780 		bcs	.L15
 160              		.loc 1 715 0 is_stmt 0 discriminator 1
 161 0028 3178     		ldrb	r1, [r6]	@ zero_extendqisi2
 162 002a 2229     		cmp	r1, #34
 163 002c 1DD1     		bne	.L18
 164              	.LVL18:
 716:../../iot_link/cJSON/cJSON.c ****         {
 717:../../iot_link/cJSON/cJSON.c ****             /* is escape sequence */
 718:../../iot_link/cJSON/cJSON.c ****             if (input_end[0] == '\\')
 719:../../iot_link/cJSON/cJSON.c ****             {
 720:../../iot_link/cJSON/cJSON.c ****                 if ((size_t)(input_end + 1 - input_buffer->content) >= input_buffer->length)
 721:../../iot_link/cJSON/cJSON.c ****                 {
 722:../../iot_link/cJSON/cJSON.c ****                     /* prevent buffer overflow when last input character is a backslash */
 723:../../iot_link/cJSON/cJSON.c ****                     goto fail;
 724:../../iot_link/cJSON/cJSON.c ****                 }
 725:../../iot_link/cJSON/cJSON.c ****                 skipped_bytes++;
 726:../../iot_link/cJSON/cJSON.c ****                 input_end++;
 727:../../iot_link/cJSON/cJSON.c ****             }
 728:../../iot_link/cJSON/cJSON.c ****             input_end++;
 729:../../iot_link/cJSON/cJSON.c ****         }
 730:../../iot_link/cJSON/cJSON.c ****         if (((size_t)(input_end - input_buffer->content) >= input_buffer->length) || (*input_end !=
 731:../../iot_link/cJSON/cJSON.c ****         {
 732:../../iot_link/cJSON/cJSON.c ****             goto fail; /* string ended unexpectedly */
 733:../../iot_link/cJSON/cJSON.c ****         }
 734:../../iot_link/cJSON/cJSON.c **** 
 735:../../iot_link/cJSON/cJSON.c ****         /* This is at most how much we need for the output */
 736:../../iot_link/cJSON/cJSON.c ****         allocation_length = (size_t) (input_end - buffer_at_offset(input_buffer)) - skipped_bytes;
 737:../../iot_link/cJSON/cJSON.c ****         output = (unsigned char*)input_buffer->hooks.allocate(allocation_length + sizeof(""));
 165              		.loc 1 737 0 is_stmt 1 discriminator 1
 166 002e C3F10103 		rsb	r3, r3, #1
ARM GAS  C:\Users\LuckyE\AppData\Local\Temp\ccgn9LZs.s 			page 17


 167              	.LVL19:
 736:../../iot_link/cJSON/cJSON.c ****         output = (unsigned char*)input_buffer->hooks.allocate(allocation_length + sizeof(""));
 168              		.loc 1 736 0 discriminator 1
 169 0032 301A     		subs	r0, r6, r0
 170              		.loc 1 737 0 discriminator 1
 171 0034 DBF81020 		ldr	r2, [fp, #16]
 172 0038 1844     		add	r0, r0, r3
 173 003a 9047     		blx	r2
 174              	.LVL20:
 738:../../iot_link/cJSON/cJSON.c ****         if (output == NULL)
 175              		.loc 1 738 0 discriminator 1
 176 003c 8146     		mov	r9, r0
 177 003e 0028     		cmp	r0, #0
 178 0040 00F0B980 		beq	.L15
 179 0044 0446     		mov	r4, r0
 180              	.LBE40:
 181              	.LBB41:
 739:../../iot_link/cJSON/cJSON.c ****         {
 740:../../iot_link/cJSON/cJSON.c ****             goto fail; /* allocation failure */
 741:../../iot_link/cJSON/cJSON.c ****         }
 742:../../iot_link/cJSON/cJSON.c ****     }
 743:../../iot_link/cJSON/cJSON.c **** 
 744:../../iot_link/cJSON/cJSON.c ****     output_pointer = output;
 745:../../iot_link/cJSON/cJSON.c ****     /* loop through the string literal */
 746:../../iot_link/cJSON/cJSON.c ****     while (input_pointer < input_end)
 747:../../iot_link/cJSON/cJSON.c ****     {
 748:../../iot_link/cJSON/cJSON.c ****         if (*input_pointer != '\\')
 749:../../iot_link/cJSON/cJSON.c ****         {
 750:../../iot_link/cJSON/cJSON.c ****             *output_pointer++ = *input_pointer++;
 751:../../iot_link/cJSON/cJSON.c ****         }
 752:../../iot_link/cJSON/cJSON.c ****         /* escape sequence */
 753:../../iot_link/cJSON/cJSON.c ****         else
 754:../../iot_link/cJSON/cJSON.c ****         {
 755:../../iot_link/cJSON/cJSON.c ****             unsigned char sequence_length = 2;
 756:../../iot_link/cJSON/cJSON.c ****             if ((input_end - input_pointer) < 1)
 757:../../iot_link/cJSON/cJSON.c ****             {
 758:../../iot_link/cJSON/cJSON.c ****                 goto fail;
 759:../../iot_link/cJSON/cJSON.c ****             }
 760:../../iot_link/cJSON/cJSON.c **** 
 761:../../iot_link/cJSON/cJSON.c ****             switch (input_pointer[1])
 762:../../iot_link/cJSON/cJSON.c ****             {
 763:../../iot_link/cJSON/cJSON.c ****                 case 'b':
 764:../../iot_link/cJSON/cJSON.c ****                     *output_pointer++ = '\b';
 765:../../iot_link/cJSON/cJSON.c ****                     break;
 766:../../iot_link/cJSON/cJSON.c ****                 case 'f':
 767:../../iot_link/cJSON/cJSON.c ****                     *output_pointer++ = '\f';
 182              		.loc 1 767 0
 183 0046 4FF00C0A 		mov	r10, #12
 184              	.LVL21:
 185              	.L19:
 186              	.LBE41:
 746:../../iot_link/cJSON/cJSON.c ****     {
 187              		.loc 1 746 0
 188 004a B542     		cmp	r5, r6
 189 004c 17D3     		bcc	.L41
 768:../../iot_link/cJSON/cJSON.c ****                     break;
 769:../../iot_link/cJSON/cJSON.c ****                 case 'n':
ARM GAS  C:\Users\LuckyE\AppData\Local\Temp\ccgn9LZs.s 			page 18


 770:../../iot_link/cJSON/cJSON.c ****                     *output_pointer++ = '\n';
 771:../../iot_link/cJSON/cJSON.c ****                     break;
 772:../../iot_link/cJSON/cJSON.c ****                 case 'r':
 773:../../iot_link/cJSON/cJSON.c ****                     *output_pointer++ = '\r';
 774:../../iot_link/cJSON/cJSON.c ****                     break;
 775:../../iot_link/cJSON/cJSON.c ****                 case 't':
 776:../../iot_link/cJSON/cJSON.c ****                     *output_pointer++ = '\t';
 777:../../iot_link/cJSON/cJSON.c ****                     break;
 778:../../iot_link/cJSON/cJSON.c ****                 case '\"':
 779:../../iot_link/cJSON/cJSON.c ****                 case '\\':
 780:../../iot_link/cJSON/cJSON.c ****                 case '/':
 781:../../iot_link/cJSON/cJSON.c ****                     *output_pointer++ = input_pointer[1];
 782:../../iot_link/cJSON/cJSON.c ****                     break;
 783:../../iot_link/cJSON/cJSON.c **** 
 784:../../iot_link/cJSON/cJSON.c ****                 /* UTF-16 literal */
 785:../../iot_link/cJSON/cJSON.c ****                 case 'u':
 786:../../iot_link/cJSON/cJSON.c ****                     sequence_length = utf16_literal_to_utf8(input_pointer, input_end, &output_point
 787:../../iot_link/cJSON/cJSON.c ****                     if (sequence_length == 0)
 788:../../iot_link/cJSON/cJSON.c ****                     {
 789:../../iot_link/cJSON/cJSON.c ****                         /* failed to convert UTF16-literal to UTF-8 */
 790:../../iot_link/cJSON/cJSON.c ****                         goto fail;
 791:../../iot_link/cJSON/cJSON.c ****                     }
 792:../../iot_link/cJSON/cJSON.c ****                     break;
 793:../../iot_link/cJSON/cJSON.c **** 
 794:../../iot_link/cJSON/cJSON.c ****                 default:
 795:../../iot_link/cJSON/cJSON.c ****                     goto fail;
 796:../../iot_link/cJSON/cJSON.c ****             }
 797:../../iot_link/cJSON/cJSON.c ****             input_pointer += sequence_length;
 798:../../iot_link/cJSON/cJSON.c ****         }
 799:../../iot_link/cJSON/cJSON.c ****     }
 800:../../iot_link/cJSON/cJSON.c **** 
 801:../../iot_link/cJSON/cJSON.c ****     /* zero terminate the output */
 802:../../iot_link/cJSON/cJSON.c ****     *output_pointer = '\0';
 190              		.loc 1 802 0
 191 004e 0023     		movs	r3, #0
 192 0050 2370     		strb	r3, [r4]
 803:../../iot_link/cJSON/cJSON.c **** 
 804:../../iot_link/cJSON/cJSON.c ****     item->type = cJSON_String;
 193              		.loc 1 804 0
 194 0052 1023     		movs	r3, #16
 805:../../iot_link/cJSON/cJSON.c ****     item->valuestring = (char*)output;
 195              		.loc 1 805 0
 196 0054 C8E90339 		strd	r3, r9, [r8, #12]
 806:../../iot_link/cJSON/cJSON.c **** 
 807:../../iot_link/cJSON/cJSON.c ****     input_buffer->offset = (size_t) (input_end - input_buffer->content);
 197              		.loc 1 807 0
 198 0058 DBF80030 		ldr	r3, [fp]
 199 005c F61A     		subs	r6, r6, r3
 200              	.LVL22:
 808:../../iot_link/cJSON/cJSON.c ****     input_buffer->offset++;
 201              		.loc 1 808 0
 202 005e 0136     		adds	r6, r6, #1
 203 0060 CBF80860 		str	r6, [fp, #8]
 809:../../iot_link/cJSON/cJSON.c **** 
 810:../../iot_link/cJSON/cJSON.c ****     return true;
 204              		.loc 1 810 0
 205 0064 0120     		movs	r0, #1
ARM GAS  C:\Users\LuckyE\AppData\Local\Temp\ccgn9LZs.s 			page 19


 206              	.LVL23:
 207              	.L14:
 811:../../iot_link/cJSON/cJSON.c **** 
 812:../../iot_link/cJSON/cJSON.c **** fail:
 813:../../iot_link/cJSON/cJSON.c ****     if (output != NULL)
 814:../../iot_link/cJSON/cJSON.c ****     {
 815:../../iot_link/cJSON/cJSON.c ****         input_buffer->hooks.deallocate(output);
 816:../../iot_link/cJSON/cJSON.c ****     }
 817:../../iot_link/cJSON/cJSON.c **** 
 818:../../iot_link/cJSON/cJSON.c ****     if (input_pointer != NULL)
 819:../../iot_link/cJSON/cJSON.c ****     {
 820:../../iot_link/cJSON/cJSON.c ****         input_buffer->offset = (size_t)(input_pointer - input_buffer->content);
 821:../../iot_link/cJSON/cJSON.c ****     }
 822:../../iot_link/cJSON/cJSON.c **** 
 823:../../iot_link/cJSON/cJSON.c ****     return false;
 824:../../iot_link/cJSON/cJSON.c **** }
 208              		.loc 1 824 0
 209 0066 BDE8F88F 		pop	{r3, r4, r5, r6, r7, r8, r9, r10, fp, pc}
 210              	.LVL24:
 211              	.L18:
 212              	.LBB47:
 718:../../iot_link/cJSON/cJSON.c ****             {
 213              		.loc 1 718 0
 214 006a 5C29     		cmp	r1, #92
 215 006c 05D1     		bne	.L17
 216 006e 0136     		adds	r6, r6, #1
 217              	.LVL25:
 720:../../iot_link/cJSON/cJSON.c ****                 {
 218              		.loc 1 720 0
 219 0070 B11A     		subs	r1, r6, r2
 220 0072 8C42     		cmp	r4, r1
 221 0074 40F29F80 		bls	.L15
 725:../../iot_link/cJSON/cJSON.c ****                 input_end++;
 222              		.loc 1 725 0
 223 0078 0133     		adds	r3, r3, #1
 224              	.LVL26:
 225              	.L17:
 728:../../iot_link/cJSON/cJSON.c ****         }
 226              		.loc 1 728 0
 227 007a 0136     		adds	r6, r6, #1
 228              	.LVL27:
 229 007c D0E7     		b	.L16
 230              	.LVL28:
 231              	.L41:
 232              	.LBE47:
 748:../../iot_link/cJSON/cJSON.c ****         {
 233              		.loc 1 748 0
 234 007e 2B78     		ldrb	r3, [r5]	@ zero_extendqisi2
 235 0080 5C2B     		cmp	r3, #92
 236 0082 03D0     		beq	.L20
 750:../../iot_link/cJSON/cJSON.c ****         }
 237              		.loc 1 750 0
 238 0084 2370     		strb	r3, [r4]
 239 0086 0135     		adds	r5, r5, #1
 240              	.LVL29:
 241 0088 0134     		adds	r4, r4, #1
 242              	.LVL30:
ARM GAS  C:\Users\LuckyE\AppData\Local\Temp\ccgn9LZs.s 			page 20


 243 008a DEE7     		b	.L19
 244              	.L20:
 245              	.LVL31:
 246              	.LBB48:
 756:../../iot_link/cJSON/cJSON.c ****             {
 247              		.loc 1 756 0
 248 008c 721B     		subs	r2, r6, r5
 249 008e 002A     		cmp	r2, #0
 250 0090 08DD     		ble	.L22
 761:../../iot_link/cJSON/cJSON.c ****             {
 251              		.loc 1 761 0
 252 0092 6B78     		ldrb	r3, [r5, #1]	@ zero_extendqisi2
 253 0094 662B     		cmp	r3, #102
 254 0096 67D0     		beq	.L23
 255 0098 16D8     		bhi	.L24
 256 009a 2F2B     		cmp	r3, #47
 257 009c 12D0     		beq	.L25
 258 009e 0CD8     		bhi	.L26
 259 00a0 222B     		cmp	r3, #34
 260 00a2 0FD0     		beq	.L25
 261              	.L22:
 262              	.LBE48:
 815:../../iot_link/cJSON/cJSON.c ****     }
 263              		.loc 1 815 0
 264 00a4 DBF81430 		ldr	r3, [fp, #20]
 265 00a8 4846     		mov	r0, r9
 266 00aa 9847     		blx	r3
 267              	.LVL32:
 268              	.L43:
 820:../../iot_link/cJSON/cJSON.c ****     }
 269              		.loc 1 820 0
 270 00ac DBF80000 		ldr	r0, [fp]
 271 00b0 281A     		subs	r0, r5, r0
 272 00b2 CBF80800 		str	r0, [fp, #8]
 823:../../iot_link/cJSON/cJSON.c **** }
 273              		.loc 1 823 0
 274 00b6 0020     		movs	r0, #0
 275 00b8 D5E7     		b	.L14
 276              	.LVL33:
 277              	.L26:
 278              	.LBB49:
 761:../../iot_link/cJSON/cJSON.c ****             {
 279              		.loc 1 761 0
 280 00ba 5C2B     		cmp	r3, #92
 281 00bc 02D0     		beq	.L25
 282 00be 622B     		cmp	r3, #98
 283 00c0 F0D1     		bne	.L22
 284              	.LVL34:
 764:../../iot_link/cJSON/cJSON.c ****                     break;
 285              		.loc 1 764 0
 286 00c2 0823     		movs	r3, #8
 287              	.LVL35:
 288              	.L25:
 781:../../iot_link/cJSON/cJSON.c ****                     break;
 289              		.loc 1 781 0
 290 00c4 2370     		strb	r3, [r4]
 291 00c6 51E0     		b	.L61
ARM GAS  C:\Users\LuckyE\AppData\Local\Temp\ccgn9LZs.s 			page 21


 292              	.LVL36:
 293              	.L24:
 761:../../iot_link/cJSON/cJSON.c ****             {
 294              		.loc 1 761 0
 295 00c8 722B     		cmp	r3, #114
 296 00ca 53D0     		beq	.L28
 297 00cc 03D8     		bhi	.L29
 298 00ce 6E2B     		cmp	r3, #110
 299 00d0 E8D1     		bne	.L22
 300              	.LVL37:
 770:../../iot_link/cJSON/cJSON.c ****                     break;
 301              		.loc 1 770 0
 302 00d2 0A23     		movs	r3, #10
 303 00d4 F6E7     		b	.L25
 304              	.LVL38:
 305              	.L29:
 761:../../iot_link/cJSON/cJSON.c ****             {
 306              		.loc 1 761 0
 307 00d6 742B     		cmp	r3, #116
 308 00d8 4FD0     		beq	.L31
 309 00da 752B     		cmp	r3, #117
 310 00dc E2D1     		bne	.L22
 311              	.LVL39:
 312              	.LBB42:
 313              	.LBB43:
 587:../../iot_link/cJSON/cJSON.c ****     {
 314              		.loc 1 587 0
 315 00de 052A     		cmp	r2, #5
 316 00e0 E0DD     		ble	.L22
 594:../../iot_link/cJSON/cJSON.c **** 
 317              		.loc 1 594 0
 318 00e2 A81C     		adds	r0, r5, #2
 319 00e4 FFF7FEFF 		bl	parse_hex4
 320              	.LVL40:
 597:../../iot_link/cJSON/cJSON.c ****     {
 321              		.loc 1 597 0
 322 00e8 A0F55C43 		sub	r3, r0, #56320
 323 00ec B3F5806F 		cmp	r3, #1024
 594:../../iot_link/cJSON/cJSON.c **** 
 324              		.loc 1 594 0
 325 00f0 0746     		mov	r7, r0
 326              	.LVL41:
 597:../../iot_link/cJSON/cJSON.c ****     {
 327              		.loc 1 597 0
 328 00f2 D7D3     		bcc	.L22
 603:../../iot_link/cJSON/cJSON.c ****     {
 329              		.loc 1 603 0
 330 00f4 A0F55843 		sub	r3, r0, #55296
 331 00f8 B3F5806F 		cmp	r3, #1024
 332 00fc 40D2     		bcs	.L34
 333              	.LVL42:
 334              	.LBB44:
 605:../../iot_link/cJSON/cJSON.c ****         unsigned int second_code = 0;
 335              		.loc 1 605 0
 336 00fe AB1D     		adds	r3, r5, #6
 337              	.LVL43:
 609:../../iot_link/cJSON/cJSON.c ****         {
ARM GAS  C:\Users\LuckyE\AppData\Local\Temp\ccgn9LZs.s 			page 22


 338              		.loc 1 609 0
 339 0100 F31A     		subs	r3, r6, r3
 340              	.LVL44:
 341 0102 052B     		cmp	r3, #5
 342 0104 CEDD     		ble	.L22
 615:../../iot_link/cJSON/cJSON.c ****         {
 343              		.loc 1 615 0
 344 0106 AB79     		ldrb	r3, [r5, #6]	@ zero_extendqisi2
 345 0108 5C2B     		cmp	r3, #92
 346 010a CBD1     		bne	.L22
 347 010c EB79     		ldrb	r3, [r5, #7]	@ zero_extendqisi2
 348 010e 752B     		cmp	r3, #117
 349 0110 C8D1     		bne	.L22
 622:../../iot_link/cJSON/cJSON.c ****         /* check that the code is valid */
 350              		.loc 1 622 0
 351 0112 05F10800 		add	r0, r5, #8
 352              	.LVL45:
 353 0116 FFF7FEFF 		bl	parse_hex4
 354              	.LVL46:
 624:../../iot_link/cJSON/cJSON.c ****         {
 355              		.loc 1 624 0
 356 011a A0F55C43 		sub	r3, r0, #56320
 357 011e B3F5806F 		cmp	r3, #1024
 358 0122 BFD2     		bcs	.L22
 632:../../iot_link/cJSON/cJSON.c ****     }
 359              		.loc 1 632 0
 360 0124 264B     		ldr	r3, .L62
 361 0126 C0F30900 		ubfx	r0, r0, #0, #10
 362              	.LVL47:
 363 012a 03EA8727 		and	r7, r3, r7, lsl #10
 364              	.LVL48:
 365 012e 3843     		orrs	r0, r0, r7
 366 0130 00F58037 		add	r7, r0, #65536
 367              	.LVL49:
 607:../../iot_link/cJSON/cJSON.c **** 
 368              		.loc 1 607 0
 369 0134 0C23     		movs	r3, #12
 370              	.LVL50:
 371              	.L35:
 372              	.LBE44:
 654:../../iot_link/cJSON/cJSON.c ****     {
 373              		.loc 1 654 0
 374 0136 B7F5803F 		cmp	r7, #65536
 375 013a 30D3     		bcc	.L46
 660:../../iot_link/cJSON/cJSON.c ****     {
 376              		.loc 1 660 0
 377 013c 214A     		ldr	r2, .L62+4
 378 013e 9742     		cmp	r7, r2
 379 0140 B0D8     		bhi	.L22
 664:../../iot_link/cJSON/cJSON.c ****     }
 380              		.loc 1 664 0
 381 0142 4FF0F00C 		mov	ip, #240
 663:../../iot_link/cJSON/cJSON.c ****         first_byte_mark = 0xF0; /* 11110000 */
 382              		.loc 1 663 0
 383 0146 0420     		movs	r0, #4
 384              	.LVL51:
 385              	.L36:
ARM GAS  C:\Users\LuckyE\AppData\Local\Temp\ccgn9LZs.s 			page 23


 673:../../iot_link/cJSON/cJSON.c ****     {
 386              		.loc 1 673 0
 387 0148 00F1FF3E 		add	lr, r0, #-1
 388 014c 54FA8EFE 		uxtab	lr, r4, lr
 389              	.LVL52:
 390              	.L37:
 391 0150 A645     		cmp	lr, r4
 392 0152 FAB2     		uxtb	r2, r7
 393 0154 27D1     		bne	.L38
 680:../../iot_link/cJSON/cJSON.c ****     {
 394              		.loc 1 680 0
 395 0156 0128     		cmp	r0, #1
 682:../../iot_link/cJSON/cJSON.c ****     }
 396              		.loc 1 682 0
 397 0158 14BF     		ite	ne
 398 015a 42EA0C02 		orrne	r2, r2, ip
 686:../../iot_link/cJSON/cJSON.c ****     }
 399              		.loc 1 686 0
 400 015e 02F07F02 		andeq	r2, r2, #127
 401 0162 2270     		strb	r2, [r4]
 689:../../iot_link/cJSON/cJSON.c **** 
 402              		.loc 1 689 0
 403 0164 0444     		add	r4, r4, r0
 404              	.LVL53:
 405              	.LBE43:
 406              	.LBE42:
 407 0166 03E0     		b	.L33
 408              	.LVL54:
 409              	.L23:
 767:../../iot_link/cJSON/cJSON.c ****                     break;
 410              		.loc 1 767 0
 411 0168 84F800A0 		strb	r10, [r4]
 412              	.LVL55:
 413              	.L61:
 414 016c 0134     		adds	r4, r4, #1
 755:../../iot_link/cJSON/cJSON.c ****             if ((input_end - input_pointer) < 1)
 415              		.loc 1 755 0
 416 016e 0223     		movs	r3, #2
 417              	.LVL56:
 418              	.L33:
 797:../../iot_link/cJSON/cJSON.c ****         }
 419              		.loc 1 797 0
 420 0170 1D44     		add	r5, r5, r3
 421              	.LVL57:
 422 0172 6AE7     		b	.L19
 423              	.LVL58:
 424              	.L28:
 773:../../iot_link/cJSON/cJSON.c ****                     break;
 425              		.loc 1 773 0
 426 0174 4FF00D03 		mov	r3, #13
 427 0178 A4E7     		b	.L25
 428              	.LVL59:
 429              	.L31:
 776:../../iot_link/cJSON/cJSON.c ****                     break;
 430              		.loc 1 776 0
 431 017a 4FF00903 		mov	r3, #9
 432 017e A1E7     		b	.L25
ARM GAS  C:\Users\LuckyE\AppData\Local\Temp\ccgn9LZs.s 			page 24


 433              	.LVL60:
 434              	.L34:
 435              	.LBB46:
 436              	.LBB45:
 643:../../iot_link/cJSON/cJSON.c ****     {
 437              		.loc 1 643 0
 438 0180 7F28     		cmp	r0, #127
 636:../../iot_link/cJSON/cJSON.c ****         codepoint = first_code;
 439              		.loc 1 636 0
 440 0182 4FF00603 		mov	r3, #6
 643:../../iot_link/cJSON/cJSON.c ****     {
 441              		.loc 1 643 0
 442 0186 06D9     		bls	.L44
 648:../../iot_link/cJSON/cJSON.c ****     {
 443              		.loc 1 648 0
 444 0188 B0F5006F 		cmp	r0, #2048
 445 018c D3D2     		bcs	.L35
 652:../../iot_link/cJSON/cJSON.c ****     }
 446              		.loc 1 652 0
 447 018e 4FF0C00C 		mov	ip, #192
 651:../../iot_link/cJSON/cJSON.c ****         first_byte_mark = 0xC0; /* 11000000 */
 448              		.loc 1 651 0
 449 0192 0220     		movs	r0, #2
 450              	.LVL61:
 451 0194 D8E7     		b	.L36
 452              	.LVL62:
 453              	.L44:
 585:../../iot_link/cJSON/cJSON.c **** 
 454              		.loc 1 585 0
 455 0196 4FF0000C 		mov	ip, #0
 646:../../iot_link/cJSON/cJSON.c ****     }
 456              		.loc 1 646 0
 457 019a 0120     		movs	r0, #1
 458              	.LVL63:
 459 019c D4E7     		b	.L36
 460              	.LVL64:
 461              	.L46:
 658:../../iot_link/cJSON/cJSON.c ****     }
 462              		.loc 1 658 0
 463 019e 4FF0E00C 		mov	ip, #224
 657:../../iot_link/cJSON/cJSON.c ****         first_byte_mark = 0xE0; /* 11100000 */
 464              		.loc 1 657 0
 465 01a2 0320     		movs	r0, #3
 466 01a4 D0E7     		b	.L36
 467              	.LVL65:
 468              	.L38:
 676:../../iot_link/cJSON/cJSON.c ****         codepoint >>= 6;
 469              		.loc 1 676 0
 470 01a6 02F03F02 		and	r2, r2, #63
 471 01aa 62F07F02 		orn	r2, r2, #127
 472 01ae 0EF80129 		strb	r2, [lr], #-1
 677:../../iot_link/cJSON/cJSON.c ****     }
 473              		.loc 1 677 0
 474 01b2 BF09     		lsrs	r7, r7, #6
 475              	.LVL66:
 476 01b4 CCE7     		b	.L37
 477              	.LVL67:
ARM GAS  C:\Users\LuckyE\AppData\Local\Temp\ccgn9LZs.s 			page 25


 478              	.L15:
 479              	.LBE45:
 480              	.LBE46:
 481              	.LBE49:
 818:../../iot_link/cJSON/cJSON.c ****     {
 482              		.loc 1 818 0
 483 01b6 002D     		cmp	r5, #0
 484 01b8 7FF478AF 		bne	.L43
 823:../../iot_link/cJSON/cJSON.c **** }
 485              		.loc 1 823 0
 486 01bc 2846     		mov	r0, r5
 487              	.LVL68:
 488 01be 52E7     		b	.L14
 489              	.L63:
 490              		.align	2
 491              	.L62:
 492 01c0 00FC0F00 		.word	1047552
 493 01c4 FFFF1000 		.word	1114111
 494              		.cfi_endproc
 495              	.LFE19:
 497              		.section	.text.buffer_skip_whitespace,"ax",%progbits
 498              		.align	1
 499              		.syntax unified
 500              		.thumb
 501              		.thumb_func
 502              		.fpu fpv4-sp-d16
 504              	buffer_skip_whitespace:
 505              	.LFB22:
 825:../../iot_link/cJSON/cJSON.c **** 
 826:../../iot_link/cJSON/cJSON.c **** /* Render the cstring provided to an escaped version that can be printed. */
 827:../../iot_link/cJSON/cJSON.c **** static cJSON_bool print_string_ptr(const unsigned char * const input, printbuffer * const output_bu
 828:../../iot_link/cJSON/cJSON.c **** {
 829:../../iot_link/cJSON/cJSON.c ****     const unsigned char *input_pointer = NULL;
 830:../../iot_link/cJSON/cJSON.c ****     unsigned char *output = NULL;
 831:../../iot_link/cJSON/cJSON.c ****     unsigned char *output_pointer = NULL;
 832:../../iot_link/cJSON/cJSON.c ****     size_t output_length = 0;
 833:../../iot_link/cJSON/cJSON.c ****     /* numbers of additional characters needed for escaping */
 834:../../iot_link/cJSON/cJSON.c ****     size_t escape_characters = 0;
 835:../../iot_link/cJSON/cJSON.c **** 
 836:../../iot_link/cJSON/cJSON.c ****     if (output_buffer == NULL)
 837:../../iot_link/cJSON/cJSON.c ****     {
 838:../../iot_link/cJSON/cJSON.c ****         return false;
 839:../../iot_link/cJSON/cJSON.c ****     }
 840:../../iot_link/cJSON/cJSON.c **** 
 841:../../iot_link/cJSON/cJSON.c ****     /* empty string */
 842:../../iot_link/cJSON/cJSON.c ****     if (input == NULL)
 843:../../iot_link/cJSON/cJSON.c ****     {
 844:../../iot_link/cJSON/cJSON.c ****         output = ensure(output_buffer, sizeof("\"\""));
 845:../../iot_link/cJSON/cJSON.c ****         if (output == NULL)
 846:../../iot_link/cJSON/cJSON.c ****         {
 847:../../iot_link/cJSON/cJSON.c ****             return false;
 848:../../iot_link/cJSON/cJSON.c ****         }
 849:../../iot_link/cJSON/cJSON.c ****         strcpy((char*)output, "\"\"");
 850:../../iot_link/cJSON/cJSON.c **** 
 851:../../iot_link/cJSON/cJSON.c ****         return true;
 852:../../iot_link/cJSON/cJSON.c ****     }
 853:../../iot_link/cJSON/cJSON.c **** 
ARM GAS  C:\Users\LuckyE\AppData\Local\Temp\ccgn9LZs.s 			page 26


 854:../../iot_link/cJSON/cJSON.c ****     /* set "flag" to 1 if something needs to be escaped */
 855:../../iot_link/cJSON/cJSON.c ****     for (input_pointer = input; *input_pointer; input_pointer++)
 856:../../iot_link/cJSON/cJSON.c ****     {
 857:../../iot_link/cJSON/cJSON.c ****         switch (*input_pointer)
 858:../../iot_link/cJSON/cJSON.c ****         {
 859:../../iot_link/cJSON/cJSON.c ****             case '\"':
 860:../../iot_link/cJSON/cJSON.c ****             case '\\':
 861:../../iot_link/cJSON/cJSON.c ****             case '\b':
 862:../../iot_link/cJSON/cJSON.c ****             case '\f':
 863:../../iot_link/cJSON/cJSON.c ****             case '\n':
 864:../../iot_link/cJSON/cJSON.c ****             case '\r':
 865:../../iot_link/cJSON/cJSON.c ****             case '\t':
 866:../../iot_link/cJSON/cJSON.c ****                 /* one character escape sequence */
 867:../../iot_link/cJSON/cJSON.c ****                 escape_characters++;
 868:../../iot_link/cJSON/cJSON.c ****                 break;
 869:../../iot_link/cJSON/cJSON.c ****             default:
 870:../../iot_link/cJSON/cJSON.c ****                 if (*input_pointer < 32)
 871:../../iot_link/cJSON/cJSON.c ****                 {
 872:../../iot_link/cJSON/cJSON.c ****                     /* UTF-16 escape sequence uXXXX */
 873:../../iot_link/cJSON/cJSON.c ****                     escape_characters += 5;
 874:../../iot_link/cJSON/cJSON.c ****                 }
 875:../../iot_link/cJSON/cJSON.c ****                 break;
 876:../../iot_link/cJSON/cJSON.c ****         }
 877:../../iot_link/cJSON/cJSON.c ****     }
 878:../../iot_link/cJSON/cJSON.c ****     output_length = (size_t)(input_pointer - input) + escape_characters;
 879:../../iot_link/cJSON/cJSON.c **** 
 880:../../iot_link/cJSON/cJSON.c ****     output = ensure(output_buffer, output_length + sizeof("\"\""));
 881:../../iot_link/cJSON/cJSON.c ****     if (output == NULL)
 882:../../iot_link/cJSON/cJSON.c ****     {
 883:../../iot_link/cJSON/cJSON.c ****         return false;
 884:../../iot_link/cJSON/cJSON.c ****     }
 885:../../iot_link/cJSON/cJSON.c **** 
 886:../../iot_link/cJSON/cJSON.c ****     /* no characters have to be escaped */
 887:../../iot_link/cJSON/cJSON.c ****     if (escape_characters == 0)
 888:../../iot_link/cJSON/cJSON.c ****     {
 889:../../iot_link/cJSON/cJSON.c ****         output[0] = '\"';
 890:../../iot_link/cJSON/cJSON.c ****         (void) memcpy(output + 1, input, output_length);
 891:../../iot_link/cJSON/cJSON.c ****         output[output_length + 1] = '\"';
 892:../../iot_link/cJSON/cJSON.c ****         output[output_length + 2] = '\0';
 893:../../iot_link/cJSON/cJSON.c **** 
 894:../../iot_link/cJSON/cJSON.c ****         return true;
 895:../../iot_link/cJSON/cJSON.c ****     }
 896:../../iot_link/cJSON/cJSON.c **** 
 897:../../iot_link/cJSON/cJSON.c ****     output[0] = '\"';
 898:../../iot_link/cJSON/cJSON.c ****     output_pointer = output + 1;
 899:../../iot_link/cJSON/cJSON.c ****     /* copy the string */
 900:../../iot_link/cJSON/cJSON.c ****     for (input_pointer = input; *input_pointer != '\0'; (void)input_pointer++, output_pointer++)
 901:../../iot_link/cJSON/cJSON.c ****     {
 902:../../iot_link/cJSON/cJSON.c ****         if ((*input_pointer > 31) && (*input_pointer != '\"') && (*input_pointer != '\\'))
 903:../../iot_link/cJSON/cJSON.c ****         {
 904:../../iot_link/cJSON/cJSON.c ****             /* normal character, copy */
 905:../../iot_link/cJSON/cJSON.c ****             *output_pointer = *input_pointer;
 906:../../iot_link/cJSON/cJSON.c ****         }
 907:../../iot_link/cJSON/cJSON.c ****         else
 908:../../iot_link/cJSON/cJSON.c ****         {
 909:../../iot_link/cJSON/cJSON.c ****             /* character needs to be escaped */
 910:../../iot_link/cJSON/cJSON.c ****             *output_pointer++ = '\\';
ARM GAS  C:\Users\LuckyE\AppData\Local\Temp\ccgn9LZs.s 			page 27


 911:../../iot_link/cJSON/cJSON.c ****             switch (*input_pointer)
 912:../../iot_link/cJSON/cJSON.c ****             {
 913:../../iot_link/cJSON/cJSON.c ****                 case '\\':
 914:../../iot_link/cJSON/cJSON.c ****                     *output_pointer = '\\';
 915:../../iot_link/cJSON/cJSON.c ****                     break;
 916:../../iot_link/cJSON/cJSON.c ****                 case '\"':
 917:../../iot_link/cJSON/cJSON.c ****                     *output_pointer = '\"';
 918:../../iot_link/cJSON/cJSON.c ****                     break;
 919:../../iot_link/cJSON/cJSON.c ****                 case '\b':
 920:../../iot_link/cJSON/cJSON.c ****                     *output_pointer = 'b';
 921:../../iot_link/cJSON/cJSON.c ****                     break;
 922:../../iot_link/cJSON/cJSON.c ****                 case '\f':
 923:../../iot_link/cJSON/cJSON.c ****                     *output_pointer = 'f';
 924:../../iot_link/cJSON/cJSON.c ****                     break;
 925:../../iot_link/cJSON/cJSON.c ****                 case '\n':
 926:../../iot_link/cJSON/cJSON.c ****                     *output_pointer = 'n';
 927:../../iot_link/cJSON/cJSON.c ****                     break;
 928:../../iot_link/cJSON/cJSON.c ****                 case '\r':
 929:../../iot_link/cJSON/cJSON.c ****                     *output_pointer = 'r';
 930:../../iot_link/cJSON/cJSON.c ****                     break;
 931:../../iot_link/cJSON/cJSON.c ****                 case '\t':
 932:../../iot_link/cJSON/cJSON.c ****                     *output_pointer = 't';
 933:../../iot_link/cJSON/cJSON.c ****                     break;
 934:../../iot_link/cJSON/cJSON.c ****                 default:
 935:../../iot_link/cJSON/cJSON.c ****                     /* escape and print as unicode codepoint */
 936:../../iot_link/cJSON/cJSON.c ****                     sprintf((char*)output_pointer, "u%04x", *input_pointer);
 937:../../iot_link/cJSON/cJSON.c ****                     output_pointer += 4;
 938:../../iot_link/cJSON/cJSON.c ****                     break;
 939:../../iot_link/cJSON/cJSON.c ****             }
 940:../../iot_link/cJSON/cJSON.c ****         }
 941:../../iot_link/cJSON/cJSON.c ****     }
 942:../../iot_link/cJSON/cJSON.c ****     output[output_length + 1] = '\"';
 943:../../iot_link/cJSON/cJSON.c ****     output[output_length + 2] = '\0';
 944:../../iot_link/cJSON/cJSON.c **** 
 945:../../iot_link/cJSON/cJSON.c ****     return true;
 946:../../iot_link/cJSON/cJSON.c **** }
 947:../../iot_link/cJSON/cJSON.c **** 
 948:../../iot_link/cJSON/cJSON.c **** /* Invoke print_string_ptr (which is useful) on an item. */
 949:../../iot_link/cJSON/cJSON.c **** static cJSON_bool print_string(const cJSON * const item, printbuffer * const p)
 950:../../iot_link/cJSON/cJSON.c **** {
 951:../../iot_link/cJSON/cJSON.c ****     return print_string_ptr((unsigned char*)item->valuestring, p);
 952:../../iot_link/cJSON/cJSON.c **** }
 953:../../iot_link/cJSON/cJSON.c **** 
 954:../../iot_link/cJSON/cJSON.c **** /* Predeclare these prototypes. */
 955:../../iot_link/cJSON/cJSON.c **** static cJSON_bool parse_value(cJSON * const item, parse_buffer * const input_buffer);
 956:../../iot_link/cJSON/cJSON.c **** static cJSON_bool print_value(const cJSON * const item, printbuffer * const output_buffer);
 957:../../iot_link/cJSON/cJSON.c **** static cJSON_bool parse_array(cJSON * const item, parse_buffer * const input_buffer);
 958:../../iot_link/cJSON/cJSON.c **** static cJSON_bool print_array(const cJSON * const item, printbuffer * const output_buffer);
 959:../../iot_link/cJSON/cJSON.c **** static cJSON_bool parse_object(cJSON * const item, parse_buffer * const input_buffer);
 960:../../iot_link/cJSON/cJSON.c **** static cJSON_bool print_object(const cJSON * const item, printbuffer * const output_buffer);
 961:../../iot_link/cJSON/cJSON.c **** 
 962:../../iot_link/cJSON/cJSON.c **** /* Utility to jump whitespace and cr/lf */
 963:../../iot_link/cJSON/cJSON.c **** static parse_buffer *buffer_skip_whitespace(parse_buffer * const buffer)
 964:../../iot_link/cJSON/cJSON.c **** {
 506              		.loc 1 964 0
 507              		.cfi_startproc
 508              		@ args = 0, pretend = 0, frame = 0
ARM GAS  C:\Users\LuckyE\AppData\Local\Temp\ccgn9LZs.s 			page 28


 509              		@ frame_needed = 0, uses_anonymous_args = 0
 510              	.LVL69:
 511 0000 10B5     		push	{r4, lr}
 512              	.LCFI2:
 513              		.cfi_def_cfa_offset 8
 514              		.cfi_offset 4, -8
 515              		.cfi_offset 14, -4
 965:../../iot_link/cJSON/cJSON.c ****     if ((buffer == NULL) || (buffer->content == NULL))
 516              		.loc 1 965 0
 517 0002 40B1     		cbz	r0, .L65
 518              		.loc 1 965 0 is_stmt 0 discriminator 1
 519 0004 0168     		ldr	r1, [r0]
 520 0006 71B1     		cbz	r1, .L70
 966:../../iot_link/cJSON/cJSON.c ****     {
 967:../../iot_link/cJSON/cJSON.c ****         return NULL;
 968:../../iot_link/cJSON/cJSON.c ****     }
 969:../../iot_link/cJSON/cJSON.c **** 
 970:../../iot_link/cJSON/cJSON.c ****     while (can_access_at_index(buffer, 0) && (buffer_at_offset(buffer)[0] <= 32))
 521              		.loc 1 970 0 is_stmt 1
 522 0008 4268     		ldr	r2, [r0, #4]
 523              	.L66:
 524 000a 8368     		ldr	r3, [r0, #8]
 525 000c 9342     		cmp	r3, r2
 526 000e 06D2     		bcs	.L67
 527              		.loc 1 970 0 is_stmt 0 discriminator 2
 528 0010 CC5C     		ldrb	r4, [r1, r3]	@ zero_extendqisi2
 529 0012 202C     		cmp	r4, #32
 530 0014 00D9     		bls	.L68
 531              	.LVL70:
 532              	.L65:
 971:../../iot_link/cJSON/cJSON.c ****     {
 972:../../iot_link/cJSON/cJSON.c ****        buffer->offset++;
 973:../../iot_link/cJSON/cJSON.c ****     }
 974:../../iot_link/cJSON/cJSON.c **** 
 975:../../iot_link/cJSON/cJSON.c ****     if (buffer->offset == buffer->length)
 976:../../iot_link/cJSON/cJSON.c ****     {
 977:../../iot_link/cJSON/cJSON.c ****         buffer->offset--;
 978:../../iot_link/cJSON/cJSON.c ****     }
 979:../../iot_link/cJSON/cJSON.c **** 
 980:../../iot_link/cJSON/cJSON.c ****     return buffer;
 981:../../iot_link/cJSON/cJSON.c **** }
 533              		.loc 1 981 0 is_stmt 1
 534 0016 10BD     		pop	{r4, pc}
 535              	.LVL71:
 536              	.L68:
 972:../../iot_link/cJSON/cJSON.c ****     }
 537              		.loc 1 972 0
 538 0018 0133     		adds	r3, r3, #1
 539 001a 8360     		str	r3, [r0, #8]
 540 001c F5E7     		b	.L66
 541              	.L67:
 975:../../iot_link/cJSON/cJSON.c ****     {
 542              		.loc 1 975 0
 543 001e FAD1     		bne	.L65
 977:../../iot_link/cJSON/cJSON.c ****     }
 544              		.loc 1 977 0
 545 0020 013A     		subs	r2, r2, #1
ARM GAS  C:\Users\LuckyE\AppData\Local\Temp\ccgn9LZs.s 			page 29


 546 0022 8260     		str	r2, [r0, #8]
 547 0024 F7E7     		b	.L65
 548              	.L70:
 967:../../iot_link/cJSON/cJSON.c ****     }
 549              		.loc 1 967 0
 550 0026 0846     		mov	r0, r1
 551              	.LVL72:
 552 0028 F5E7     		b	.L65
 553              		.cfi_endproc
 554              	.LFE22:
 556              		.section	.text.get_array_item,"ax",%progbits
 557              		.align	1
 558              		.syntax unified
 559              		.thumb
 560              		.thumb_func
 561              		.fpu fpv4-sp-d16
 563              	get_array_item:
 564              	.LFB38:
 982:../../iot_link/cJSON/cJSON.c **** 
 983:../../iot_link/cJSON/cJSON.c **** /* skip the UTF-8 BOM (byte order mark) if it is at the beginning of a buffer */
 984:../../iot_link/cJSON/cJSON.c **** static parse_buffer *skip_utf8_bom(parse_buffer * const buffer)
 985:../../iot_link/cJSON/cJSON.c **** {
 986:../../iot_link/cJSON/cJSON.c ****     if ((buffer == NULL) || (buffer->content == NULL) || (buffer->offset != 0))
 987:../../iot_link/cJSON/cJSON.c ****     {
 988:../../iot_link/cJSON/cJSON.c ****         return NULL;
 989:../../iot_link/cJSON/cJSON.c ****     }
 990:../../iot_link/cJSON/cJSON.c **** 
 991:../../iot_link/cJSON/cJSON.c ****     if (can_access_at_index(buffer, 4) && (strncmp((const char*)buffer_at_offset(buffer), "\xEF\xBB
 992:../../iot_link/cJSON/cJSON.c ****     {
 993:../../iot_link/cJSON/cJSON.c ****         buffer->offset += 3;
 994:../../iot_link/cJSON/cJSON.c ****     }
 995:../../iot_link/cJSON/cJSON.c **** 
 996:../../iot_link/cJSON/cJSON.c ****     return buffer;
 997:../../iot_link/cJSON/cJSON.c **** }
 998:../../iot_link/cJSON/cJSON.c **** 
 999:../../iot_link/cJSON/cJSON.c **** /* Parse an object - create a new root, and populate. */
1000:../../iot_link/cJSON/cJSON.c **** CJSON_PUBLIC(cJSON *) cJSON_ParseWithOpts(const char *value, const char **return_parse_end, cJSON_b
1001:../../iot_link/cJSON/cJSON.c **** {
1002:../../iot_link/cJSON/cJSON.c ****     parse_buffer buffer = { 0, 0, 0, 0, { 0, 0, 0 } };
1003:../../iot_link/cJSON/cJSON.c ****     cJSON *item = NULL;
1004:../../iot_link/cJSON/cJSON.c **** 
1005:../../iot_link/cJSON/cJSON.c ****     /* reset error position */
1006:../../iot_link/cJSON/cJSON.c ****     global_error.json = NULL;
1007:../../iot_link/cJSON/cJSON.c ****     global_error.position = 0;
1008:../../iot_link/cJSON/cJSON.c **** 
1009:../../iot_link/cJSON/cJSON.c ****     if (value == NULL)
1010:../../iot_link/cJSON/cJSON.c ****     {
1011:../../iot_link/cJSON/cJSON.c ****         goto fail;
1012:../../iot_link/cJSON/cJSON.c ****     }
1013:../../iot_link/cJSON/cJSON.c **** 
1014:../../iot_link/cJSON/cJSON.c ****     buffer.content = (const unsigned char*)value;
1015:../../iot_link/cJSON/cJSON.c ****     buffer.length = strlen((const char*)value) + sizeof("");
1016:../../iot_link/cJSON/cJSON.c ****     buffer.offset = 0;
1017:../../iot_link/cJSON/cJSON.c ****     buffer.hooks = global_hooks;
1018:../../iot_link/cJSON/cJSON.c **** 
1019:../../iot_link/cJSON/cJSON.c ****     item = cJSON_New_Item(&global_hooks);
1020:../../iot_link/cJSON/cJSON.c ****     if (item == NULL) /* memory fail */
ARM GAS  C:\Users\LuckyE\AppData\Local\Temp\ccgn9LZs.s 			page 30


1021:../../iot_link/cJSON/cJSON.c ****     {
1022:../../iot_link/cJSON/cJSON.c ****         goto fail;
1023:../../iot_link/cJSON/cJSON.c ****     }
1024:../../iot_link/cJSON/cJSON.c **** 
1025:../../iot_link/cJSON/cJSON.c ****     if (!parse_value(item, buffer_skip_whitespace(skip_utf8_bom(&buffer))))
1026:../../iot_link/cJSON/cJSON.c ****     {
1027:../../iot_link/cJSON/cJSON.c ****         /* parse failure. ep is set. */
1028:../../iot_link/cJSON/cJSON.c ****         goto fail;
1029:../../iot_link/cJSON/cJSON.c ****     }
1030:../../iot_link/cJSON/cJSON.c **** 
1031:../../iot_link/cJSON/cJSON.c ****     /* if we require null-terminated JSON without appended garbage, skip and then check for a null 
1032:../../iot_link/cJSON/cJSON.c ****     if (require_null_terminated)
1033:../../iot_link/cJSON/cJSON.c ****     {
1034:../../iot_link/cJSON/cJSON.c ****         buffer_skip_whitespace(&buffer);
1035:../../iot_link/cJSON/cJSON.c ****         if ((buffer.offset >= buffer.length) || buffer_at_offset(&buffer)[0] != '\0')
1036:../../iot_link/cJSON/cJSON.c ****         {
1037:../../iot_link/cJSON/cJSON.c ****             goto fail;
1038:../../iot_link/cJSON/cJSON.c ****         }
1039:../../iot_link/cJSON/cJSON.c ****     }
1040:../../iot_link/cJSON/cJSON.c ****     if (return_parse_end)
1041:../../iot_link/cJSON/cJSON.c ****     {
1042:../../iot_link/cJSON/cJSON.c ****         *return_parse_end = (const char*)buffer_at_offset(&buffer);
1043:../../iot_link/cJSON/cJSON.c ****     }
1044:../../iot_link/cJSON/cJSON.c **** 
1045:../../iot_link/cJSON/cJSON.c ****     return item;
1046:../../iot_link/cJSON/cJSON.c **** 
1047:../../iot_link/cJSON/cJSON.c **** fail:
1048:../../iot_link/cJSON/cJSON.c ****     if (item != NULL)
1049:../../iot_link/cJSON/cJSON.c ****     {
1050:../../iot_link/cJSON/cJSON.c ****         cJSON_Delete(item);
1051:../../iot_link/cJSON/cJSON.c ****     }
1052:../../iot_link/cJSON/cJSON.c **** 
1053:../../iot_link/cJSON/cJSON.c ****     if (value != NULL)
1054:../../iot_link/cJSON/cJSON.c ****     {
1055:../../iot_link/cJSON/cJSON.c ****         error local_error;
1056:../../iot_link/cJSON/cJSON.c ****         local_error.json = (const unsigned char*)value;
1057:../../iot_link/cJSON/cJSON.c ****         local_error.position = 0;
1058:../../iot_link/cJSON/cJSON.c **** 
1059:../../iot_link/cJSON/cJSON.c ****         if (buffer.offset < buffer.length)
1060:../../iot_link/cJSON/cJSON.c ****         {
1061:../../iot_link/cJSON/cJSON.c ****             local_error.position = buffer.offset;
1062:../../iot_link/cJSON/cJSON.c ****         }
1063:../../iot_link/cJSON/cJSON.c ****         else if (buffer.length > 0)
1064:../../iot_link/cJSON/cJSON.c ****         {
1065:../../iot_link/cJSON/cJSON.c ****             local_error.position = buffer.length - 1;
1066:../../iot_link/cJSON/cJSON.c ****         }
1067:../../iot_link/cJSON/cJSON.c **** 
1068:../../iot_link/cJSON/cJSON.c ****         if (return_parse_end != NULL)
1069:../../iot_link/cJSON/cJSON.c ****         {
1070:../../iot_link/cJSON/cJSON.c ****             *return_parse_end = (const char*)local_error.json + local_error.position;
1071:../../iot_link/cJSON/cJSON.c ****         }
1072:../../iot_link/cJSON/cJSON.c **** 
1073:../../iot_link/cJSON/cJSON.c ****         global_error = local_error;
1074:../../iot_link/cJSON/cJSON.c ****     }
1075:../../iot_link/cJSON/cJSON.c **** 
1076:../../iot_link/cJSON/cJSON.c ****     return NULL;
1077:../../iot_link/cJSON/cJSON.c **** }
ARM GAS  C:\Users\LuckyE\AppData\Local\Temp\ccgn9LZs.s 			page 31


1078:../../iot_link/cJSON/cJSON.c **** 
1079:../../iot_link/cJSON/cJSON.c **** /* Default options for cJSON_Parse */
1080:../../iot_link/cJSON/cJSON.c **** CJSON_PUBLIC(cJSON *) cJSON_Parse(const char *value)
1081:../../iot_link/cJSON/cJSON.c **** {
1082:../../iot_link/cJSON/cJSON.c ****     return cJSON_ParseWithOpts(value, 0, 0);
1083:../../iot_link/cJSON/cJSON.c **** }
1084:../../iot_link/cJSON/cJSON.c **** 
1085:../../iot_link/cJSON/cJSON.c **** #define cjson_min(a, b) ((a < b) ? a : b)
1086:../../iot_link/cJSON/cJSON.c **** 
1087:../../iot_link/cJSON/cJSON.c **** static unsigned char *print(const cJSON * const item, cJSON_bool format, const internal_hooks * con
1088:../../iot_link/cJSON/cJSON.c **** {
1089:../../iot_link/cJSON/cJSON.c ****     static const size_t default_buffer_size = 256;
1090:../../iot_link/cJSON/cJSON.c ****     printbuffer buffer[1];
1091:../../iot_link/cJSON/cJSON.c ****     unsigned char *printed = NULL;
1092:../../iot_link/cJSON/cJSON.c **** 
1093:../../iot_link/cJSON/cJSON.c ****     memset(buffer, 0, sizeof(buffer));
1094:../../iot_link/cJSON/cJSON.c **** 
1095:../../iot_link/cJSON/cJSON.c ****     /* create buffer */
1096:../../iot_link/cJSON/cJSON.c ****     buffer->buffer = (unsigned char*) hooks->allocate(default_buffer_size);
1097:../../iot_link/cJSON/cJSON.c ****     buffer->length = default_buffer_size;
1098:../../iot_link/cJSON/cJSON.c ****     buffer->format = format;
1099:../../iot_link/cJSON/cJSON.c ****     buffer->hooks = *hooks;
1100:../../iot_link/cJSON/cJSON.c ****     if (buffer->buffer == NULL)
1101:../../iot_link/cJSON/cJSON.c ****     {
1102:../../iot_link/cJSON/cJSON.c ****         goto fail;
1103:../../iot_link/cJSON/cJSON.c ****     }
1104:../../iot_link/cJSON/cJSON.c **** 
1105:../../iot_link/cJSON/cJSON.c ****     /* print the value */
1106:../../iot_link/cJSON/cJSON.c ****     if (!print_value(item, buffer))
1107:../../iot_link/cJSON/cJSON.c ****     {
1108:../../iot_link/cJSON/cJSON.c ****         goto fail;
1109:../../iot_link/cJSON/cJSON.c ****     }
1110:../../iot_link/cJSON/cJSON.c ****     update_offset(buffer);
1111:../../iot_link/cJSON/cJSON.c **** 
1112:../../iot_link/cJSON/cJSON.c ****     /* check if reallocate is available */
1113:../../iot_link/cJSON/cJSON.c ****     if (hooks->reallocate != NULL)
1114:../../iot_link/cJSON/cJSON.c ****     {
1115:../../iot_link/cJSON/cJSON.c ****         printed = (unsigned char*) hooks->reallocate(buffer->buffer, buffer->offset + 1);
1116:../../iot_link/cJSON/cJSON.c ****         if (printed == NULL) {
1117:../../iot_link/cJSON/cJSON.c ****             goto fail;
1118:../../iot_link/cJSON/cJSON.c ****         }
1119:../../iot_link/cJSON/cJSON.c ****         buffer->buffer = NULL;
1120:../../iot_link/cJSON/cJSON.c ****     }
1121:../../iot_link/cJSON/cJSON.c ****     else /* otherwise copy the JSON over to a new buffer */
1122:../../iot_link/cJSON/cJSON.c ****     {
1123:../../iot_link/cJSON/cJSON.c ****         printed = (unsigned char*) hooks->allocate(buffer->offset + 1);
1124:../../iot_link/cJSON/cJSON.c ****         if (printed == NULL)
1125:../../iot_link/cJSON/cJSON.c ****         {
1126:../../iot_link/cJSON/cJSON.c ****             goto fail;
1127:../../iot_link/cJSON/cJSON.c ****         }
1128:../../iot_link/cJSON/cJSON.c ****         (void) memcpy(printed, buffer->buffer, cjson_min(buffer->length, buffer->offset + 1));
1129:../../iot_link/cJSON/cJSON.c ****         printed[buffer->offset] = '\0'; /* just to be sure */
1130:../../iot_link/cJSON/cJSON.c **** 
1131:../../iot_link/cJSON/cJSON.c ****         /* free the buffer */
1132:../../iot_link/cJSON/cJSON.c ****         hooks->deallocate(buffer->buffer);
1133:../../iot_link/cJSON/cJSON.c ****     }
1134:../../iot_link/cJSON/cJSON.c **** 
ARM GAS  C:\Users\LuckyE\AppData\Local\Temp\ccgn9LZs.s 			page 32


1135:../../iot_link/cJSON/cJSON.c ****     return printed;
1136:../../iot_link/cJSON/cJSON.c **** 
1137:../../iot_link/cJSON/cJSON.c **** fail:
1138:../../iot_link/cJSON/cJSON.c ****     if (buffer->buffer != NULL)
1139:../../iot_link/cJSON/cJSON.c ****     {
1140:../../iot_link/cJSON/cJSON.c ****         hooks->deallocate(buffer->buffer);
1141:../../iot_link/cJSON/cJSON.c ****     }
1142:../../iot_link/cJSON/cJSON.c **** 
1143:../../iot_link/cJSON/cJSON.c ****     if (printed != NULL)
1144:../../iot_link/cJSON/cJSON.c ****     {
1145:../../iot_link/cJSON/cJSON.c ****         hooks->deallocate(printed);
1146:../../iot_link/cJSON/cJSON.c ****     }
1147:../../iot_link/cJSON/cJSON.c **** 
1148:../../iot_link/cJSON/cJSON.c ****     return NULL;
1149:../../iot_link/cJSON/cJSON.c **** }
1150:../../iot_link/cJSON/cJSON.c **** 
1151:../../iot_link/cJSON/cJSON.c **** /* Render a cJSON item/entity/structure to text. */
1152:../../iot_link/cJSON/cJSON.c **** CJSON_PUBLIC(char *) cJSON_Print(const cJSON *item)
1153:../../iot_link/cJSON/cJSON.c **** {
1154:../../iot_link/cJSON/cJSON.c ****     return (char*)print(item, true, &global_hooks);
1155:../../iot_link/cJSON/cJSON.c **** }
1156:../../iot_link/cJSON/cJSON.c **** 
1157:../../iot_link/cJSON/cJSON.c **** CJSON_PUBLIC(char *) cJSON_PrintUnformatted(const cJSON *item)
1158:../../iot_link/cJSON/cJSON.c **** {
1159:../../iot_link/cJSON/cJSON.c ****     return (char*)print(item, false, &global_hooks);
1160:../../iot_link/cJSON/cJSON.c **** }
1161:../../iot_link/cJSON/cJSON.c **** 
1162:../../iot_link/cJSON/cJSON.c **** CJSON_PUBLIC(char *) cJSON_PrintBuffered(const cJSON *item, int prebuffer, cJSON_bool fmt)
1163:../../iot_link/cJSON/cJSON.c **** {
1164:../../iot_link/cJSON/cJSON.c ****     printbuffer p = { 0, 0, 0, 0, 0, 0, { 0, 0, 0 } };
1165:../../iot_link/cJSON/cJSON.c **** 
1166:../../iot_link/cJSON/cJSON.c ****     if (prebuffer < 0)
1167:../../iot_link/cJSON/cJSON.c ****     {
1168:../../iot_link/cJSON/cJSON.c ****         return NULL;
1169:../../iot_link/cJSON/cJSON.c ****     }
1170:../../iot_link/cJSON/cJSON.c **** 
1171:../../iot_link/cJSON/cJSON.c ****     p.buffer = (unsigned char*)global_hooks.allocate((size_t)prebuffer);
1172:../../iot_link/cJSON/cJSON.c ****     if (!p.buffer)
1173:../../iot_link/cJSON/cJSON.c ****     {
1174:../../iot_link/cJSON/cJSON.c ****         return NULL;
1175:../../iot_link/cJSON/cJSON.c ****     }
1176:../../iot_link/cJSON/cJSON.c **** 
1177:../../iot_link/cJSON/cJSON.c ****     p.length = (size_t)prebuffer;
1178:../../iot_link/cJSON/cJSON.c ****     p.offset = 0;
1179:../../iot_link/cJSON/cJSON.c ****     p.noalloc = false;
1180:../../iot_link/cJSON/cJSON.c ****     p.format = fmt;
1181:../../iot_link/cJSON/cJSON.c ****     p.hooks = global_hooks;
1182:../../iot_link/cJSON/cJSON.c **** 
1183:../../iot_link/cJSON/cJSON.c ****     if (!print_value(item, &p))
1184:../../iot_link/cJSON/cJSON.c ****     {
1185:../../iot_link/cJSON/cJSON.c ****         global_hooks.deallocate(p.buffer);
1186:../../iot_link/cJSON/cJSON.c ****         return NULL;
1187:../../iot_link/cJSON/cJSON.c ****     }
1188:../../iot_link/cJSON/cJSON.c **** 
1189:../../iot_link/cJSON/cJSON.c ****     return (char*)p.buffer;
1190:../../iot_link/cJSON/cJSON.c **** }
1191:../../iot_link/cJSON/cJSON.c **** 
ARM GAS  C:\Users\LuckyE\AppData\Local\Temp\ccgn9LZs.s 			page 33


1192:../../iot_link/cJSON/cJSON.c **** CJSON_PUBLIC(cJSON_bool) cJSON_PrintPreallocated(cJSON *item, char *buf, const int len, const cJSON
1193:../../iot_link/cJSON/cJSON.c **** {
1194:../../iot_link/cJSON/cJSON.c ****     printbuffer p = { 0, 0, 0, 0, 0, 0, { 0, 0, 0 } };
1195:../../iot_link/cJSON/cJSON.c **** 
1196:../../iot_link/cJSON/cJSON.c ****     if ((len < 0) || (buf == NULL))
1197:../../iot_link/cJSON/cJSON.c ****     {
1198:../../iot_link/cJSON/cJSON.c ****         return false;
1199:../../iot_link/cJSON/cJSON.c ****     }
1200:../../iot_link/cJSON/cJSON.c **** 
1201:../../iot_link/cJSON/cJSON.c ****     p.buffer = (unsigned char*)buf;
1202:../../iot_link/cJSON/cJSON.c ****     p.length = (size_t)len;
1203:../../iot_link/cJSON/cJSON.c ****     p.offset = 0;
1204:../../iot_link/cJSON/cJSON.c ****     p.noalloc = true;
1205:../../iot_link/cJSON/cJSON.c ****     p.format = fmt;
1206:../../iot_link/cJSON/cJSON.c ****     p.hooks = global_hooks;
1207:../../iot_link/cJSON/cJSON.c **** 
1208:../../iot_link/cJSON/cJSON.c ****     return print_value(item, &p);
1209:../../iot_link/cJSON/cJSON.c **** }
1210:../../iot_link/cJSON/cJSON.c **** 
1211:../../iot_link/cJSON/cJSON.c **** /* Parser core - when encountering text, process appropriately. */
1212:../../iot_link/cJSON/cJSON.c **** static cJSON_bool parse_value(cJSON * const item, parse_buffer * const input_buffer)
1213:../../iot_link/cJSON/cJSON.c **** {
1214:../../iot_link/cJSON/cJSON.c ****     if ((input_buffer == NULL) || (input_buffer->content == NULL))
1215:../../iot_link/cJSON/cJSON.c ****     {
1216:../../iot_link/cJSON/cJSON.c ****         return false; /* no input */
1217:../../iot_link/cJSON/cJSON.c ****     }
1218:../../iot_link/cJSON/cJSON.c **** 
1219:../../iot_link/cJSON/cJSON.c ****     /* parse the different types of values */
1220:../../iot_link/cJSON/cJSON.c ****     /* null */
1221:../../iot_link/cJSON/cJSON.c ****     if (can_read(input_buffer, 4) && (strncmp((const char*)buffer_at_offset(input_buffer), "null", 
1222:../../iot_link/cJSON/cJSON.c ****     {
1223:../../iot_link/cJSON/cJSON.c ****         item->type = cJSON_NULL;
1224:../../iot_link/cJSON/cJSON.c ****         input_buffer->offset += 4;
1225:../../iot_link/cJSON/cJSON.c ****         return true;
1226:../../iot_link/cJSON/cJSON.c ****     }
1227:../../iot_link/cJSON/cJSON.c ****     /* false */
1228:../../iot_link/cJSON/cJSON.c ****     if (can_read(input_buffer, 5) && (strncmp((const char*)buffer_at_offset(input_buffer), "false",
1229:../../iot_link/cJSON/cJSON.c ****     {
1230:../../iot_link/cJSON/cJSON.c ****         item->type = cJSON_False;
1231:../../iot_link/cJSON/cJSON.c ****         input_buffer->offset += 5;
1232:../../iot_link/cJSON/cJSON.c ****         return true;
1233:../../iot_link/cJSON/cJSON.c ****     }
1234:../../iot_link/cJSON/cJSON.c ****     /* true */
1235:../../iot_link/cJSON/cJSON.c ****     if (can_read(input_buffer, 4) && (strncmp((const char*)buffer_at_offset(input_buffer), "true", 
1236:../../iot_link/cJSON/cJSON.c ****     {
1237:../../iot_link/cJSON/cJSON.c ****         item->type = cJSON_True;
1238:../../iot_link/cJSON/cJSON.c ****         item->valueint = 1;
1239:../../iot_link/cJSON/cJSON.c ****         input_buffer->offset += 4;
1240:../../iot_link/cJSON/cJSON.c ****         return true;
1241:../../iot_link/cJSON/cJSON.c ****     }
1242:../../iot_link/cJSON/cJSON.c ****     /* string */
1243:../../iot_link/cJSON/cJSON.c ****     if (can_access_at_index(input_buffer, 0) && (buffer_at_offset(input_buffer)[0] == '\"'))
1244:../../iot_link/cJSON/cJSON.c ****     {
1245:../../iot_link/cJSON/cJSON.c ****         return parse_string(item, input_buffer);
1246:../../iot_link/cJSON/cJSON.c ****     }
1247:../../iot_link/cJSON/cJSON.c ****     /* number */
1248:../../iot_link/cJSON/cJSON.c ****     if (can_access_at_index(input_buffer, 0) && ((buffer_at_offset(input_buffer)[0] == '-') || ((bu
ARM GAS  C:\Users\LuckyE\AppData\Local\Temp\ccgn9LZs.s 			page 34


1249:../../iot_link/cJSON/cJSON.c ****     {
1250:../../iot_link/cJSON/cJSON.c ****         return parse_number(item, input_buffer);
1251:../../iot_link/cJSON/cJSON.c ****     }
1252:../../iot_link/cJSON/cJSON.c ****     /* array */
1253:../../iot_link/cJSON/cJSON.c ****     if (can_access_at_index(input_buffer, 0) && (buffer_at_offset(input_buffer)[0] == '['))
1254:../../iot_link/cJSON/cJSON.c ****     {
1255:../../iot_link/cJSON/cJSON.c ****         return parse_array(item, input_buffer);
1256:../../iot_link/cJSON/cJSON.c ****     }
1257:../../iot_link/cJSON/cJSON.c ****     /* object */
1258:../../iot_link/cJSON/cJSON.c ****     if (can_access_at_index(input_buffer, 0) && (buffer_at_offset(input_buffer)[0] == '{'))
1259:../../iot_link/cJSON/cJSON.c ****     {
1260:../../iot_link/cJSON/cJSON.c ****         return parse_object(item, input_buffer);
1261:../../iot_link/cJSON/cJSON.c ****     }
1262:../../iot_link/cJSON/cJSON.c **** 
1263:../../iot_link/cJSON/cJSON.c ****     return false;
1264:../../iot_link/cJSON/cJSON.c **** }
1265:../../iot_link/cJSON/cJSON.c **** 
1266:../../iot_link/cJSON/cJSON.c **** /* Render a value to text. */
1267:../../iot_link/cJSON/cJSON.c **** static cJSON_bool print_value(const cJSON * const item, printbuffer * const output_buffer)
1268:../../iot_link/cJSON/cJSON.c **** {
1269:../../iot_link/cJSON/cJSON.c ****     unsigned char *output = NULL;
1270:../../iot_link/cJSON/cJSON.c **** 
1271:../../iot_link/cJSON/cJSON.c ****     if ((item == NULL) || (output_buffer == NULL))
1272:../../iot_link/cJSON/cJSON.c ****     {
1273:../../iot_link/cJSON/cJSON.c ****         return false;
1274:../../iot_link/cJSON/cJSON.c ****     }
1275:../../iot_link/cJSON/cJSON.c **** 
1276:../../iot_link/cJSON/cJSON.c ****     switch ((item->type) & 0xFF)
1277:../../iot_link/cJSON/cJSON.c ****     {
1278:../../iot_link/cJSON/cJSON.c ****         case cJSON_NULL:
1279:../../iot_link/cJSON/cJSON.c ****             output = ensure(output_buffer, 5);
1280:../../iot_link/cJSON/cJSON.c ****             if (output == NULL)
1281:../../iot_link/cJSON/cJSON.c ****             {
1282:../../iot_link/cJSON/cJSON.c ****                 return false;
1283:../../iot_link/cJSON/cJSON.c ****             }
1284:../../iot_link/cJSON/cJSON.c ****             strcpy((char*)output, "null");
1285:../../iot_link/cJSON/cJSON.c ****             return true;
1286:../../iot_link/cJSON/cJSON.c **** 
1287:../../iot_link/cJSON/cJSON.c ****         case cJSON_False:
1288:../../iot_link/cJSON/cJSON.c ****             output = ensure(output_buffer, 6);
1289:../../iot_link/cJSON/cJSON.c ****             if (output == NULL)
1290:../../iot_link/cJSON/cJSON.c ****             {
1291:../../iot_link/cJSON/cJSON.c ****                 return false;
1292:../../iot_link/cJSON/cJSON.c ****             }
1293:../../iot_link/cJSON/cJSON.c ****             strcpy((char*)output, "false");
1294:../../iot_link/cJSON/cJSON.c ****             return true;
1295:../../iot_link/cJSON/cJSON.c **** 
1296:../../iot_link/cJSON/cJSON.c ****         case cJSON_True:
1297:../../iot_link/cJSON/cJSON.c ****             output = ensure(output_buffer, 5);
1298:../../iot_link/cJSON/cJSON.c ****             if (output == NULL)
1299:../../iot_link/cJSON/cJSON.c ****             {
1300:../../iot_link/cJSON/cJSON.c ****                 return false;
1301:../../iot_link/cJSON/cJSON.c ****             }
1302:../../iot_link/cJSON/cJSON.c ****             strcpy((char*)output, "true");
1303:../../iot_link/cJSON/cJSON.c ****             return true;
1304:../../iot_link/cJSON/cJSON.c **** 
1305:../../iot_link/cJSON/cJSON.c ****         case cJSON_Number:
ARM GAS  C:\Users\LuckyE\AppData\Local\Temp\ccgn9LZs.s 			page 35


1306:../../iot_link/cJSON/cJSON.c ****             return print_number(item, output_buffer);
1307:../../iot_link/cJSON/cJSON.c **** 
1308:../../iot_link/cJSON/cJSON.c ****         case cJSON_Raw:
1309:../../iot_link/cJSON/cJSON.c ****         {
1310:../../iot_link/cJSON/cJSON.c ****             size_t raw_length = 0;
1311:../../iot_link/cJSON/cJSON.c ****             if (item->valuestring == NULL)
1312:../../iot_link/cJSON/cJSON.c ****             {
1313:../../iot_link/cJSON/cJSON.c ****                 return false;
1314:../../iot_link/cJSON/cJSON.c ****             }
1315:../../iot_link/cJSON/cJSON.c **** 
1316:../../iot_link/cJSON/cJSON.c ****             raw_length = strlen(item->valuestring) + sizeof("");
1317:../../iot_link/cJSON/cJSON.c ****             output = ensure(output_buffer, raw_length);
1318:../../iot_link/cJSON/cJSON.c ****             if (output == NULL)
1319:../../iot_link/cJSON/cJSON.c ****             {
1320:../../iot_link/cJSON/cJSON.c ****                 return false;
1321:../../iot_link/cJSON/cJSON.c ****             }
1322:../../iot_link/cJSON/cJSON.c ****             (void) memcpy(output, item->valuestring, raw_length);
1323:../../iot_link/cJSON/cJSON.c ****             return true;
1324:../../iot_link/cJSON/cJSON.c ****         }
1325:../../iot_link/cJSON/cJSON.c **** 
1326:../../iot_link/cJSON/cJSON.c ****         case cJSON_String:
1327:../../iot_link/cJSON/cJSON.c ****             return print_string(item, output_buffer);
1328:../../iot_link/cJSON/cJSON.c **** 
1329:../../iot_link/cJSON/cJSON.c ****         case cJSON_Array:
1330:../../iot_link/cJSON/cJSON.c ****             return print_array(item, output_buffer);
1331:../../iot_link/cJSON/cJSON.c **** 
1332:../../iot_link/cJSON/cJSON.c ****         case cJSON_Object:
1333:../../iot_link/cJSON/cJSON.c ****             return print_object(item, output_buffer);
1334:../../iot_link/cJSON/cJSON.c **** 
1335:../../iot_link/cJSON/cJSON.c ****         default:
1336:../../iot_link/cJSON/cJSON.c ****             return false;
1337:../../iot_link/cJSON/cJSON.c ****     }
1338:../../iot_link/cJSON/cJSON.c **** }
1339:../../iot_link/cJSON/cJSON.c **** 
1340:../../iot_link/cJSON/cJSON.c **** /* Build an array from input text. */
1341:../../iot_link/cJSON/cJSON.c **** static cJSON_bool parse_array(cJSON * const item, parse_buffer * const input_buffer)
1342:../../iot_link/cJSON/cJSON.c **** {
1343:../../iot_link/cJSON/cJSON.c ****     cJSON *head = NULL; /* head of the linked list */
1344:../../iot_link/cJSON/cJSON.c ****     cJSON *current_item = NULL;
1345:../../iot_link/cJSON/cJSON.c **** 
1346:../../iot_link/cJSON/cJSON.c ****     if (input_buffer->depth >= CJSON_NESTING_LIMIT)
1347:../../iot_link/cJSON/cJSON.c ****     {
1348:../../iot_link/cJSON/cJSON.c ****         return false; /* to deeply nested */
1349:../../iot_link/cJSON/cJSON.c ****     }
1350:../../iot_link/cJSON/cJSON.c ****     input_buffer->depth++;
1351:../../iot_link/cJSON/cJSON.c **** 
1352:../../iot_link/cJSON/cJSON.c ****     if (buffer_at_offset(input_buffer)[0] != '[')
1353:../../iot_link/cJSON/cJSON.c ****     {
1354:../../iot_link/cJSON/cJSON.c ****         /* not an array */
1355:../../iot_link/cJSON/cJSON.c ****         goto fail;
1356:../../iot_link/cJSON/cJSON.c ****     }
1357:../../iot_link/cJSON/cJSON.c **** 
1358:../../iot_link/cJSON/cJSON.c ****     input_buffer->offset++;
1359:../../iot_link/cJSON/cJSON.c ****     buffer_skip_whitespace(input_buffer);
1360:../../iot_link/cJSON/cJSON.c ****     if (can_access_at_index(input_buffer, 0) && (buffer_at_offset(input_buffer)[0] == ']'))
1361:../../iot_link/cJSON/cJSON.c ****     {
1362:../../iot_link/cJSON/cJSON.c ****         /* empty array */
ARM GAS  C:\Users\LuckyE\AppData\Local\Temp\ccgn9LZs.s 			page 36


1363:../../iot_link/cJSON/cJSON.c ****         goto success;
1364:../../iot_link/cJSON/cJSON.c ****     }
1365:../../iot_link/cJSON/cJSON.c **** 
1366:../../iot_link/cJSON/cJSON.c ****     /* check if we skipped to the end of the buffer */
1367:../../iot_link/cJSON/cJSON.c ****     if (cannot_access_at_index(input_buffer, 0))
1368:../../iot_link/cJSON/cJSON.c ****     {
1369:../../iot_link/cJSON/cJSON.c ****         input_buffer->offset--;
1370:../../iot_link/cJSON/cJSON.c ****         goto fail;
1371:../../iot_link/cJSON/cJSON.c ****     }
1372:../../iot_link/cJSON/cJSON.c **** 
1373:../../iot_link/cJSON/cJSON.c ****     /* step back to character in front of the first element */
1374:../../iot_link/cJSON/cJSON.c ****     input_buffer->offset--;
1375:../../iot_link/cJSON/cJSON.c ****     /* loop through the comma separated array elements */
1376:../../iot_link/cJSON/cJSON.c ****     do
1377:../../iot_link/cJSON/cJSON.c ****     {
1378:../../iot_link/cJSON/cJSON.c ****         /* allocate next item */
1379:../../iot_link/cJSON/cJSON.c ****         cJSON *new_item = cJSON_New_Item(&(input_buffer->hooks));
1380:../../iot_link/cJSON/cJSON.c ****         if (new_item == NULL)
1381:../../iot_link/cJSON/cJSON.c ****         {
1382:../../iot_link/cJSON/cJSON.c ****             goto fail; /* allocation failure */
1383:../../iot_link/cJSON/cJSON.c ****         }
1384:../../iot_link/cJSON/cJSON.c **** 
1385:../../iot_link/cJSON/cJSON.c ****         /* attach next item to list */
1386:../../iot_link/cJSON/cJSON.c ****         if (head == NULL)
1387:../../iot_link/cJSON/cJSON.c ****         {
1388:../../iot_link/cJSON/cJSON.c ****             /* start the linked list */
1389:../../iot_link/cJSON/cJSON.c ****             current_item = head = new_item;
1390:../../iot_link/cJSON/cJSON.c ****         }
1391:../../iot_link/cJSON/cJSON.c ****         else
1392:../../iot_link/cJSON/cJSON.c ****         {
1393:../../iot_link/cJSON/cJSON.c ****             /* add to the end and advance */
1394:../../iot_link/cJSON/cJSON.c ****             current_item->next = new_item;
1395:../../iot_link/cJSON/cJSON.c ****             new_item->prev = current_item;
1396:../../iot_link/cJSON/cJSON.c ****             current_item = new_item;
1397:../../iot_link/cJSON/cJSON.c ****         }
1398:../../iot_link/cJSON/cJSON.c **** 
1399:../../iot_link/cJSON/cJSON.c ****         /* parse next value */
1400:../../iot_link/cJSON/cJSON.c ****         input_buffer->offset++;
1401:../../iot_link/cJSON/cJSON.c ****         buffer_skip_whitespace(input_buffer);
1402:../../iot_link/cJSON/cJSON.c ****         if (!parse_value(current_item, input_buffer))
1403:../../iot_link/cJSON/cJSON.c ****         {
1404:../../iot_link/cJSON/cJSON.c ****             goto fail; /* failed to parse value */
1405:../../iot_link/cJSON/cJSON.c ****         }
1406:../../iot_link/cJSON/cJSON.c ****         buffer_skip_whitespace(input_buffer);
1407:../../iot_link/cJSON/cJSON.c ****     }
1408:../../iot_link/cJSON/cJSON.c ****     while (can_access_at_index(input_buffer, 0) && (buffer_at_offset(input_buffer)[0] == ','));
1409:../../iot_link/cJSON/cJSON.c **** 
1410:../../iot_link/cJSON/cJSON.c ****     if (cannot_access_at_index(input_buffer, 0) || buffer_at_offset(input_buffer)[0] != ']')
1411:../../iot_link/cJSON/cJSON.c ****     {
1412:../../iot_link/cJSON/cJSON.c ****         goto fail; /* expected end of array */
1413:../../iot_link/cJSON/cJSON.c ****     }
1414:../../iot_link/cJSON/cJSON.c **** 
1415:../../iot_link/cJSON/cJSON.c **** success:
1416:../../iot_link/cJSON/cJSON.c ****     input_buffer->depth--;
1417:../../iot_link/cJSON/cJSON.c **** 
1418:../../iot_link/cJSON/cJSON.c ****     item->type = cJSON_Array;
1419:../../iot_link/cJSON/cJSON.c ****     item->child = head;
ARM GAS  C:\Users\LuckyE\AppData\Local\Temp\ccgn9LZs.s 			page 37


1420:../../iot_link/cJSON/cJSON.c **** 
1421:../../iot_link/cJSON/cJSON.c ****     input_buffer->offset++;
1422:../../iot_link/cJSON/cJSON.c **** 
1423:../../iot_link/cJSON/cJSON.c ****     return true;
1424:../../iot_link/cJSON/cJSON.c **** 
1425:../../iot_link/cJSON/cJSON.c **** fail:
1426:../../iot_link/cJSON/cJSON.c ****     if (head != NULL)
1427:../../iot_link/cJSON/cJSON.c ****     {
1428:../../iot_link/cJSON/cJSON.c ****         cJSON_Delete(head);
1429:../../iot_link/cJSON/cJSON.c ****     }
1430:../../iot_link/cJSON/cJSON.c **** 
1431:../../iot_link/cJSON/cJSON.c ****     return false;
1432:../../iot_link/cJSON/cJSON.c **** }
1433:../../iot_link/cJSON/cJSON.c **** 
1434:../../iot_link/cJSON/cJSON.c **** /* Render an array to text */
1435:../../iot_link/cJSON/cJSON.c **** static cJSON_bool print_array(const cJSON * const item, printbuffer * const output_buffer)
1436:../../iot_link/cJSON/cJSON.c **** {
1437:../../iot_link/cJSON/cJSON.c ****     unsigned char *output_pointer = NULL;
1438:../../iot_link/cJSON/cJSON.c ****     size_t length = 0;
1439:../../iot_link/cJSON/cJSON.c ****     cJSON *current_element = item->child;
1440:../../iot_link/cJSON/cJSON.c **** 
1441:../../iot_link/cJSON/cJSON.c ****     if (output_buffer == NULL)
1442:../../iot_link/cJSON/cJSON.c ****     {
1443:../../iot_link/cJSON/cJSON.c ****         return false;
1444:../../iot_link/cJSON/cJSON.c ****     }
1445:../../iot_link/cJSON/cJSON.c **** 
1446:../../iot_link/cJSON/cJSON.c ****     /* Compose the output array. */
1447:../../iot_link/cJSON/cJSON.c ****     /* opening square bracket */
1448:../../iot_link/cJSON/cJSON.c ****     output_pointer = ensure(output_buffer, 1);
1449:../../iot_link/cJSON/cJSON.c ****     if (output_pointer == NULL)
1450:../../iot_link/cJSON/cJSON.c ****     {
1451:../../iot_link/cJSON/cJSON.c ****         return false;
1452:../../iot_link/cJSON/cJSON.c ****     }
1453:../../iot_link/cJSON/cJSON.c **** 
1454:../../iot_link/cJSON/cJSON.c ****     *output_pointer = '[';
1455:../../iot_link/cJSON/cJSON.c ****     output_buffer->offset++;
1456:../../iot_link/cJSON/cJSON.c ****     output_buffer->depth++;
1457:../../iot_link/cJSON/cJSON.c **** 
1458:../../iot_link/cJSON/cJSON.c ****     while (current_element != NULL)
1459:../../iot_link/cJSON/cJSON.c ****     {
1460:../../iot_link/cJSON/cJSON.c ****         if (!print_value(current_element, output_buffer))
1461:../../iot_link/cJSON/cJSON.c ****         {
1462:../../iot_link/cJSON/cJSON.c ****             return false;
1463:../../iot_link/cJSON/cJSON.c ****         }
1464:../../iot_link/cJSON/cJSON.c ****         update_offset(output_buffer);
1465:../../iot_link/cJSON/cJSON.c ****         if (current_element->next)
1466:../../iot_link/cJSON/cJSON.c ****         {
1467:../../iot_link/cJSON/cJSON.c ****             length = (size_t) (output_buffer->format ? 2 : 1);
1468:../../iot_link/cJSON/cJSON.c ****             output_pointer = ensure(output_buffer, length + 1);
1469:../../iot_link/cJSON/cJSON.c ****             if (output_pointer == NULL)
1470:../../iot_link/cJSON/cJSON.c ****             {
1471:../../iot_link/cJSON/cJSON.c ****                 return false;
1472:../../iot_link/cJSON/cJSON.c ****             }
1473:../../iot_link/cJSON/cJSON.c ****             *output_pointer++ = ',';
1474:../../iot_link/cJSON/cJSON.c ****             if(output_buffer->format)
1475:../../iot_link/cJSON/cJSON.c ****             {
1476:../../iot_link/cJSON/cJSON.c ****                 *output_pointer++ = ' ';
ARM GAS  C:\Users\LuckyE\AppData\Local\Temp\ccgn9LZs.s 			page 38


1477:../../iot_link/cJSON/cJSON.c ****             }
1478:../../iot_link/cJSON/cJSON.c ****             *output_pointer = '\0';
1479:../../iot_link/cJSON/cJSON.c ****             output_buffer->offset += length;
1480:../../iot_link/cJSON/cJSON.c ****         }
1481:../../iot_link/cJSON/cJSON.c ****         current_element = current_element->next;
1482:../../iot_link/cJSON/cJSON.c ****     }
1483:../../iot_link/cJSON/cJSON.c **** 
1484:../../iot_link/cJSON/cJSON.c ****     output_pointer = ensure(output_buffer, 2);
1485:../../iot_link/cJSON/cJSON.c ****     if (output_pointer == NULL)
1486:../../iot_link/cJSON/cJSON.c ****     {
1487:../../iot_link/cJSON/cJSON.c ****         return false;
1488:../../iot_link/cJSON/cJSON.c ****     }
1489:../../iot_link/cJSON/cJSON.c ****     *output_pointer++ = ']';
1490:../../iot_link/cJSON/cJSON.c ****     *output_pointer = '\0';
1491:../../iot_link/cJSON/cJSON.c ****     output_buffer->depth--;
1492:../../iot_link/cJSON/cJSON.c **** 
1493:../../iot_link/cJSON/cJSON.c ****     return true;
1494:../../iot_link/cJSON/cJSON.c **** }
1495:../../iot_link/cJSON/cJSON.c **** 
1496:../../iot_link/cJSON/cJSON.c **** /* Build an object from the text. */
1497:../../iot_link/cJSON/cJSON.c **** static cJSON_bool parse_object(cJSON * const item, parse_buffer * const input_buffer)
1498:../../iot_link/cJSON/cJSON.c **** {
1499:../../iot_link/cJSON/cJSON.c ****     cJSON *head = NULL; /* linked list head */
1500:../../iot_link/cJSON/cJSON.c ****     cJSON *current_item = NULL;
1501:../../iot_link/cJSON/cJSON.c **** 
1502:../../iot_link/cJSON/cJSON.c ****     if (input_buffer->depth >= CJSON_NESTING_LIMIT)
1503:../../iot_link/cJSON/cJSON.c ****     {
1504:../../iot_link/cJSON/cJSON.c ****         return false; /* to deeply nested */
1505:../../iot_link/cJSON/cJSON.c ****     }
1506:../../iot_link/cJSON/cJSON.c ****     input_buffer->depth++;
1507:../../iot_link/cJSON/cJSON.c **** 
1508:../../iot_link/cJSON/cJSON.c ****     if (cannot_access_at_index(input_buffer, 0) || (buffer_at_offset(input_buffer)[0] != '{'))
1509:../../iot_link/cJSON/cJSON.c ****     {
1510:../../iot_link/cJSON/cJSON.c ****         goto fail; /* not an object */
1511:../../iot_link/cJSON/cJSON.c ****     }
1512:../../iot_link/cJSON/cJSON.c **** 
1513:../../iot_link/cJSON/cJSON.c ****     input_buffer->offset++;
1514:../../iot_link/cJSON/cJSON.c ****     buffer_skip_whitespace(input_buffer);
1515:../../iot_link/cJSON/cJSON.c ****     if (can_access_at_index(input_buffer, 0) && (buffer_at_offset(input_buffer)[0] == '}'))
1516:../../iot_link/cJSON/cJSON.c ****     {
1517:../../iot_link/cJSON/cJSON.c ****         goto success; /* empty object */
1518:../../iot_link/cJSON/cJSON.c ****     }
1519:../../iot_link/cJSON/cJSON.c **** 
1520:../../iot_link/cJSON/cJSON.c ****     /* check if we skipped to the end of the buffer */
1521:../../iot_link/cJSON/cJSON.c ****     if (cannot_access_at_index(input_buffer, 0))
1522:../../iot_link/cJSON/cJSON.c ****     {
1523:../../iot_link/cJSON/cJSON.c ****         input_buffer->offset--;
1524:../../iot_link/cJSON/cJSON.c ****         goto fail;
1525:../../iot_link/cJSON/cJSON.c ****     }
1526:../../iot_link/cJSON/cJSON.c **** 
1527:../../iot_link/cJSON/cJSON.c ****     /* step back to character in front of the first element */
1528:../../iot_link/cJSON/cJSON.c ****     input_buffer->offset--;
1529:../../iot_link/cJSON/cJSON.c ****     /* loop through the comma separated array elements */
1530:../../iot_link/cJSON/cJSON.c ****     do
1531:../../iot_link/cJSON/cJSON.c ****     {
1532:../../iot_link/cJSON/cJSON.c ****         /* allocate next item */
1533:../../iot_link/cJSON/cJSON.c ****         cJSON *new_item = cJSON_New_Item(&(input_buffer->hooks));
ARM GAS  C:\Users\LuckyE\AppData\Local\Temp\ccgn9LZs.s 			page 39


1534:../../iot_link/cJSON/cJSON.c ****         if (new_item == NULL)
1535:../../iot_link/cJSON/cJSON.c ****         {
1536:../../iot_link/cJSON/cJSON.c ****             goto fail; /* allocation failure */
1537:../../iot_link/cJSON/cJSON.c ****         }
1538:../../iot_link/cJSON/cJSON.c **** 
1539:../../iot_link/cJSON/cJSON.c ****         /* attach next item to list */
1540:../../iot_link/cJSON/cJSON.c ****         if (head == NULL)
1541:../../iot_link/cJSON/cJSON.c ****         {
1542:../../iot_link/cJSON/cJSON.c ****             /* start the linked list */
1543:../../iot_link/cJSON/cJSON.c ****             current_item = head = new_item;
1544:../../iot_link/cJSON/cJSON.c ****         }
1545:../../iot_link/cJSON/cJSON.c ****         else
1546:../../iot_link/cJSON/cJSON.c ****         {
1547:../../iot_link/cJSON/cJSON.c ****             /* add to the end and advance */
1548:../../iot_link/cJSON/cJSON.c ****             current_item->next = new_item;
1549:../../iot_link/cJSON/cJSON.c ****             new_item->prev = current_item;
1550:../../iot_link/cJSON/cJSON.c ****             current_item = new_item;
1551:../../iot_link/cJSON/cJSON.c ****         }
1552:../../iot_link/cJSON/cJSON.c **** 
1553:../../iot_link/cJSON/cJSON.c ****         /* parse the name of the child */
1554:../../iot_link/cJSON/cJSON.c ****         input_buffer->offset++;
1555:../../iot_link/cJSON/cJSON.c ****         buffer_skip_whitespace(input_buffer);
1556:../../iot_link/cJSON/cJSON.c ****         if (!parse_string(current_item, input_buffer))
1557:../../iot_link/cJSON/cJSON.c ****         {
1558:../../iot_link/cJSON/cJSON.c ****             goto fail; /* faile to parse name */
1559:../../iot_link/cJSON/cJSON.c ****         }
1560:../../iot_link/cJSON/cJSON.c ****         buffer_skip_whitespace(input_buffer);
1561:../../iot_link/cJSON/cJSON.c **** 
1562:../../iot_link/cJSON/cJSON.c ****         /* swap valuestring and string, because we parsed the name */
1563:../../iot_link/cJSON/cJSON.c ****         current_item->string = current_item->valuestring;
1564:../../iot_link/cJSON/cJSON.c ****         current_item->valuestring = NULL;
1565:../../iot_link/cJSON/cJSON.c **** 
1566:../../iot_link/cJSON/cJSON.c ****         if (cannot_access_at_index(input_buffer, 0) || (buffer_at_offset(input_buffer)[0] != ':'))
1567:../../iot_link/cJSON/cJSON.c ****         {
1568:../../iot_link/cJSON/cJSON.c ****             goto fail; /* invalid object */
1569:../../iot_link/cJSON/cJSON.c ****         }
1570:../../iot_link/cJSON/cJSON.c **** 
1571:../../iot_link/cJSON/cJSON.c ****         /* parse the value */
1572:../../iot_link/cJSON/cJSON.c ****         input_buffer->offset++;
1573:../../iot_link/cJSON/cJSON.c ****         buffer_skip_whitespace(input_buffer);
1574:../../iot_link/cJSON/cJSON.c ****         if (!parse_value(current_item, input_buffer))
1575:../../iot_link/cJSON/cJSON.c ****         {
1576:../../iot_link/cJSON/cJSON.c ****             goto fail; /* failed to parse value */
1577:../../iot_link/cJSON/cJSON.c ****         }
1578:../../iot_link/cJSON/cJSON.c ****         buffer_skip_whitespace(input_buffer);
1579:../../iot_link/cJSON/cJSON.c ****     }
1580:../../iot_link/cJSON/cJSON.c ****     while (can_access_at_index(input_buffer, 0) && (buffer_at_offset(input_buffer)[0] == ','));
1581:../../iot_link/cJSON/cJSON.c **** 
1582:../../iot_link/cJSON/cJSON.c ****     if (cannot_access_at_index(input_buffer, 0) || (buffer_at_offset(input_buffer)[0] != '}'))
1583:../../iot_link/cJSON/cJSON.c ****     {
1584:../../iot_link/cJSON/cJSON.c ****         goto fail; /* expected end of object */
1585:../../iot_link/cJSON/cJSON.c ****     }
1586:../../iot_link/cJSON/cJSON.c **** 
1587:../../iot_link/cJSON/cJSON.c **** success:
1588:../../iot_link/cJSON/cJSON.c ****     input_buffer->depth--;
1589:../../iot_link/cJSON/cJSON.c **** 
1590:../../iot_link/cJSON/cJSON.c ****     item->type = cJSON_Object;
ARM GAS  C:\Users\LuckyE\AppData\Local\Temp\ccgn9LZs.s 			page 40


1591:../../iot_link/cJSON/cJSON.c ****     item->child = head;
1592:../../iot_link/cJSON/cJSON.c **** 
1593:../../iot_link/cJSON/cJSON.c ****     input_buffer->offset++;
1594:../../iot_link/cJSON/cJSON.c ****     return true;
1595:../../iot_link/cJSON/cJSON.c **** 
1596:../../iot_link/cJSON/cJSON.c **** fail:
1597:../../iot_link/cJSON/cJSON.c ****     if (head != NULL)
1598:../../iot_link/cJSON/cJSON.c ****     {
1599:../../iot_link/cJSON/cJSON.c ****         cJSON_Delete(head);
1600:../../iot_link/cJSON/cJSON.c ****     }
1601:../../iot_link/cJSON/cJSON.c **** 
1602:../../iot_link/cJSON/cJSON.c ****     return false;
1603:../../iot_link/cJSON/cJSON.c **** }
1604:../../iot_link/cJSON/cJSON.c **** 
1605:../../iot_link/cJSON/cJSON.c **** /* Render an object to text. */
1606:../../iot_link/cJSON/cJSON.c **** static cJSON_bool print_object(const cJSON * const item, printbuffer * const output_buffer)
1607:../../iot_link/cJSON/cJSON.c **** {
1608:../../iot_link/cJSON/cJSON.c ****     unsigned char *output_pointer = NULL;
1609:../../iot_link/cJSON/cJSON.c ****     size_t length = 0;
1610:../../iot_link/cJSON/cJSON.c ****     cJSON *current_item = item->child;
1611:../../iot_link/cJSON/cJSON.c **** 
1612:../../iot_link/cJSON/cJSON.c ****     if (output_buffer == NULL)
1613:../../iot_link/cJSON/cJSON.c ****     {
1614:../../iot_link/cJSON/cJSON.c ****         return false;
1615:../../iot_link/cJSON/cJSON.c ****     }
1616:../../iot_link/cJSON/cJSON.c **** 
1617:../../iot_link/cJSON/cJSON.c ****     /* Compose the output: */
1618:../../iot_link/cJSON/cJSON.c ****     length = (size_t) (output_buffer->format ? 2 : 1); /* fmt: {\n */
1619:../../iot_link/cJSON/cJSON.c ****     output_pointer = ensure(output_buffer, length + 1);
1620:../../iot_link/cJSON/cJSON.c ****     if (output_pointer == NULL)
1621:../../iot_link/cJSON/cJSON.c ****     {
1622:../../iot_link/cJSON/cJSON.c ****         return false;
1623:../../iot_link/cJSON/cJSON.c ****     }
1624:../../iot_link/cJSON/cJSON.c **** 
1625:../../iot_link/cJSON/cJSON.c ****     *output_pointer++ = '{';
1626:../../iot_link/cJSON/cJSON.c ****     output_buffer->depth++;
1627:../../iot_link/cJSON/cJSON.c ****     if (output_buffer->format)
1628:../../iot_link/cJSON/cJSON.c ****     {
1629:../../iot_link/cJSON/cJSON.c ****         *output_pointer++ = '\n';
1630:../../iot_link/cJSON/cJSON.c ****     }
1631:../../iot_link/cJSON/cJSON.c ****     output_buffer->offset += length;
1632:../../iot_link/cJSON/cJSON.c **** 
1633:../../iot_link/cJSON/cJSON.c ****     while (current_item)
1634:../../iot_link/cJSON/cJSON.c ****     {
1635:../../iot_link/cJSON/cJSON.c ****         if (output_buffer->format)
1636:../../iot_link/cJSON/cJSON.c ****         {
1637:../../iot_link/cJSON/cJSON.c ****             size_t i;
1638:../../iot_link/cJSON/cJSON.c ****             output_pointer = ensure(output_buffer, output_buffer->depth);
1639:../../iot_link/cJSON/cJSON.c ****             if (output_pointer == NULL)
1640:../../iot_link/cJSON/cJSON.c ****             {
1641:../../iot_link/cJSON/cJSON.c ****                 return false;
1642:../../iot_link/cJSON/cJSON.c ****             }
1643:../../iot_link/cJSON/cJSON.c ****             for (i = 0; i < output_buffer->depth; i++)
1644:../../iot_link/cJSON/cJSON.c ****             {
1645:../../iot_link/cJSON/cJSON.c ****                 *output_pointer++ = '\t';
1646:../../iot_link/cJSON/cJSON.c ****             }
1647:../../iot_link/cJSON/cJSON.c ****             output_buffer->offset += output_buffer->depth;
ARM GAS  C:\Users\LuckyE\AppData\Local\Temp\ccgn9LZs.s 			page 41


1648:../../iot_link/cJSON/cJSON.c ****         }
1649:../../iot_link/cJSON/cJSON.c **** 
1650:../../iot_link/cJSON/cJSON.c ****         /* print key */
1651:../../iot_link/cJSON/cJSON.c ****         if (!print_string_ptr((unsigned char*)current_item->string, output_buffer))
1652:../../iot_link/cJSON/cJSON.c ****         {
1653:../../iot_link/cJSON/cJSON.c ****             return false;
1654:../../iot_link/cJSON/cJSON.c ****         }
1655:../../iot_link/cJSON/cJSON.c ****         update_offset(output_buffer);
1656:../../iot_link/cJSON/cJSON.c **** 
1657:../../iot_link/cJSON/cJSON.c ****         length = (size_t) (output_buffer->format ? 2 : 1);
1658:../../iot_link/cJSON/cJSON.c ****         output_pointer = ensure(output_buffer, length);
1659:../../iot_link/cJSON/cJSON.c ****         if (output_pointer == NULL)
1660:../../iot_link/cJSON/cJSON.c ****         {
1661:../../iot_link/cJSON/cJSON.c ****             return false;
1662:../../iot_link/cJSON/cJSON.c ****         }
1663:../../iot_link/cJSON/cJSON.c ****         *output_pointer++ = ':';
1664:../../iot_link/cJSON/cJSON.c ****         if (output_buffer->format)
1665:../../iot_link/cJSON/cJSON.c ****         {
1666:../../iot_link/cJSON/cJSON.c ****             *output_pointer++ = '\t';
1667:../../iot_link/cJSON/cJSON.c ****         }
1668:../../iot_link/cJSON/cJSON.c ****         output_buffer->offset += length;
1669:../../iot_link/cJSON/cJSON.c **** 
1670:../../iot_link/cJSON/cJSON.c ****         /* print value */
1671:../../iot_link/cJSON/cJSON.c ****         if (!print_value(current_item, output_buffer))
1672:../../iot_link/cJSON/cJSON.c ****         {
1673:../../iot_link/cJSON/cJSON.c ****             return false;
1674:../../iot_link/cJSON/cJSON.c ****         }
1675:../../iot_link/cJSON/cJSON.c ****         update_offset(output_buffer);
1676:../../iot_link/cJSON/cJSON.c **** 
1677:../../iot_link/cJSON/cJSON.c ****         /* print comma if not last */
1678:../../iot_link/cJSON/cJSON.c ****         length = (size_t) ((output_buffer->format ? 1 : 0) + (current_item->next ? 1 : 0));
1679:../../iot_link/cJSON/cJSON.c ****         output_pointer = ensure(output_buffer, length + 1);
1680:../../iot_link/cJSON/cJSON.c ****         if (output_pointer == NULL)
1681:../../iot_link/cJSON/cJSON.c ****         {
1682:../../iot_link/cJSON/cJSON.c ****             return false;
1683:../../iot_link/cJSON/cJSON.c ****         }
1684:../../iot_link/cJSON/cJSON.c ****         if (current_item->next)
1685:../../iot_link/cJSON/cJSON.c ****         {
1686:../../iot_link/cJSON/cJSON.c ****             *output_pointer++ = ',';
1687:../../iot_link/cJSON/cJSON.c ****         }
1688:../../iot_link/cJSON/cJSON.c **** 
1689:../../iot_link/cJSON/cJSON.c ****         if (output_buffer->format)
1690:../../iot_link/cJSON/cJSON.c ****         {
1691:../../iot_link/cJSON/cJSON.c ****             *output_pointer++ = '\n';
1692:../../iot_link/cJSON/cJSON.c ****         }
1693:../../iot_link/cJSON/cJSON.c ****         *output_pointer = '\0';
1694:../../iot_link/cJSON/cJSON.c ****         output_buffer->offset += length;
1695:../../iot_link/cJSON/cJSON.c **** 
1696:../../iot_link/cJSON/cJSON.c ****         current_item = current_item->next;
1697:../../iot_link/cJSON/cJSON.c ****     }
1698:../../iot_link/cJSON/cJSON.c **** 
1699:../../iot_link/cJSON/cJSON.c ****     output_pointer = ensure(output_buffer, output_buffer->format ? (output_buffer->depth + 1) : 2);
1700:../../iot_link/cJSON/cJSON.c ****     if (output_pointer == NULL)
1701:../../iot_link/cJSON/cJSON.c ****     {
1702:../../iot_link/cJSON/cJSON.c ****         return false;
1703:../../iot_link/cJSON/cJSON.c ****     }
1704:../../iot_link/cJSON/cJSON.c ****     if (output_buffer->format)
ARM GAS  C:\Users\LuckyE\AppData\Local\Temp\ccgn9LZs.s 			page 42


1705:../../iot_link/cJSON/cJSON.c ****     {
1706:../../iot_link/cJSON/cJSON.c ****         size_t i;
1707:../../iot_link/cJSON/cJSON.c ****         for (i = 0; i < (output_buffer->depth - 1); i++)
1708:../../iot_link/cJSON/cJSON.c ****         {
1709:../../iot_link/cJSON/cJSON.c ****             *output_pointer++ = '\t';
1710:../../iot_link/cJSON/cJSON.c ****         }
1711:../../iot_link/cJSON/cJSON.c ****     }
1712:../../iot_link/cJSON/cJSON.c ****     *output_pointer++ = '}';
1713:../../iot_link/cJSON/cJSON.c ****     *output_pointer = '\0';
1714:../../iot_link/cJSON/cJSON.c ****     output_buffer->depth--;
1715:../../iot_link/cJSON/cJSON.c **** 
1716:../../iot_link/cJSON/cJSON.c ****     return true;
1717:../../iot_link/cJSON/cJSON.c **** }
1718:../../iot_link/cJSON/cJSON.c **** 
1719:../../iot_link/cJSON/cJSON.c **** /* Get Array size/item / object item. */
1720:../../iot_link/cJSON/cJSON.c **** CJSON_PUBLIC(int) cJSON_GetArraySize(const cJSON *array)
1721:../../iot_link/cJSON/cJSON.c **** {
1722:../../iot_link/cJSON/cJSON.c ****     cJSON *child = NULL;
1723:../../iot_link/cJSON/cJSON.c ****     size_t size = 0;
1724:../../iot_link/cJSON/cJSON.c **** 
1725:../../iot_link/cJSON/cJSON.c ****     if (array == NULL)
1726:../../iot_link/cJSON/cJSON.c ****     {
1727:../../iot_link/cJSON/cJSON.c ****         return 0;
1728:../../iot_link/cJSON/cJSON.c ****     }
1729:../../iot_link/cJSON/cJSON.c **** 
1730:../../iot_link/cJSON/cJSON.c ****     child = array->child;
1731:../../iot_link/cJSON/cJSON.c **** 
1732:../../iot_link/cJSON/cJSON.c ****     while(child != NULL)
1733:../../iot_link/cJSON/cJSON.c ****     {
1734:../../iot_link/cJSON/cJSON.c ****         size++;
1735:../../iot_link/cJSON/cJSON.c ****         child = child->next;
1736:../../iot_link/cJSON/cJSON.c ****     }
1737:../../iot_link/cJSON/cJSON.c **** 
1738:../../iot_link/cJSON/cJSON.c ****     /* FIXME: Can overflow here. Cannot be fixed without breaking the API */
1739:../../iot_link/cJSON/cJSON.c **** 
1740:../../iot_link/cJSON/cJSON.c ****     return (int)size;
1741:../../iot_link/cJSON/cJSON.c **** }
1742:../../iot_link/cJSON/cJSON.c **** 
1743:../../iot_link/cJSON/cJSON.c **** static cJSON* get_array_item(const cJSON *array, size_t index)
1744:../../iot_link/cJSON/cJSON.c **** {
 565              		.loc 1 1744 0
 566              		.cfi_startproc
 567              		@ args = 0, pretend = 0, frame = 0
 568              		@ frame_needed = 0, uses_anonymous_args = 0
 569              		@ link register save eliminated.
 570              	.LVL73:
1745:../../iot_link/cJSON/cJSON.c ****     cJSON *current_child = NULL;
1746:../../iot_link/cJSON/cJSON.c **** 
1747:../../iot_link/cJSON/cJSON.c ****     if (array == NULL)
 571              		.loc 1 1747 0
 572 0000 10B1     		cbz	r0, .L73
1748:../../iot_link/cJSON/cJSON.c ****     {
1749:../../iot_link/cJSON/cJSON.c ****         return NULL;
1750:../../iot_link/cJSON/cJSON.c ****     }
1751:../../iot_link/cJSON/cJSON.c **** 
1752:../../iot_link/cJSON/cJSON.c ****     current_child = array->child;
 573              		.loc 1 1752 0
ARM GAS  C:\Users\LuckyE\AppData\Local\Temp\ccgn9LZs.s 			page 43


 574 0002 8068     		ldr	r0, [r0, #8]
 575              	.LVL74:
 576              	.L75:
1753:../../iot_link/cJSON/cJSON.c ****     while ((current_child != NULL) && (index > 0))
 577              		.loc 1 1753 0
 578 0004 00B1     		cbz	r0, .L73
 579              		.loc 1 1753 0 is_stmt 0 discriminator 1
 580 0006 01B9     		cbnz	r1, .L76
 581              	.LVL75:
 582              	.L73:
1754:../../iot_link/cJSON/cJSON.c ****     {
1755:../../iot_link/cJSON/cJSON.c ****         index--;
1756:../../iot_link/cJSON/cJSON.c ****         current_child = current_child->next;
1757:../../iot_link/cJSON/cJSON.c ****     }
1758:../../iot_link/cJSON/cJSON.c **** 
1759:../../iot_link/cJSON/cJSON.c ****     return current_child;
1760:../../iot_link/cJSON/cJSON.c **** }
 583              		.loc 1 1760 0 is_stmt 1
 584 0008 7047     		bx	lr
 585              	.LVL76:
 586              	.L76:
1755:../../iot_link/cJSON/cJSON.c ****         current_child = current_child->next;
 587              		.loc 1 1755 0
 588 000a 0139     		subs	r1, r1, #1
 589              	.LVL77:
1756:../../iot_link/cJSON/cJSON.c ****     }
 590              		.loc 1 1756 0
 591 000c 0068     		ldr	r0, [r0]
 592              	.LVL78:
 593 000e F9E7     		b	.L75
 594              		.cfi_endproc
 595              	.LFE38:
 597              		.section	.text.update_offset,"ax",%progbits
 598              		.align	1
 599              		.syntax unified
 600              		.thumb
 601              		.thumb_func
 602              		.fpu fpv4-sp-d16
 604              	update_offset:
 605              	.LFB15:
 462:../../iot_link/cJSON/cJSON.c ****     const unsigned char *buffer_pointer = NULL;
 606              		.loc 1 462 0
 607              		.cfi_startproc
 608              		@ args = 0, pretend = 0, frame = 0
 609              		@ frame_needed = 0, uses_anonymous_args = 0
 610              	.LVL79:
 611 0000 38B5     		push	{r3, r4, r5, lr}
 612              	.LCFI3:
 613              		.cfi_def_cfa_offset 16
 614              		.cfi_offset 3, -16
 615              		.cfi_offset 4, -12
 616              		.cfi_offset 5, -8
 617              		.cfi_offset 14, -4
 464:../../iot_link/cJSON/cJSON.c ****     {
 618              		.loc 1 464 0
 619 0002 0446     		mov	r4, r0
 620 0004 38B1     		cbz	r0, .L81
ARM GAS  C:\Users\LuckyE\AppData\Local\Temp\ccgn9LZs.s 			page 44


 464:../../iot_link/cJSON/cJSON.c ****     {
 621              		.loc 1 464 0 is_stmt 0 discriminator 1
 622 0006 0068     		ldr	r0, [r0]
 623              	.LVL80:
 624 0008 28B1     		cbz	r0, .L81
 468:../../iot_link/cJSON/cJSON.c **** 
 625              		.loc 1 468 0 is_stmt 1
 626 000a A568     		ldr	r5, [r4, #8]
 627              	.LVL81:
 470:../../iot_link/cJSON/cJSON.c **** }
 628              		.loc 1 470 0
 629 000c 2844     		add	r0, r0, r5
 630              	.LVL82:
 631 000e FFF7FEFF 		bl	strlen
 632              	.LVL83:
 633 0012 2844     		add	r0, r0, r5
 634 0014 A060     		str	r0, [r4, #8]
 635              	.L81:
 471:../../iot_link/cJSON/cJSON.c **** 
 636              		.loc 1 471 0
 637 0016 38BD     		pop	{r3, r4, r5, pc}
 638              		.cfi_endproc
 639              	.LFE15:
 641              		.section	.text.ensure,"ax",%progbits
 642              		.align	1
 643              		.syntax unified
 644              		.thumb
 645              		.thumb_func
 646              		.fpu fpv4-sp-d16
 648              	ensure:
 649              	.LFB14:
 374:../../iot_link/cJSON/cJSON.c ****     unsigned char *newbuffer = NULL;
 650              		.loc 1 374 0
 651              		.cfi_startproc
 652              		@ args = 0, pretend = 0, frame = 0
 653              		@ frame_needed = 0, uses_anonymous_args = 0
 654              	.LVL84:
 655 0000 70B5     		push	{r4, r5, r6, lr}
 656              	.LCFI4:
 657              		.cfi_def_cfa_offset 16
 658              		.cfi_offset 4, -16
 659              		.cfi_offset 5, -12
 660              		.cfi_offset 6, -8
 661              		.cfi_offset 14, -4
 378:../../iot_link/cJSON/cJSON.c ****     {
 662              		.loc 1 378 0
 663 0002 0446     		mov	r4, r0
 664 0004 B8B1     		cbz	r0, .L101
 378:../../iot_link/cJSON/cJSON.c ****     {
 665              		.loc 1 378 0 is_stmt 0 discriminator 1
 666 0006 0568     		ldr	r5, [r0]
 667 0008 65B1     		cbz	r5, .L89
 383:../../iot_link/cJSON/cJSON.c ****     {
 668              		.loc 1 383 0 is_stmt 1
 669 000a 4368     		ldr	r3, [r0, #4]
 670 000c 13B1     		cbz	r3, .L91
 383:../../iot_link/cJSON/cJSON.c ****     {
ARM GAS  C:\Users\LuckyE\AppData\Local\Temp\ccgn9LZs.s 			page 45


 671              		.loc 1 383 0 is_stmt 0 discriminator 1
 672 000e 8268     		ldr	r2, [r0, #8]
 673 0010 9342     		cmp	r3, r2
 674 0012 10D9     		bls	.L101
 675              	.L91:
 389:../../iot_link/cJSON/cJSON.c ****     {
 676              		.loc 1 389 0 is_stmt 1
 677 0014 0029     		cmp	r1, #0
 678 0016 0EDB     		blt	.L101
 395:../../iot_link/cJSON/cJSON.c ****     if (needed <= p->length)
 679              		.loc 1 395 0
 680 0018 A268     		ldr	r2, [r4, #8]
 681 001a 4E1C     		adds	r6, r1, #1
 682 001c 1644     		add	r6, r6, r2
 683              	.LVL85:
 396:../../iot_link/cJSON/cJSON.c ****     {
 684              		.loc 1 396 0
 685 001e B342     		cmp	r3, r6
 686 0020 02D3     		bcc	.L92
 398:../../iot_link/cJSON/cJSON.c ****     }
 687              		.loc 1 398 0
 688 0022 1544     		add	r5, r5, r2
 689              	.LVL86:
 690              	.L89:
 458:../../iot_link/cJSON/cJSON.c **** 
 691              		.loc 1 458 0
 692 0024 2846     		mov	r0, r5
 693 0026 70BD     		pop	{r4, r5, r6, pc}
 694              	.LVL87:
 695              	.L92:
 401:../../iot_link/cJSON/cJSON.c ****         return NULL;
 696              		.loc 1 401 0
 697 0028 2369     		ldr	r3, [r4, #16]
 698 002a 23B9     		cbnz	r3, .L101
 406:../../iot_link/cJSON/cJSON.c ****     {
 699              		.loc 1 406 0
 700 002c B6F1804F 		cmp	r6, #1073741824
 701 0030 03D3     		bcc	.L93
 409:../../iot_link/cJSON/cJSON.c ****         {
 702              		.loc 1 409 0
 703 0032 002E     		cmp	r6, #0
 704 0034 0FDA     		bge	.L102
 705              	.LVL88:
 706              	.L101:
 380:../../iot_link/cJSON/cJSON.c ****     }
 707              		.loc 1 380 0
 708 0036 0025     		movs	r5, #0
 709 0038 F4E7     		b	.L89
 710              	.LVL89:
 711              	.L93:
 420:../../iot_link/cJSON/cJSON.c ****     }
 712              		.loc 1 420 0
 713 003a 7600     		lsls	r6, r6, #1
 714              	.LVL90:
 715              	.L94:
 423:../../iot_link/cJSON/cJSON.c ****     {
 716              		.loc 1 423 0
ARM GAS  C:\Users\LuckyE\AppData\Local\Temp\ccgn9LZs.s 			page 46


 717 003c 236A     		ldr	r3, [r4, #32]
 718 003e 6BB1     		cbz	r3, .L95
 426:../../iot_link/cJSON/cJSON.c ****         if (newbuffer == NULL)
 719              		.loc 1 426 0
 720 0040 2846     		mov	r0, r5
 721              	.LVL91:
 722 0042 3146     		mov	r1, r6
 723              	.LVL92:
 724 0044 9847     		blx	r3
 725              	.LVL93:
 427:../../iot_link/cJSON/cJSON.c ****         {
 726              		.loc 1 427 0
 727 0046 0546     		mov	r5, r0
 728 0048 B0B9     		cbnz	r0, .L96
 729              	.L109:
 442:../../iot_link/cJSON/cJSON.c ****             p->length = 0;
 730              		.loc 1 442 0
 731 004a E369     		ldr	r3, [r4, #28]
 732 004c 2068     		ldr	r0, [r4]
 733              	.LVL94:
 734 004e 9847     		blx	r3
 735              	.LVL95:
 444:../../iot_link/cJSON/cJSON.c **** 
 736              		.loc 1 444 0
 737 0050 C4E90055 		strd	r5, r5, [r4]
 446:../../iot_link/cJSON/cJSON.c ****         }
 738              		.loc 1 446 0
 739 0054 E6E7     		b	.L89
 740              	.LVL96:
 741              	.L102:
 411:../../iot_link/cJSON/cJSON.c ****         }
 742              		.loc 1 411 0
 743 0056 6FF00046 		mvn	r6, #-2147483648
 744              	.LVL97:
 745 005a EFE7     		b	.L94
 746              	.LVL98:
 747              	.L95:
 439:../../iot_link/cJSON/cJSON.c ****         if (!newbuffer)
 748              		.loc 1 439 0
 749 005c A369     		ldr	r3, [r4, #24]
 750 005e 3046     		mov	r0, r6
 751              	.LVL99:
 752 0060 9847     		blx	r3
 753              	.LVL100:
 440:../../iot_link/cJSON/cJSON.c ****         {
 754              		.loc 1 440 0
 755 0062 0546     		mov	r5, r0
 756 0064 0028     		cmp	r0, #0
 757 0066 F0D0     		beq	.L109
 450:../../iot_link/cJSON/cJSON.c ****         }
 758              		.loc 1 450 0
 759 0068 A268     		ldr	r2, [r4, #8]
 760 006a 2168     		ldr	r1, [r4]
 761 006c 0132     		adds	r2, r2, #1
 762 006e FFF7FEFF 		bl	memcpy
 763              	.LVL101:
 452:../../iot_link/cJSON/cJSON.c ****     }
ARM GAS  C:\Users\LuckyE\AppData\Local\Temp\ccgn9LZs.s 			page 47


 764              		.loc 1 452 0
 765 0072 E369     		ldr	r3, [r4, #28]
 766 0074 2068     		ldr	r0, [r4]
 767 0076 9847     		blx	r3
 768              	.LVL102:
 769              	.L96:
 457:../../iot_link/cJSON/cJSON.c **** }
 770              		.loc 1 457 0
 771 0078 A368     		ldr	r3, [r4, #8]
 455:../../iot_link/cJSON/cJSON.c **** 
 772              		.loc 1 455 0
 773 007a C4E90056 		strd	r5, r6, [r4]
 457:../../iot_link/cJSON/cJSON.c **** }
 774              		.loc 1 457 0
 775 007e 1D44     		add	r5, r5, r3
 776              	.LVL103:
 777 0080 D0E7     		b	.L89
 778              		.cfi_endproc
 779              	.LFE14:
 781              		.section	.text.get_object_item,"ax",%progbits
 782              		.align	1
 783              		.syntax unified
 784              		.thumb
 785              		.thumb_func
 786              		.fpu fpv4-sp-d16
 788              	get_object_item:
 789              	.LFB40:
1761:../../iot_link/cJSON/cJSON.c **** 
1762:../../iot_link/cJSON/cJSON.c **** CJSON_PUBLIC(cJSON *) cJSON_GetArrayItem(const cJSON *array, int index)
1763:../../iot_link/cJSON/cJSON.c **** {
1764:../../iot_link/cJSON/cJSON.c ****     if (index < 0)
1765:../../iot_link/cJSON/cJSON.c ****     {
1766:../../iot_link/cJSON/cJSON.c ****         return NULL;
1767:../../iot_link/cJSON/cJSON.c ****     }
1768:../../iot_link/cJSON/cJSON.c **** 
1769:../../iot_link/cJSON/cJSON.c ****     return get_array_item(array, (size_t)index);
1770:../../iot_link/cJSON/cJSON.c **** }
1771:../../iot_link/cJSON/cJSON.c **** 
1772:../../iot_link/cJSON/cJSON.c **** static cJSON *get_object_item(const cJSON * const object, const char * const name, const cJSON_bool
1773:../../iot_link/cJSON/cJSON.c **** {
 790              		.loc 1 1773 0
 791              		.cfi_startproc
 792              		@ args = 0, pretend = 0, frame = 0
 793              		@ frame_needed = 0, uses_anonymous_args = 0
 794              	.LVL104:
 795 0000 2DE9F047 		push	{r4, r5, r6, r7, r8, r9, r10, lr}
 796              	.LCFI5:
 797              		.cfi_def_cfa_offset 32
 798              		.cfi_offset 4, -32
 799              		.cfi_offset 5, -28
 800              		.cfi_offset 6, -24
 801              		.cfi_offset 7, -20
 802              		.cfi_offset 8, -16
 803              		.cfi_offset 9, -12
 804              		.cfi_offset 10, -8
 805              		.cfi_offset 14, -4
 806              		.loc 1 1773 0
ARM GAS  C:\Users\LuckyE\AppData\Local\Temp\ccgn9LZs.s 			page 48


 807 0004 0F46     		mov	r7, r1
1774:../../iot_link/cJSON/cJSON.c ****     cJSON *current_element = NULL;
1775:../../iot_link/cJSON/cJSON.c **** 
1776:../../iot_link/cJSON/cJSON.c ****     if ((object == NULL) || (name == NULL))
 808              		.loc 1 1776 0
 809 0006 18B9     		cbnz	r0, .L111
 810              	.LVL105:
 811              	.L113:
1777:../../iot_link/cJSON/cJSON.c ****     {
1778:../../iot_link/cJSON/cJSON.c ****         return NULL;
 812              		.loc 1 1778 0
 813 0008 0024     		movs	r4, #0
 814              	.L110:
1779:../../iot_link/cJSON/cJSON.c ****     }
1780:../../iot_link/cJSON/cJSON.c **** 
1781:../../iot_link/cJSON/cJSON.c ****     current_element = object->child;
1782:../../iot_link/cJSON/cJSON.c ****     if (case_sensitive)
1783:../../iot_link/cJSON/cJSON.c ****     {
1784:../../iot_link/cJSON/cJSON.c ****         while ((current_element != NULL) && (strcmp(name, current_element->string) != 0))
1785:../../iot_link/cJSON/cJSON.c ****         {
1786:../../iot_link/cJSON/cJSON.c ****             current_element = current_element->next;
1787:../../iot_link/cJSON/cJSON.c ****         }
1788:../../iot_link/cJSON/cJSON.c ****     }
1789:../../iot_link/cJSON/cJSON.c ****     else
1790:../../iot_link/cJSON/cJSON.c ****     {
1791:../../iot_link/cJSON/cJSON.c ****         while ((current_element != NULL) && (case_insensitive_strcmp((const unsigned char*)name, (c
1792:../../iot_link/cJSON/cJSON.c ****         {
1793:../../iot_link/cJSON/cJSON.c ****             current_element = current_element->next;
1794:../../iot_link/cJSON/cJSON.c ****         }
1795:../../iot_link/cJSON/cJSON.c ****     }
1796:../../iot_link/cJSON/cJSON.c **** 
1797:../../iot_link/cJSON/cJSON.c ****     return current_element;
1798:../../iot_link/cJSON/cJSON.c **** }
 815              		.loc 1 1798 0
 816 000a 2046     		mov	r0, r4
 817 000c BDE8F087 		pop	{r4, r5, r6, r7, r8, r9, r10, pc}
 818              	.LVL106:
 819              	.L111:
1776:../../iot_link/cJSON/cJSON.c ****     {
 820              		.loc 1 1776 0 discriminator 1
 821 0010 0029     		cmp	r1, #0
 822 0012 F9D0     		beq	.L113
1781:../../iot_link/cJSON/cJSON.c ****     if (case_sensitive)
 823              		.loc 1 1781 0
 824 0014 8468     		ldr	r4, [r0, #8]
 825              	.LVL107:
1782:../../iot_link/cJSON/cJSON.c ****     {
 826              		.loc 1 1782 0
 827 0016 002A     		cmp	r2, #0
 828 0018 3ED1     		bne	.L114
 829              	.LVL108:
 830              	.L115:
1791:../../iot_link/cJSON/cJSON.c ****         {
 831              		.loc 1 1791 0
 832 001a 002C     		cmp	r4, #0
 833 001c F4D0     		beq	.L113
1791:../../iot_link/cJSON/cJSON.c ****         {
ARM GAS  C:\Users\LuckyE\AppData\Local\Temp\ccgn9LZs.s 			page 49


 834              		.loc 1 1791 0 is_stmt 0 discriminator 1
 835 001e 266A     		ldr	r6, [r4, #32]
 836              	.LVL109:
 837              	.LBB56:
 838              	.LBB57:
  99:../../iot_link/cJSON/cJSON.c ****     {
 839              		.loc 1 99 0 is_stmt 1 discriminator 1
 840 0020 BEB3     		cbz	r6, .L117
 104:../../iot_link/cJSON/cJSON.c ****     {
 841              		.loc 1 104 0
 842 0022 BE42     		cmp	r6, r7
 843 0024 F1D0     		beq	.L110
 844 0026 07F1FF3A 		add	r10, r7, #-1
 845              	.LVL110:
 846              	.L118:
 847              	.LBB58:
 109:../../iot_link/cJSON/cJSON.c ****     {
 848              		.loc 1 109 0
 849 002a 1AF8018F 		ldrb	r8, [r10, #1]!	@ zero_extendqisi2
 850 002e FFF7FEFF 		bl	__locale_ctype_ptr
 851              	.LVL111:
 852 0032 4044     		add	r0, r0, r8
 853 0034 B146     		mov	r9, r6
 854              	.LVL112:
 855 0036 4378     		ldrb	r3, [r0, #1]	@ zero_extendqisi2
 856              	.LBE58:
 857              	.LBB59:
 858 0038 16F8015B 		ldrb	r5, [r6], #1	@ zero_extendqisi2
 859              	.LVL113:
 860              	.LBE59:
 861              	.LBB60:
 862 003c 03F00303 		and	r3, r3, #3
 863 0040 012B     		cmp	r3, #1
 864 0042 08BF     		it	eq
 865 0044 08F12008 		addeq	r8, r8, #32
 866              	.LVL114:
 867              	.LBE60:
 868              	.LBB61:
 869 0048 FFF7FEFF 		bl	__locale_ctype_ptr
 870              	.LVL115:
 871 004c 2844     		add	r0, r0, r5
 872 004e 2B46     		mov	r3, r5
 873 0050 4278     		ldrb	r2, [r0, #1]	@ zero_extendqisi2
 874 0052 9AF80050 		ldrb	r5, [r10]	@ zero_extendqisi2
 875              	.LVL116:
 876 0056 02F00302 		and	r2, r2, #3
 877 005a 012A     		cmp	r2, #1
 878 005c 08BF     		it	eq
 879 005e 2033     		addeq	r3, r3, #32
 880              	.LVL117:
 881              	.LBE61:
 882 0060 9845     		cmp	r8, r3
 883 0062 22D0     		beq	.L121
 884              	.LVL118:
 885              	.LBB62:
 117:../../iot_link/cJSON/cJSON.c **** }
 886              		.loc 1 117 0
ARM GAS  C:\Users\LuckyE\AppData\Local\Temp\ccgn9LZs.s 			page 50


 887 0064 FFF7FEFF 		bl	__locale_ctype_ptr
 888              	.LVL119:
 889 0068 2844     		add	r0, r0, r5
 890              	.LBE62:
 891              	.LBB63:
 892 006a 99F80060 		ldrb	r6, [r9]	@ zero_extendqisi2
 893              	.LVL120:
 894              	.LBE63:
 895              	.LBB64:
 896 006e 4378     		ldrb	r3, [r0, #1]	@ zero_extendqisi2
 897 0070 03F00303 		and	r3, r3, #3
 898 0074 012B     		cmp	r3, #1
 899 0076 08BF     		it	eq
 900 0078 2035     		addeq	r5, r5, #32
 901              	.LBE64:
 902              	.LBB65:
 903 007a FFF7FEFF 		bl	__locale_ctype_ptr
 904              	.LVL121:
 905 007e 3044     		add	r0, r0, r6
 906 0080 3346     		mov	r3, r6
 907 0082 4278     		ldrb	r2, [r0, #1]	@ zero_extendqisi2
 908 0084 02F00302 		and	r2, r2, #3
 909 0088 012A     		cmp	r2, #1
 910 008a 08BF     		it	eq
 911 008c 2033     		addeq	r3, r3, #32
 912              	.LVL122:
 913              	.LBE65:
 914              	.LBE57:
 915              	.LBE56:
1791:../../iot_link/cJSON/cJSON.c ****         {
 916              		.loc 1 1791 0
 917 008e 9D42     		cmp	r5, r3
 918 0090 BBD0     		beq	.L110
 919              	.L117:
1793:../../iot_link/cJSON/cJSON.c ****         }
 920              		.loc 1 1793 0
 921 0092 2468     		ldr	r4, [r4]
 922              	.LVL123:
 923 0094 C1E7     		b	.L115
 924              	.L116:
1786:../../iot_link/cJSON/cJSON.c ****         }
 925              		.loc 1 1786 0
 926 0096 2468     		ldr	r4, [r4]
 927              	.LVL124:
 928              	.L114:
1784:../../iot_link/cJSON/cJSON.c ****         {
 929              		.loc 1 1784 0
 930 0098 002C     		cmp	r4, #0
 931 009a B5D0     		beq	.L113
1784:../../iot_link/cJSON/cJSON.c ****         {
 932              		.loc 1 1784 0 is_stmt 0 discriminator 1
 933 009c 216A     		ldr	r1, [r4, #32]
 934 009e 3846     		mov	r0, r7
 935 00a0 FFF7FEFF 		bl	strcmp
 936              	.LVL125:
 937 00a4 0028     		cmp	r0, #0
 938 00a6 F6D1     		bne	.L116
ARM GAS  C:\Users\LuckyE\AppData\Local\Temp\ccgn9LZs.s 			page 51


 939 00a8 AFE7     		b	.L110
 940              	.LVL126:
 941              	.L121:
 942              	.LBB67:
 943              	.LBB66:
 111:../../iot_link/cJSON/cJSON.c ****         {
 944              		.loc 1 111 0 is_stmt 1
 945 00aa 002D     		cmp	r5, #0
 946 00ac BDD1     		bne	.L118
 947 00ae ACE7     		b	.L110
 948              	.LBE66:
 949              	.LBE67:
 950              		.cfi_endproc
 951              	.LFE40:
 953              		.section	.text.add_item_to_array,"ax",%progbits
 954              		.align	1
 955              		.syntax unified
 956              		.thumb
 957              		.thumb_func
 958              		.fpu fpv4-sp-d16
 960              	add_item_to_array:
 961              	.LFB46:
1799:../../iot_link/cJSON/cJSON.c **** 
1800:../../iot_link/cJSON/cJSON.c **** CJSON_PUBLIC(cJSON *) cJSON_GetObjectItem(const cJSON * const object, const char * const string)
1801:../../iot_link/cJSON/cJSON.c **** {
1802:../../iot_link/cJSON/cJSON.c ****     return get_object_item(object, string, false);
1803:../../iot_link/cJSON/cJSON.c **** }
1804:../../iot_link/cJSON/cJSON.c **** 
1805:../../iot_link/cJSON/cJSON.c **** CJSON_PUBLIC(cJSON *) cJSON_GetObjectItemCaseSensitive(const cJSON * const object, const char * con
1806:../../iot_link/cJSON/cJSON.c **** {
1807:../../iot_link/cJSON/cJSON.c ****     return get_object_item(object, string, true);
1808:../../iot_link/cJSON/cJSON.c **** }
1809:../../iot_link/cJSON/cJSON.c **** 
1810:../../iot_link/cJSON/cJSON.c **** CJSON_PUBLIC(cJSON_bool) cJSON_HasObjectItem(const cJSON *object, const char *string)
1811:../../iot_link/cJSON/cJSON.c **** {
1812:../../iot_link/cJSON/cJSON.c ****     return cJSON_GetObjectItem(object, string) ? 1 : 0;
1813:../../iot_link/cJSON/cJSON.c **** }
1814:../../iot_link/cJSON/cJSON.c **** 
1815:../../iot_link/cJSON/cJSON.c **** /* Utility for array list handling. */
1816:../../iot_link/cJSON/cJSON.c **** static void suffix_object(cJSON *prev, cJSON *item)
1817:../../iot_link/cJSON/cJSON.c **** {
1818:../../iot_link/cJSON/cJSON.c ****     prev->next = item;
1819:../../iot_link/cJSON/cJSON.c ****     item->prev = prev;
1820:../../iot_link/cJSON/cJSON.c **** }
1821:../../iot_link/cJSON/cJSON.c **** 
1822:../../iot_link/cJSON/cJSON.c **** /* Utility for handling references. */
1823:../../iot_link/cJSON/cJSON.c **** static cJSON *create_reference(const cJSON *item, const internal_hooks * const hooks)
1824:../../iot_link/cJSON/cJSON.c **** {
1825:../../iot_link/cJSON/cJSON.c ****     cJSON *reference = NULL;
1826:../../iot_link/cJSON/cJSON.c ****     if (item == NULL)
1827:../../iot_link/cJSON/cJSON.c ****     {
1828:../../iot_link/cJSON/cJSON.c ****         return NULL;
1829:../../iot_link/cJSON/cJSON.c ****     }
1830:../../iot_link/cJSON/cJSON.c **** 
1831:../../iot_link/cJSON/cJSON.c ****     reference = cJSON_New_Item(hooks);
1832:../../iot_link/cJSON/cJSON.c ****     if (reference == NULL)
1833:../../iot_link/cJSON/cJSON.c ****     {
ARM GAS  C:\Users\LuckyE\AppData\Local\Temp\ccgn9LZs.s 			page 52


1834:../../iot_link/cJSON/cJSON.c ****         return NULL;
1835:../../iot_link/cJSON/cJSON.c ****     }
1836:../../iot_link/cJSON/cJSON.c **** 
1837:../../iot_link/cJSON/cJSON.c ****     (void) memcpy(reference, item, sizeof(cJSON));
1838:../../iot_link/cJSON/cJSON.c ****     reference->string = NULL;
1839:../../iot_link/cJSON/cJSON.c ****     reference->type |= cJSON_IsReference;
1840:../../iot_link/cJSON/cJSON.c ****     reference->next = reference->prev = NULL;
1841:../../iot_link/cJSON/cJSON.c ****     return reference;
1842:../../iot_link/cJSON/cJSON.c **** }
1843:../../iot_link/cJSON/cJSON.c **** 
1844:../../iot_link/cJSON/cJSON.c **** static cJSON_bool add_item_to_array(cJSON *array, cJSON *item)
1845:../../iot_link/cJSON/cJSON.c **** {
 962              		.loc 1 1845 0
 963              		.cfi_startproc
 964              		@ args = 0, pretend = 0, frame = 0
 965              		@ frame_needed = 0, uses_anonymous_args = 0
 966              		@ link register save eliminated.
 967              	.LVL127:
1846:../../iot_link/cJSON/cJSON.c ****     cJSON *child = NULL;
1847:../../iot_link/cJSON/cJSON.c **** 
1848:../../iot_link/cJSON/cJSON.c ****     if ((item == NULL) || (array == NULL))
 968              		.loc 1 1848 0
 969 0000 61B1     		cbz	r1, .L143
 970              		.loc 1 1848 0 is_stmt 0 discriminator 1
 971 0002 60B1     		cbz	r0, .L140
 972              	.LVL128:
 973              	.LBB72:
 974              	.LBB73:
1849:../../iot_link/cJSON/cJSON.c ****     {
1850:../../iot_link/cJSON/cJSON.c ****         return false;
1851:../../iot_link/cJSON/cJSON.c ****     }
1852:../../iot_link/cJSON/cJSON.c **** 
1853:../../iot_link/cJSON/cJSON.c ****     child = array->child;
 975              		.loc 1 1853 0 is_stmt 1
 976 0004 8368     		ldr	r3, [r0, #8]
 977              	.LVL129:
1854:../../iot_link/cJSON/cJSON.c **** 
1855:../../iot_link/cJSON/cJSON.c ****     if (child == NULL)
 978              		.loc 1 1855 0
 979 0006 1BB9     		cbnz	r3, .L142
1856:../../iot_link/cJSON/cJSON.c ****     {
1857:../../iot_link/cJSON/cJSON.c ****         /* list is empty, start new one */
1858:../../iot_link/cJSON/cJSON.c ****         array->child = item;
 980              		.loc 1 1858 0
 981 0008 8160     		str	r1, [r0, #8]
 982              	.L147:
 983              	.LBB74:
 984              	.LBB75:
1819:../../iot_link/cJSON/cJSON.c **** }
 985              		.loc 1 1819 0
 986 000a 0120     		movs	r0, #1
 987              	.LVL130:
 988 000c 7047     		bx	lr
 989              	.LVL131:
 990              	.L145:
 991              	.LBE75:
 992              	.LBE74:
ARM GAS  C:\Users\LuckyE\AppData\Local\Temp\ccgn9LZs.s 			page 53


1859:../../iot_link/cJSON/cJSON.c ****     }
1860:../../iot_link/cJSON/cJSON.c ****     else
1861:../../iot_link/cJSON/cJSON.c ****     {
1862:../../iot_link/cJSON/cJSON.c ****         /* append to the end */
1863:../../iot_link/cJSON/cJSON.c ****         while (child->next)
 993              		.loc 1 1863 0
 994 000e 1346     		mov	r3, r2
 995              	.LVL132:
 996              	.L142:
 997 0010 1A68     		ldr	r2, [r3]
 998 0012 002A     		cmp	r2, #0
 999 0014 FBD1     		bne	.L145
 1000              	.LVL133:
 1001              	.LBB77:
 1002              	.LBB76:
1818:../../iot_link/cJSON/cJSON.c ****     item->prev = prev;
 1003              		.loc 1 1818 0
 1004 0016 1960     		str	r1, [r3]
1819:../../iot_link/cJSON/cJSON.c **** }
 1005              		.loc 1 1819 0
 1006 0018 4B60     		str	r3, [r1, #4]
 1007 001a F6E7     		b	.L147
 1008              	.LVL134:
 1009              	.L143:
 1010              	.LBE76:
 1011              	.LBE77:
 1012              	.LBE73:
 1013              	.LBE72:
1850:../../iot_link/cJSON/cJSON.c ****     }
 1014              		.loc 1 1850 0
 1015 001c 0846     		mov	r0, r1
 1016              	.LVL135:
 1017              	.L140:
1864:../../iot_link/cJSON/cJSON.c ****         {
1865:../../iot_link/cJSON/cJSON.c ****             child = child->next;
1866:../../iot_link/cJSON/cJSON.c ****         }
1867:../../iot_link/cJSON/cJSON.c ****         suffix_object(child, item);
1868:../../iot_link/cJSON/cJSON.c ****     }
1869:../../iot_link/cJSON/cJSON.c **** 
1870:../../iot_link/cJSON/cJSON.c ****     return true;
1871:../../iot_link/cJSON/cJSON.c **** }
 1018              		.loc 1 1871 0
 1019 001e 7047     		bx	lr
 1020              		.cfi_endproc
 1021              	.LFE46:
 1023              		.section	.text.cJSON_New_Item.isra.1,"ax",%progbits
 1024              		.align	1
 1025              		.syntax unified
 1026              		.thumb
 1027              		.thumb_func
 1028              		.fpu fpv4-sp-d16
 1030              	cJSON_New_Item.isra.1:
 1031              	.LFB108:
 202:../../iot_link/cJSON/cJSON.c **** {
 1032              		.loc 1 202 0
 1033              		.cfi_startproc
 1034              		@ args = 0, pretend = 0, frame = 0
ARM GAS  C:\Users\LuckyE\AppData\Local\Temp\ccgn9LZs.s 			page 54


 1035              		@ frame_needed = 0, uses_anonymous_args = 0
 1036 0000 10B5     		push	{r4, lr}
 1037              	.LCFI6:
 1038              		.cfi_def_cfa_offset 8
 1039              		.cfi_offset 4, -8
 1040              		.cfi_offset 14, -4
 202:../../iot_link/cJSON/cJSON.c **** {
 1041              		.loc 1 202 0
 1042 0002 0346     		mov	r3, r0
 204:../../iot_link/cJSON/cJSON.c ****     if (node)
 1043              		.loc 1 204 0
 1044 0004 2820     		movs	r0, #40
 1045 0006 9847     		blx	r3
 1046              	.LVL136:
 205:../../iot_link/cJSON/cJSON.c ****     {
 1047              		.loc 1 205 0
 1048 0008 0446     		mov	r4, r0
 1049 000a 18B1     		cbz	r0, .L148
 207:../../iot_link/cJSON/cJSON.c ****     }
 1050              		.loc 1 207 0
 1051 000c 2822     		movs	r2, #40
 1052 000e 0021     		movs	r1, #0
 1053 0010 FFF7FEFF 		bl	memset
 1054              	.LVL137:
 1055              	.L148:
 211:../../iot_link/cJSON/cJSON.c **** 
 1056              		.loc 1 211 0
 1057 0014 2046     		mov	r0, r4
 1058 0016 10BD     		pop	{r4, pc}
 1059              		.cfi_endproc
 1060              	.LFE108:
 1062              		.section	.text.print_string_ptr,"ax",%progbits
 1063              		.align	1
 1064              		.syntax unified
 1065              		.thumb
 1066              		.thumb_func
 1067              		.fpu fpv4-sp-d16
 1069              	print_string_ptr:
 1070              	.LFB20:
 828:../../iot_link/cJSON/cJSON.c ****     const unsigned char *input_pointer = NULL;
 1071              		.loc 1 828 0
 1072              		.cfi_startproc
 1073              		@ args = 0, pretend = 0, frame = 0
 1074              		@ frame_needed = 0, uses_anonymous_args = 0
 1075              	.LVL138:
 1076 0000 2DE9F84F 		push	{r3, r4, r5, r6, r7, r8, r9, r10, fp, lr}
 1077              	.LCFI7:
 1078              		.cfi_def_cfa_offset 40
 1079              		.cfi_offset 3, -40
 1080              		.cfi_offset 4, -36
 1081              		.cfi_offset 5, -32
 1082              		.cfi_offset 6, -28
 1083              		.cfi_offset 7, -24
 1084              		.cfi_offset 8, -20
 1085              		.cfi_offset 9, -16
 1086              		.cfi_offset 10, -12
 1087              		.cfi_offset 11, -8
ARM GAS  C:\Users\LuckyE\AppData\Local\Temp\ccgn9LZs.s 			page 55


 1088              		.cfi_offset 14, -4
 828:../../iot_link/cJSON/cJSON.c ****     const unsigned char *input_pointer = NULL;
 1089              		.loc 1 828 0
 1090 0004 0646     		mov	r6, r0
 836:../../iot_link/cJSON/cJSON.c ****     {
 1091              		.loc 1 836 0
 1092 0006 0846     		mov	r0, r1
 1093              	.LVL139:
 1094 0008 11B9     		cbnz	r1, .L154
 1095              	.LVL140:
 1096              	.L163:
 838:../../iot_link/cJSON/cJSON.c ****     }
 1097              		.loc 1 838 0
 1098 000a 0020     		movs	r0, #0
 1099              	.LVL141:
 1100              	.L153:
 946:../../iot_link/cJSON/cJSON.c **** 
 1101              		.loc 1 946 0
 1102 000c BDE8F88F 		pop	{r3, r4, r5, r6, r7, r8, r9, r10, fp, pc}
 1103              	.LVL142:
 1104              	.L154:
 842:../../iot_link/cJSON/cJSON.c ****     {
 1105              		.loc 1 842 0
 1106 0010 002E     		cmp	r6, #0
 1107 0012 79D0     		beq	.L156
 1108 0014 3546     		mov	r5, r6
 1109              	.LBB80:
 1110              	.LBB81:
 834:../../iot_link/cJSON/cJSON.c **** 
 1111              		.loc 1 834 0
 1112 0016 4FF00008 		mov	r8, #0
 1113              	.L157:
 1114              	.LVL143:
 855:../../iot_link/cJSON/cJSON.c ****     {
 1115              		.loc 1 855 0
 1116 001a 2A46     		mov	r2, r5
 1117 001c 12F8013B 		ldrb	r3, [r2], #1	@ zero_extendqisi2
 1118 0020 F3B9     		cbnz	r3, .L162
 878:../../iot_link/cJSON/cJSON.c **** 
 1119              		.loc 1 878 0
 1120 0022 AD1B     		subs	r5, r5, r6
 1121              	.LVL144:
 1122 0024 4544     		add	r5, r5, r8
 1123              	.LVL145:
 880:../../iot_link/cJSON/cJSON.c ****     if (output == NULL)
 1124              		.loc 1 880 0
 1125 0026 E91C     		adds	r1, r5, #3
 1126 0028 FFF7FEFF 		bl	ensure
 1127              	.LVL146:
 881:../../iot_link/cJSON/cJSON.c ****     {
 1128              		.loc 1 881 0
 1129 002c 0746     		mov	r7, r0
 1130 002e 0028     		cmp	r0, #0
 1131 0030 EBD0     		beq	.L163
 1132 0032 4FF0220B 		mov	fp, #34
 1133 0036 441C     		adds	r4, r0, #1
 1134 0038 05F1010A 		add	r10, r5, #1
ARM GAS  C:\Users\LuckyE\AppData\Local\Temp\ccgn9LZs.s 			page 56


 1135 003c 05F10209 		add	r9, r5, #2
 889:../../iot_link/cJSON/cJSON.c ****         (void) memcpy(output + 1, input, output_length);
 1136              		.loc 1 889 0
 1137 0040 80F800B0 		strb	fp, [r0]
 887:../../iot_link/cJSON/cJSON.c ****     {
 1138              		.loc 1 887 0
 1139 0044 B8F1000F 		cmp	r8, #0
 1140 0048 1FD1     		bne	.L164
 890:../../iot_link/cJSON/cJSON.c ****         output[output_length + 1] = '\"';
 1141              		.loc 1 890 0
 1142 004a 2A46     		mov	r2, r5
 1143 004c 3146     		mov	r1, r6
 1144 004e 2046     		mov	r0, r4
 1145              	.LVL147:
 1146 0050 FFF7FEFF 		bl	memcpy
 1147              	.LVL148:
 891:../../iot_link/cJSON/cJSON.c ****         output[output_length + 2] = '\0';
 1148              		.loc 1 891 0
 1149 0054 07F80AB0 		strb	fp, [r7, r10]
 892:../../iot_link/cJSON/cJSON.c **** 
 1150              		.loc 1 892 0
 1151 0058 07F80980 		strb	r8, [r7, r9]
 1152              	.LVL149:
 1153              	.L197:
 1154              	.LBE81:
 1155              	.LBE80:
 851:../../iot_link/cJSON/cJSON.c ****     }
 1156              		.loc 1 851 0
 1157 005c 0120     		movs	r0, #1
 1158 005e D5E7     		b	.L153
 1159              	.LVL150:
 1160              	.L162:
 1161              	.LBB83:
 1162              	.LBB82:
 857:../../iot_link/cJSON/cJSON.c ****         {
 1163              		.loc 1 857 0
 1164 0060 0D2B     		cmp	r3, #13
 1165 0062 09D8     		bhi	.L159
 1166 0064 0C2B     		cmp	r3, #12
 1167 0066 03D2     		bcs	.L160
 1168 0068 A3F10801 		sub	r1, r3, #8
 1169 006c 0229     		cmp	r1, #2
 1170 006e 07D8     		bhi	.L158
 1171              	.L160:
 867:../../iot_link/cJSON/cJSON.c ****                 break;
 1172              		.loc 1 867 0
 1173 0070 08F10108 		add	r8, r8, #1
 1174              	.LVL151:
 1175              	.L161:
 834:../../iot_link/cJSON/cJSON.c **** 
 1176              		.loc 1 834 0
 1177 0074 1546     		mov	r5, r2
 1178 0076 D0E7     		b	.L157
 1179              	.LVL152:
 1180              	.L159:
 857:../../iot_link/cJSON/cJSON.c ****         {
 1181              		.loc 1 857 0
ARM GAS  C:\Users\LuckyE\AppData\Local\Temp\ccgn9LZs.s 			page 57


 1182 0078 222B     		cmp	r3, #34
 1183 007a F9D0     		beq	.L160
 1184 007c 5C2B     		cmp	r3, #92
 1185 007e F7D0     		beq	.L160
 1186              	.L158:
 870:../../iot_link/cJSON/cJSON.c ****                 {
 1187              		.loc 1 870 0
 1188 0080 1F2B     		cmp	r3, #31
 873:../../iot_link/cJSON/cJSON.c ****                 }
 1189              		.loc 1 873 0
 1190 0082 98BF     		it	ls
 1191 0084 08F10508 		addls	r8, r8, #5
 1192              	.LVL153:
 1193 0088 F4E7     		b	.L161
 1194              	.LVL154:
 1195              	.L164:
 936:../../iot_link/cJSON/cJSON.c ****                     output_pointer += 4;
 1196              		.loc 1 936 0
 1197 008a DFF894B0 		ldr	fp, .L198+4
 1198 008e 013E     		subs	r6, r6, #1
 1199              	.LVL155:
 910:../../iot_link/cJSON/cJSON.c ****             switch (*input_pointer)
 1200              		.loc 1 910 0
 1201 0090 5C25     		movs	r5, #92
 1202              	.LVL156:
 923:../../iot_link/cJSON/cJSON.c ****                     break;
 1203              		.loc 1 923 0
 1204 0092 4FF06608 		mov	r8, #102
 1205              	.LVL157:
 1206              	.L165:
 900:../../iot_link/cJSON/cJSON.c ****     {
 1207              		.loc 1 900 0
 1208 0096 16F8013F 		ldrb	r3, [r6, #1]!	@ zero_extendqisi2
 1209              	.LVL158:
 1210 009a 2BB9     		cbnz	r3, .L177
 942:../../iot_link/cJSON/cJSON.c ****     output[output_length + 2] = '\0';
 1211              		.loc 1 942 0
 1212 009c 2222     		movs	r2, #34
 1213 009e 07F80A20 		strb	r2, [r7, r10]
 943:../../iot_link/cJSON/cJSON.c **** 
 1214              		.loc 1 943 0
 1215 00a2 07F80930 		strb	r3, [r7, r9]
 1216 00a6 D9E7     		b	.L197
 1217              	.L177:
 902:../../iot_link/cJSON/cJSON.c ****         {
 1218              		.loc 1 902 0
 1219 00a8 1F2B     		cmp	r3, #31
 1220 00aa 07D9     		bls	.L166
 1221 00ac 222B     		cmp	r3, #34
 1222 00ae 05D0     		beq	.L166
 1223 00b0 5C2B     		cmp	r3, #92
 1224 00b2 03D0     		beq	.L166
 905:../../iot_link/cJSON/cJSON.c ****         }
 1225              		.loc 1 905 0
 1226 00b4 2370     		strb	r3, [r4]
 1227 00b6 2046     		mov	r0, r4
 1228              	.LVL159:
ARM GAS  C:\Users\LuckyE\AppData\Local\Temp\ccgn9LZs.s 			page 58


 1229              	.L167:
 900:../../iot_link/cJSON/cJSON.c ****     {
 1230              		.loc 1 900 0
 1231 00b8 441C     		adds	r4, r0, #1
 1232              	.LVL160:
 1233 00ba ECE7     		b	.L165
 1234              	.LVL161:
 1235              	.L166:
 910:../../iot_link/cJSON/cJSON.c ****             switch (*input_pointer)
 1236              		.loc 1 910 0
 1237 00bc 2570     		strb	r5, [r4]
 911:../../iot_link/cJSON/cJSON.c ****             {
 1238              		.loc 1 911 0
 1239 00be 3278     		ldrb	r2, [r6]	@ zero_extendqisi2
 1240 00c0 0C2A     		cmp	r2, #12
 910:../../iot_link/cJSON/cJSON.c ****             switch (*input_pointer)
 1241              		.loc 1 910 0
 1242 00c2 04F10100 		add	r0, r4, #1
 1243              	.LVL162:
 911:../../iot_link/cJSON/cJSON.c ****             {
 1244              		.loc 1 911 0
 1245 00c6 13D0     		beq	.L169
 1246 00c8 08D8     		bhi	.L170
 1247 00ca 092A     		cmp	r2, #9
 1248 00cc 15D0     		beq	.L171
 1249 00ce 0A2A     		cmp	r2, #10
 1250 00d0 11D0     		beq	.L172
 1251 00d2 082A     		cmp	r2, #8
 1252 00d4 13D1     		bne	.L168
 920:../../iot_link/cJSON/cJSON.c ****                     break;
 1253              		.loc 1 920 0
 1254 00d6 6223     		movs	r3, #98
 1255              	.L196:
 932:../../iot_link/cJSON/cJSON.c ****                     break;
 1256              		.loc 1 932 0
 1257 00d8 6370     		strb	r3, [r4, #1]
 1258 00da EDE7     		b	.L167
 1259              	.L170:
 911:../../iot_link/cJSON/cJSON.c ****             {
 1260              		.loc 1 911 0
 1261 00dc 222A     		cmp	r2, #34
 1262 00de 05D0     		beq	.L174
 1263 00e0 5C2A     		cmp	r2, #92
 1264 00e2 03D0     		beq	.L174
 1265 00e4 0D2A     		cmp	r2, #13
 1266 00e6 0AD1     		bne	.L168
 929:../../iot_link/cJSON/cJSON.c ****                     break;
 1267              		.loc 1 929 0
 1268 00e8 7223     		movs	r3, #114
 1269 00ea F5E7     		b	.L196
 1270              	.L174:
 917:../../iot_link/cJSON/cJSON.c ****                     break;
 1271              		.loc 1 917 0
 1272 00ec 6270     		strb	r2, [r4, #1]
 1273 00ee E3E7     		b	.L167
 1274              	.L169:
 923:../../iot_link/cJSON/cJSON.c ****                     break;
ARM GAS  C:\Users\LuckyE\AppData\Local\Temp\ccgn9LZs.s 			page 59


 1275              		.loc 1 923 0
 1276 00f0 84F80180 		strb	r8, [r4, #1]
 1277 00f4 E0E7     		b	.L167
 1278              	.L172:
 926:../../iot_link/cJSON/cJSON.c ****                     break;
 1279              		.loc 1 926 0
 1280 00f6 6E23     		movs	r3, #110
 1281 00f8 EEE7     		b	.L196
 1282              	.L171:
 932:../../iot_link/cJSON/cJSON.c ****                     break;
 1283              		.loc 1 932 0
 1284 00fa 7423     		movs	r3, #116
 1285 00fc ECE7     		b	.L196
 1286              	.L168:
 936:../../iot_link/cJSON/cJSON.c ****                     output_pointer += 4;
 1287              		.loc 1 936 0
 1288 00fe 5946     		mov	r1, fp
 1289 0100 FFF7FEFF 		bl	sprintf
 1290              	.LVL163:
 937:../../iot_link/cJSON/cJSON.c ****                     break;
 1291              		.loc 1 937 0
 1292 0104 601D     		adds	r0, r4, #5
 1293              	.LVL164:
 1294 0106 D7E7     		b	.L167
 1295              	.LVL165:
 1296              	.L156:
 1297              	.LBE82:
 1298              	.LBE83:
 844:../../iot_link/cJSON/cJSON.c ****         if (output == NULL)
 1299              		.loc 1 844 0
 1300 0108 0321     		movs	r1, #3
 1301 010a FFF7FEFF 		bl	ensure
 1302              	.LVL166:
 845:../../iot_link/cJSON/cJSON.c ****         {
 1303              		.loc 1 845 0
 1304 010e 0028     		cmp	r0, #0
 1305 0110 3FF47BAF 		beq	.L163
 849:../../iot_link/cJSON/cJSON.c **** 
 1306              		.loc 1 849 0
 1307 0114 0149     		ldr	r1, .L198
 1308 0116 FFF7FEFF 		bl	strcpy
 1309              	.LVL167:
 1310 011a 9FE7     		b	.L197
 1311              	.L199:
 1312              		.align	2
 1313              	.L198:
 1314 011c 06000000 		.word	.LC1
 1315 0120 00000000 		.word	.LC0
 1316              		.cfi_endproc
 1317              	.LFE20:
 1319              		.global	__aeabi_dmul
 1320              		.global	__aeabi_dcmpeq
 1321              		.section	.text.print_value,"ax",%progbits
 1322              		.align	1
 1323              		.syntax unified
 1324              		.thumb
 1325              		.thumb_func
ARM GAS  C:\Users\LuckyE\AppData\Local\Temp\ccgn9LZs.s 			page 60


 1326              		.fpu fpv4-sp-d16
 1328              	print_value:
 1329              	.LFB32:
1268:../../iot_link/cJSON/cJSON.c ****     unsigned char *output = NULL;
 1330              		.loc 1 1268 0
 1331              		.cfi_startproc
 1332              		@ args = 0, pretend = 0, frame = 40
 1333              		@ frame_needed = 0, uses_anonymous_args = 0
 1334              	.LVL168:
 1335 0000 2DE9F043 		push	{r4, r5, r6, r7, r8, r9, lr}
 1336              	.LCFI8:
 1337              		.cfi_def_cfa_offset 28
 1338              		.cfi_offset 4, -28
 1339              		.cfi_offset 5, -24
 1340              		.cfi_offset 6, -20
 1341              		.cfi_offset 7, -16
 1342              		.cfi_offset 8, -12
 1343              		.cfi_offset 9, -8
 1344              		.cfi_offset 14, -4
 1345 0004 0C46     		mov	r4, r1
 1346 0006 8BB0     		sub	sp, sp, #44
 1347              	.LCFI9:
 1348              		.cfi_def_cfa_offset 72
1271:../../iot_link/cJSON/cJSON.c ****     {
 1349              		.loc 1 1271 0
 1350 0008 0646     		mov	r6, r0
 1351 000a 08B9     		cbnz	r0, .L201
 1352              	.LVL169:
 1353              	.L247:
 1354              	.LBB97:
 1355              	.LBB98:
1336:../../iot_link/cJSON/cJSON.c ****     }
 1356              		.loc 1 1336 0
 1357 000c 0020     		movs	r0, #0
 1358 000e 1BE0     		b	.L200
 1359              	.LVL170:
 1360              	.L201:
 1361              	.LBE98:
 1362              	.LBE97:
1271:../../iot_link/cJSON/cJSON.c ****     {
 1363              		.loc 1 1271 0 discriminator 1
 1364 0010 0029     		cmp	r1, #0
 1365 0012 FBD0     		beq	.L247
 1366              	.LVL171:
 1367              	.LBB123:
 1368              	.LBB121:
1276:../../iot_link/cJSON/cJSON.c ****     {
 1369              		.loc 1 1276 0
 1370 0014 057B     		ldrb	r5, [r0, #12]	@ zero_extendqisi2
 1371 0016 082D     		cmp	r5, #8
 1372 0018 42D0     		beq	.L204
 1373 001a 0DDC     		bgt	.L205
 1374 001c 022D     		cmp	r5, #2
 1375 001e 37D0     		beq	.L206
 1376 0020 042D     		cmp	r5, #4
 1377 0022 2AD0     		beq	.L207
 1378 0024 012D     		cmp	r5, #1
ARM GAS  C:\Users\LuckyE\AppData\Local\Temp\ccgn9LZs.s 			page 61


 1379 0026 F1D1     		bne	.L247
1288:../../iot_link/cJSON/cJSON.c ****             if (output == NULL)
 1380              		.loc 1 1288 0
 1381 0028 0621     		movs	r1, #6
 1382              	.LVL172:
 1383 002a 2046     		mov	r0, r4
 1384              	.LVL173:
 1385 002c FFF7FEFF 		bl	ensure
 1386              	.LVL174:
1289:../../iot_link/cJSON/cJSON.c ****             {
 1387              		.loc 1 1289 0
 1388 0030 0028     		cmp	r0, #0
 1389 0032 EBD0     		beq	.L247
1293:../../iot_link/cJSON/cJSON.c ****             return true;
 1390              		.loc 1 1293 0
 1391 0034 AF49     		ldr	r1, .L333
 1392 0036 27E0     		b	.L332
 1393              	.LVL175:
 1394              	.L205:
1276:../../iot_link/cJSON/cJSON.c ****     {
 1395              		.loc 1 1276 0
 1396 0038 202D     		cmp	r5, #32
 1397 003a 77D0     		beq	.L209
 1398 003c 07DC     		bgt	.L210
 1399 003e 102D     		cmp	r5, #16
 1400 0040 E4D1     		bne	.L247
 1401              	.LVL176:
 1402              	.LBB99:
 1403              	.LBB100:
 951:../../iot_link/cJSON/cJSON.c **** }
 1404              		.loc 1 951 0
 1405 0042 0069     		ldr	r0, [r0, #16]
 1406              	.LVL177:
 1407 0044 FFF7FEFF 		bl	print_string_ptr
 1408              	.LVL178:
 1409              	.L200:
 1410              	.LBE100:
 1411              	.LBE99:
 1412              	.LBE121:
 1413              	.LBE123:
1338:../../iot_link/cJSON/cJSON.c **** 
 1414              		.loc 1 1338 0
 1415 0048 0BB0     		add	sp, sp, #44
 1416              	.LCFI10:
 1417              		.cfi_remember_state
 1418              		.cfi_def_cfa_offset 28
 1419              		@ sp needed
 1420 004a BDE8F083 		pop	{r4, r5, r6, r7, r8, r9, pc}
 1421              	.LVL179:
 1422              	.L210:
 1423              	.LCFI11:
 1424              		.cfi_restore_state
 1425              	.LBB124:
 1426              	.LBB122:
1276:../../iot_link/cJSON/cJSON.c ****     {
 1427              		.loc 1 1276 0
 1428 004e 402D     		cmp	r5, #64
ARM GAS  C:\Users\LuckyE\AppData\Local\Temp\ccgn9LZs.s 			page 62


 1429 0050 00F0B780 		beq	.L212
 1430 0054 802D     		cmp	r5, #128
 1431 0056 D9D1     		bne	.L247
 1432              	.LVL180:
 1433              	.LBB101:
1311:../../iot_link/cJSON/cJSON.c ****             {
 1434              		.loc 1 1311 0
 1435 0058 0069     		ldr	r0, [r0, #16]
 1436              	.LVL181:
 1437 005a 0028     		cmp	r0, #0
 1438 005c D6D0     		beq	.L247
1316:../../iot_link/cJSON/cJSON.c ****             output = ensure(output_buffer, raw_length);
 1439              		.loc 1 1316 0
 1440 005e FFF7FEFF 		bl	strlen
 1441              	.LVL182:
 1442 0062 451C     		adds	r5, r0, #1
 1443              	.LVL183:
1317:../../iot_link/cJSON/cJSON.c ****             if (output == NULL)
 1444              		.loc 1 1317 0
 1445 0064 2946     		mov	r1, r5
 1446 0066 2046     		mov	r0, r4
 1447 0068 FFF7FEFF 		bl	ensure
 1448              	.LVL184:
1318:../../iot_link/cJSON/cJSON.c ****             {
 1449              		.loc 1 1318 0
 1450 006c 0028     		cmp	r0, #0
 1451 006e CDD0     		beq	.L247
1322:../../iot_link/cJSON/cJSON.c ****             return true;
 1452              		.loc 1 1322 0
 1453 0070 2A46     		mov	r2, r5
 1454 0072 3169     		ldr	r1, [r6, #16]
 1455 0074 FFF7FEFF 		bl	memcpy
 1456              	.LVL185:
 1457 0078 08E0     		b	.L331
 1458              	.LVL186:
 1459              	.L207:
 1460              	.LBE101:
1279:../../iot_link/cJSON/cJSON.c ****             if (output == NULL)
 1461              		.loc 1 1279 0
 1462 007a 0521     		movs	r1, #5
 1463              	.LVL187:
 1464 007c 2046     		mov	r0, r4
 1465              	.LVL188:
 1466 007e FFF7FEFF 		bl	ensure
 1467              	.LVL189:
1280:../../iot_link/cJSON/cJSON.c ****             {
 1468              		.loc 1 1280 0
 1469 0082 0028     		cmp	r0, #0
 1470 0084 C2D0     		beq	.L247
1284:../../iot_link/cJSON/cJSON.c ****             return true;
 1471              		.loc 1 1284 0
 1472 0086 9C49     		ldr	r1, .L333+4
 1473              	.L332:
1302:../../iot_link/cJSON/cJSON.c ****             return true;
 1474              		.loc 1 1302 0
 1475 0088 FFF7FEFF 		bl	strcpy
 1476              	.LVL190:
ARM GAS  C:\Users\LuckyE\AppData\Local\Temp\ccgn9LZs.s 			page 63


 1477              	.L331:
 1478              	.LBB102:
 1479              	.LBB103:
1716:../../iot_link/cJSON/cJSON.c **** }
 1480              		.loc 1 1716 0
 1481 008c 0120     		movs	r0, #1
 1482 008e DBE7     		b	.L200
 1483              	.LVL191:
 1484              	.L206:
 1485              	.LBE103:
 1486              	.LBE102:
1297:../../iot_link/cJSON/cJSON.c ****             if (output == NULL)
 1487              		.loc 1 1297 0
 1488 0090 0521     		movs	r1, #5
 1489              	.LVL192:
 1490 0092 2046     		mov	r0, r4
 1491              	.LVL193:
 1492 0094 FFF7FEFF 		bl	ensure
 1493              	.LVL194:
1298:../../iot_link/cJSON/cJSON.c ****             {
 1494              		.loc 1 1298 0
 1495 0098 0028     		cmp	r0, #0
 1496 009a B7D0     		beq	.L247
1302:../../iot_link/cJSON/cJSON.c ****             return true;
 1497              		.loc 1 1302 0
 1498 009c 9749     		ldr	r1, .L333+8
 1499 009e F3E7     		b	.L332
 1500              	.LVL195:
 1501              	.L204:
 1502              	.LBB112:
 1503              	.LBB113:
 477:../../iot_link/cJSON/cJSON.c ****     int length = 0;
 1504              		.loc 1 477 0
 1505 00a0 D0E90689 		ldrd	r8, [r0, #24]
 1506              	.LVL196:
 490:../../iot_link/cJSON/cJSON.c ****     {
 1507              		.loc 1 490 0
 1508 00a4 0022     		movs	r2, #0
 1509 00a6 0023     		movs	r3, #0
 1510 00a8 4046     		mov	r0, r8
 1511              	.LVL197:
 1512 00aa 4946     		mov	r1, r9
 1513              	.LVL198:
 1514 00ac FFF7FEFF 		bl	__aeabi_dmul
 1515              	.LVL199:
 1516 00b0 0022     		movs	r2, #0
 1517 00b2 0023     		movs	r3, #0
 1518 00b4 FFF7FEFF 		bl	__aeabi_dcmpeq
 1519              	.LVL200:
 1520 00b8 03AE     		add	r6, sp, #12
 1521              	.LVL201:
 1522 00ba 98B9     		cbnz	r0, .L329
 492:../../iot_link/cJSON/cJSON.c ****     }
 1523              		.loc 1 492 0
 1524 00bc 8E49     		ldr	r1, .L333+4
 1525 00be 3046     		mov	r0, r6
 1526 00c0 FFF7FEFF 		bl	strcpy
ARM GAS  C:\Users\LuckyE\AppData\Local\Temp\ccgn9LZs.s 			page 64


 1527              	.LVL202:
 1528 00c4 0425     		movs	r5, #4
 1529              	.LVL203:
 1530              	.L219:
 514:../../iot_link/cJSON/cJSON.c ****     if (output_pointer == NULL)
 1531              		.loc 1 514 0
 1532 00c6 691C     		adds	r1, r5, #1
 1533 00c8 2046     		mov	r0, r4
 1534 00ca FFF7FEFF 		bl	ensure
 1535              	.LVL204:
 515:../../iot_link/cJSON/cJSON.c ****     {
 1536              		.loc 1 515 0
 1537 00ce 0028     		cmp	r0, #0
 1538 00d0 9CD0     		beq	.L247
 522:../../iot_link/cJSON/cJSON.c ****     {
 1539              		.loc 1 522 0
 1540 00d2 0023     		movs	r3, #0
 1541              	.LVL205:
 1542              	.L222:
 1543 00d4 9D42     		cmp	r5, r3
 1544 00d6 25D1     		bne	.L225
 532:../../iot_link/cJSON/cJSON.c **** 
 1545              		.loc 1 532 0
 1546 00d8 0023     		movs	r3, #0
 1547              	.LVL206:
 1548 00da 4355     		strb	r3, [r0, r5]
 534:../../iot_link/cJSON/cJSON.c **** 
 1549              		.loc 1 534 0
 1550 00dc A368     		ldr	r3, [r4, #8]
 1551 00de 1D44     		add	r5, r5, r3
 1552 00e0 A560     		str	r5, [r4, #8]
 1553 00e2 D3E7     		b	.L331
 1554              	.LVL207:
 1555              	.L329:
 497:../../iot_link/cJSON/cJSON.c **** 
 1556              		.loc 1 497 0
 1557 00e4 4246     		mov	r2, r8
 1558 00e6 4B46     		mov	r3, r9
 1559 00e8 8549     		ldr	r1, .L333+12
 1560 00ea 3046     		mov	r0, r6
 1561 00ec FFF7FEFF 		bl	sprintf
 1562              	.LVL208:
 500:../../iot_link/cJSON/cJSON.c ****         {
 1563              		.loc 1 500 0
 1564 00f0 6A46     		mov	r2, sp
 497:../../iot_link/cJSON/cJSON.c **** 
 1565              		.loc 1 497 0
 1566 00f2 0546     		mov	r5, r0
 1567              	.LVL209:
 500:../../iot_link/cJSON/cJSON.c ****         {
 1568              		.loc 1 500 0
 1569 00f4 8349     		ldr	r1, .L333+16
 1570 00f6 3046     		mov	r0, r6
 1571              	.LVL210:
 1572 00f8 FFF7FEFF 		bl	sscanf
 1573              	.LVL211:
 1574 00fc 0128     		cmp	r0, #1
ARM GAS  C:\Users\LuckyE\AppData\Local\Temp\ccgn9LZs.s 			page 65


 1575 00fe 06D1     		bne	.L217
 1576 0100 DDE90023 		ldrd	r2, [sp]
 1577 0104 4046     		mov	r0, r8
 1578 0106 4946     		mov	r1, r9
 1579 0108 FFF7FEFF 		bl	__aeabi_dcmpeq
 1580              	.LVL212:
 1581 010c 30B9     		cbnz	r0, .L216
 1582              	.L217:
 503:../../iot_link/cJSON/cJSON.c ****         }
 1583              		.loc 1 503 0
 1584 010e 4246     		mov	r2, r8
 1585 0110 4B46     		mov	r3, r9
 1586 0112 7D49     		ldr	r1, .L333+20
 1587 0114 3046     		mov	r0, r6
 1588 0116 FFF7FEFF 		bl	sprintf
 1589              	.LVL213:
 1590 011a 0546     		mov	r5, r0
 1591              	.LVL214:
 1592              	.L216:
 508:../../iot_link/cJSON/cJSON.c ****     {
 1593              		.loc 1 508 0
 1594 011c 192D     		cmp	r5, #25
 1595 011e 3FF675AF 		bhi	.L247
 1596 0122 D0E7     		b	.L219
 1597              	.LVL215:
 1598              	.L225:
 524:../../iot_link/cJSON/cJSON.c ****         {
 1599              		.loc 1 524 0
 1600 0124 F25C     		ldrb	r2, [r6, r3]	@ zero_extendqisi2
 530:../../iot_link/cJSON/cJSON.c ****     }
 1601              		.loc 1 530 0
 1602 0126 C254     		strb	r2, [r0, r3]
 522:../../iot_link/cJSON/cJSON.c ****     {
 1603              		.loc 1 522 0
 1604 0128 0133     		adds	r3, r3, #1
 1605              	.LVL216:
 1606 012a D3E7     		b	.L222
 1607              	.LVL217:
 1608              	.L209:
 1609              	.LBE113:
 1610              	.LBE112:
1330:../../iot_link/cJSON/cJSON.c **** 
 1611              		.loc 1 1330 0
 1612 012c 8668     		ldr	r6, [r0, #8]
 1613              	.LVL218:
 1614              	.LBB114:
 1615              	.LBB115:
1448:../../iot_link/cJSON/cJSON.c ****     if (output_pointer == NULL)
 1616              		.loc 1 1448 0
 1617 012e 0121     		movs	r1, #1
 1618              	.LVL219:
 1619 0130 2046     		mov	r0, r4
 1620              	.LVL220:
 1621 0132 FFF7FEFF 		bl	ensure
 1622              	.LVL221:
1449:../../iot_link/cJSON/cJSON.c ****     {
 1623              		.loc 1 1449 0
ARM GAS  C:\Users\LuckyE\AppData\Local\Temp\ccgn9LZs.s 			page 66


 1624 0136 0028     		cmp	r0, #0
 1625 0138 3FF468AF 		beq	.L247
1454:../../iot_link/cJSON/cJSON.c ****     output_buffer->offset++;
 1626              		.loc 1 1454 0
 1627 013c 5B23     		movs	r3, #91
 1628 013e 0370     		strb	r3, [r0]
1455:../../iot_link/cJSON/cJSON.c ****     output_buffer->depth++;
 1629              		.loc 1 1455 0
 1630 0140 A368     		ldr	r3, [r4, #8]
 1631 0142 0133     		adds	r3, r3, #1
 1632 0144 A360     		str	r3, [r4, #8]
1456:../../iot_link/cJSON/cJSON.c **** 
 1633              		.loc 1 1456 0
 1634 0146 E368     		ldr	r3, [r4, #12]
 1635 0148 0133     		adds	r3, r3, #1
 1636 014a E360     		str	r3, [r4, #12]
1473:../../iot_link/cJSON/cJSON.c ****             if(output_buffer->format)
 1637              		.loc 1 1473 0
 1638 014c 2C27     		movs	r7, #44
1478:../../iot_link/cJSON/cJSON.c ****             output_buffer->offset += length;
 1639              		.loc 1 1478 0
 1640 014e 4FF00008 		mov	r8, #0
 1641              	.LVL222:
 1642              	.L226:
1458:../../iot_link/cJSON/cJSON.c ****     {
 1643              		.loc 1 1458 0
 1644 0152 6EB9     		cbnz	r6, .L231
1484:../../iot_link/cJSON/cJSON.c ****     if (output_pointer == NULL)
 1645              		.loc 1 1484 0
 1646 0154 0221     		movs	r1, #2
 1647 0156 2046     		mov	r0, r4
 1648 0158 FFF7FEFF 		bl	ensure
 1649              	.LVL223:
1485:../../iot_link/cJSON/cJSON.c ****     {
 1650              		.loc 1 1485 0
 1651 015c 0028     		cmp	r0, #0
 1652 015e 3FF455AF 		beq	.L247
 1653              	.LVL224:
1489:../../iot_link/cJSON/cJSON.c ****     *output_pointer = '\0';
 1654              		.loc 1 1489 0
 1655 0162 5D23     		movs	r3, #93
 1656 0164 0370     		strb	r3, [r0]
1490:../../iot_link/cJSON/cJSON.c ****     output_buffer->depth--;
 1657              		.loc 1 1490 0
 1658 0166 4670     		strb	r6, [r0, #1]
 1659              	.LVL225:
 1660              	.L330:
 1661              	.LBE115:
 1662              	.LBE114:
 1663              	.LBB117:
 1664              	.LBB109:
1714:../../iot_link/cJSON/cJSON.c **** 
 1665              		.loc 1 1714 0
 1666 0168 E368     		ldr	r3, [r4, #12]
 1667 016a 013B     		subs	r3, r3, #1
 1668 016c E360     		str	r3, [r4, #12]
 1669 016e 8DE7     		b	.L331
ARM GAS  C:\Users\LuckyE\AppData\Local\Temp\ccgn9LZs.s 			page 67


 1670              	.LVL226:
 1671              	.L231:
 1672              	.LBE109:
 1673              	.LBE117:
 1674              	.LBB118:
 1675              	.LBB116:
1460:../../iot_link/cJSON/cJSON.c ****         {
 1676              		.loc 1 1460 0
 1677 0170 2146     		mov	r1, r4
 1678 0172 3046     		mov	r0, r6
 1679 0174 FFF744FF 		bl	print_value
 1680              	.LVL227:
 1681 0178 0028     		cmp	r0, #0
 1682 017a 3FF447AF 		beq	.L247
1464:../../iot_link/cJSON/cJSON.c ****         if (current_element->next)
 1683              		.loc 1 1464 0
 1684 017e 2046     		mov	r0, r4
 1685 0180 FFF7FEFF 		bl	update_offset
 1686              	.LVL228:
1465:../../iot_link/cJSON/cJSON.c ****         {
 1687              		.loc 1 1465 0
 1688 0184 3368     		ldr	r3, [r6]
 1689 0186 BBB1     		cbz	r3, .L227
1467:../../iot_link/cJSON/cJSON.c ****             output_pointer = ensure(output_buffer, length + 1);
 1690              		.loc 1 1467 0
 1691 0188 6369     		ldr	r3, [r4, #20]
 1692 018a 002B     		cmp	r3, #0
 1693 018c 0CBF     		ite	eq
 1694 018e 4FF00109 		moveq	r9, #1
 1695 0192 4FF00209 		movne	r9, #2
 1696              	.LVL229:
1468:../../iot_link/cJSON/cJSON.c ****             if (output_pointer == NULL)
 1697              		.loc 1 1468 0
 1698 0196 09F10101 		add	r1, r9, #1
 1699 019a 2046     		mov	r0, r4
 1700 019c FFF7FEFF 		bl	ensure
 1701              	.LVL230:
1469:../../iot_link/cJSON/cJSON.c ****             {
 1702              		.loc 1 1469 0
 1703 01a0 0028     		cmp	r0, #0
 1704 01a2 3FF433AF 		beq	.L247
 1705              	.LVL231:
1473:../../iot_link/cJSON/cJSON.c ****             if(output_buffer->format)
 1706              		.loc 1 1473 0
 1707 01a6 0770     		strb	r7, [r0]
1474:../../iot_link/cJSON/cJSON.c ****             {
 1708              		.loc 1 1474 0
 1709 01a8 6369     		ldr	r3, [r4, #20]
 1710 01aa 3BB9     		cbnz	r3, .L229
1473:../../iot_link/cJSON/cJSON.c ****             if(output_buffer->format)
 1711              		.loc 1 1473 0
 1712 01ac 431C     		adds	r3, r0, #1
 1713              	.LVL232:
 1714              	.L230:
1478:../../iot_link/cJSON/cJSON.c ****             output_buffer->offset += length;
 1715              		.loc 1 1478 0
 1716 01ae 83F80080 		strb	r8, [r3]
ARM GAS  C:\Users\LuckyE\AppData\Local\Temp\ccgn9LZs.s 			page 68


1479:../../iot_link/cJSON/cJSON.c ****         }
 1717              		.loc 1 1479 0
 1718 01b2 A368     		ldr	r3, [r4, #8]
 1719              	.LVL233:
 1720 01b4 4B44     		add	r3, r3, r9
 1721 01b6 A360     		str	r3, [r4, #8]
 1722              	.LVL234:
 1723              	.L227:
1481:../../iot_link/cJSON/cJSON.c ****     }
 1724              		.loc 1 1481 0
 1725 01b8 3668     		ldr	r6, [r6]
 1726              	.LVL235:
 1727 01ba CAE7     		b	.L226
 1728              	.LVL236:
 1729              	.L229:
1476:../../iot_link/cJSON/cJSON.c ****             }
 1730              		.loc 1 1476 0
 1731 01bc 831C     		adds	r3, r0, #2
 1732              	.LVL237:
 1733 01be 4570     		strb	r5, [r0, #1]
 1734 01c0 F5E7     		b	.L230
 1735              	.LVL238:
 1736              	.L212:
 1737              	.LBE116:
 1738              	.LBE118:
 1739              	.LBB119:
 1740              	.LBB110:
1618:../../iot_link/cJSON/cJSON.c ****     output_pointer = ensure(output_buffer, length + 1);
 1741              		.loc 1 1618 0
 1742 01c2 4B69     		ldr	r3, [r1, #20]
 1743              	.LBE110:
 1744              	.LBE119:
1333:../../iot_link/cJSON/cJSON.c **** 
 1745              		.loc 1 1333 0
 1746 01c4 8568     		ldr	r5, [r0, #8]
 1747              	.LBB120:
 1748              	.LBB111:
1618:../../iot_link/cJSON/cJSON.c ****     output_pointer = ensure(output_buffer, length + 1);
 1749              		.loc 1 1618 0
 1750 01c6 002B     		cmp	r3, #0
 1751 01c8 0CBF     		ite	eq
 1752 01ca 0127     		moveq	r7, #1
 1753 01cc 0227     		movne	r7, #2
 1754              	.LVL239:
1619:../../iot_link/cJSON/cJSON.c ****     if (output_pointer == NULL)
 1755              		.loc 1 1619 0
 1756 01ce 791C     		adds	r1, r7, #1
 1757              	.LVL240:
 1758 01d0 2046     		mov	r0, r4
 1759              	.LVL241:
 1760 01d2 FFF7FEFF 		bl	ensure
 1761              	.LVL242:
1620:../../iot_link/cJSON/cJSON.c ****     {
 1762              		.loc 1 1620 0
 1763 01d6 0028     		cmp	r0, #0
 1764 01d8 3FF418AF 		beq	.L247
 1765              	.LVL243:
ARM GAS  C:\Users\LuckyE\AppData\Local\Temp\ccgn9LZs.s 			page 69


1625:../../iot_link/cJSON/cJSON.c ****     output_buffer->depth++;
 1766              		.loc 1 1625 0
 1767 01dc 7B23     		movs	r3, #123
 1768 01de 0370     		strb	r3, [r0]
1626:../../iot_link/cJSON/cJSON.c ****     if (output_buffer->format)
 1769              		.loc 1 1626 0
 1770 01e0 E268     		ldr	r2, [r4, #12]
1627:../../iot_link/cJSON/cJSON.c ****     {
 1771              		.loc 1 1627 0
 1772 01e2 6369     		ldr	r3, [r4, #20]
1626:../../iot_link/cJSON/cJSON.c ****     if (output_buffer->format)
 1773              		.loc 1 1626 0
 1774 01e4 0132     		adds	r2, r2, #1
 1775 01e6 E260     		str	r2, [r4, #12]
1627:../../iot_link/cJSON/cJSON.c ****     {
 1776              		.loc 1 1627 0
 1777 01e8 0BB1     		cbz	r3, .L233
 1778              	.LVL244:
1629:../../iot_link/cJSON/cJSON.c ****     }
 1779              		.loc 1 1629 0
 1780 01ea 0A23     		movs	r3, #10
 1781 01ec 4370     		strb	r3, [r0, #1]
 1782              	.LVL245:
 1783              	.L233:
1631:../../iot_link/cJSON/cJSON.c **** 
 1784              		.loc 1 1631 0
 1785 01ee A368     		ldr	r3, [r4, #8]
 1786 01f0 3B44     		add	r3, r3, r7
 1787 01f2 A360     		str	r3, [r4, #8]
 1788              	.LBB104:
1645:../../iot_link/cJSON/cJSON.c ****             }
 1789              		.loc 1 1645 0
 1790 01f4 0927     		movs	r7, #9
 1791              	.LVL246:
 1792              	.LBE104:
1663:../../iot_link/cJSON/cJSON.c ****         if (output_buffer->format)
 1793              		.loc 1 1663 0
 1794 01f6 4FF03A08 		mov	r8, #58
 1795              	.LVL247:
 1796              	.L234:
 1797 01fa 6369     		ldr	r3, [r4, #20]
1633:../../iot_link/cJSON/cJSON.c ****     {
 1798              		.loc 1 1633 0
 1799 01fc 95B9     		cbnz	r5, .L242
1699:../../iot_link/cJSON/cJSON.c ****     if (output_pointer == NULL)
 1800              		.loc 1 1699 0
 1801 01fe 002B     		cmp	r3, #0
 1802 0200 6BD0     		beq	.L251
 1803 0202 E168     		ldr	r1, [r4, #12]
 1804 0204 0131     		adds	r1, r1, #1
 1805              	.L243:
 1806 0206 2046     		mov	r0, r4
 1807 0208 FFF7FEFF 		bl	ensure
 1808              	.LVL248:
1700:../../iot_link/cJSON/cJSON.c ****     {
 1809              		.loc 1 1700 0
 1810 020c 0028     		cmp	r0, #0
ARM GAS  C:\Users\LuckyE\AppData\Local\Temp\ccgn9LZs.s 			page 70


 1811 020e 3FF4FDAE 		beq	.L247
1704:../../iot_link/cJSON/cJSON.c ****     {
 1812              		.loc 1 1704 0
 1813 0212 6369     		ldr	r3, [r4, #20]
 1814 0214 002B     		cmp	r3, #0
 1815 0216 6AD1     		bne	.L252
 1816 0218 0346     		mov	r3, r0
 1817              	.LVL249:
 1818              	.L245:
1712:../../iot_link/cJSON/cJSON.c ****     *output_pointer = '\0';
 1819              		.loc 1 1712 0
 1820 021a 7D22     		movs	r2, #125
 1821 021c 1A70     		strb	r2, [r3]
1713:../../iot_link/cJSON/cJSON.c ****     output_buffer->depth--;
 1822              		.loc 1 1713 0
 1823 021e 0022     		movs	r2, #0
 1824 0220 5A70     		strb	r2, [r3, #1]
 1825 0222 A1E7     		b	.L330
 1826              	.LVL250:
 1827              	.L242:
1635:../../iot_link/cJSON/cJSON.c ****         {
 1828              		.loc 1 1635 0
 1829 0224 73B1     		cbz	r3, .L235
 1830              	.LBB105:
1638:../../iot_link/cJSON/cJSON.c ****             if (output_pointer == NULL)
 1831              		.loc 1 1638 0
 1832 0226 E168     		ldr	r1, [r4, #12]
 1833 0228 2046     		mov	r0, r4
 1834 022a FFF7FEFF 		bl	ensure
 1835              	.LVL251:
1639:../../iot_link/cJSON/cJSON.c ****             {
 1836              		.loc 1 1639 0
 1837 022e 0028     		cmp	r0, #0
 1838 0230 3FF4ECAE 		beq	.L247
 1839 0234 0246     		mov	r2, r0
 1840              	.LVL252:
 1841              	.L236:
1643:../../iot_link/cJSON/cJSON.c ****             {
 1842              		.loc 1 1643 0
 1843 0236 E168     		ldr	r1, [r4, #12]
 1844 0238 131A     		subs	r3, r2, r0
 1845              	.LVL253:
 1846 023a 8B42     		cmp	r3, r1
 1847 023c 4AD3     		bcc	.L237
1647:../../iot_link/cJSON/cJSON.c ****         }
 1848              		.loc 1 1647 0
 1849 023e A368     		ldr	r3, [r4, #8]
 1850              	.LVL254:
 1851 0240 0B44     		add	r3, r3, r1
 1852 0242 A360     		str	r3, [r4, #8]
 1853              	.LVL255:
 1854              	.L235:
 1855              	.LBE105:
1651:../../iot_link/cJSON/cJSON.c ****         {
 1856              		.loc 1 1651 0
 1857 0244 2146     		mov	r1, r4
 1858 0246 286A     		ldr	r0, [r5, #32]
ARM GAS  C:\Users\LuckyE\AppData\Local\Temp\ccgn9LZs.s 			page 71


 1859 0248 FFF7FEFF 		bl	print_string_ptr
 1860              	.LVL256:
 1861 024c 0028     		cmp	r0, #0
 1862 024e 3FF4DDAE 		beq	.L247
1655:../../iot_link/cJSON/cJSON.c **** 
 1863              		.loc 1 1655 0
 1864 0252 2046     		mov	r0, r4
 1865 0254 FFF7FEFF 		bl	update_offset
 1866              	.LVL257:
1657:../../iot_link/cJSON/cJSON.c ****         output_pointer = ensure(output_buffer, length);
 1867              		.loc 1 1657 0
 1868 0258 6369     		ldr	r3, [r4, #20]
 1869 025a 002B     		cmp	r3, #0
 1870 025c 0CBF     		ite	eq
 1871 025e 0126     		moveq	r6, #1
 1872 0260 0226     		movne	r6, #2
 1873              	.LVL258:
1658:../../iot_link/cJSON/cJSON.c ****         if (output_pointer == NULL)
 1874              		.loc 1 1658 0
 1875 0262 3146     		mov	r1, r6
 1876 0264 2046     		mov	r0, r4
 1877 0266 FFF7FEFF 		bl	ensure
 1878              	.LVL259:
1659:../../iot_link/cJSON/cJSON.c ****         {
 1879              		.loc 1 1659 0
 1880 026a 0028     		cmp	r0, #0
 1881 026c 3FF4CEAE 		beq	.L247
 1882              	.LVL260:
1663:../../iot_link/cJSON/cJSON.c ****         if (output_buffer->format)
 1883              		.loc 1 1663 0
 1884 0270 80F80080 		strb	r8, [r0]
1664:../../iot_link/cJSON/cJSON.c ****         {
 1885              		.loc 1 1664 0
 1886 0274 6369     		ldr	r3, [r4, #20]
 1887 0276 03B1     		cbz	r3, .L239
 1888              	.LVL261:
1666:../../iot_link/cJSON/cJSON.c ****         }
 1889              		.loc 1 1666 0
 1890 0278 4770     		strb	r7, [r0, #1]
 1891              	.LVL262:
 1892              	.L239:
1668:../../iot_link/cJSON/cJSON.c **** 
 1893              		.loc 1 1668 0
 1894 027a A168     		ldr	r1, [r4, #8]
 1895 027c 3144     		add	r1, r1, r6
 1896 027e A160     		str	r1, [r4, #8]
1671:../../iot_link/cJSON/cJSON.c ****         {
 1897              		.loc 1 1671 0
 1898 0280 2846     		mov	r0, r5
 1899 0282 2146     		mov	r1, r4
 1900 0284 FFF7BCFE 		bl	print_value
 1901              	.LVL263:
 1902 0288 0028     		cmp	r0, #0
 1903 028a 3FF4BFAE 		beq	.L247
1675:../../iot_link/cJSON/cJSON.c **** 
 1904              		.loc 1 1675 0
 1905 028e 2046     		mov	r0, r4
ARM GAS  C:\Users\LuckyE\AppData\Local\Temp\ccgn9LZs.s 			page 72


 1906 0290 FFF7FEFF 		bl	update_offset
 1907              	.LVL264:
1678:../../iot_link/cJSON/cJSON.c ****         output_pointer = ensure(output_buffer, length + 1);
 1908              		.loc 1 1678 0
 1909 0294 2E68     		ldr	r6, [r5]
 1910              	.LVL265:
 1911 0296 6369     		ldr	r3, [r4, #20]
 1912 0298 0036     		adds	r6, r6, #0
 1913 029a 18BF     		it	ne
 1914 029c 0126     		movne	r6, #1
 1915 029e 002B     		cmp	r3, #0
 1916 02a0 18BF     		it	ne
 1917 02a2 0136     		addne	r6, r6, #1
 1918              	.LVL266:
1679:../../iot_link/cJSON/cJSON.c ****         if (output_pointer == NULL)
 1919              		.loc 1 1679 0
 1920 02a4 711C     		adds	r1, r6, #1
 1921 02a6 2046     		mov	r0, r4
 1922 02a8 FFF7FEFF 		bl	ensure
 1923              	.LVL267:
1680:../../iot_link/cJSON/cJSON.c ****         {
 1924              		.loc 1 1680 0
 1925 02ac 0028     		cmp	r0, #0
 1926 02ae 3FF4ADAE 		beq	.L247
1684:../../iot_link/cJSON/cJSON.c ****         {
 1927              		.loc 1 1684 0
 1928 02b2 2B68     		ldr	r3, [r5]
 1929 02b4 13B1     		cbz	r3, .L240
 1930              	.LVL268:
1686:../../iot_link/cJSON/cJSON.c ****         }
 1931              		.loc 1 1686 0
 1932 02b6 2C23     		movs	r3, #44
 1933 02b8 0370     		strb	r3, [r0]
 1934 02ba 0130     		adds	r0, r0, #1
 1935              	.LVL269:
 1936              	.L240:
1689:../../iot_link/cJSON/cJSON.c ****         {
 1937              		.loc 1 1689 0
 1938 02bc 6369     		ldr	r3, [r4, #20]
 1939 02be 13B1     		cbz	r3, .L241
 1940              	.LVL270:
1691:../../iot_link/cJSON/cJSON.c ****         }
 1941              		.loc 1 1691 0
 1942 02c0 0A23     		movs	r3, #10
 1943 02c2 0370     		strb	r3, [r0]
 1944 02c4 0130     		adds	r0, r0, #1
 1945              	.LVL271:
 1946              	.L241:
1693:../../iot_link/cJSON/cJSON.c ****         output_buffer->offset += length;
 1947              		.loc 1 1693 0
 1948 02c6 0023     		movs	r3, #0
 1949 02c8 0370     		strb	r3, [r0]
1694:../../iot_link/cJSON/cJSON.c **** 
 1950              		.loc 1 1694 0
 1951 02ca A368     		ldr	r3, [r4, #8]
1696:../../iot_link/cJSON/cJSON.c ****     }
 1952              		.loc 1 1696 0
ARM GAS  C:\Users\LuckyE\AppData\Local\Temp\ccgn9LZs.s 			page 73


 1953 02cc 2D68     		ldr	r5, [r5]
 1954              	.LVL272:
1694:../../iot_link/cJSON/cJSON.c **** 
 1955              		.loc 1 1694 0
 1956 02ce 1E44     		add	r6, r6, r3
 1957              	.LVL273:
 1958 02d0 A660     		str	r6, [r4, #8]
 1959 02d2 92E7     		b	.L234
 1960              	.LVL274:
 1961              	.L237:
 1962              	.LBB106:
1645:../../iot_link/cJSON/cJSON.c ****             }
 1963              		.loc 1 1645 0
 1964 02d4 02F8017B 		strb	r7, [r2], #1
 1965              	.LVL275:
 1966 02d8 ADE7     		b	.L236
 1967              	.LVL276:
 1968              	.L251:
 1969              	.LBE106:
1699:../../iot_link/cJSON/cJSON.c ****     if (output_pointer == NULL)
 1970              		.loc 1 1699 0
 1971 02da 0221     		movs	r1, #2
 1972 02dc 93E7     		b	.L243
 1973              	.LVL277:
 1974              	.L246:
 1975              	.LBB107:
1709:../../iot_link/cJSON/cJSON.c ****         }
 1976              		.loc 1 1709 0
 1977 02de 03F8015B 		strb	r5, [r3], #1
 1978              	.LVL278:
 1979              	.L244:
1707:../../iot_link/cJSON/cJSON.c ****         {
 1980              		.loc 1 1707 0
 1981 02e2 E268     		ldr	r2, [r4, #12]
 1982 02e4 191A     		subs	r1, r3, r0
 1983              	.LVL279:
 1984 02e6 013A     		subs	r2, r2, #1
 1985 02e8 9142     		cmp	r1, r2
 1986 02ea F8D3     		bcc	.L246
 1987 02ec 95E7     		b	.L245
 1988              	.LVL280:
 1989              	.L252:
 1990              	.LBE107:
1704:../../iot_link/cJSON/cJSON.c ****     {
 1991              		.loc 1 1704 0
 1992 02ee 0346     		mov	r3, r0
 1993              	.LBB108:
1709:../../iot_link/cJSON/cJSON.c ****         }
 1994              		.loc 1 1709 0
 1995 02f0 0925     		movs	r5, #9
 1996              	.LVL281:
 1997 02f2 F6E7     		b	.L244
 1998              	.L334:
 1999              		.align	2
 2000              	.L333:
 2001 02f4 05000000 		.word	.LC3
 2002 02f8 00000000 		.word	.LC2
ARM GAS  C:\Users\LuckyE\AppData\Local\Temp\ccgn9LZs.s 			page 74


 2003 02fc 0B000000 		.word	.LC4
 2004 0300 10000000 		.word	.LC5
 2005 0304 17000000 		.word	.LC6
 2006 0308 1B000000 		.word	.LC7
 2007              	.LBE108:
 2008              	.LBE111:
 2009              	.LBE120:
 2010              	.LBE122:
 2011              	.LBE124:
 2012              		.cfi_endproc
 2013              	.LFE32:
 2015              		.section	.text.create_reference.constprop.13,"ax",%progbits
 2016              		.align	1
 2017              		.syntax unified
 2018              		.thumb
 2019              		.thumb_func
 2020              		.fpu fpv4-sp-d16
 2022              	create_reference.constprop.13:
 2023              	.LFB120:
1823:../../iot_link/cJSON/cJSON.c **** {
 2024              		.loc 1 1823 0
 2025              		.cfi_startproc
 2026              		@ args = 0, pretend = 0, frame = 0
 2027              		@ frame_needed = 0, uses_anonymous_args = 0
 2028              	.LVL282:
 2029 0000 10B5     		push	{r4, lr}
 2030              	.LCFI12:
 2031              		.cfi_def_cfa_offset 8
 2032              		.cfi_offset 4, -8
 2033              		.cfi_offset 14, -4
1826:../../iot_link/cJSON/cJSON.c ****     {
 2034              		.loc 1 1826 0
 2035 0002 0446     		mov	r4, r0
 2036 0004 B0B1     		cbz	r0, .L335
1831:../../iot_link/cJSON/cJSON.c ****     if (reference == NULL)
 2037              		.loc 1 1831 0
 2038 0006 0C4B     		ldr	r3, .L343
 2039 0008 1868     		ldr	r0, [r3]
 2040              	.LVL283:
 2041 000a FFF7FEFF 		bl	cJSON_New_Item.isra.1
 2042              	.LVL284:
1832:../../iot_link/cJSON/cJSON.c ****     {
 2043              		.loc 1 1832 0
 2044 000e 88B1     		cbz	r0, .L335
1837:../../iot_link/cJSON/cJSON.c ****     reference->string = NULL;
 2045              		.loc 1 1837 0
 2046 0010 2346     		mov	r3, r4
 2047 0012 0246     		mov	r2, r0
 2048 0014 04F12801 		add	r1, r4, #40
 2049              	.LVL285:
 2050              	.L337:
 2051 0018 53F8044B 		ldr	r4, [r3], #4	@ unaligned
 2052 001c 42F8044B 		str	r4, [r2], #4	@ unaligned
 2053 0020 8B42     		cmp	r3, r1
 2054 0022 F9D1     		bne	.L337
1838:../../iot_link/cJSON/cJSON.c ****     reference->type |= cJSON_IsReference;
 2055              		.loc 1 1838 0
ARM GAS  C:\Users\LuckyE\AppData\Local\Temp\ccgn9LZs.s 			page 75


 2056 0024 0023     		movs	r3, #0
1839:../../iot_link/cJSON/cJSON.c ****     reference->next = reference->prev = NULL;
 2057              		.loc 1 1839 0
 2058 0026 C268     		ldr	r2, [r0, #12]
1838:../../iot_link/cJSON/cJSON.c ****     reference->type |= cJSON_IsReference;
 2059              		.loc 1 1838 0
 2060 0028 0362     		str	r3, [r0, #32]
1840:../../iot_link/cJSON/cJSON.c ****     return reference;
 2061              		.loc 1 1840 0
 2062 002a C0E90033 		strd	r3, r3, [r0]
1839:../../iot_link/cJSON/cJSON.c ****     reference->next = reference->prev = NULL;
 2063              		.loc 1 1839 0
 2064 002e 42F48072 		orr	r2, r2, #256
 2065 0032 C260     		str	r2, [r0, #12]
 2066              	.LVL286:
 2067              	.L335:
1842:../../iot_link/cJSON/cJSON.c **** 
 2068              		.loc 1 1842 0
 2069 0034 10BD     		pop	{r4, pc}
 2070              	.L344:
 2071 0036 00BF     		.align	2
 2072              	.L343:
 2073 0038 00000000 		.word	.LANCHOR0
 2074              		.cfi_endproc
 2075              	.LFE120:
 2077              		.section	.text.print.constprop.14,"ax",%progbits
 2078              		.align	1
 2079              		.syntax unified
 2080              		.thumb
 2081              		.thumb_func
 2082              		.fpu fpv4-sp-d16
 2084              	print.constprop.14:
 2085              	.LFB119:
1087:../../iot_link/cJSON/cJSON.c **** {
 2086              		.loc 1 1087 0
 2087              		.cfi_startproc
 2088              		@ args = 0, pretend = 0, frame = 40
 2089              		@ frame_needed = 0, uses_anonymous_args = 0
 2090              	.LVL287:
 2091 0000 F0B5     		push	{r4, r5, r6, r7, lr}
 2092              	.LCFI13:
 2093              		.cfi_def_cfa_offset 20
 2094              		.cfi_offset 4, -20
 2095              		.cfi_offset 5, -16
 2096              		.cfi_offset 6, -12
 2097              		.cfi_offset 7, -8
 2098              		.cfi_offset 14, -4
1096:../../iot_link/cJSON/cJSON.c ****     buffer->length = default_buffer_size;
 2099              		.loc 1 1096 0
 2100 0002 244D     		ldr	r5, .L364
1087:../../iot_link/cJSON/cJSON.c **** {
 2101              		.loc 1 1087 0
 2102 0004 8BB0     		sub	sp, sp, #44
 2103              	.LCFI14:
 2104              		.cfi_def_cfa_offset 64
1087:../../iot_link/cJSON/cJSON.c **** {
 2105              		.loc 1 1087 0
ARM GAS  C:\Users\LuckyE\AppData\Local\Temp\ccgn9LZs.s 			page 76


 2106 0006 0E46     		mov	r6, r1
1093:../../iot_link/cJSON/cJSON.c **** 
 2107              		.loc 1 1093 0
 2108 0008 2422     		movs	r2, #36
 2109 000a 0021     		movs	r1, #0
 2110              	.LVL288:
1087:../../iot_link/cJSON/cJSON.c **** {
 2111              		.loc 1 1087 0
 2112 000c 0446     		mov	r4, r0
1093:../../iot_link/cJSON/cJSON.c **** 
 2113              		.loc 1 1093 0
 2114 000e 01A8     		add	r0, sp, #4
 2115              	.LVL289:
 2116 0010 FFF7FEFF 		bl	memset
 2117              	.LVL290:
1096:../../iot_link/cJSON/cJSON.c ****     buffer->length = default_buffer_size;
 2118              		.loc 1 1096 0
 2119 0014 2B68     		ldr	r3, [r5]
 2120 0016 4FF48070 		mov	r0, #256
 2121 001a 9847     		blx	r3
 2122              	.LVL291:
1097:../../iot_link/cJSON/cJSON.c ****     buffer->format = format;
 2123              		.loc 1 1097 0
 2124 001c 4FF48072 		mov	r2, #256
1096:../../iot_link/cJSON/cJSON.c ****     buffer->length = default_buffer_size;
 2125              		.loc 1 1096 0
 2126 0020 0346     		mov	r3, r0
 2127 0022 0190     		str	r0, [sp, #4]
1097:../../iot_link/cJSON/cJSON.c ****     buffer->format = format;
 2128              		.loc 1 1097 0
 2129 0024 0292     		str	r2, [sp, #8]
1099:../../iot_link/cJSON/cJSON.c ****     if (buffer->buffer == NULL)
 2130              		.loc 1 1099 0
 2131 0026 95E80700 		ldm	r5, {r0, r1, r2}
1098:../../iot_link/cJSON/cJSON.c ****     buffer->hooks = *hooks;
 2132              		.loc 1 1098 0
 2133 002a 0696     		str	r6, [sp, #24]
1099:../../iot_link/cJSON/cJSON.c ****     if (buffer->buffer == NULL)
 2134              		.loc 1 1099 0
 2135 002c 0AAE     		add	r6, sp, #40
 2136              	.LVL292:
 2137 002e 06E90700 		stmdb	r6, {r0, r1, r2}
 2138 0032 2F46     		mov	r7, r5
1100:../../iot_link/cJSON/cJSON.c ****     {
 2139              		.loc 1 1100 0
 2140 0034 7BB1     		cbz	r3, .L346
1106:../../iot_link/cJSON/cJSON.c ****     {
 2141              		.loc 1 1106 0
 2142 0036 01A9     		add	r1, sp, #4
 2143 0038 2046     		mov	r0, r4
 2144 003a FFF7FEFF 		bl	print_value
 2145              	.LVL293:
 2146 003e 50B1     		cbz	r0, .L346
1110:../../iot_link/cJSON/cJSON.c **** 
 2147              		.loc 1 1110 0
 2148 0040 01A8     		add	r0, sp, #4
 2149 0042 FFF7FEFF 		bl	update_offset
ARM GAS  C:\Users\LuckyE\AppData\Local\Temp\ccgn9LZs.s 			page 77


 2150              	.LVL294:
1113:../../iot_link/cJSON/cJSON.c ****     {
 2151              		.loc 1 1113 0
 2152 0046 AE68     		ldr	r6, [r5, #8]
 2153 0048 0399     		ldr	r1, [sp, #12]
 2154 004a 5EB1     		cbz	r6, .L347
1115:../../iot_link/cJSON/cJSON.c ****         if (printed == NULL) {
 2155              		.loc 1 1115 0
 2156 004c 0131     		adds	r1, r1, #1
 2157 004e 0198     		ldr	r0, [sp, #4]
 2158 0050 B047     		blx	r6
 2159              	.LVL295:
1116:../../iot_link/cJSON/cJSON.c ****             goto fail;
 2160              		.loc 1 1116 0
 2161 0052 0446     		mov	r4, r0
 2162              	.LVL296:
 2163 0054 D0B9     		cbnz	r0, .L345
 2164              	.LVL297:
 2165              	.L346:
 2166              	.LDL1:
1138:../../iot_link/cJSON/cJSON.c ****     {
 2167              		.loc 1 1138 0
 2168 0056 019C     		ldr	r4, [sp, #4]
 2169 0058 C4B1     		cbz	r4, .L345
1140:../../iot_link/cJSON/cJSON.c ****     }
 2170              		.loc 1 1140 0
 2171 005a 2046     		mov	r0, r4
 2172 005c 7B68     		ldr	r3, [r7, #4]
 2173 005e 9847     		blx	r3
 2174              	.LVL298:
1148:../../iot_link/cJSON/cJSON.c **** }
 2175              		.loc 1 1148 0
 2176 0060 0024     		movs	r4, #0
 2177 0062 13E0     		b	.L345
 2178              	.LVL299:
 2179              	.L347:
1123:../../iot_link/cJSON/cJSON.c ****         if (printed == NULL)
 2180              		.loc 1 1123 0
 2181 0064 2B68     		ldr	r3, [r5]
 2182 0066 481C     		adds	r0, r1, #1
 2183 0068 9847     		blx	r3
 2184              	.LVL300:
1124:../../iot_link/cJSON/cJSON.c ****         {
 2185              		.loc 1 1124 0
 2186 006a 0446     		mov	r4, r0
 2187              	.LVL301:
 2188 006c 0028     		cmp	r0, #0
 2189 006e F2D0     		beq	.L346
1128:../../iot_link/cJSON/cJSON.c ****         printed[buffer->offset] = '\0'; /* just to be sure */
 2190              		.loc 1 1128 0
 2191 0070 039A     		ldr	r2, [sp, #12]
 2192 0072 029B     		ldr	r3, [sp, #8]
 2193 0074 0199     		ldr	r1, [sp, #4]
 2194 0076 0132     		adds	r2, r2, #1
 2195 0078 9A42     		cmp	r2, r3
 2196 007a 28BF     		it	cs
 2197 007c 1A46     		movcs	r2, r3
ARM GAS  C:\Users\LuckyE\AppData\Local\Temp\ccgn9LZs.s 			page 78


 2198 007e FFF7FEFF 		bl	memcpy
 2199              	.LVL302:
1129:../../iot_link/cJSON/cJSON.c **** 
 2200              		.loc 1 1129 0
 2201 0082 039B     		ldr	r3, [sp, #12]
 2202 0084 E654     		strb	r6, [r4, r3]
1132:../../iot_link/cJSON/cJSON.c ****     }
 2203              		.loc 1 1132 0
 2204 0086 0198     		ldr	r0, [sp, #4]
 2205 0088 6B68     		ldr	r3, [r5, #4]
 2206 008a 9847     		blx	r3
 2207              	.LVL303:
 2208              	.L345:
1149:../../iot_link/cJSON/cJSON.c **** 
 2209              		.loc 1 1149 0
 2210 008c 2046     		mov	r0, r4
 2211 008e 0BB0     		add	sp, sp, #44
 2212              	.LCFI15:
 2213              		.cfi_def_cfa_offset 20
 2214              		@ sp needed
 2215 0090 F0BD     		pop	{r4, r5, r6, r7, pc}
 2216              	.L365:
 2217 0092 00BF     		.align	2
 2218              	.L364:
 2219 0094 00000000 		.word	.LANCHOR0
 2220              		.cfi_endproc
 2221              	.LFE119:
 2223              		.section	.text.cJSON_strdup.isra.2.constprop.15,"ax",%progbits
 2224              		.align	1
 2225              		.syntax unified
 2226              		.thumb
 2227              		.thumb_func
 2228              		.fpu fpv4-sp-d16
 2230              	cJSON_strdup.isra.2.constprop.15:
 2231              	.LFB118:
 149:../../iot_link/cJSON/cJSON.c **** {
 2232              		.loc 1 149 0
 2233              		.cfi_startproc
 2234              		@ args = 0, pretend = 0, frame = 0
 2235              		@ frame_needed = 0, uses_anonymous_args = 0
 2236              	.LVL304:
 2237 0000 70B5     		push	{r4, r5, r6, lr}
 2238              	.LCFI16:
 2239              		.cfi_def_cfa_offset 16
 2240              		.cfi_offset 4, -16
 2241              		.cfi_offset 5, -12
 2242              		.cfi_offset 6, -8
 2243              		.cfi_offset 14, -4
 154:../../iot_link/cJSON/cJSON.c ****     {
 2244              		.loc 1 154 0
 2245 0002 0546     		mov	r5, r0
 2246 0004 70B1     		cbz	r0, .L368
 159:../../iot_link/cJSON/cJSON.c ****     copy = (unsigned char*)hooks->allocate(length);
 2247              		.loc 1 159 0
 2248 0006 FFF7FEFF 		bl	strlen
 2249              	.LVL305:
 160:../../iot_link/cJSON/cJSON.c ****     if (copy == NULL)
ARM GAS  C:\Users\LuckyE\AppData\Local\Temp\ccgn9LZs.s 			page 79


 2250              		.loc 1 160 0
 2251 000a 074B     		ldr	r3, .L372
 159:../../iot_link/cJSON/cJSON.c ****     copy = (unsigned char*)hooks->allocate(length);
 2252              		.loc 1 159 0
 2253 000c 461C     		adds	r6, r0, #1
 2254              	.LVL306:
 160:../../iot_link/cJSON/cJSON.c ****     if (copy == NULL)
 2255              		.loc 1 160 0
 2256 000e 1B68     		ldr	r3, [r3]
 2257 0010 3046     		mov	r0, r6
 2258 0012 9847     		blx	r3
 2259              	.LVL307:
 161:../../iot_link/cJSON/cJSON.c ****     {
 2260              		.loc 1 161 0
 2261 0014 0446     		mov	r4, r0
 2262 0016 18B1     		cbz	r0, .L366
 165:../../iot_link/cJSON/cJSON.c **** 
 2263              		.loc 1 165 0
 2264 0018 3246     		mov	r2, r6
 2265 001a 2946     		mov	r1, r5
 2266 001c FFF7FEFF 		bl	memcpy
 2267              	.LVL308:
 2268              	.L366:
 168:../../iot_link/cJSON/cJSON.c **** 
 2269              		.loc 1 168 0
 2270 0020 2046     		mov	r0, r4
 2271 0022 70BD     		pop	{r4, r5, r6, pc}
 2272              	.LVL309:
 2273              	.L368:
 156:../../iot_link/cJSON/cJSON.c ****     }
 2274              		.loc 1 156 0
 2275 0024 0446     		mov	r4, r0
 2276 0026 FBE7     		b	.L366
 2277              	.L373:
 2278              		.align	2
 2279              	.L372:
 2280 0028 00000000 		.word	.LANCHOR0
 2281              		.cfi_endproc
 2282              	.LFE118:
 2284              		.section	.text.add_item_to_object.constprop.11,"ax",%progbits
 2285              		.align	1
 2286              		.syntax unified
 2287              		.thumb
 2288              		.thumb_func
 2289              		.fpu fpv4-sp-d16
 2291              	add_item_to_object.constprop.11:
 2292              	.LFB122:
1872:../../iot_link/cJSON/cJSON.c **** 
1873:../../iot_link/cJSON/cJSON.c **** /* Add item to array/object. */
1874:../../iot_link/cJSON/cJSON.c **** CJSON_PUBLIC(void) cJSON_AddItemToArray(cJSON *array, cJSON *item)
1875:../../iot_link/cJSON/cJSON.c **** {
1876:../../iot_link/cJSON/cJSON.c ****     add_item_to_array(array, item);
1877:../../iot_link/cJSON/cJSON.c **** }
1878:../../iot_link/cJSON/cJSON.c **** 
1879:../../iot_link/cJSON/cJSON.c **** #if defined(__clang__) || (defined(__GNUC__)  && ((__GNUC__ > 4) || ((__GNUC__ == 4) && (__GNUC_MIN
1880:../../iot_link/cJSON/cJSON.c ****     #pragma GCC diagnostic push
1881:../../iot_link/cJSON/cJSON.c **** #endif
ARM GAS  C:\Users\LuckyE\AppData\Local\Temp\ccgn9LZs.s 			page 80


1882:../../iot_link/cJSON/cJSON.c **** #ifdef __GNUC__
1883:../../iot_link/cJSON/cJSON.c **** #pragma GCC diagnostic ignored "-Wcast-qual"
1884:../../iot_link/cJSON/cJSON.c **** #endif
1885:../../iot_link/cJSON/cJSON.c **** /* helper function to cast away const */
1886:../../iot_link/cJSON/cJSON.c **** static void* cast_away_const(const void* string)
1887:../../iot_link/cJSON/cJSON.c **** {
1888:../../iot_link/cJSON/cJSON.c ****     return (void*)string;
1889:../../iot_link/cJSON/cJSON.c **** }
1890:../../iot_link/cJSON/cJSON.c **** #if defined(__clang__) || (defined(__GNUC__)  && ((__GNUC__ > 4) || ((__GNUC__ == 4) && (__GNUC_MIN
1891:../../iot_link/cJSON/cJSON.c ****     #pragma GCC diagnostic pop
1892:../../iot_link/cJSON/cJSON.c **** #endif
1893:../../iot_link/cJSON/cJSON.c **** 
1894:../../iot_link/cJSON/cJSON.c **** 
1895:../../iot_link/cJSON/cJSON.c **** static cJSON_bool add_item_to_object(cJSON * const object, const char * const string, cJSON * const
 2293              		.loc 1 1895 0
 2294              		.cfi_startproc
 2295              		@ args = 0, pretend = 0, frame = 0
 2296              		@ frame_needed = 0, uses_anonymous_args = 0
 2297              	.LVL310:
 2298 0000 F8B5     		push	{r3, r4, r5, r6, r7, lr}
 2299              	.LCFI17:
 2300              		.cfi_def_cfa_offset 24
 2301              		.cfi_offset 3, -24
 2302              		.cfi_offset 4, -20
 2303              		.cfi_offset 5, -16
 2304              		.cfi_offset 6, -12
 2305              		.cfi_offset 7, -8
 2306              		.cfi_offset 14, -4
 2307              		.loc 1 1895 0
 2308 0002 0E46     		mov	r6, r1
 2309 0004 1446     		mov	r4, r2
1896:../../iot_link/cJSON/cJSON.c **** {
1897:../../iot_link/cJSON/cJSON.c ****     char *new_key = NULL;
1898:../../iot_link/cJSON/cJSON.c ****     int new_type = cJSON_Invalid;
1899:../../iot_link/cJSON/cJSON.c **** 
1900:../../iot_link/cJSON/cJSON.c ****     if ((object == NULL) || (string == NULL) || (item == NULL))
 2310              		.loc 1 1900 0
 2311 0006 0746     		mov	r7, r0
 2312 0008 F0B1     		cbz	r0, .L376
 2313 000a E9B1     		cbz	r1, .L376
 2314 000c E2B1     		cbz	r2, .L376
 2315              	.LVL311:
 2316              	.LBB127:
 2317              	.LBB128:
1901:../../iot_link/cJSON/cJSON.c ****     {
1902:../../iot_link/cJSON/cJSON.c ****         return false;
1903:../../iot_link/cJSON/cJSON.c ****     }
1904:../../iot_link/cJSON/cJSON.c **** 
1905:../../iot_link/cJSON/cJSON.c ****     if (constant_key)
 2318              		.loc 1 1905 0
 2319 000e 93B1     		cbz	r3, .L378
1906:../../iot_link/cJSON/cJSON.c ****     {
1907:../../iot_link/cJSON/cJSON.c ****         new_key = (char*)cast_away_const(string);
1908:../../iot_link/cJSON/cJSON.c ****         new_type = item->type | cJSON_StringIsConst;
 2320              		.loc 1 1908 0
 2321 0010 D568     		ldr	r5, [r2, #12]
 2322 0012 45F40075 		orr	r5, r5, #512
ARM GAS  C:\Users\LuckyE\AppData\Local\Temp\ccgn9LZs.s 			page 81


 2323              	.LVL312:
 2324              	.L379:
1909:../../iot_link/cJSON/cJSON.c ****     }
1910:../../iot_link/cJSON/cJSON.c ****     else
1911:../../iot_link/cJSON/cJSON.c ****     {
1912:../../iot_link/cJSON/cJSON.c ****         new_key = (char*)cJSON_strdup((const unsigned char*)string, hooks);
1913:../../iot_link/cJSON/cJSON.c ****         if (new_key == NULL)
1914:../../iot_link/cJSON/cJSON.c ****         {
1915:../../iot_link/cJSON/cJSON.c ****             return false;
1916:../../iot_link/cJSON/cJSON.c ****         }
1917:../../iot_link/cJSON/cJSON.c **** 
1918:../../iot_link/cJSON/cJSON.c ****         new_type = item->type & ~cJSON_StringIsConst;
1919:../../iot_link/cJSON/cJSON.c ****     }
1920:../../iot_link/cJSON/cJSON.c **** 
1921:../../iot_link/cJSON/cJSON.c ****     if (!(item->type & cJSON_StringIsConst) && (item->string != NULL))
 2325              		.loc 1 1921 0
 2326 0016 E368     		ldr	r3, [r4, #12]
 2327 0018 9B05     		lsls	r3, r3, #22
 2328 001a 04D4     		bmi	.L380
 2329 001c 206A     		ldr	r0, [r4, #32]
 2330 001e 10B1     		cbz	r0, .L380
1922:../../iot_link/cJSON/cJSON.c ****     {
1923:../../iot_link/cJSON/cJSON.c ****         hooks->deallocate(item->string);
 2331              		.loc 1 1923 0
 2332 0020 0A4B     		ldr	r3, .L393
 2333 0022 5B68     		ldr	r3, [r3, #4]
 2334 0024 9847     		blx	r3
 2335              	.LVL313:
 2336              	.L380:
1924:../../iot_link/cJSON/cJSON.c ****     }
1925:../../iot_link/cJSON/cJSON.c **** 
1926:../../iot_link/cJSON/cJSON.c ****     item->string = new_key;
 2337              		.loc 1 1926 0
 2338 0026 2662     		str	r6, [r4, #32]
1927:../../iot_link/cJSON/cJSON.c ****     item->type = new_type;
 2339              		.loc 1 1927 0
 2340 0028 E560     		str	r5, [r4, #12]
1928:../../iot_link/cJSON/cJSON.c **** 
1929:../../iot_link/cJSON/cJSON.c ****     return add_item_to_array(object, item);
 2341              		.loc 1 1929 0
 2342 002a 2146     		mov	r1, r4
 2343 002c 3846     		mov	r0, r7
 2344              	.LBE128:
 2345              	.LBE127:
1930:../../iot_link/cJSON/cJSON.c **** }
 2346              		.loc 1 1930 0
 2347 002e BDE8F840 		pop	{r3, r4, r5, r6, r7, lr}
 2348              	.LCFI18:
 2349              		.cfi_remember_state
 2350              		.cfi_restore 14
 2351              		.cfi_restore 7
 2352              		.cfi_restore 6
 2353              		.cfi_restore 5
 2354              		.cfi_restore 4
 2355              		.cfi_restore 3
 2356              		.cfi_def_cfa_offset 0
 2357              	.LVL314:
ARM GAS  C:\Users\LuckyE\AppData\Local\Temp\ccgn9LZs.s 			page 82


 2358              	.LBB130:
 2359              	.LBB129:
1929:../../iot_link/cJSON/cJSON.c **** }
 2360              		.loc 1 1929 0
 2361 0032 FFF7FEBF 		b	add_item_to_array
 2362              	.LVL315:
 2363              	.L378:
 2364              	.LCFI19:
 2365              		.cfi_restore_state
1912:../../iot_link/cJSON/cJSON.c ****         if (new_key == NULL)
 2366              		.loc 1 1912 0
 2367 0036 0846     		mov	r0, r1
 2368              	.LVL316:
 2369 0038 FFF7FEFF 		bl	cJSON_strdup.isra.2.constprop.15
 2370              	.LVL317:
1913:../../iot_link/cJSON/cJSON.c ****         {
 2371              		.loc 1 1913 0
 2372 003c 0646     		mov	r6, r0
 2373              	.LVL318:
 2374 003e 18B1     		cbz	r0, .L376
1918:../../iot_link/cJSON/cJSON.c ****     }
 2375              		.loc 1 1918 0
 2376 0040 E568     		ldr	r5, [r4, #12]
 2377 0042 25F40075 		bic	r5, r5, #512
 2378              	.LVL319:
 2379 0046 E6E7     		b	.L379
 2380              	.LVL320:
 2381              	.L376:
 2382              	.LBE129:
 2383              	.LBE130:
 2384              		.loc 1 1930 0
 2385 0048 0020     		movs	r0, #0
 2386 004a F8BD     		pop	{r3, r4, r5, r6, r7, pc}
 2387              	.LVL321:
 2388              	.L394:
 2389              		.align	2
 2390              	.L393:
 2391 004c 00000000 		.word	.LANCHOR0
 2392              		.cfi_endproc
 2393              	.LFE122:
 2395              		.section	.text.cJSON_GetErrorPtr,"ax",%progbits
 2396              		.align	1
 2397              		.global	cJSON_GetErrorPtr
 2398              		.syntax unified
 2399              		.thumb
 2400              		.thumb_func
 2401              		.fpu fpv4-sp-d16
 2403              	cJSON_GetErrorPtr:
 2404              	.LFB3:
  71:../../iot_link/cJSON/cJSON.c ****     return (const char*) (global_error.json + global_error.position);
 2405              		.loc 1 71 0
 2406              		.cfi_startproc
 2407              		@ args = 0, pretend = 0, frame = 0
 2408              		@ frame_needed = 0, uses_anonymous_args = 0
 2409              		@ link register save eliminated.
  72:../../iot_link/cJSON/cJSON.c **** }
 2410              		.loc 1 72 0
ARM GAS  C:\Users\LuckyE\AppData\Local\Temp\ccgn9LZs.s 			page 83


 2411 0000 024B     		ldr	r3, .L396
 2412 0002 D3E90003 		ldrd	r0, r3, [r3]
  73:../../iot_link/cJSON/cJSON.c **** 
 2413              		.loc 1 73 0
 2414 0006 1844     		add	r0, r0, r3
 2415 0008 7047     		bx	lr
 2416              	.L397:
 2417 000a 00BF     		.align	2
 2418              	.L396:
 2419 000c 00000000 		.word	.LANCHOR1
 2420              		.cfi_endproc
 2421              	.LFE3:
 2423              		.section	.text.cJSON_Version,"ax",%progbits
 2424              		.align	1
 2425              		.global	cJSON_Version
 2426              		.syntax unified
 2427              		.thumb
 2428              		.thumb_func
 2429              		.fpu fpv4-sp-d16
 2431              	cJSON_Version:
 2432              	.LFB5:
  89:../../iot_link/cJSON/cJSON.c ****     static char version[15];
 2433              		.loc 1 89 0
 2434              		.cfi_startproc
 2435              		@ args = 0, pretend = 0, frame = 0
 2436              		@ frame_needed = 0, uses_anonymous_args = 0
 2437 0000 13B5     		push	{r0, r1, r4, lr}
 2438              	.LCFI20:
 2439              		.cfi_def_cfa_offset 16
 2440              		.cfi_offset 4, -8
 2441              		.cfi_offset 14, -4
  91:../../iot_link/cJSON/cJSON.c **** 
 2442              		.loc 1 91 0
 2443 0002 064C     		ldr	r4, .L399
 2444 0004 0649     		ldr	r1, .L399+4
 2445 0006 0823     		movs	r3, #8
 2446 0008 0093     		str	r3, [sp]
 2447 000a 0122     		movs	r2, #1
 2448 000c 0723     		movs	r3, #7
 2449 000e 2046     		mov	r0, r4
 2450 0010 FFF7FEFF 		bl	sprintf
 2451              	.LVL322:
  94:../../iot_link/cJSON/cJSON.c **** 
 2452              		.loc 1 94 0
 2453 0014 2046     		mov	r0, r4
 2454 0016 02B0     		add	sp, sp, #8
 2455              	.LCFI21:
 2456              		.cfi_def_cfa_offset 8
 2457              		@ sp needed
 2458 0018 10BD     		pop	{r4, pc}
 2459              	.L400:
 2460 001a 00BF     		.align	2
 2461              	.L399:
 2462 001c 00000000 		.word	.LANCHOR2
 2463 0020 00000000 		.word	.LC8
 2464              		.cfi_endproc
 2465              	.LFE5:
ARM GAS  C:\Users\LuckyE\AppData\Local\Temp\ccgn9LZs.s 			page 84


 2467              		.section	.text.cJSON_InitHooks,"ax",%progbits
 2468              		.align	1
 2469              		.global	cJSON_InitHooks
 2470              		.syntax unified
 2471              		.thumb
 2472              		.thumb_func
 2473              		.fpu fpv4-sp-d16
 2475              	cJSON_InitHooks:
 2476              	.LFB8:
 171:../../iot_link/cJSON/cJSON.c ****     if (hooks == NULL)
 2477              		.loc 1 171 0
 2478              		.cfi_startproc
 2479              		@ args = 0, pretend = 0, frame = 0
 2480              		@ frame_needed = 0, uses_anonymous_args = 0
 2481              	.LVL323:
 2482 0000 0C4B     		ldr	r3, .L413
 2483 0002 0D49     		ldr	r1, .L413+4
 2484 0004 0D4A     		ldr	r2, .L413+8
 2485 0006 10B5     		push	{r4, lr}
 2486              	.LCFI22:
 2487              		.cfi_def_cfa_offset 8
 2488              		.cfi_offset 4, -8
 2489              		.cfi_offset 14, -4
 175:../../iot_link/cJSON/cJSON.c ****         global_hooks.deallocate = free;
 2490              		.loc 1 175 0
 2491 0008 1960     		str	r1, [r3]
 172:../../iot_link/cJSON/cJSON.c ****     {
 2492              		.loc 1 172 0
 2493 000a 18B9     		cbnz	r0, .L402
 176:../../iot_link/cJSON/cJSON.c ****         global_hooks.reallocate = realloc;
 2494              		.loc 1 176 0
 2495 000c 5A60     		str	r2, [r3, #4]
 2496              	.LVL324:
 2497              	.L412:
 197:../../iot_link/cJSON/cJSON.c ****     }
 2498              		.loc 1 197 0
 2499 000e 0C4A     		ldr	r2, .L413+12
 2500 0010 9A60     		str	r2, [r3, #8]
 2501 0012 0EE0     		b	.L401
 2502              	.LVL325:
 2503              	.L402:
 182:../../iot_link/cJSON/cJSON.c ****     {
 2504              		.loc 1 182 0
 2505 0014 0468     		ldr	r4, [r0]
 2506 0016 04B1     		cbz	r4, .L404
 184:../../iot_link/cJSON/cJSON.c ****     }
 2507              		.loc 1 184 0
 2508 0018 1C60     		str	r4, [r3]
 2509              	.L404:
 188:../../iot_link/cJSON/cJSON.c ****     {
 2510              		.loc 1 188 0
 2511 001a 4068     		ldr	r0, [r0, #4]
 2512              	.LVL326:
 187:../../iot_link/cJSON/cJSON.c ****     if (hooks->free_fn != NULL)
 2513              		.loc 1 187 0
 2514 001c 5A60     		str	r2, [r3, #4]
 188:../../iot_link/cJSON/cJSON.c ****     {
ARM GAS  C:\Users\LuckyE\AppData\Local\Temp\ccgn9LZs.s 			page 85


 2515              		.loc 1 188 0
 2516 001e 00B1     		cbz	r0, .L405
 190:../../iot_link/cJSON/cJSON.c ****     }
 2517              		.loc 1 190 0
 2518 0020 5860     		str	r0, [r3, #4]
 2519              	.L405:
 194:../../iot_link/cJSON/cJSON.c ****     if ((global_hooks.allocate == malloc) && (global_hooks.deallocate == free))
 2520              		.loc 1 194 0
 2521 0022 0020     		movs	r0, #0
 2522 0024 9860     		str	r0, [r3, #8]
 195:../../iot_link/cJSON/cJSON.c ****     {
 2523              		.loc 1 195 0
 2524 0026 1868     		ldr	r0, [r3]
 2525 0028 8842     		cmp	r0, r1
 2526 002a 02D1     		bne	.L401
 195:../../iot_link/cJSON/cJSON.c ****     {
 2527              		.loc 1 195 0 is_stmt 0 discriminator 1
 2528 002c 5968     		ldr	r1, [r3, #4]
 2529 002e 9142     		cmp	r1, r2
 2530 0030 EDD0     		beq	.L412
 2531              	.L401:
 199:../../iot_link/cJSON/cJSON.c **** 
 2532              		.loc 1 199 0 is_stmt 1
 2533 0032 10BD     		pop	{r4, pc}
 2534              	.L414:
 2535              		.align	2
 2536              	.L413:
 2537 0034 00000000 		.word	.LANCHOR0
 2538 0038 00000000 		.word	malloc
 2539 003c 00000000 		.word	free
 2540 0040 00000000 		.word	realloc
 2541              		.cfi_endproc
 2542              	.LFE8:
 2544              		.section	.text.cJSON_Delete,"ax",%progbits
 2545              		.align	1
 2546              		.global	cJSON_Delete
 2547              		.syntax unified
 2548              		.thumb
 2549              		.thumb_func
 2550              		.fpu fpv4-sp-d16
 2552              	cJSON_Delete:
 2553              	.LFB10:
 215:../../iot_link/cJSON/cJSON.c ****     cJSON *next = NULL;
 2554              		.loc 1 215 0
 2555              		.cfi_startproc
 2556              		@ args = 0, pretend = 0, frame = 0
 2557              		@ frame_needed = 0, uses_anonymous_args = 0
 2558              	.LVL327:
 2559 0000 70B5     		push	{r4, r5, r6, lr}
 2560              	.LCFI23:
 2561              		.cfi_def_cfa_offset 16
 2562              		.cfi_offset 4, -16
 2563              		.cfi_offset 5, -12
 2564              		.cfi_offset 6, -8
 2565              		.cfi_offset 14, -4
 2566 0002 0F4D     		ldr	r5, .L430
 215:../../iot_link/cJSON/cJSON.c ****     cJSON *next = NULL;
ARM GAS  C:\Users\LuckyE\AppData\Local\Temp\ccgn9LZs.s 			page 86


 2567              		.loc 1 215 0
 2568 0004 0446     		mov	r4, r0
 2569              	.LVL328:
 2570              	.L416:
 217:../../iot_link/cJSON/cJSON.c ****     {
 2571              		.loc 1 217 0
 2572 0006 04B9     		cbnz	r4, .L420
 235:../../iot_link/cJSON/cJSON.c **** 
 2573              		.loc 1 235 0
 2574 0008 70BD     		pop	{r4, r5, r6, pc}
 2575              	.LVL329:
 2576              	.L420:
 220:../../iot_link/cJSON/cJSON.c ****         {
 2577              		.loc 1 220 0
 2578 000a E368     		ldr	r3, [r4, #12]
 219:../../iot_link/cJSON/cJSON.c ****         if (!(item->type & cJSON_IsReference) && (item->child != NULL))
 2579              		.loc 1 219 0
 2580 000c 2668     		ldr	r6, [r4]
 2581              	.LVL330:
 220:../../iot_link/cJSON/cJSON.c ****         {
 2582              		.loc 1 220 0
 2583 000e D905     		lsls	r1, r3, #23
 2584 0010 03D4     		bmi	.L417
 220:../../iot_link/cJSON/cJSON.c ****         {
 2585              		.loc 1 220 0 is_stmt 0 discriminator 1
 2586 0012 A068     		ldr	r0, [r4, #8]
 2587 0014 08B1     		cbz	r0, .L417
 222:../../iot_link/cJSON/cJSON.c ****         }
 2588              		.loc 1 222 0 is_stmt 1
 2589 0016 FFF7FEFF 		bl	cJSON_Delete
 2590              	.LVL331:
 2591              	.L417:
 224:../../iot_link/cJSON/cJSON.c ****         {
 2592              		.loc 1 224 0
 2593 001a E368     		ldr	r3, [r4, #12]
 2594 001c DA05     		lsls	r2, r3, #23
 2595 001e 03D4     		bmi	.L418
 224:../../iot_link/cJSON/cJSON.c ****         {
 2596              		.loc 1 224 0 is_stmt 0 discriminator 1
 2597 0020 2069     		ldr	r0, [r4, #16]
 2598 0022 08B1     		cbz	r0, .L418
 226:../../iot_link/cJSON/cJSON.c ****         }
 2599              		.loc 1 226 0 is_stmt 1
 2600 0024 6B68     		ldr	r3, [r5, #4]
 2601 0026 9847     		blx	r3
 2602              	.LVL332:
 2603              	.L418:
 228:../../iot_link/cJSON/cJSON.c ****         {
 2604              		.loc 1 228 0
 2605 0028 E368     		ldr	r3, [r4, #12]
 2606 002a 9B05     		lsls	r3, r3, #22
 2607 002c 03D4     		bmi	.L419
 228:../../iot_link/cJSON/cJSON.c ****         {
 2608              		.loc 1 228 0 is_stmt 0 discriminator 1
 2609 002e 206A     		ldr	r0, [r4, #32]
 2610 0030 08B1     		cbz	r0, .L419
 230:../../iot_link/cJSON/cJSON.c ****         }
ARM GAS  C:\Users\LuckyE\AppData\Local\Temp\ccgn9LZs.s 			page 87


 2611              		.loc 1 230 0 is_stmt 1
 2612 0032 6B68     		ldr	r3, [r5, #4]
 2613 0034 9847     		blx	r3
 2614              	.LVL333:
 2615              	.L419:
 232:../../iot_link/cJSON/cJSON.c ****         item = next;
 2616              		.loc 1 232 0
 2617 0036 2046     		mov	r0, r4
 2618 0038 6B68     		ldr	r3, [r5, #4]
 2619 003a 9847     		blx	r3
 2620              	.LVL334:
 233:../../iot_link/cJSON/cJSON.c ****     }
 2621              		.loc 1 233 0
 2622 003c 3446     		mov	r4, r6
 2623 003e E2E7     		b	.L416
 2624              	.L431:
 2625              		.align	2
 2626              	.L430:
 2627 0040 00000000 		.word	.LANCHOR0
 2628              		.cfi_endproc
 2629              	.LFE10:
 2631              		.global	__aeabi_dcmpge
 2632              		.global	__aeabi_dcmple
 2633              		.global	__aeabi_d2iz
 2634              		.section	.text.parse_value,"ax",%progbits
 2635              		.align	1
 2636              		.syntax unified
 2637              		.thumb
 2638              		.thumb_func
 2639              		.fpu fpv4-sp-d16
 2641              	parse_value:
 2642              	.LFB31:
1213:../../iot_link/cJSON/cJSON.c ****     if ((input_buffer == NULL) || (input_buffer->content == NULL))
 2643              		.loc 1 1213 0
 2644              		.cfi_startproc
 2645              		@ args = 0, pretend = 0, frame = 72
 2646              		@ frame_needed = 0, uses_anonymous_args = 0
 2647              	.LVL335:
 2648 0000 2DE9F047 		push	{r4, r5, r6, r7, r8, r9, r10, lr}
 2649              	.LCFI24:
 2650              		.cfi_def_cfa_offset 32
 2651              		.cfi_offset 4, -32
 2652              		.cfi_offset 5, -28
 2653              		.cfi_offset 6, -24
 2654              		.cfi_offset 7, -20
 2655              		.cfi_offset 8, -16
 2656              		.cfi_offset 9, -12
 2657              		.cfi_offset 10, -8
 2658              		.cfi_offset 14, -4
 2659 0004 0646     		mov	r6, r0
 2660 0006 92B0     		sub	sp, sp, #72
 2661              	.LCFI25:
 2662              		.cfi_def_cfa_offset 104
1214:../../iot_link/cJSON/cJSON.c ****     {
 2663              		.loc 1 1214 0
 2664 0008 0C46     		mov	r4, r1
 2665 000a 09B9     		cbnz	r1, .L433
ARM GAS  C:\Users\LuckyE\AppData\Local\Temp\ccgn9LZs.s 			page 88


 2666              	.LVL336:
 2667              	.L525:
 2668              	.LBB139:
 2669              	.LBB140:
1602:../../iot_link/cJSON/cJSON.c **** }
 2670              		.loc 1 1602 0
 2671 000c 0020     		movs	r0, #0
 2672 000e 23E0     		b	.L432
 2673              	.LVL337:
 2674              	.L433:
 2675              	.LBE140:
 2676              	.LBE139:
1214:../../iot_link/cJSON/cJSON.c ****     {
 2677              		.loc 1 1214 0 discriminator 1
 2678 0010 0F68     		ldr	r7, [r1]
 2679 0012 002F     		cmp	r7, #0
 2680 0014 FAD0     		beq	.L525
1221:../../iot_link/cJSON/cJSON.c ****     {
 2681              		.loc 1 1221 0 discriminator 1
 2682 0016 8D68     		ldr	r5, [r1, #8]
 2683 0018 D1F80480 		ldr	r8, [r1, #4]
 2684 001c 05F10409 		add	r9, r5, #4
 2685 0020 C145     		cmp	r9, r8
 2686 0022 0BD8     		bhi	.L436
1221:../../iot_link/cJSON/cJSON.c ****     {
 2687              		.loc 1 1221 0 is_stmt 0 discriminator 2
 2688 0024 0422     		movs	r2, #4
 2689 0026 AC49     		ldr	r1, .L529+8
 2690              	.LVL338:
 2691 0028 7819     		adds	r0, r7, r5
 2692              	.LVL339:
 2693 002a FFF7FEFF 		bl	strncmp
 2694              	.LVL340:
 2695 002e 28B9     		cbnz	r0, .L436
1223:../../iot_link/cJSON/cJSON.c ****         input_buffer->offset += 4;
 2696              		.loc 1 1223 0 is_stmt 1
 2697 0030 0423     		movs	r3, #4
 2698 0032 F360     		str	r3, [r6, #12]
1224:../../iot_link/cJSON/cJSON.c ****         return true;
 2699              		.loc 1 1224 0
 2700 0034 C4F80890 		str	r9, [r4, #8]
 2701              	.L528:
 2702              	.LBB147:
 2703              	.LBB143:
1594:../../iot_link/cJSON/cJSON.c **** 
 2704              		.loc 1 1594 0
 2705 0038 0120     		movs	r0, #1
 2706 003a 0DE0     		b	.L432
 2707              	.L436:
 2708              	.LBE143:
 2709              	.LBE147:
1228:../../iot_link/cJSON/cJSON.c ****     {
 2710              		.loc 1 1228 0 discriminator 1
 2711 003c 05F1050A 		add	r10, r5, #5
 2712 0040 D045     		cmp	r8, r10
 2713 0042 0CD3     		bcc	.L437
1228:../../iot_link/cJSON/cJSON.c ****     {
ARM GAS  C:\Users\LuckyE\AppData\Local\Temp\ccgn9LZs.s 			page 89


 2714              		.loc 1 1228 0 is_stmt 0 discriminator 2
 2715 0044 0522     		movs	r2, #5
 2716 0046 A549     		ldr	r1, .L529+12
 2717 0048 7819     		adds	r0, r7, r5
 2718 004a FFF7FEFF 		bl	strncmp
 2719              	.LVL341:
 2720 004e 30B9     		cbnz	r0, .L437
1230:../../iot_link/cJSON/cJSON.c ****         input_buffer->offset += 5;
 2721              		.loc 1 1230 0 is_stmt 1
 2722 0050 0120     		movs	r0, #1
 2723 0052 F060     		str	r0, [r6, #12]
1231:../../iot_link/cJSON/cJSON.c ****         return true;
 2724              		.loc 1 1231 0
 2725 0054 C4F808A0 		str	r10, [r4, #8]
 2726              	.L432:
1264:../../iot_link/cJSON/cJSON.c **** 
 2727              		.loc 1 1264 0
 2728 0058 12B0     		add	sp, sp, #72
 2729              	.LCFI26:
 2730              		.cfi_remember_state
 2731              		.cfi_def_cfa_offset 32
 2732              		@ sp needed
 2733 005a BDE8F087 		pop	{r4, r5, r6, r7, r8, r9, r10, pc}
 2734              	.LVL342:
 2735              	.L437:
 2736              	.LCFI27:
 2737              		.cfi_restore_state
1235:../../iot_link/cJSON/cJSON.c ****     {
 2738              		.loc 1 1235 0 discriminator 1
 2739 005e C145     		cmp	r9, r8
 2740 0060 0CD8     		bhi	.L438
1235:../../iot_link/cJSON/cJSON.c ****     {
 2741              		.loc 1 1235 0 is_stmt 0 discriminator 2
 2742 0062 0422     		movs	r2, #4
 2743 0064 9E49     		ldr	r1, .L529+16
 2744 0066 7819     		adds	r0, r7, r5
 2745 0068 FFF7FEFF 		bl	strncmp
 2746              	.LVL343:
 2747 006c 30B9     		cbnz	r0, .L438
1237:../../iot_link/cJSON/cJSON.c ****         item->valueint = 1;
 2748              		.loc 1 1237 0 is_stmt 1
 2749 006e 0223     		movs	r3, #2
1238:../../iot_link/cJSON/cJSON.c ****         input_buffer->offset += 4;
 2750              		.loc 1 1238 0
 2751 0070 0120     		movs	r0, #1
1237:../../iot_link/cJSON/cJSON.c ****         item->valueint = 1;
 2752              		.loc 1 1237 0
 2753 0072 F360     		str	r3, [r6, #12]
1238:../../iot_link/cJSON/cJSON.c ****         input_buffer->offset += 4;
 2754              		.loc 1 1238 0
 2755 0074 7061     		str	r0, [r6, #20]
1239:../../iot_link/cJSON/cJSON.c ****         return true;
 2756              		.loc 1 1239 0
 2757 0076 C4F80890 		str	r9, [r4, #8]
1240:../../iot_link/cJSON/cJSON.c ****     }
 2758              		.loc 1 1240 0
 2759 007a EDE7     		b	.L432
ARM GAS  C:\Users\LuckyE\AppData\Local\Temp\ccgn9LZs.s 			page 90


 2760              	.L438:
1243:../../iot_link/cJSON/cJSON.c ****     {
 2761              		.loc 1 1243 0 discriminator 1
 2762 007c 4545     		cmp	r5, r8
 2763 007e C5D2     		bcs	.L525
1243:../../iot_link/cJSON/cJSON.c ****     {
 2764              		.loc 1 1243 0 is_stmt 0 discriminator 2
 2765 0080 7B5D     		ldrb	r3, [r7, r5]	@ zero_extendqisi2
 2766 0082 222B     		cmp	r3, #34
 2767 0084 07EB0501 		add	r1, r7, r5
 2768 0088 04D1     		bne	.L439
1245:../../iot_link/cJSON/cJSON.c ****     }
 2769              		.loc 1 1245 0 is_stmt 1
 2770 008a 2146     		mov	r1, r4
 2771 008c 3046     		mov	r0, r6
 2772 008e FFF7FEFF 		bl	parse_string
 2773              	.LVL344:
 2774 0092 E1E7     		b	.L432
 2775              	.L439:
1248:../../iot_link/cJSON/cJSON.c ****     {
 2776              		.loc 1 1248 0 discriminator 2
 2777 0094 2D2B     		cmp	r3, #45
 2778 0096 03D0     		beq	.L440
1248:../../iot_link/cJSON/cJSON.c ****     {
 2779              		.loc 1 1248 0 is_stmt 0 discriminator 3
 2780 0098 A3F13002 		sub	r2, r3, #48
 2781 009c 092A     		cmp	r2, #9
 2782 009e 4ED8     		bhi	.L441
 2783              	.L440:
 2784              	.LVL345:
 2785              	.LBB148:
 2786              	.LBB149:
 269:../../iot_link/cJSON/cJSON.c ****     unsigned char number_c_string[64];
 2787              		.loc 1 269 0 is_stmt 1
 2788 00a0 0023     		movs	r3, #0
 2789 00a2 0193     		str	r3, [sp, #4]
 2790              	.LVL346:
 2791 00a4 A8EB0505 		sub	r5, r8, r5
 2792 00a8 02AF     		add	r7, sp, #8
 2793              	.LVL347:
 2794              	.L447:
 284:../../iot_link/cJSON/cJSON.c ****         {
 2795              		.loc 1 284 0
 2796 00aa CA5C     		ldrb	r2, [r1, r3]	@ zero_extendqisi2
 2797 00ac 392A     		cmp	r2, #57
 2798 00ae 32D8     		bhi	.L443
 2799 00b0 302A     		cmp	r2, #48
 2800 00b2 05D2     		bcs	.L445
 2801 00b4 2D2A     		cmp	r2, #45
 2802 00b6 03D0     		beq	.L445
 2803 00b8 2E2A     		cmp	r2, #46
 2804 00ba 01D0     		beq	.L445
 2805 00bc 2B2A     		cmp	r2, #43
 2806              	.L523:
 2807 00be 05D1     		bne	.L442
 2808              	.L445:
 304:../../iot_link/cJSON/cJSON.c ****                 break;
ARM GAS  C:\Users\LuckyE\AppData\Local\Temp\ccgn9LZs.s 			page 91


 2809              		.loc 1 304 0
 2810 00c0 FA54     		strb	r2, [r7, r3]
 282:../../iot_link/cJSON/cJSON.c ****     {
 2811              		.loc 1 282 0
 2812 00c2 0133     		adds	r3, r3, #1
 2813              	.LVL348:
 2814 00c4 3F2B     		cmp	r3, #63
 2815 00c6 01D0     		beq	.L442
 2816 00c8 AB42     		cmp	r3, r5
 2817 00ca EED1     		bne	.L447
 2818              	.L442:
 312:../../iot_link/cJSON/cJSON.c **** 
 2819              		.loc 1 312 0
 2820 00cc 12AA     		add	r2, sp, #72
 2821 00ce 1344     		add	r3, r3, r2
 2822              	.LVL349:
 2823 00d0 0025     		movs	r5, #0
 314:../../iot_link/cJSON/cJSON.c ****     if (number_c_string == after_end)
 2824              		.loc 1 314 0
 2825 00d2 01A9     		add	r1, sp, #4
 2826 00d4 3846     		mov	r0, r7
 312:../../iot_link/cJSON/cJSON.c **** 
 2827              		.loc 1 312 0
 2828 00d6 03F8405C 		strb	r5, [r3, #-64]
 314:../../iot_link/cJSON/cJSON.c ****     if (number_c_string == after_end)
 2829              		.loc 1 314 0
 2830 00da FFF7FEFF 		bl	strtod
 2831              	.LVL350:
 315:../../iot_link/cJSON/cJSON.c ****     {
 2832              		.loc 1 315 0
 2833 00de DDF804A0 		ldr	r10, [sp, #4]
 2834 00e2 BA45     		cmp	r10, r7
 314:../../iot_link/cJSON/cJSON.c ****     if (number_c_string == after_end)
 2835              		.loc 1 314 0
 2836 00e4 59EC108B 		vmov	r8, r9, d0
 2837              	.LVL351:
 315:../../iot_link/cJSON/cJSON.c ****     {
 2838              		.loc 1 315 0
 2839 00e8 90D0     		beq	.L525
 320:../../iot_link/cJSON/cJSON.c **** 
 2840              		.loc 1 320 0
 2841 00ea 86ED060B 		vstr.64	d0, [r6, #24]
 323:../../iot_link/cJSON/cJSON.c ****     {
 2842              		.loc 1 323 0
 2843 00ee 78A3     		adr	r3, .L529
 2844 00f0 D3E90023 		ldrd	r2, [r3]
 2845 00f4 10EE100A 		vmov	r0, s0	@ int
 2846 00f8 4946     		mov	r1, r9
 2847 00fa FFF7FEFF 		bl	__aeabi_dcmpge
 2848              	.LVL352:
 2849 00fe 70B1     		cbz	r0, .L518
 325:../../iot_link/cJSON/cJSON.c ****     }
 2850              		.loc 1 325 0
 2851 0100 6FF00043 		mvn	r3, #-2147483648
 2852              	.L524:
 329:../../iot_link/cJSON/cJSON.c ****     }
 2853              		.loc 1 329 0
ARM GAS  C:\Users\LuckyE\AppData\Local\Temp\ccgn9LZs.s 			page 92


 2854 0104 7361     		str	r3, [r6, #20]
 2855              	.L451:
 336:../../iot_link/cJSON/cJSON.c **** 
 2856              		.loc 1 336 0
 2857 0106 0823     		movs	r3, #8
 2858 0108 F360     		str	r3, [r6, #12]
 338:../../iot_link/cJSON/cJSON.c ****     return true;
 2859              		.loc 1 338 0
 2860 010a A368     		ldr	r3, [r4, #8]
 2861 010c AAEB0707 		sub	r7, r10, r7
 2862 0110 1F44     		add	r7, r7, r3
 2863 0112 A760     		str	r7, [r4, #8]
 2864 0114 90E7     		b	.L528
 2865              	.LVL353:
 2866              	.L443:
 284:../../iot_link/cJSON/cJSON.c ****         {
 2867              		.loc 1 284 0
 2868 0116 452A     		cmp	r2, #69
 2869 0118 D2D0     		beq	.L445
 2870 011a 652A     		cmp	r2, #101
 2871 011c CFE7     		b	.L523
 2872              	.LVL354:
 2873              	.L518:
 327:../../iot_link/cJSON/cJSON.c ****     {
 2874              		.loc 1 327 0
 2875 011e 0022     		movs	r2, #0
 2876 0120 704B     		ldr	r3, .L529+20
 2877 0122 4046     		mov	r0, r8
 2878 0124 4946     		mov	r1, r9
 2879 0126 FFF7FEFF 		bl	__aeabi_dcmple
 2880              	.LVL355:
 2881 012a 10B1     		cbz	r0, .L519
 329:../../iot_link/cJSON/cJSON.c ****     }
 2882              		.loc 1 329 0
 2883 012c 4FF00043 		mov	r3, #-2147483648
 2884 0130 E8E7     		b	.L524
 2885              	.L519:
 333:../../iot_link/cJSON/cJSON.c ****     }
 2886              		.loc 1 333 0
 2887 0132 4046     		mov	r0, r8
 2888 0134 4946     		mov	r1, r9
 2889 0136 FFF7FEFF 		bl	__aeabi_d2iz
 2890              	.LVL356:
 2891 013a 7061     		str	r0, [r6, #20]
 2892 013c E3E7     		b	.L451
 2893              	.LVL357:
 2894              	.L441:
 2895              	.LBE149:
 2896              	.LBE148:
1253:../../iot_link/cJSON/cJSON.c ****     {
 2897              		.loc 1 1253 0 discriminator 2
 2898 013e 5B2B     		cmp	r3, #91
 2899 0140 53D1     		bne	.L454
 2900              	.LVL358:
 2901              	.LBB150:
 2902              	.LBB151:
1346:../../iot_link/cJSON/cJSON.c ****     {
ARM GAS  C:\Users\LuckyE\AppData\Local\Temp\ccgn9LZs.s 			page 93


 2903              		.loc 1 1346 0
 2904 0142 E368     		ldr	r3, [r4, #12]
 2905 0144 092B     		cmp	r3, #9
 2906 0146 3FF661AF 		bhi	.L525
1350:../../iot_link/cJSON/cJSON.c **** 
 2907              		.loc 1 1350 0
 2908 014a 0133     		adds	r3, r3, #1
 2909 014c E360     		str	r3, [r4, #12]
1352:../../iot_link/cJSON/cJSON.c ****     {
 2910              		.loc 1 1352 0
 2911 014e 7B5D     		ldrb	r3, [r7, r5]	@ zero_extendqisi2
 2912 0150 5B2B     		cmp	r3, #91
 2913 0152 7FF45BAF 		bne	.L525
1358:../../iot_link/cJSON/cJSON.c ****     buffer_skip_whitespace(input_buffer);
 2914              		.loc 1 1358 0
 2915 0156 0135     		adds	r5, r5, #1
 2916 0158 A560     		str	r5, [r4, #8]
1359:../../iot_link/cJSON/cJSON.c ****     if (can_access_at_index(input_buffer, 0) && (buffer_at_offset(input_buffer)[0] == ']'))
 2917              		.loc 1 1359 0
 2918 015a 2046     		mov	r0, r4
 2919 015c FFF7FEFF 		bl	buffer_skip_whitespace
 2920              	.LVL359:
1360:../../iot_link/cJSON/cJSON.c ****     {
 2921              		.loc 1 1360 0
 2922 0160 D4E90123 		ldrd	r2, r3, [r4, #4]
 2923 0164 9342     		cmp	r3, r2
 2924 0166 5CD2     		bcs	.L462
 2925 0168 2268     		ldr	r2, [r4]
 2926 016a D25C     		ldrb	r2, [r2, r3]	@ zero_extendqisi2
 2927 016c 5D2A     		cmp	r2, #93
 2928 016e 01D1     		bne	.L520
1343:../../iot_link/cJSON/cJSON.c ****     cJSON *current_item = NULL;
 2929              		.loc 1 1343 0
 2930 0170 0025     		movs	r5, #0
 2931 0172 27E0     		b	.L456
 2932              	.L520:
1374:../../iot_link/cJSON/cJSON.c ****     /* loop through the comma separated array elements */
 2933              		.loc 1 1374 0
 2934 0174 013B     		subs	r3, r3, #1
1344:../../iot_link/cJSON/cJSON.c **** 
 2935              		.loc 1 1344 0
 2936 0176 4FF00008 		mov	r8, #0
1374:../../iot_link/cJSON/cJSON.c ****     /* loop through the comma separated array elements */
 2937              		.loc 1 1374 0
 2938 017a A360     		str	r3, [r4, #8]
1343:../../iot_link/cJSON/cJSON.c ****     cJSON *current_item = NULL;
 2939              		.loc 1 1343 0
 2940 017c 4546     		mov	r5, r8
 2941              	.LVL360:
 2942              	.L461:
 2943              	.LBB152:
1379:../../iot_link/cJSON/cJSON.c ****         if (new_item == NULL)
 2944              		.loc 1 1379 0
 2945 017e 2069     		ldr	r0, [r4, #16]
 2946 0180 FFF7FEFF 		bl	cJSON_New_Item.isra.1
 2947              	.LVL361:
1380:../../iot_link/cJSON/cJSON.c ****         {
ARM GAS  C:\Users\LuckyE\AppData\Local\Temp\ccgn9LZs.s 			page 94


 2948              		.loc 1 1380 0
 2949 0184 0746     		mov	r7, r0
 2950 0186 48B3     		cbz	r0, .L458
1386:../../iot_link/cJSON/cJSON.c ****         {
 2951              		.loc 1 1386 0
 2952 0188 35B3     		cbz	r5, .L471
1394:../../iot_link/cJSON/cJSON.c ****             new_item->prev = current_item;
 2953              		.loc 1 1394 0
 2954 018a C8F80000 		str	r0, [r8]
1395:../../iot_link/cJSON/cJSON.c ****             current_item = new_item;
 2955              		.loc 1 1395 0
 2956 018e C0F80480 		str	r8, [r0, #4]
 2957              	.LVL362:
 2958              	.L459:
1400:../../iot_link/cJSON/cJSON.c ****         buffer_skip_whitespace(input_buffer);
 2959              		.loc 1 1400 0
 2960 0192 A368     		ldr	r3, [r4, #8]
 2961 0194 0133     		adds	r3, r3, #1
 2962 0196 A360     		str	r3, [r4, #8]
1401:../../iot_link/cJSON/cJSON.c ****         if (!parse_value(current_item, input_buffer))
 2963              		.loc 1 1401 0
 2964 0198 2046     		mov	r0, r4
 2965              	.LVL363:
 2966 019a FFF7FEFF 		bl	buffer_skip_whitespace
 2967              	.LVL364:
1402:../../iot_link/cJSON/cJSON.c ****         {
 2968              		.loc 1 1402 0
 2969 019e 2146     		mov	r1, r4
 2970 01a0 3846     		mov	r0, r7
 2971 01a2 FFF72DFF 		bl	parse_value
 2972              	.LVL365:
 2973 01a6 E0B1     		cbz	r0, .L460
1406:../../iot_link/cJSON/cJSON.c ****     }
 2974              		.loc 1 1406 0
 2975 01a8 2046     		mov	r0, r4
 2976 01aa FFF7FEFF 		bl	buffer_skip_whitespace
 2977              	.LVL366:
 2978              	.LBE152:
1408:../../iot_link/cJSON/cJSON.c **** 
 2979              		.loc 1 1408 0
 2980 01ae D4E90123 		ldrd	r2, r3, [r4, #4]
 2981 01b2 9342     		cmp	r3, r2
 2982 01b4 15D2     		bcs	.L460
 2983 01b6 2268     		ldr	r2, [r4]
 2984 01b8 D35C     		ldrb	r3, [r2, r3]	@ zero_extendqisi2
 2985 01ba 2C2B     		cmp	r3, #44
 2986 01bc B846     		mov	r8, r7
 2987 01be DED0     		beq	.L461
1410:../../iot_link/cJSON/cJSON.c ****     {
 2988              		.loc 1 1410 0
 2989 01c0 5D2B     		cmp	r3, #93
 2990 01c2 0ED1     		bne	.L460
 2991              	.LVL367:
 2992              	.L456:
1416:../../iot_link/cJSON/cJSON.c **** 
 2993              		.loc 1 1416 0
 2994 01c4 E368     		ldr	r3, [r4, #12]
ARM GAS  C:\Users\LuckyE\AppData\Local\Temp\ccgn9LZs.s 			page 95


 2995 01c6 013B     		subs	r3, r3, #1
 2996 01c8 E360     		str	r3, [r4, #12]
1418:../../iot_link/cJSON/cJSON.c ****     item->child = head;
 2997              		.loc 1 1418 0
 2998 01ca 2023     		movs	r3, #32
1419:../../iot_link/cJSON/cJSON.c **** 
 2999              		.loc 1 1419 0
 3000 01cc C6E90253 		strd	r5, r3, [r6, #8]
 3001              	.LVL368:
 3002              	.L527:
 3003              	.LBE151:
 3004              	.LBE150:
 3005              	.LBB155:
 3006              	.LBB144:
1593:../../iot_link/cJSON/cJSON.c ****     return true;
 3007              		.loc 1 1593 0
 3008 01d0 A368     		ldr	r3, [r4, #8]
 3009 01d2 0133     		adds	r3, r3, #1
 3010 01d4 A360     		str	r3, [r4, #8]
 3011 01d6 2FE7     		b	.L528
 3012              	.LVL369:
 3013              	.L471:
 3014              	.LBE144:
 3015              	.LBE155:
 3016              	.LBB156:
 3017              	.LBB154:
 3018              	.LBB153:
1386:../../iot_link/cJSON/cJSON.c ****         {
 3019              		.loc 1 1386 0
 3020 01d8 0546     		mov	r5, r0
 3021              	.LVL370:
 3022 01da DAE7     		b	.L459
 3023              	.LVL371:
 3024              	.L458:
 3025              	.LBE153:
1426:../../iot_link/cJSON/cJSON.c ****     {
 3026              		.loc 1 1426 0
 3027 01dc 002D     		cmp	r5, #0
 3028 01de 3FF415AF 		beq	.L525
 3029              	.LVL372:
 3030              	.L460:
1428:../../iot_link/cJSON/cJSON.c ****     }
 3031              		.loc 1 1428 0
 3032 01e2 2846     		mov	r0, r5
 3033              	.LVL373:
 3034              	.L526:
 3035              	.LBE154:
 3036              	.LBE156:
 3037              	.LBB157:
 3038              	.LBB145:
1599:../../iot_link/cJSON/cJSON.c ****     }
 3039              		.loc 1 1599 0
 3040 01e4 FFF7FEFF 		bl	cJSON_Delete
 3041              	.LVL374:
 3042 01e8 10E7     		b	.L525
 3043              	.L454:
 3044              	.LBE145:
ARM GAS  C:\Users\LuckyE\AppData\Local\Temp\ccgn9LZs.s 			page 96


 3045              	.LBE157:
1258:../../iot_link/cJSON/cJSON.c ****     {
 3046              		.loc 1 1258 0 discriminator 2
 3047 01ea 7B2B     		cmp	r3, #123
 3048 01ec 7FF40EAF 		bne	.L525
 3049              	.LVL375:
 3050              	.LBB158:
 3051              	.LBB146:
1502:../../iot_link/cJSON/cJSON.c ****     {
 3052              		.loc 1 1502 0
 3053 01f0 E368     		ldr	r3, [r4, #12]
 3054 01f2 092B     		cmp	r3, #9
 3055 01f4 3FF60AAF 		bhi	.L525
1506:../../iot_link/cJSON/cJSON.c **** 
 3056              		.loc 1 1506 0
 3057 01f8 0133     		adds	r3, r3, #1
 3058 01fa E360     		str	r3, [r4, #12]
1508:../../iot_link/cJSON/cJSON.c ****     {
 3059              		.loc 1 1508 0
 3060 01fc 7B5D     		ldrb	r3, [r7, r5]	@ zero_extendqisi2
 3061 01fe 7B2B     		cmp	r3, #123
 3062 0200 7FF404AF 		bne	.L525
1513:../../iot_link/cJSON/cJSON.c ****     buffer_skip_whitespace(input_buffer);
 3063              		.loc 1 1513 0
 3064 0204 0135     		adds	r5, r5, #1
 3065 0206 A560     		str	r5, [r4, #8]
1514:../../iot_link/cJSON/cJSON.c ****     if (can_access_at_index(input_buffer, 0) && (buffer_at_offset(input_buffer)[0] == '}'))
 3066              		.loc 1 1514 0
 3067 0208 2046     		mov	r0, r4
 3068 020a FFF7FEFF 		bl	buffer_skip_whitespace
 3069              	.LVL376:
1515:../../iot_link/cJSON/cJSON.c ****     {
 3070              		.loc 1 1515 0
 3071 020e D4E90123 		ldrd	r2, r3, [r4, #4]
 3072 0212 9342     		cmp	r3, r2
 3073 0214 05D2     		bcs	.L462
 3074 0216 2268     		ldr	r2, [r4]
 3075 0218 D25C     		ldrb	r2, [r2, r3]	@ zero_extendqisi2
 3076 021a 7D2A     		cmp	r2, #125
 3077 021c 04D1     		bne	.L521
1499:../../iot_link/cJSON/cJSON.c ****     cJSON *current_item = NULL;
 3078              		.loc 1 1499 0
 3079 021e 0027     		movs	r7, #0
 3080 0220 46E0     		b	.L463
 3081              	.LVL377:
 3082              	.L462:
1523:../../iot_link/cJSON/cJSON.c ****         goto fail;
 3083              		.loc 1 1523 0
 3084 0222 013B     		subs	r3, r3, #1
 3085 0224 A360     		str	r3, [r4, #8]
 3086              	.LVL378:
 3087 0226 F1E6     		b	.L525
 3088              	.LVL379:
 3089              	.L521:
1500:../../iot_link/cJSON/cJSON.c **** 
 3090              		.loc 1 1500 0
 3091 0228 4FF00008 		mov	r8, #0
ARM GAS  C:\Users\LuckyE\AppData\Local\Temp\ccgn9LZs.s 			page 97


1528:../../iot_link/cJSON/cJSON.c ****     /* loop through the comma separated array elements */
 3092              		.loc 1 1528 0
 3093 022c 013B     		subs	r3, r3, #1
 3094 022e A360     		str	r3, [r4, #8]
1499:../../iot_link/cJSON/cJSON.c ****     cJSON *current_item = NULL;
 3095              		.loc 1 1499 0
 3096 0230 4746     		mov	r7, r8
 3097              	.LBB141:
1564:../../iot_link/cJSON/cJSON.c **** 
 3098              		.loc 1 1564 0
 3099 0232 C146     		mov	r9, r8
 3100              	.LVL380:
 3101              	.L468:
1533:../../iot_link/cJSON/cJSON.c ****         if (new_item == NULL)
 3102              		.loc 1 1533 0
 3103 0234 2069     		ldr	r0, [r4, #16]
 3104 0236 FFF7FEFF 		bl	cJSON_New_Item.isra.1
 3105              	.LVL381:
1534:../../iot_link/cJSON/cJSON.c ****         {
 3106              		.loc 1 1534 0
 3107 023a 0546     		mov	r5, r0
 3108 023c 0028     		cmp	r0, #0
 3109 023e 40D0     		beq	.L465
1540:../../iot_link/cJSON/cJSON.c ****         {
 3110              		.loc 1 1540 0
 3111 0240 002F     		cmp	r7, #0
 3112 0242 3CD0     		beq	.L473
1548:../../iot_link/cJSON/cJSON.c ****             new_item->prev = current_item;
 3113              		.loc 1 1548 0
 3114 0244 C8F80000 		str	r0, [r8]
1549:../../iot_link/cJSON/cJSON.c ****             current_item = new_item;
 3115              		.loc 1 1549 0
 3116 0248 C0F80480 		str	r8, [r0, #4]
 3117              	.LVL382:
 3118              	.L466:
1554:../../iot_link/cJSON/cJSON.c ****         buffer_skip_whitespace(input_buffer);
 3119              		.loc 1 1554 0
 3120 024c A368     		ldr	r3, [r4, #8]
 3121 024e 0133     		adds	r3, r3, #1
 3122 0250 A360     		str	r3, [r4, #8]
1555:../../iot_link/cJSON/cJSON.c ****         if (!parse_string(current_item, input_buffer))
 3123              		.loc 1 1555 0
 3124 0252 2046     		mov	r0, r4
 3125              	.LVL383:
 3126 0254 FFF7FEFF 		bl	buffer_skip_whitespace
 3127              	.LVL384:
1556:../../iot_link/cJSON/cJSON.c ****         {
 3128              		.loc 1 1556 0
 3129 0258 2146     		mov	r1, r4
 3130 025a 2846     		mov	r0, r5
 3131 025c FFF7FEFF 		bl	parse_string
 3132              	.LVL385:
 3133 0260 90B3     		cbz	r0, .L467
1560:../../iot_link/cJSON/cJSON.c **** 
 3134              		.loc 1 1560 0
 3135 0262 2046     		mov	r0, r4
 3136 0264 FFF7FEFF 		bl	buffer_skip_whitespace
ARM GAS  C:\Users\LuckyE\AppData\Local\Temp\ccgn9LZs.s 			page 98


 3137              	.LVL386:
1563:../../iot_link/cJSON/cJSON.c ****         current_item->valuestring = NULL;
 3138              		.loc 1 1563 0
 3139 0268 2B69     		ldr	r3, [r5, #16]
 3140 026a 2B62     		str	r3, [r5, #32]
1566:../../iot_link/cJSON/cJSON.c ****         {
 3141              		.loc 1 1566 0
 3142 026c D4E90123 		ldrd	r2, r3, [r4, #4]
 3143 0270 9342     		cmp	r3, r2
1564:../../iot_link/cJSON/cJSON.c **** 
 3144              		.loc 1 1564 0
 3145 0272 C5F81090 		str	r9, [r5, #16]
1566:../../iot_link/cJSON/cJSON.c ****         {
 3146              		.loc 1 1566 0
 3147 0276 27D2     		bcs	.L467
 3148 0278 2268     		ldr	r2, [r4]
 3149 027a D25C     		ldrb	r2, [r2, r3]	@ zero_extendqisi2
 3150 027c 3A2A     		cmp	r2, #58
 3151 027e 23D1     		bne	.L467
1572:../../iot_link/cJSON/cJSON.c ****         buffer_skip_whitespace(input_buffer);
 3152              		.loc 1 1572 0
 3153 0280 0133     		adds	r3, r3, #1
 3154 0282 A360     		str	r3, [r4, #8]
1573:../../iot_link/cJSON/cJSON.c ****         if (!parse_value(current_item, input_buffer))
 3155              		.loc 1 1573 0
 3156 0284 2046     		mov	r0, r4
 3157 0286 FFF7FEFF 		bl	buffer_skip_whitespace
 3158              	.LVL387:
1574:../../iot_link/cJSON/cJSON.c ****         {
 3159              		.loc 1 1574 0
 3160 028a 2146     		mov	r1, r4
 3161 028c 2846     		mov	r0, r5
 3162 028e FFF7B7FE 		bl	parse_value
 3163              	.LVL388:
 3164 0292 C8B1     		cbz	r0, .L467
1578:../../iot_link/cJSON/cJSON.c ****     }
 3165              		.loc 1 1578 0
 3166 0294 2046     		mov	r0, r4
 3167 0296 FFF7FEFF 		bl	buffer_skip_whitespace
 3168              	.LVL389:
 3169              	.LBE141:
1580:../../iot_link/cJSON/cJSON.c **** 
 3170              		.loc 1 1580 0
 3171 029a D4E90123 		ldrd	r2, r3, [r4, #4]
 3172 029e 9342     		cmp	r3, r2
 3173 02a0 12D2     		bcs	.L467
 3174 02a2 2268     		ldr	r2, [r4]
 3175 02a4 D35C     		ldrb	r3, [r2, r3]	@ zero_extendqisi2
 3176 02a6 2C2B     		cmp	r3, #44
 3177 02a8 A846     		mov	r8, r5
 3178 02aa C3D0     		beq	.L468
1582:../../iot_link/cJSON/cJSON.c ****     {
 3179              		.loc 1 1582 0
 3180 02ac 7D2B     		cmp	r3, #125
 3181 02ae 0BD1     		bne	.L467
 3182              	.LVL390:
 3183              	.L463:
ARM GAS  C:\Users\LuckyE\AppData\Local\Temp\ccgn9LZs.s 			page 99


1588:../../iot_link/cJSON/cJSON.c **** 
 3184              		.loc 1 1588 0
 3185 02b0 E368     		ldr	r3, [r4, #12]
 3186 02b2 013B     		subs	r3, r3, #1
 3187 02b4 E360     		str	r3, [r4, #12]
1590:../../iot_link/cJSON/cJSON.c ****     item->child = head;
 3188              		.loc 1 1590 0
 3189 02b6 4023     		movs	r3, #64
1591:../../iot_link/cJSON/cJSON.c **** 
 3190              		.loc 1 1591 0
 3191 02b8 C6E90273 		strd	r7, r3, [r6, #8]
 3192 02bc 88E7     		b	.L527
 3193              	.LVL391:
 3194              	.L473:
 3195              	.LBB142:
1540:../../iot_link/cJSON/cJSON.c ****         {
 3196              		.loc 1 1540 0
 3197 02be 0746     		mov	r7, r0
 3198              	.LVL392:
 3199 02c0 C4E7     		b	.L466
 3200              	.LVL393:
 3201              	.L465:
 3202              	.LBE142:
1597:../../iot_link/cJSON/cJSON.c ****     {
 3203              		.loc 1 1597 0
 3204 02c2 002F     		cmp	r7, #0
 3205 02c4 3FF4A2AE 		beq	.L525
 3206              	.LVL394:
 3207              	.L467:
1599:../../iot_link/cJSON/cJSON.c ****     }
 3208              		.loc 1 1599 0
 3209 02c8 3846     		mov	r0, r7
 3210 02ca 8BE7     		b	.L526
 3211              	.L530:
 3212 02cc AFF30080 		.align	3
 3213              	.L529:
 3214 02d0 0000C0FF 		.word	-4194304
 3215 02d4 FFFFDF41 		.word	1105199103
 3216 02d8 00000000 		.word	.LC2
 3217 02dc 05000000 		.word	.LC3
 3218 02e0 0B000000 		.word	.LC4
 3219 02e4 0000E0C1 		.word	-1042284544
 3220              	.LBE146:
 3221              	.LBE158:
 3222              		.cfi_endproc
 3223              	.LFE31:
 3225              		.section	.text.cJSON_SetNumberHelper,"ax",%progbits
 3226              		.align	1
 3227              		.global	cJSON_SetNumberHelper
 3228              		.syntax unified
 3229              		.thumb
 3230              		.thumb_func
 3231              		.fpu fpv4-sp-d16
 3233              	cJSON_SetNumberHelper:
 3234              	.LFB13:
 344:../../iot_link/cJSON/cJSON.c ****     if (number >= INT_MAX)
 3235              		.loc 1 344 0
ARM GAS  C:\Users\LuckyE\AppData\Local\Temp\ccgn9LZs.s 			page 100


 3236              		.cfi_startproc
 3237              		@ args = 0, pretend = 0, frame = 0
 3238              		@ frame_needed = 0, uses_anonymous_args = 0
 3239              	.LVL395:
 3240 0000 70B5     		push	{r4, r5, r6, lr}
 3241              	.LCFI28:
 3242              		.cfi_def_cfa_offset 16
 3243              		.cfi_offset 4, -16
 3244              		.cfi_offset 5, -12
 3245              		.cfi_offset 6, -8
 3246              		.cfi_offset 14, -4
 344:../../iot_link/cJSON/cJSON.c ****     if (number >= INT_MAX)
 3247              		.loc 1 344 0
 3248 0002 55EC104B 		vmov	r4, r5, d0
 3249 0006 0646     		mov	r6, r0
 345:../../iot_link/cJSON/cJSON.c ****     {
 3250              		.loc 1 345 0
 3251 0008 12A3     		adr	r3, .L542+4
 3252 000a D3E90023 		ldrd	r2, [r3]
 3253 000e 10EE100A 		vmov	r0, s0	@ int
 3254              	.LVL396:
 3255 0012 2946     		mov	r1, r5
 3256 0014 FFF7FEFF 		bl	__aeabi_dcmpge
 3257              	.LVL397:
 3258 0018 38B1     		cbz	r0, .L539
 347:../../iot_link/cJSON/cJSON.c ****     }
 3259              		.loc 1 347 0
 3260 001a 6FF00043 		mvn	r3, #-2147483648
 3261              	.L541:
 351:../../iot_link/cJSON/cJSON.c ****     }
 3262              		.loc 1 351 0
 3263 001e 7361     		str	r3, [r6, #20]
 3264              	.L534:
 358:../../iot_link/cJSON/cJSON.c **** }
 3265              		.loc 1 358 0
 3266 0020 C6E90645 		strd	r4, [r6, #24]
 359:../../iot_link/cJSON/cJSON.c **** 
 3267              		.loc 1 359 0
 3268 0024 45EC104B 		vmov	d0, r4, r5
 3269 0028 70BD     		pop	{r4, r5, r6, pc}
 3270              	.LVL398:
 3271              	.L539:
 349:../../iot_link/cJSON/cJSON.c ****     {
 3272              		.loc 1 349 0
 3273 002a 0022     		movs	r2, #0
 3274 002c 084B     		ldr	r3, .L542
 3275 002e 2046     		mov	r0, r4
 3276 0030 2946     		mov	r1, r5
 3277 0032 FFF7FEFF 		bl	__aeabi_dcmple
 3278              	.LVL399:
 3279 0036 10B1     		cbz	r0, .L540
 351:../../iot_link/cJSON/cJSON.c ****     }
 3280              		.loc 1 351 0
 3281 0038 4FF00043 		mov	r3, #-2147483648
 3282 003c EFE7     		b	.L541
 3283              	.L540:
 355:../../iot_link/cJSON/cJSON.c ****     }
ARM GAS  C:\Users\LuckyE\AppData\Local\Temp\ccgn9LZs.s 			page 101


 3284              		.loc 1 355 0
 3285 003e 2046     		mov	r0, r4
 3286 0040 2946     		mov	r1, r5
 3287 0042 FFF7FEFF 		bl	__aeabi_d2iz
 3288              	.LVL400:
 3289 0046 7061     		str	r0, [r6, #20]
 3290 0048 EAE7     		b	.L534
 3291              	.L543:
 3292 004a 00BFAFF3 		.align	3
 3292      0080
 3293              	.L542:
 3294 0050 0000E0C1 		.word	-1042284544
 3295 0054 0000C0FF 		.word	-4194304
 3296 0058 FFFFDF41 		.word	1105199103
 3297              		.cfi_endproc
 3298              	.LFE13:
 3300              		.section	.text.cJSON_ParseWithOpts,"ax",%progbits
 3301              		.align	1
 3302              		.global	cJSON_ParseWithOpts
 3303              		.syntax unified
 3304              		.thumb
 3305              		.thumb_func
 3306              		.fpu fpv4-sp-d16
 3308              	cJSON_ParseWithOpts:
 3309              	.LFB24:
1001:../../iot_link/cJSON/cJSON.c ****     parse_buffer buffer = { 0, 0, 0, 0, { 0, 0, 0 } };
 3310              		.loc 1 1001 0
 3311              		.cfi_startproc
 3312              		@ args = 0, pretend = 0, frame = 32
 3313              		@ frame_needed = 0, uses_anonymous_args = 0
 3314              	.LVL401:
 3315 0000 2DE9F043 		push	{r4, r5, r6, r7, r8, r9, lr}
 3316              	.LCFI29:
 3317              		.cfi_def_cfa_offset 28
 3318              		.cfi_offset 4, -28
 3319              		.cfi_offset 5, -24
 3320              		.cfi_offset 6, -20
 3321              		.cfi_offset 7, -16
 3322              		.cfi_offset 8, -12
 3323              		.cfi_offset 9, -8
 3324              		.cfi_offset 14, -4
1006:../../iot_link/cJSON/cJSON.c ****     global_error.position = 0;
 3325              		.loc 1 1006 0
 3326 0004 334F     		ldr	r7, .L572
1001:../../iot_link/cJSON/cJSON.c ****     parse_buffer buffer = { 0, 0, 0, 0, { 0, 0, 0 } };
 3327              		.loc 1 1001 0
 3328 0006 89B0     		sub	sp, sp, #36
 3329              	.LCFI30:
 3330              		.cfi_def_cfa_offset 64
1001:../../iot_link/cJSON/cJSON.c ****     parse_buffer buffer = { 0, 0, 0, 0, { 0, 0, 0 } };
 3331              		.loc 1 1001 0
 3332 0008 0646     		mov	r6, r0
 3333 000a 8846     		mov	r8, r1
 3334 000c 9146     		mov	r9, r2
1002:../../iot_link/cJSON/cJSON.c ****     cJSON *item = NULL;
 3335              		.loc 1 1002 0
 3336 000e 0021     		movs	r1, #0
ARM GAS  C:\Users\LuckyE\AppData\Local\Temp\ccgn9LZs.s 			page 102


 3337              	.LVL402:
 3338 0010 1C22     		movs	r2, #28
 3339              	.LVL403:
 3340 0012 01A8     		add	r0, sp, #4
 3341              	.LVL404:
1006:../../iot_link/cJSON/cJSON.c ****     global_error.position = 0;
 3342              		.loc 1 1006 0
 3343 0014 0024     		movs	r4, #0
1002:../../iot_link/cJSON/cJSON.c ****     cJSON *item = NULL;
 3344              		.loc 1 1002 0
 3345 0016 FFF7FEFF 		bl	memset
 3346              	.LVL405:
1007:../../iot_link/cJSON/cJSON.c **** 
 3347              		.loc 1 1007 0
 3348 001a C7E90044 		strd	r4, r4, [r7]
1009:../../iot_link/cJSON/cJSON.c ****     {
 3349              		.loc 1 1009 0
 3350 001e 002E     		cmp	r6, #0
 3351 0020 4DD0     		beq	.L571
1015:../../iot_link/cJSON/cJSON.c ****     buffer.offset = 0;
 3352              		.loc 1 1015 0
 3353 0022 3046     		mov	r0, r6
1014:../../iot_link/cJSON/cJSON.c ****     buffer.length = strlen((const char*)value) + sizeof("");
 3354              		.loc 1 1014 0
 3355 0024 0196     		str	r6, [sp, #4]
1015:../../iot_link/cJSON/cJSON.c ****     buffer.offset = 0;
 3356              		.loc 1 1015 0
 3357 0026 FFF7FEFF 		bl	strlen
 3358              	.LVL406:
1017:../../iot_link/cJSON/cJSON.c **** 
 3359              		.loc 1 1017 0
 3360 002a 2B4B     		ldr	r3, .L572+4
1015:../../iot_link/cJSON/cJSON.c ****     buffer.offset = 0;
 3361              		.loc 1 1015 0
 3362 002c 0130     		adds	r0, r0, #1
 3363 002e 0290     		str	r0, [sp, #8]
1017:../../iot_link/cJSON/cJSON.c **** 
 3364              		.loc 1 1017 0
 3365 0030 93E80700 		ldm	r3, {r0, r1, r2}
 3366 0034 08AB     		add	r3, sp, #32
 3367 0036 03E90700 		stmdb	r3, {r0, r1, r2}
1019:../../iot_link/cJSON/cJSON.c ****     if (item == NULL) /* memory fail */
 3368              		.loc 1 1019 0
 3369 003a FFF7FEFF 		bl	cJSON_New_Item.isra.1
 3370              	.LVL407:
1020:../../iot_link/cJSON/cJSON.c ****     {
 3371              		.loc 1 1020 0
 3372 003e 0546     		mov	r5, r0
 3373 0040 78B3     		cbz	r0, .L546
 3374              	.LVL408:
 3375              	.LBB162:
 3376              	.LBB163:
 986:../../iot_link/cJSON/cJSON.c ****     {
 3377              		.loc 1 986 0
 3378 0042 0198     		ldr	r0, [sp, #4]
 3379              	.LVL409:
 3380 0044 70B1     		cbz	r0, .L547
ARM GAS  C:\Users\LuckyE\AppData\Local\Temp\ccgn9LZs.s 			page 103


 3381 0046 039B     		ldr	r3, [sp, #12]
 3382 0048 5BB9     		cbnz	r3, .L557
 991:../../iot_link/cJSON/cJSON.c ****     {
 3383              		.loc 1 991 0
 3384 004a 029B     		ldr	r3, [sp, #8]
 3385 004c 042B     		cmp	r3, #4
 3386 004e 06D9     		bls	.L559
 3387 0050 0322     		movs	r2, #3
 3388 0052 2249     		ldr	r1, .L572+8
 3389 0054 FFF7FEFF 		bl	strncmp
 3390              	.LVL410:
 3391 0058 08B9     		cbnz	r0, .L559
 993:../../iot_link/cJSON/cJSON.c ****     }
 3392              		.loc 1 993 0
 3393 005a 0323     		movs	r3, #3
 3394 005c 0393     		str	r3, [sp, #12]
 3395              	.L559:
 996:../../iot_link/cJSON/cJSON.c **** }
 3396              		.loc 1 996 0
 3397 005e 01A8     		add	r0, sp, #4
 3398              	.LVL411:
 3399 0060 00E0     		b	.L547
 3400              	.LVL412:
 3401              	.L557:
 988:../../iot_link/cJSON/cJSON.c ****     }
 3402              		.loc 1 988 0
 3403 0062 2046     		mov	r0, r4
 3404              	.L547:
 3405              	.LVL413:
 3406              	.LBE163:
 3407              	.LBE162:
1025:../../iot_link/cJSON/cJSON.c ****     {
 3408              		.loc 1 1025 0
 3409 0064 FFF7FEFF 		bl	buffer_skip_whitespace
 3410              	.LVL414:
 3411 0068 0146     		mov	r1, r0
 3412 006a 2846     		mov	r0, r5
 3413 006c FFF7FEFF 		bl	parse_value
 3414              	.LVL415:
 3415 0070 A0B1     		cbz	r0, .L548
1032:../../iot_link/cJSON/cJSON.c ****     {
 3416              		.loc 1 1032 0
 3417 0072 B9F1000F 		cmp	r9, #0
 3418 0076 06D1     		bne	.L549
 3419              	.L551:
1040:../../iot_link/cJSON/cJSON.c ****     {
 3420              		.loc 1 1040 0
 3421 0078 B8F1000F 		cmp	r8, #0
 3422 007c 21D1     		bne	.L550
 3423              	.LVL416:
 3424              	.L544:
1077:../../iot_link/cJSON/cJSON.c **** 
 3425              		.loc 1 1077 0
 3426 007e 2846     		mov	r0, r5
 3427 0080 09B0     		add	sp, sp, #36
 3428              	.LCFI31:
 3429              		.cfi_remember_state
ARM GAS  C:\Users\LuckyE\AppData\Local\Temp\ccgn9LZs.s 			page 104


 3430              		.cfi_def_cfa_offset 28
 3431              		@ sp needed
 3432 0082 BDE8F083 		pop	{r4, r5, r6, r7, r8, r9, pc}
 3433              	.LVL417:
 3434              	.L549:
 3435              	.LCFI32:
 3436              		.cfi_restore_state
1034:../../iot_link/cJSON/cJSON.c ****         if ((buffer.offset >= buffer.length) || buffer_at_offset(&buffer)[0] != '\0')
 3437              		.loc 1 1034 0
 3438 0086 01A8     		add	r0, sp, #4
 3439 0088 FFF7FEFF 		bl	buffer_skip_whitespace
 3440              	.LVL418:
1035:../../iot_link/cJSON/cJSON.c ****         {
 3441              		.loc 1 1035 0
 3442 008c DDE90223 		ldrd	r2, r3, [sp, #8]
 3443 0090 9342     		cmp	r3, r2
 3444 0092 03D2     		bcs	.L548
1035:../../iot_link/cJSON/cJSON.c ****         {
 3445              		.loc 1 1035 0 is_stmt 0 discriminator 1
 3446 0094 019A     		ldr	r2, [sp, #4]
 3447 0096 D35C     		ldrb	r3, [r2, r3]	@ zero_extendqisi2
 3448 0098 002B     		cmp	r3, #0
 3449 009a EDD0     		beq	.L551
 3450              	.L548:
1050:../../iot_link/cJSON/cJSON.c ****     }
 3451              		.loc 1 1050 0 is_stmt 1
 3452 009c 2846     		mov	r0, r5
 3453 009e FFF7FEFF 		bl	cJSON_Delete
 3454              	.LVL419:
 3455              	.L546:
 3456              	.LBB164:
1059:../../iot_link/cJSON/cJSON.c ****         {
 3457              		.loc 1 1059 0
 3458 00a2 DDE90223 		ldrd	r2, r3, [sp, #8]
 3459 00a6 9342     		cmp	r3, r2
 3460 00a8 01D3     		bcc	.L552
1063:../../iot_link/cJSON/cJSON.c ****         {
 3461              		.loc 1 1063 0
 3462 00aa 82B1     		cbz	r2, .L560
1065:../../iot_link/cJSON/cJSON.c ****         }
 3463              		.loc 1 1065 0
 3464 00ac 531E     		subs	r3, r2, #1
 3465              	.LVL420:
 3466              	.L552:
1068:../../iot_link/cJSON/cJSON.c ****         {
 3467              		.loc 1 1068 0
 3468 00ae B8F1000F 		cmp	r8, #0
 3469 00b2 02D0     		beq	.L553
1070:../../iot_link/cJSON/cJSON.c ****         }
 3470              		.loc 1 1070 0
 3471 00b4 F218     		adds	r2, r6, r3
 3472 00b6 C8F80020 		str	r2, [r8]
 3473              	.L553:
1073:../../iot_link/cJSON/cJSON.c ****     }
 3474              		.loc 1 1073 0
 3475 00ba C7E90063 		strd	r6, r3, [r7]
 3476              	.LVL421:
ARM GAS  C:\Users\LuckyE\AppData\Local\Temp\ccgn9LZs.s 			page 105


 3477              	.L571:
 3478              	.LBE164:
1076:../../iot_link/cJSON/cJSON.c **** }
 3479              		.loc 1 1076 0
 3480 00be 0025     		movs	r5, #0
 3481 00c0 DDE7     		b	.L544
 3482              	.LVL422:
 3483              	.L550:
1042:../../iot_link/cJSON/cJSON.c ****     }
 3484              		.loc 1 1042 0
 3485 00c2 019B     		ldr	r3, [sp, #4]
 3486 00c4 039A     		ldr	r2, [sp, #12]
 3487 00c6 1344     		add	r3, r3, r2
 3488 00c8 C8F80030 		str	r3, [r8]
 3489 00cc D7E7     		b	.L544
 3490              	.LVL423:
 3491              	.L560:
 3492              	.LBB165:
1057:../../iot_link/cJSON/cJSON.c **** 
 3493              		.loc 1 1057 0
 3494 00ce 1346     		mov	r3, r2
 3495 00d0 EDE7     		b	.L552
 3496              	.L573:
 3497 00d2 00BF     		.align	2
 3498              	.L572:
 3499 00d4 00000000 		.word	.LANCHOR1
 3500 00d8 00000000 		.word	.LANCHOR0
 3501 00dc 00000000 		.word	.LC9
 3502              	.LBE165:
 3503              		.cfi_endproc
 3504              	.LFE24:
 3506              		.section	.text.cJSON_Parse,"ax",%progbits
 3507              		.align	1
 3508              		.global	cJSON_Parse
 3509              		.syntax unified
 3510              		.thumb
 3511              		.thumb_func
 3512              		.fpu fpv4-sp-d16
 3514              	cJSON_Parse:
 3515              	.LFB25:
1081:../../iot_link/cJSON/cJSON.c ****     return cJSON_ParseWithOpts(value, 0, 0);
 3516              		.loc 1 1081 0
 3517              		.cfi_startproc
 3518              		@ args = 0, pretend = 0, frame = 0
 3519              		@ frame_needed = 0, uses_anonymous_args = 0
 3520              		@ link register save eliminated.
 3521              	.LVL424:
1082:../../iot_link/cJSON/cJSON.c **** }
 3522              		.loc 1 1082 0
 3523 0000 0022     		movs	r2, #0
 3524 0002 1146     		mov	r1, r2
 3525 0004 FFF7FEBF 		b	cJSON_ParseWithOpts
 3526              	.LVL425:
 3527              		.cfi_endproc
 3528              	.LFE25:
 3530              		.section	.text.cJSON_Print,"ax",%progbits
 3531              		.align	1
ARM GAS  C:\Users\LuckyE\AppData\Local\Temp\ccgn9LZs.s 			page 106


 3532              		.global	cJSON_Print
 3533              		.syntax unified
 3534              		.thumb
 3535              		.thumb_func
 3536              		.fpu fpv4-sp-d16
 3538              	cJSON_Print:
 3539              	.LFB27:
1153:../../iot_link/cJSON/cJSON.c ****     return (char*)print(item, true, &global_hooks);
 3540              		.loc 1 1153 0
 3541              		.cfi_startproc
 3542              		@ args = 0, pretend = 0, frame = 0
 3543              		@ frame_needed = 0, uses_anonymous_args = 0
 3544              		@ link register save eliminated.
 3545              	.LVL426:
1154:../../iot_link/cJSON/cJSON.c **** }
 3546              		.loc 1 1154 0
 3547 0000 0121     		movs	r1, #1
 3548 0002 FFF7FEBF 		b	print.constprop.14
 3549              	.LVL427:
 3550              		.cfi_endproc
 3551              	.LFE27:
 3553              		.section	.text.cJSON_PrintUnformatted,"ax",%progbits
 3554              		.align	1
 3555              		.global	cJSON_PrintUnformatted
 3556              		.syntax unified
 3557              		.thumb
 3558              		.thumb_func
 3559              		.fpu fpv4-sp-d16
 3561              	cJSON_PrintUnformatted:
 3562              	.LFB28:
1158:../../iot_link/cJSON/cJSON.c ****     return (char*)print(item, false, &global_hooks);
 3563              		.loc 1 1158 0
 3564              		.cfi_startproc
 3565              		@ args = 0, pretend = 0, frame = 0
 3566              		@ frame_needed = 0, uses_anonymous_args = 0
 3567              		@ link register save eliminated.
 3568              	.LVL428:
1159:../../iot_link/cJSON/cJSON.c **** }
 3569              		.loc 1 1159 0
 3570 0000 0021     		movs	r1, #0
 3571 0002 FFF7FEBF 		b	print.constprop.14
 3572              	.LVL429:
 3573              		.cfi_endproc
 3574              	.LFE28:
 3576              		.section	.text.cJSON_PrintBuffered,"ax",%progbits
 3577              		.align	1
 3578              		.global	cJSON_PrintBuffered
 3579              		.syntax unified
 3580              		.thumb
 3581              		.thumb_func
 3582              		.fpu fpv4-sp-d16
 3584              	cJSON_PrintBuffered:
 3585              	.LFB29:
1163:../../iot_link/cJSON/cJSON.c ****     printbuffer p = { 0, 0, 0, 0, 0, 0, { 0, 0, 0 } };
 3586              		.loc 1 1163 0
 3587              		.cfi_startproc
 3588              		@ args = 0, pretend = 0, frame = 40
ARM GAS  C:\Users\LuckyE\AppData\Local\Temp\ccgn9LZs.s 			page 107


 3589              		@ frame_needed = 0, uses_anonymous_args = 0
 3590              	.LVL430:
 3591 0000 F0B5     		push	{r4, r5, r6, r7, lr}
 3592              	.LCFI33:
 3593              		.cfi_def_cfa_offset 20
 3594              		.cfi_offset 4, -20
 3595              		.cfi_offset 5, -16
 3596              		.cfi_offset 6, -12
 3597              		.cfi_offset 7, -8
 3598              		.cfi_offset 14, -4
 3599 0002 8BB0     		sub	sp, sp, #44
 3600              	.LCFI34:
 3601              		.cfi_def_cfa_offset 64
1163:../../iot_link/cJSON/cJSON.c ****     printbuffer p = { 0, 0, 0, 0, 0, 0, { 0, 0, 0 } };
 3602              		.loc 1 1163 0
 3603 0004 0C46     		mov	r4, r1
 3604 0006 0646     		mov	r6, r0
 3605 0008 1746     		mov	r7, r2
1164:../../iot_link/cJSON/cJSON.c **** 
 3606              		.loc 1 1164 0
 3607 000a 0021     		movs	r1, #0
 3608              	.LVL431:
 3609 000c 2422     		movs	r2, #36
 3610              	.LVL432:
 3611 000e 01A8     		add	r0, sp, #4
 3612              	.LVL433:
 3613 0010 FFF7FEFF 		bl	memset
 3614              	.LVL434:
1166:../../iot_link/cJSON/cJSON.c ****     {
 3615              		.loc 1 1166 0
 3616 0014 002C     		cmp	r4, #0
 3617 0016 02DA     		bge	.L578
 3618              	.L580:
1168:../../iot_link/cJSON/cJSON.c ****     }
 3619              		.loc 1 1168 0
 3620 0018 0020     		movs	r0, #0
 3621              	.L577:
1190:../../iot_link/cJSON/cJSON.c **** 
 3622              		.loc 1 1190 0
 3623 001a 0BB0     		add	sp, sp, #44
 3624              	.LCFI35:
 3625              		.cfi_remember_state
 3626              		.cfi_def_cfa_offset 20
 3627              		@ sp needed
 3628 001c F0BD     		pop	{r4, r5, r6, r7, pc}
 3629              	.LVL435:
 3630              	.L578:
 3631              	.LCFI36:
 3632              		.cfi_restore_state
1171:../../iot_link/cJSON/cJSON.c ****     if (!p.buffer)
 3633              		.loc 1 1171 0
 3634 001e 0E4D     		ldr	r5, .L585
 3635 0020 2046     		mov	r0, r4
 3636 0022 2B68     		ldr	r3, [r5]
 3637 0024 9847     		blx	r3
 3638              	.LVL436:
 3639 0026 0190     		str	r0, [sp, #4]
ARM GAS  C:\Users\LuckyE\AppData\Local\Temp\ccgn9LZs.s 			page 108


1172:../../iot_link/cJSON/cJSON.c ****     {
 3640              		.loc 1 1172 0
 3641 0028 0028     		cmp	r0, #0
 3642 002a F5D0     		beq	.L580
1181:../../iot_link/cJSON/cJSON.c **** 
 3643              		.loc 1 1181 0
 3644 002c 95E80700 		ldm	r5, {r0, r1, r2}
1178:../../iot_link/cJSON/cJSON.c ****     p.noalloc = false;
 3645              		.loc 1 1178 0
 3646 0030 0023     		movs	r3, #0
 3647 0032 0393     		str	r3, [sp, #12]
1180:../../iot_link/cJSON/cJSON.c ****     p.hooks = global_hooks;
 3648              		.loc 1 1180 0
 3649 0034 CDE90537 		strd	r3, r7, [sp, #20]
1181:../../iot_link/cJSON/cJSON.c **** 
 3650              		.loc 1 1181 0
 3651 0038 0AAB     		add	r3, sp, #40
 3652 003a 03E90700 		stmdb	r3, {r0, r1, r2}
1183:../../iot_link/cJSON/cJSON.c ****     {
 3653              		.loc 1 1183 0
 3654 003e 01A9     		add	r1, sp, #4
 3655 0040 3046     		mov	r0, r6
1177:../../iot_link/cJSON/cJSON.c ****     p.offset = 0;
 3656              		.loc 1 1177 0
 3657 0042 0294     		str	r4, [sp, #8]
1183:../../iot_link/cJSON/cJSON.c ****     {
 3658              		.loc 1 1183 0
 3659 0044 FFF7FEFF 		bl	print_value
 3660              	.LVL437:
 3661 0048 18B9     		cbnz	r0, .L581
1185:../../iot_link/cJSON/cJSON.c ****         return NULL;
 3662              		.loc 1 1185 0
 3663 004a 6B68     		ldr	r3, [r5, #4]
 3664 004c 0198     		ldr	r0, [sp, #4]
 3665 004e 9847     		blx	r3
 3666              	.LVL438:
 3667 0050 E2E7     		b	.L580
 3668              	.L581:
1189:../../iot_link/cJSON/cJSON.c **** }
 3669              		.loc 1 1189 0
 3670 0052 0198     		ldr	r0, [sp, #4]
 3671 0054 E1E7     		b	.L577
 3672              	.L586:
 3673 0056 00BF     		.align	2
 3674              	.L585:
 3675 0058 00000000 		.word	.LANCHOR0
 3676              		.cfi_endproc
 3677              	.LFE29:
 3679              		.section	.text.cJSON_PrintPreallocated,"ax",%progbits
 3680              		.align	1
 3681              		.global	cJSON_PrintPreallocated
 3682              		.syntax unified
 3683              		.thumb
 3684              		.thumb_func
 3685              		.fpu fpv4-sp-d16
 3687              	cJSON_PrintPreallocated:
 3688              	.LFB30:
ARM GAS  C:\Users\LuckyE\AppData\Local\Temp\ccgn9LZs.s 			page 109


1193:../../iot_link/cJSON/cJSON.c ****     printbuffer p = { 0, 0, 0, 0, 0, 0, { 0, 0, 0 } };
 3689              		.loc 1 1193 0
 3690              		.cfi_startproc
 3691              		@ args = 0, pretend = 0, frame = 40
 3692              		@ frame_needed = 0, uses_anonymous_args = 0
 3693              	.LVL439:
 3694 0000 F0B5     		push	{r4, r5, r6, r7, lr}
 3695              	.LCFI37:
 3696              		.cfi_def_cfa_offset 20
 3697              		.cfi_offset 4, -20
 3698              		.cfi_offset 5, -16
 3699              		.cfi_offset 6, -12
 3700              		.cfi_offset 7, -8
 3701              		.cfi_offset 14, -4
 3702 0002 8BB0     		sub	sp, sp, #44
 3703              	.LCFI38:
 3704              		.cfi_def_cfa_offset 64
1193:../../iot_link/cJSON/cJSON.c ****     printbuffer p = { 0, 0, 0, 0, 0, 0, { 0, 0, 0 } };
 3705              		.loc 1 1193 0
 3706 0004 1546     		mov	r5, r2
 3707 0006 0646     		mov	r6, r0
 3708 0008 0C46     		mov	r4, r1
1194:../../iot_link/cJSON/cJSON.c **** 
 3709              		.loc 1 1194 0
 3710 000a 2422     		movs	r2, #36
 3711              	.LVL440:
 3712 000c 0021     		movs	r1, #0
 3713              	.LVL441:
 3714 000e 01A8     		add	r0, sp, #4
 3715              	.LVL442:
1193:../../iot_link/cJSON/cJSON.c ****     printbuffer p = { 0, 0, 0, 0, 0, 0, { 0, 0, 0 } };
 3716              		.loc 1 1193 0
 3717 0010 1F46     		mov	r7, r3
1194:../../iot_link/cJSON/cJSON.c **** 
 3718              		.loc 1 1194 0
 3719 0012 FFF7FEFF 		bl	memset
 3720              	.LVL443:
1196:../../iot_link/cJSON/cJSON.c ****     {
 3721              		.loc 1 1196 0
 3722 0016 002D     		cmp	r5, #0
 3723 0018 11DB     		blt	.L589
1196:../../iot_link/cJSON/cJSON.c ****     {
 3724              		.loc 1 1196 0 is_stmt 0 discriminator 1
 3725 001a 94B1     		cbz	r4, .L590
1204:../../iot_link/cJSON/cJSON.c ****     p.format = fmt;
 3726              		.loc 1 1204 0 is_stmt 1
 3727 001c 0123     		movs	r3, #1
1205:../../iot_link/cJSON/cJSON.c ****     p.hooks = global_hooks;
 3728              		.loc 1 1205 0
 3729 001e CDE90537 		strd	r3, r7, [sp, #20]
1206:../../iot_link/cJSON/cJSON.c **** 
 3730              		.loc 1 1206 0
 3731 0022 094B     		ldr	r3, .L591
 3732 0024 93E80700 		ldm	r3, {r0, r1, r2}
 3733 0028 0AAB     		add	r3, sp, #40
 3734 002a 03E90700 		stmdb	r3, {r0, r1, r2}
1208:../../iot_link/cJSON/cJSON.c **** }
ARM GAS  C:\Users\LuckyE\AppData\Local\Temp\ccgn9LZs.s 			page 110


 3735              		.loc 1 1208 0
 3736 002e 01A9     		add	r1, sp, #4
 3737 0030 3046     		mov	r0, r6
1202:../../iot_link/cJSON/cJSON.c ****     p.offset = 0;
 3738              		.loc 1 1202 0
 3739 0032 CDE90145 		strd	r4, r5, [sp, #4]
1208:../../iot_link/cJSON/cJSON.c **** }
 3740              		.loc 1 1208 0
 3741 0036 FFF7FEFF 		bl	print_value
 3742              	.LVL444:
 3743              	.L587:
1209:../../iot_link/cJSON/cJSON.c **** 
 3744              		.loc 1 1209 0
 3745 003a 0BB0     		add	sp, sp, #44
 3746              	.LCFI39:
 3747              		.cfi_remember_state
 3748              		.cfi_def_cfa_offset 20
 3749              		@ sp needed
 3750 003c F0BD     		pop	{r4, r5, r6, r7, pc}
 3751              	.LVL445:
 3752              	.L589:
 3753              	.LCFI40:
 3754              		.cfi_restore_state
1198:../../iot_link/cJSON/cJSON.c ****     }
 3755              		.loc 1 1198 0
 3756 003e 0020     		movs	r0, #0
 3757 0040 FBE7     		b	.L587
 3758              	.L590:
 3759 0042 2046     		mov	r0, r4
 3760 0044 F9E7     		b	.L587
 3761              	.L592:
 3762 0046 00BF     		.align	2
 3763              	.L591:
 3764 0048 00000000 		.word	.LANCHOR0
 3765              		.cfi_endproc
 3766              	.LFE30:
 3768              		.section	.text.cJSON_GetArraySize,"ax",%progbits
 3769              		.align	1
 3770              		.global	cJSON_GetArraySize
 3771              		.syntax unified
 3772              		.thumb
 3773              		.thumb_func
 3774              		.fpu fpv4-sp-d16
 3776              	cJSON_GetArraySize:
 3777              	.LFB37:
1721:../../iot_link/cJSON/cJSON.c ****     cJSON *child = NULL;
 3778              		.loc 1 1721 0
 3779              		.cfi_startproc
 3780              		@ args = 0, pretend = 0, frame = 0
 3781              		@ frame_needed = 0, uses_anonymous_args = 0
 3782              		@ link register save eliminated.
 3783              	.LVL446:
1725:../../iot_link/cJSON/cJSON.c ****     {
 3784              		.loc 1 1725 0
 3785 0000 10B1     		cbz	r0, .L593
1730:../../iot_link/cJSON/cJSON.c **** 
 3786              		.loc 1 1730 0
ARM GAS  C:\Users\LuckyE\AppData\Local\Temp\ccgn9LZs.s 			page 111


 3787 0002 8368     		ldr	r3, [r0, #8]
 3788              	.LVL447:
1723:../../iot_link/cJSON/cJSON.c **** 
 3789              		.loc 1 1723 0
 3790 0004 0020     		movs	r0, #0
 3791              	.LVL448:
 3792              	.L595:
1732:../../iot_link/cJSON/cJSON.c ****     {
 3793              		.loc 1 1732 0
 3794 0006 03B9     		cbnz	r3, .L596
 3795              	.LVL449:
 3796              	.L593:
1741:../../iot_link/cJSON/cJSON.c **** 
 3797              		.loc 1 1741 0
 3798 0008 7047     		bx	lr
 3799              	.LVL450:
 3800              	.L596:
1734:../../iot_link/cJSON/cJSON.c ****         child = child->next;
 3801              		.loc 1 1734 0
 3802 000a 0130     		adds	r0, r0, #1
 3803              	.LVL451:
1735:../../iot_link/cJSON/cJSON.c ****     }
 3804              		.loc 1 1735 0
 3805 000c 1B68     		ldr	r3, [r3]
 3806              	.LVL452:
 3807 000e FAE7     		b	.L595
 3808              		.cfi_endproc
 3809              	.LFE37:
 3811              		.section	.text.cJSON_GetArrayItem,"ax",%progbits
 3812              		.align	1
 3813              		.global	cJSON_GetArrayItem
 3814              		.syntax unified
 3815              		.thumb
 3816              		.thumb_func
 3817              		.fpu fpv4-sp-d16
 3819              	cJSON_GetArrayItem:
 3820              	.LFB39:
1763:../../iot_link/cJSON/cJSON.c ****     if (index < 0)
 3821              		.loc 1 1763 0
 3822              		.cfi_startproc
 3823              		@ args = 0, pretend = 0, frame = 0
 3824              		@ frame_needed = 0, uses_anonymous_args = 0
 3825              		@ link register save eliminated.
 3826              	.LVL453:
1764:../../iot_link/cJSON/cJSON.c ****     {
 3827              		.loc 1 1764 0
 3828 0000 0029     		cmp	r1, #0
 3829 0002 01DB     		blt	.L599
1769:../../iot_link/cJSON/cJSON.c **** }
 3830              		.loc 1 1769 0
 3831 0004 FFF7FEBF 		b	get_array_item
 3832              	.LVL454:
 3833              	.L599:
1770:../../iot_link/cJSON/cJSON.c **** 
 3834              		.loc 1 1770 0
 3835 0008 0020     		movs	r0, #0
 3836              	.LVL455:
ARM GAS  C:\Users\LuckyE\AppData\Local\Temp\ccgn9LZs.s 			page 112


 3837 000a 7047     		bx	lr
 3838              		.cfi_endproc
 3839              	.LFE39:
 3841              		.section	.text.cJSON_GetObjectItem,"ax",%progbits
 3842              		.align	1
 3843              		.global	cJSON_GetObjectItem
 3844              		.syntax unified
 3845              		.thumb
 3846              		.thumb_func
 3847              		.fpu fpv4-sp-d16
 3849              	cJSON_GetObjectItem:
 3850              	.LFB41:
1801:../../iot_link/cJSON/cJSON.c ****     return get_object_item(object, string, false);
 3851              		.loc 1 1801 0
 3852              		.cfi_startproc
 3853              		@ args = 0, pretend = 0, frame = 0
 3854              		@ frame_needed = 0, uses_anonymous_args = 0
 3855              		@ link register save eliminated.
 3856              	.LVL456:
1802:../../iot_link/cJSON/cJSON.c **** }
 3857              		.loc 1 1802 0
 3858 0000 0022     		movs	r2, #0
 3859 0002 FFF7FEBF 		b	get_object_item
 3860              	.LVL457:
 3861              		.cfi_endproc
 3862              	.LFE41:
 3864              		.section	.text.cJSON_GetObjectItemCaseSensitive,"ax",%progbits
 3865              		.align	1
 3866              		.global	cJSON_GetObjectItemCaseSensitive
 3867              		.syntax unified
 3868              		.thumb
 3869              		.thumb_func
 3870              		.fpu fpv4-sp-d16
 3872              	cJSON_GetObjectItemCaseSensitive:
 3873              	.LFB42:
1806:../../iot_link/cJSON/cJSON.c ****     return get_object_item(object, string, true);
 3874              		.loc 1 1806 0
 3875              		.cfi_startproc
 3876              		@ args = 0, pretend = 0, frame = 0
 3877              		@ frame_needed = 0, uses_anonymous_args = 0
 3878              		@ link register save eliminated.
 3879              	.LVL458:
1807:../../iot_link/cJSON/cJSON.c **** }
 3880              		.loc 1 1807 0
 3881 0000 0122     		movs	r2, #1
 3882 0002 FFF7FEBF 		b	get_object_item
 3883              	.LVL459:
 3884              		.cfi_endproc
 3885              	.LFE42:
 3887              		.section	.text.cJSON_HasObjectItem,"ax",%progbits
 3888              		.align	1
 3889              		.global	cJSON_HasObjectItem
 3890              		.syntax unified
 3891              		.thumb
 3892              		.thumb_func
 3893              		.fpu fpv4-sp-d16
 3895              	cJSON_HasObjectItem:
ARM GAS  C:\Users\LuckyE\AppData\Local\Temp\ccgn9LZs.s 			page 113


 3896              	.LFB43:
1811:../../iot_link/cJSON/cJSON.c ****     return cJSON_GetObjectItem(object, string) ? 1 : 0;
 3897              		.loc 1 1811 0
 3898              		.cfi_startproc
 3899              		@ args = 0, pretend = 0, frame = 0
 3900              		@ frame_needed = 0, uses_anonymous_args = 0
 3901              	.LVL460:
 3902 0000 08B5     		push	{r3, lr}
 3903              	.LCFI41:
 3904              		.cfi_def_cfa_offset 8
 3905              		.cfi_offset 3, -8
 3906              		.cfi_offset 14, -4
1812:../../iot_link/cJSON/cJSON.c **** }
 3907              		.loc 1 1812 0
 3908 0002 FFF7FEFF 		bl	cJSON_GetObjectItem
 3909              	.LVL461:
1813:../../iot_link/cJSON/cJSON.c **** 
 3910              		.loc 1 1813 0
 3911 0006 0030     		adds	r0, r0, #0
 3912 0008 18BF     		it	ne
 3913 000a 0120     		movne	r0, #1
 3914 000c 08BD     		pop	{r3, pc}
 3915              		.cfi_endproc
 3916              	.LFE43:
 3918              		.section	.text.cJSON_AddItemToArray,"ax",%progbits
 3919              		.align	1
 3920              		.global	cJSON_AddItemToArray
 3921              		.syntax unified
 3922              		.thumb
 3923              		.thumb_func
 3924              		.fpu fpv4-sp-d16
 3926              	cJSON_AddItemToArray:
 3927              	.LFB47:
1875:../../iot_link/cJSON/cJSON.c ****     add_item_to_array(array, item);
 3928              		.loc 1 1875 0
 3929              		.cfi_startproc
 3930              		@ args = 0, pretend = 0, frame = 0
 3931              		@ frame_needed = 0, uses_anonymous_args = 0
 3932              		@ link register save eliminated.
 3933              	.LVL462:
1876:../../iot_link/cJSON/cJSON.c **** }
 3934              		.loc 1 1876 0
 3935 0000 FFF7FEBF 		b	add_item_to_array
 3936              	.LVL463:
 3937              		.cfi_endproc
 3938              	.LFE47:
 3940              		.section	.text.cJSON_AddItemToObject,"ax",%progbits
 3941              		.align	1
 3942              		.global	cJSON_AddItemToObject
 3943              		.syntax unified
 3944              		.thumb
 3945              		.thumb_func
 3946              		.fpu fpv4-sp-d16
 3948              	cJSON_AddItemToObject:
 3949              	.LFB50:
1931:../../iot_link/cJSON/cJSON.c **** 
1932:../../iot_link/cJSON/cJSON.c **** CJSON_PUBLIC(void) cJSON_AddItemToObject(cJSON *object, const char *string, cJSON *item)
ARM GAS  C:\Users\LuckyE\AppData\Local\Temp\ccgn9LZs.s 			page 114


1933:../../iot_link/cJSON/cJSON.c **** {
 3950              		.loc 1 1933 0
 3951              		.cfi_startproc
 3952              		@ args = 0, pretend = 0, frame = 0
 3953              		@ frame_needed = 0, uses_anonymous_args = 0
 3954              		@ link register save eliminated.
 3955              	.LVL464:
1934:../../iot_link/cJSON/cJSON.c ****     add_item_to_object(object, string, item, &global_hooks, false);
 3956              		.loc 1 1934 0
 3957 0000 0023     		movs	r3, #0
 3958 0002 FFF7FEBF 		b	add_item_to_object.constprop.11
 3959              	.LVL465:
 3960              		.cfi_endproc
 3961              	.LFE50:
 3963              		.section	.text.cJSON_AddItemToObjectCS,"ax",%progbits
 3964              		.align	1
 3965              		.global	cJSON_AddItemToObjectCS
 3966              		.syntax unified
 3967              		.thumb
 3968              		.thumb_func
 3969              		.fpu fpv4-sp-d16
 3971              	cJSON_AddItemToObjectCS:
 3972              	.LFB51:
1935:../../iot_link/cJSON/cJSON.c **** }
1936:../../iot_link/cJSON/cJSON.c **** 
1937:../../iot_link/cJSON/cJSON.c **** /* Add an item to an object with constant string as key */
1938:../../iot_link/cJSON/cJSON.c **** CJSON_PUBLIC(void) cJSON_AddItemToObjectCS(cJSON *object, const char *string, cJSON *item)
1939:../../iot_link/cJSON/cJSON.c **** {
 3973              		.loc 1 1939 0
 3974              		.cfi_startproc
 3975              		@ args = 0, pretend = 0, frame = 0
 3976              		@ frame_needed = 0, uses_anonymous_args = 0
 3977              		@ link register save eliminated.
 3978              	.LVL466:
1940:../../iot_link/cJSON/cJSON.c ****     add_item_to_object(object, string, item, &global_hooks, true);
 3979              		.loc 1 1940 0
 3980 0000 0123     		movs	r3, #1
 3981 0002 FFF7FEBF 		b	add_item_to_object.constprop.11
 3982              	.LVL467:
 3983              		.cfi_endproc
 3984              	.LFE51:
 3986              		.section	.text.cJSON_AddItemReferenceToArray,"ax",%progbits
 3987              		.align	1
 3988              		.global	cJSON_AddItemReferenceToArray
 3989              		.syntax unified
 3990              		.thumb
 3991              		.thumb_func
 3992              		.fpu fpv4-sp-d16
 3994              	cJSON_AddItemReferenceToArray:
 3995              	.LFB52:
1941:../../iot_link/cJSON/cJSON.c **** }
1942:../../iot_link/cJSON/cJSON.c **** 
1943:../../iot_link/cJSON/cJSON.c **** CJSON_PUBLIC(void) cJSON_AddItemReferenceToArray(cJSON *array, cJSON *item)
1944:../../iot_link/cJSON/cJSON.c **** {
 3996              		.loc 1 1944 0
 3997              		.cfi_startproc
 3998              		@ args = 0, pretend = 0, frame = 0
ARM GAS  C:\Users\LuckyE\AppData\Local\Temp\ccgn9LZs.s 			page 115


 3999              		@ frame_needed = 0, uses_anonymous_args = 0
 4000              	.LVL468:
 4001 0000 10B5     		push	{r4, lr}
 4002              	.LCFI42:
 4003              		.cfi_def_cfa_offset 8
 4004              		.cfi_offset 4, -8
 4005              		.cfi_offset 14, -4
1945:../../iot_link/cJSON/cJSON.c ****     if (array == NULL)
 4006              		.loc 1 1945 0
 4007 0002 0446     		mov	r4, r0
 4008 0004 40B1     		cbz	r0, .L606
1946:../../iot_link/cJSON/cJSON.c ****     {
1947:../../iot_link/cJSON/cJSON.c ****         return;
1948:../../iot_link/cJSON/cJSON.c ****     }
1949:../../iot_link/cJSON/cJSON.c **** 
1950:../../iot_link/cJSON/cJSON.c ****     add_item_to_array(array, create_reference(item, &global_hooks));
 4009              		.loc 1 1950 0
 4010 0006 0846     		mov	r0, r1
 4011              	.LVL469:
 4012 0008 FFF7FEFF 		bl	create_reference.constprop.13
 4013              	.LVL470:
 4014 000c 0146     		mov	r1, r0
 4015 000e 2046     		mov	r0, r4
1951:../../iot_link/cJSON/cJSON.c **** }
 4016              		.loc 1 1951 0
 4017 0010 BDE81040 		pop	{r4, lr}
 4018              	.LCFI43:
 4019              		.cfi_remember_state
 4020              		.cfi_restore 14
 4021              		.cfi_restore 4
 4022              		.cfi_def_cfa_offset 0
 4023              	.LVL471:
1950:../../iot_link/cJSON/cJSON.c **** }
 4024              		.loc 1 1950 0
 4025 0014 FFF7FEBF 		b	add_item_to_array
 4026              	.LVL472:
 4027              	.L606:
 4028              	.LCFI44:
 4029              		.cfi_restore_state
 4030              		.loc 1 1951 0
 4031 0018 10BD     		pop	{r4, pc}
 4032              		.cfi_endproc
 4033              	.LFE52:
 4035              		.section	.text.cJSON_AddItemReferenceToObject,"ax",%progbits
 4036              		.align	1
 4037              		.global	cJSON_AddItemReferenceToObject
 4038              		.syntax unified
 4039              		.thumb
 4040              		.thumb_func
 4041              		.fpu fpv4-sp-d16
 4043              	cJSON_AddItemReferenceToObject:
 4044              	.LFB53:
1952:../../iot_link/cJSON/cJSON.c **** 
1953:../../iot_link/cJSON/cJSON.c **** CJSON_PUBLIC(void) cJSON_AddItemReferenceToObject(cJSON *object, const char *string, cJSON *item)
1954:../../iot_link/cJSON/cJSON.c **** {
 4045              		.loc 1 1954 0
 4046              		.cfi_startproc
ARM GAS  C:\Users\LuckyE\AppData\Local\Temp\ccgn9LZs.s 			page 116


 4047              		@ args = 0, pretend = 0, frame = 0
 4048              		@ frame_needed = 0, uses_anonymous_args = 0
 4049              	.LVL473:
 4050 0000 70B5     		push	{r4, r5, r6, lr}
 4051              	.LCFI45:
 4052              		.cfi_def_cfa_offset 16
 4053              		.cfi_offset 4, -16
 4054              		.cfi_offset 5, -12
 4055              		.cfi_offset 6, -8
 4056              		.cfi_offset 14, -4
 4057              		.loc 1 1954 0
 4058 0002 0D46     		mov	r5, r1
1955:../../iot_link/cJSON/cJSON.c ****     if ((object == NULL) || (string == NULL))
 4059              		.loc 1 1955 0
 4060 0004 0446     		mov	r4, r0
 4061 0006 58B1     		cbz	r0, .L608
 4062              		.loc 1 1955 0 is_stmt 0 discriminator 1
 4063 0008 51B1     		cbz	r1, .L608
1956:../../iot_link/cJSON/cJSON.c ****     {
1957:../../iot_link/cJSON/cJSON.c ****         return;
1958:../../iot_link/cJSON/cJSON.c ****     }
1959:../../iot_link/cJSON/cJSON.c **** 
1960:../../iot_link/cJSON/cJSON.c ****     add_item_to_object(object, string, create_reference(item, &global_hooks), &global_hooks, false)
 4064              		.loc 1 1960 0 is_stmt 1
 4065 000a 1046     		mov	r0, r2
 4066              	.LVL474:
 4067 000c FFF7FEFF 		bl	create_reference.constprop.13
 4068              	.LVL475:
 4069 0010 2946     		mov	r1, r5
 4070 0012 0246     		mov	r2, r0
 4071 0014 0023     		movs	r3, #0
 4072 0016 2046     		mov	r0, r4
1961:../../iot_link/cJSON/cJSON.c **** }
 4073              		.loc 1 1961 0
 4074 0018 BDE87040 		pop	{r4, r5, r6, lr}
 4075              	.LCFI46:
 4076              		.cfi_remember_state
 4077              		.cfi_restore 14
 4078              		.cfi_restore 6
 4079              		.cfi_restore 5
 4080              		.cfi_restore 4
 4081              		.cfi_def_cfa_offset 0
 4082              	.LVL476:
1960:../../iot_link/cJSON/cJSON.c **** }
 4083              		.loc 1 1960 0
 4084 001c FFF7FEBF 		b	add_item_to_object.constprop.11
 4085              	.LVL477:
 4086              	.L608:
 4087              	.LCFI47:
 4088              		.cfi_restore_state
 4089              		.loc 1 1961 0
 4090 0020 70BD     		pop	{r4, r5, r6, pc}
 4091              		.cfi_endproc
 4092              	.LFE53:
 4094              		.section	.text.cJSON_DetachItemViaPointer,"ax",%progbits
 4095              		.align	1
 4096              		.global	cJSON_DetachItemViaPointer
ARM GAS  C:\Users\LuckyE\AppData\Local\Temp\ccgn9LZs.s 			page 117


 4097              		.syntax unified
 4098              		.thumb
 4099              		.thumb_func
 4100              		.fpu fpv4-sp-d16
 4102              	cJSON_DetachItemViaPointer:
 4103              	.LFB63:
1962:../../iot_link/cJSON/cJSON.c **** 
1963:../../iot_link/cJSON/cJSON.c **** CJSON_PUBLIC(cJSON*) cJSON_AddNullToObject(cJSON * const object, const char * const name)
1964:../../iot_link/cJSON/cJSON.c **** {
1965:../../iot_link/cJSON/cJSON.c ****     cJSON *null = cJSON_CreateNull();
1966:../../iot_link/cJSON/cJSON.c ****     if (add_item_to_object(object, name, null, &global_hooks, false))
1967:../../iot_link/cJSON/cJSON.c ****     {
1968:../../iot_link/cJSON/cJSON.c ****         return null;
1969:../../iot_link/cJSON/cJSON.c ****     }
1970:../../iot_link/cJSON/cJSON.c **** 
1971:../../iot_link/cJSON/cJSON.c ****     cJSON_Delete(null);
1972:../../iot_link/cJSON/cJSON.c ****     return NULL;
1973:../../iot_link/cJSON/cJSON.c **** }
1974:../../iot_link/cJSON/cJSON.c **** 
1975:../../iot_link/cJSON/cJSON.c **** CJSON_PUBLIC(cJSON*) cJSON_AddTrueToObject(cJSON * const object, const char * const name)
1976:../../iot_link/cJSON/cJSON.c **** {
1977:../../iot_link/cJSON/cJSON.c ****     cJSON *true_item = cJSON_CreateTrue();
1978:../../iot_link/cJSON/cJSON.c ****     if (add_item_to_object(object, name, true_item, &global_hooks, false))
1979:../../iot_link/cJSON/cJSON.c ****     {
1980:../../iot_link/cJSON/cJSON.c ****         return true_item;
1981:../../iot_link/cJSON/cJSON.c ****     }
1982:../../iot_link/cJSON/cJSON.c **** 
1983:../../iot_link/cJSON/cJSON.c ****     cJSON_Delete(true_item);
1984:../../iot_link/cJSON/cJSON.c ****     return NULL;
1985:../../iot_link/cJSON/cJSON.c **** }
1986:../../iot_link/cJSON/cJSON.c **** 
1987:../../iot_link/cJSON/cJSON.c **** CJSON_PUBLIC(cJSON*) cJSON_AddFalseToObject(cJSON * const object, const char * const name)
1988:../../iot_link/cJSON/cJSON.c **** {
1989:../../iot_link/cJSON/cJSON.c ****     cJSON *false_item = cJSON_CreateFalse();
1990:../../iot_link/cJSON/cJSON.c ****     if (add_item_to_object(object, name, false_item, &global_hooks, false))
1991:../../iot_link/cJSON/cJSON.c ****     {
1992:../../iot_link/cJSON/cJSON.c ****         return false_item;
1993:../../iot_link/cJSON/cJSON.c ****     }
1994:../../iot_link/cJSON/cJSON.c **** 
1995:../../iot_link/cJSON/cJSON.c ****     cJSON_Delete(false_item);
1996:../../iot_link/cJSON/cJSON.c ****     return NULL;
1997:../../iot_link/cJSON/cJSON.c **** }
1998:../../iot_link/cJSON/cJSON.c **** 
1999:../../iot_link/cJSON/cJSON.c **** CJSON_PUBLIC(cJSON*) cJSON_AddBoolToObject(cJSON * const object, const char * const name, const cJS
2000:../../iot_link/cJSON/cJSON.c **** {
2001:../../iot_link/cJSON/cJSON.c ****     cJSON *bool_item = cJSON_CreateBool(boolean);
2002:../../iot_link/cJSON/cJSON.c ****     if (add_item_to_object(object, name, bool_item, &global_hooks, false))
2003:../../iot_link/cJSON/cJSON.c ****     {
2004:../../iot_link/cJSON/cJSON.c ****         return bool_item;
2005:../../iot_link/cJSON/cJSON.c ****     }
2006:../../iot_link/cJSON/cJSON.c **** 
2007:../../iot_link/cJSON/cJSON.c ****     cJSON_Delete(bool_item);
2008:../../iot_link/cJSON/cJSON.c ****     return NULL;
2009:../../iot_link/cJSON/cJSON.c **** }
2010:../../iot_link/cJSON/cJSON.c **** 
2011:../../iot_link/cJSON/cJSON.c **** CJSON_PUBLIC(cJSON*) cJSON_AddNumberToObject(cJSON * const object, const char * const name, const d
2012:../../iot_link/cJSON/cJSON.c **** {
ARM GAS  C:\Users\LuckyE\AppData\Local\Temp\ccgn9LZs.s 			page 118


2013:../../iot_link/cJSON/cJSON.c ****     cJSON *number_item = cJSON_CreateNumber(number);
2014:../../iot_link/cJSON/cJSON.c ****     if (add_item_to_object(object, name, number_item, &global_hooks, false))
2015:../../iot_link/cJSON/cJSON.c ****     {
2016:../../iot_link/cJSON/cJSON.c ****         return number_item;
2017:../../iot_link/cJSON/cJSON.c ****     }
2018:../../iot_link/cJSON/cJSON.c **** 
2019:../../iot_link/cJSON/cJSON.c ****     cJSON_Delete(number_item);
2020:../../iot_link/cJSON/cJSON.c ****     return NULL;
2021:../../iot_link/cJSON/cJSON.c **** }
2022:../../iot_link/cJSON/cJSON.c **** 
2023:../../iot_link/cJSON/cJSON.c **** CJSON_PUBLIC(cJSON*) cJSON_AddStringToObject(cJSON * const object, const char * const name, const c
2024:../../iot_link/cJSON/cJSON.c **** {
2025:../../iot_link/cJSON/cJSON.c ****     cJSON *string_item = cJSON_CreateString(string);
2026:../../iot_link/cJSON/cJSON.c ****     if (add_item_to_object(object, name, string_item, &global_hooks, false))
2027:../../iot_link/cJSON/cJSON.c ****     {
2028:../../iot_link/cJSON/cJSON.c ****         return string_item;
2029:../../iot_link/cJSON/cJSON.c ****     }
2030:../../iot_link/cJSON/cJSON.c **** 
2031:../../iot_link/cJSON/cJSON.c ****     cJSON_Delete(string_item);
2032:../../iot_link/cJSON/cJSON.c ****     return NULL;
2033:../../iot_link/cJSON/cJSON.c **** }
2034:../../iot_link/cJSON/cJSON.c **** 
2035:../../iot_link/cJSON/cJSON.c **** CJSON_PUBLIC(cJSON*) cJSON_AddRawToObject(cJSON * const object, const char * const name, const char
2036:../../iot_link/cJSON/cJSON.c **** {
2037:../../iot_link/cJSON/cJSON.c ****     cJSON *raw_item = cJSON_CreateRaw(raw);
2038:../../iot_link/cJSON/cJSON.c ****     if (add_item_to_object(object, name, raw_item, &global_hooks, false))
2039:../../iot_link/cJSON/cJSON.c ****     {
2040:../../iot_link/cJSON/cJSON.c ****         return raw_item;
2041:../../iot_link/cJSON/cJSON.c ****     }
2042:../../iot_link/cJSON/cJSON.c **** 
2043:../../iot_link/cJSON/cJSON.c ****     cJSON_Delete(raw_item);
2044:../../iot_link/cJSON/cJSON.c ****     return NULL;
2045:../../iot_link/cJSON/cJSON.c **** }
2046:../../iot_link/cJSON/cJSON.c **** 
2047:../../iot_link/cJSON/cJSON.c **** CJSON_PUBLIC(cJSON*) cJSON_AddObjectToObject(cJSON * const object, const char * const name)
2048:../../iot_link/cJSON/cJSON.c **** {
2049:../../iot_link/cJSON/cJSON.c ****     cJSON *object_item = cJSON_CreateObject();
2050:../../iot_link/cJSON/cJSON.c ****     if (add_item_to_object(object, name, object_item, &global_hooks, false))
2051:../../iot_link/cJSON/cJSON.c ****     {
2052:../../iot_link/cJSON/cJSON.c ****         return object_item;
2053:../../iot_link/cJSON/cJSON.c ****     }
2054:../../iot_link/cJSON/cJSON.c **** 
2055:../../iot_link/cJSON/cJSON.c ****     cJSON_Delete(object_item);
2056:../../iot_link/cJSON/cJSON.c ****     return NULL;
2057:../../iot_link/cJSON/cJSON.c **** }
2058:../../iot_link/cJSON/cJSON.c **** 
2059:../../iot_link/cJSON/cJSON.c **** CJSON_PUBLIC(cJSON*) cJSON_AddArrayToObject(cJSON * const object, const char * const name)
2060:../../iot_link/cJSON/cJSON.c **** {
2061:../../iot_link/cJSON/cJSON.c ****     cJSON *array = cJSON_CreateArray();
2062:../../iot_link/cJSON/cJSON.c ****     if (add_item_to_object(object, name, array, &global_hooks, false))
2063:../../iot_link/cJSON/cJSON.c ****     {
2064:../../iot_link/cJSON/cJSON.c ****         return array;
2065:../../iot_link/cJSON/cJSON.c ****     }
2066:../../iot_link/cJSON/cJSON.c **** 
2067:../../iot_link/cJSON/cJSON.c ****     cJSON_Delete(array);
2068:../../iot_link/cJSON/cJSON.c ****     return NULL;
2069:../../iot_link/cJSON/cJSON.c **** }
ARM GAS  C:\Users\LuckyE\AppData\Local\Temp\ccgn9LZs.s 			page 119


2070:../../iot_link/cJSON/cJSON.c **** 
2071:../../iot_link/cJSON/cJSON.c **** CJSON_PUBLIC(cJSON *) cJSON_DetachItemViaPointer(cJSON *parent, cJSON * const item)
2072:../../iot_link/cJSON/cJSON.c **** {
 4104              		.loc 1 2072 0
 4105              		.cfi_startproc
 4106              		@ args = 0, pretend = 0, frame = 0
 4107              		@ frame_needed = 0, uses_anonymous_args = 0
 4108              		@ link register save eliminated.
 4109              	.LVL478:
2073:../../iot_link/cJSON/cJSON.c ****     if ((parent == NULL) || (item == NULL))
 4110              		.loc 1 2073 0
 4111 0000 78B1     		cbz	r0, .L617
 4112              		.loc 1 2073 0 is_stmt 0 discriminator 1
 4113 0002 69B1     		cbz	r1, .L621
2074:../../iot_link/cJSON/cJSON.c ****     {
2075:../../iot_link/cJSON/cJSON.c ****         return NULL;
2076:../../iot_link/cJSON/cJSON.c ****     }
2077:../../iot_link/cJSON/cJSON.c **** 
2078:../../iot_link/cJSON/cJSON.c ****     if (item->prev != NULL)
 4114              		.loc 1 2078 0 is_stmt 1
 4115 0004 4A68     		ldr	r2, [r1, #4]
 4116 0006 0AB1     		cbz	r2, .L618
 4117 0008 0B68     		ldr	r3, [r1]
2079:../../iot_link/cJSON/cJSON.c ****     {
2080:../../iot_link/cJSON/cJSON.c ****         /* not the first element */
2081:../../iot_link/cJSON/cJSON.c ****         item->prev->next = item->next;
 4118              		.loc 1 2081 0
 4119 000a 1360     		str	r3, [r2]
 4120              	.L618:
2082:../../iot_link/cJSON/cJSON.c ****     }
2083:../../iot_link/cJSON/cJSON.c ****     if (item->next != NULL)
 4121              		.loc 1 2083 0
 4122 000c 0B68     		ldr	r3, [r1]
 4123 000e 03B1     		cbz	r3, .L619
2084:../../iot_link/cJSON/cJSON.c ****     {
2085:../../iot_link/cJSON/cJSON.c ****         /* not the last element */
2086:../../iot_link/cJSON/cJSON.c ****         item->next->prev = item->prev;
 4124              		.loc 1 2086 0
 4125 0010 5A60     		str	r2, [r3, #4]
 4126              	.L619:
2087:../../iot_link/cJSON/cJSON.c ****     }
2088:../../iot_link/cJSON/cJSON.c **** 
2089:../../iot_link/cJSON/cJSON.c ****     if (item == parent->child)
 4127              		.loc 1 2089 0
 4128 0012 8268     		ldr	r2, [r0, #8]
 4129 0014 8A42     		cmp	r2, r1
2090:../../iot_link/cJSON/cJSON.c ****     {
2091:../../iot_link/cJSON/cJSON.c ****         /* first element */
2092:../../iot_link/cJSON/cJSON.c ****         parent->child = item->next;
 4130              		.loc 1 2092 0
 4131 0016 08BF     		it	eq
 4132 0018 8360     		streq	r3, [r0, #8]
2093:../../iot_link/cJSON/cJSON.c ****     }
2094:../../iot_link/cJSON/cJSON.c ****     /* make sure the detached item doesn't point anywhere anymore */
2095:../../iot_link/cJSON/cJSON.c ****     item->prev = NULL;
 4133              		.loc 1 2095 0
 4134 001a 0023     		movs	r3, #0
ARM GAS  C:\Users\LuckyE\AppData\Local\Temp\ccgn9LZs.s 			page 120


2096:../../iot_link/cJSON/cJSON.c ****     item->next = NULL;
 4135              		.loc 1 2096 0
 4136 001c C1E90033 		strd	r3, r3, [r1]
 4137              	.L621:
2075:../../iot_link/cJSON/cJSON.c ****     }
 4138              		.loc 1 2075 0
 4139 0020 0846     		mov	r0, r1
 4140              	.LVL479:
 4141              	.L617:
2097:../../iot_link/cJSON/cJSON.c **** 
2098:../../iot_link/cJSON/cJSON.c ****     return item;
2099:../../iot_link/cJSON/cJSON.c **** }
 4142              		.loc 1 2099 0
 4143 0022 7047     		bx	lr
 4144              		.cfi_endproc
 4145              	.LFE63:
 4147              		.section	.text.cJSON_DetachItemFromArray,"ax",%progbits
 4148              		.align	1
 4149              		.global	cJSON_DetachItemFromArray
 4150              		.syntax unified
 4151              		.thumb
 4152              		.thumb_func
 4153              		.fpu fpv4-sp-d16
 4155              	cJSON_DetachItemFromArray:
 4156              	.LFB64:
2100:../../iot_link/cJSON/cJSON.c **** 
2101:../../iot_link/cJSON/cJSON.c **** CJSON_PUBLIC(cJSON *) cJSON_DetachItemFromArray(cJSON *array, int which)
2102:../../iot_link/cJSON/cJSON.c **** {
 4157              		.loc 1 2102 0
 4158              		.cfi_startproc
 4159              		@ args = 0, pretend = 0, frame = 0
 4160              		@ frame_needed = 0, uses_anonymous_args = 0
 4161              	.LVL480:
2103:../../iot_link/cJSON/cJSON.c ****     if (which < 0)
 4162              		.loc 1 2103 0
 4163 0000 0029     		cmp	r1, #0
2102:../../iot_link/cJSON/cJSON.c ****     if (which < 0)
 4164              		.loc 1 2102 0
 4165 0002 08B5     		push	{r3, lr}
 4166              	.LCFI48:
 4167              		.cfi_def_cfa_offset 8
 4168              		.cfi_offset 3, -8
 4169              		.cfi_offset 14, -4
2102:../../iot_link/cJSON/cJSON.c ****     if (which < 0)
 4170              		.loc 1 2102 0
 4171 0004 0346     		mov	r3, r0
 4172              		.loc 1 2103 0
 4173 0006 07DB     		blt	.L632
2104:../../iot_link/cJSON/cJSON.c ****     {
2105:../../iot_link/cJSON/cJSON.c ****         return NULL;
2106:../../iot_link/cJSON/cJSON.c ****     }
2107:../../iot_link/cJSON/cJSON.c **** 
2108:../../iot_link/cJSON/cJSON.c ****     return cJSON_DetachItemViaPointer(array, get_array_item(array, (size_t)which));
 4174              		.loc 1 2108 0
 4175 0008 FFF7FEFF 		bl	get_array_item
 4176              	.LVL481:
 4177 000c 0146     		mov	r1, r0
ARM GAS  C:\Users\LuckyE\AppData\Local\Temp\ccgn9LZs.s 			page 121


 4178 000e 1846     		mov	r0, r3
2109:../../iot_link/cJSON/cJSON.c **** }
 4179              		.loc 1 2109 0
 4180 0010 BDE80840 		pop	{r3, lr}
 4181              	.LCFI49:
 4182              		.cfi_remember_state
 4183              		.cfi_restore 14
 4184              		.cfi_restore 3
 4185              		.cfi_def_cfa_offset 0
 4186              	.LVL482:
2108:../../iot_link/cJSON/cJSON.c **** }
 4187              		.loc 1 2108 0
 4188 0014 FFF7FEBF 		b	cJSON_DetachItemViaPointer
 4189              	.LVL483:
 4190              	.L632:
 4191              	.LCFI50:
 4192              		.cfi_restore_state
 4193              		.loc 1 2109 0
 4194 0018 0020     		movs	r0, #0
 4195              	.LVL484:
 4196 001a 08BD     		pop	{r3, pc}
 4197              		.cfi_endproc
 4198              	.LFE64:
 4200              		.section	.text.cJSON_DeleteItemFromArray,"ax",%progbits
 4201              		.align	1
 4202              		.global	cJSON_DeleteItemFromArray
 4203              		.syntax unified
 4204              		.thumb
 4205              		.thumb_func
 4206              		.fpu fpv4-sp-d16
 4208              	cJSON_DeleteItemFromArray:
 4209              	.LFB65:
2110:../../iot_link/cJSON/cJSON.c **** 
2111:../../iot_link/cJSON/cJSON.c **** CJSON_PUBLIC(void) cJSON_DeleteItemFromArray(cJSON *array, int which)
2112:../../iot_link/cJSON/cJSON.c **** {
 4210              		.loc 1 2112 0
 4211              		.cfi_startproc
 4212              		@ args = 0, pretend = 0, frame = 0
 4213              		@ frame_needed = 0, uses_anonymous_args = 0
 4214              	.LVL485:
 4215 0000 08B5     		push	{r3, lr}
 4216              	.LCFI51:
 4217              		.cfi_def_cfa_offset 8
 4218              		.cfi_offset 3, -8
 4219              		.cfi_offset 14, -4
2113:../../iot_link/cJSON/cJSON.c ****     cJSON_Delete(cJSON_DetachItemFromArray(array, which));
 4220              		.loc 1 2113 0
 4221 0002 FFF7FEFF 		bl	cJSON_DetachItemFromArray
 4222              	.LVL486:
2114:../../iot_link/cJSON/cJSON.c **** }
 4223              		.loc 1 2114 0
 4224 0006 BDE80840 		pop	{r3, lr}
 4225              	.LCFI52:
 4226              		.cfi_restore 14
 4227              		.cfi_restore 3
 4228              		.cfi_def_cfa_offset 0
2113:../../iot_link/cJSON/cJSON.c ****     cJSON_Delete(cJSON_DetachItemFromArray(array, which));
ARM GAS  C:\Users\LuckyE\AppData\Local\Temp\ccgn9LZs.s 			page 122


 4229              		.loc 1 2113 0
 4230 000a FFF7FEBF 		b	cJSON_Delete
 4231              	.LVL487:
 4232              		.cfi_endproc
 4233              	.LFE65:
 4235              		.section	.text.cJSON_DetachItemFromObject,"ax",%progbits
 4236              		.align	1
 4237              		.global	cJSON_DetachItemFromObject
 4238              		.syntax unified
 4239              		.thumb
 4240              		.thumb_func
 4241              		.fpu fpv4-sp-d16
 4243              	cJSON_DetachItemFromObject:
 4244              	.LFB66:
2115:../../iot_link/cJSON/cJSON.c **** 
2116:../../iot_link/cJSON/cJSON.c **** CJSON_PUBLIC(cJSON *) cJSON_DetachItemFromObject(cJSON *object, const char *string)
2117:../../iot_link/cJSON/cJSON.c **** {
 4245              		.loc 1 2117 0
 4246              		.cfi_startproc
 4247              		@ args = 0, pretend = 0, frame = 0
 4248              		@ frame_needed = 0, uses_anonymous_args = 0
 4249              	.LVL488:
 4250 0000 10B5     		push	{r4, lr}
 4251              	.LCFI53:
 4252              		.cfi_def_cfa_offset 8
 4253              		.cfi_offset 4, -8
 4254              		.cfi_offset 14, -4
 4255              		.loc 1 2117 0
 4256 0002 0446     		mov	r4, r0
2118:../../iot_link/cJSON/cJSON.c ****     cJSON *to_detach = cJSON_GetObjectItem(object, string);
 4257              		.loc 1 2118 0
 4258 0004 FFF7FEFF 		bl	cJSON_GetObjectItem
 4259              	.LVL489:
2119:../../iot_link/cJSON/cJSON.c **** 
2120:../../iot_link/cJSON/cJSON.c ****     return cJSON_DetachItemViaPointer(object, to_detach);
 4260              		.loc 1 2120 0
 4261 0008 0146     		mov	r1, r0
 4262 000a 2046     		mov	r0, r4
 4263              	.LVL490:
2121:../../iot_link/cJSON/cJSON.c **** }
 4264              		.loc 1 2121 0
 4265 000c BDE81040 		pop	{r4, lr}
 4266              	.LCFI54:
 4267              		.cfi_restore 14
 4268              		.cfi_restore 4
 4269              		.cfi_def_cfa_offset 0
 4270              	.LVL491:
2120:../../iot_link/cJSON/cJSON.c **** }
 4271              		.loc 1 2120 0
 4272 0010 FFF7FEBF 		b	cJSON_DetachItemViaPointer
 4273              	.LVL492:
 4274              		.cfi_endproc
 4275              	.LFE66:
 4277              		.section	.text.cJSON_DetachItemFromObjectCaseSensitive,"ax",%progbits
 4278              		.align	1
 4279              		.global	cJSON_DetachItemFromObjectCaseSensitive
 4280              		.syntax unified
ARM GAS  C:\Users\LuckyE\AppData\Local\Temp\ccgn9LZs.s 			page 123


 4281              		.thumb
 4282              		.thumb_func
 4283              		.fpu fpv4-sp-d16
 4285              	cJSON_DetachItemFromObjectCaseSensitive:
 4286              	.LFB67:
2122:../../iot_link/cJSON/cJSON.c **** 
2123:../../iot_link/cJSON/cJSON.c **** CJSON_PUBLIC(cJSON *) cJSON_DetachItemFromObjectCaseSensitive(cJSON *object, const char *string)
2124:../../iot_link/cJSON/cJSON.c **** {
 4287              		.loc 1 2124 0
 4288              		.cfi_startproc
 4289              		@ args = 0, pretend = 0, frame = 0
 4290              		@ frame_needed = 0, uses_anonymous_args = 0
 4291              	.LVL493:
 4292 0000 10B5     		push	{r4, lr}
 4293              	.LCFI55:
 4294              		.cfi_def_cfa_offset 8
 4295              		.cfi_offset 4, -8
 4296              		.cfi_offset 14, -4
 4297              		.loc 1 2124 0
 4298 0002 0446     		mov	r4, r0
2125:../../iot_link/cJSON/cJSON.c ****     cJSON *to_detach = cJSON_GetObjectItemCaseSensitive(object, string);
 4299              		.loc 1 2125 0
 4300 0004 FFF7FEFF 		bl	cJSON_GetObjectItemCaseSensitive
 4301              	.LVL494:
2126:../../iot_link/cJSON/cJSON.c **** 
2127:../../iot_link/cJSON/cJSON.c ****     return cJSON_DetachItemViaPointer(object, to_detach);
 4302              		.loc 1 2127 0
 4303 0008 0146     		mov	r1, r0
 4304 000a 2046     		mov	r0, r4
 4305              	.LVL495:
2128:../../iot_link/cJSON/cJSON.c **** }
 4306              		.loc 1 2128 0
 4307 000c BDE81040 		pop	{r4, lr}
 4308              	.LCFI56:
 4309              		.cfi_restore 14
 4310              		.cfi_restore 4
 4311              		.cfi_def_cfa_offset 0
 4312              	.LVL496:
2127:../../iot_link/cJSON/cJSON.c **** }
 4313              		.loc 1 2127 0
 4314 0010 FFF7FEBF 		b	cJSON_DetachItemViaPointer
 4315              	.LVL497:
 4316              		.cfi_endproc
 4317              	.LFE67:
 4319              		.section	.text.cJSON_DeleteItemFromObject,"ax",%progbits
 4320              		.align	1
 4321              		.global	cJSON_DeleteItemFromObject
 4322              		.syntax unified
 4323              		.thumb
 4324              		.thumb_func
 4325              		.fpu fpv4-sp-d16
 4327              	cJSON_DeleteItemFromObject:
 4328              	.LFB68:
2129:../../iot_link/cJSON/cJSON.c **** 
2130:../../iot_link/cJSON/cJSON.c **** CJSON_PUBLIC(void) cJSON_DeleteItemFromObject(cJSON *object, const char *string)
2131:../../iot_link/cJSON/cJSON.c **** {
 4329              		.loc 1 2131 0
ARM GAS  C:\Users\LuckyE\AppData\Local\Temp\ccgn9LZs.s 			page 124


 4330              		.cfi_startproc
 4331              		@ args = 0, pretend = 0, frame = 0
 4332              		@ frame_needed = 0, uses_anonymous_args = 0
 4333              	.LVL498:
 4334 0000 08B5     		push	{r3, lr}
 4335              	.LCFI57:
 4336              		.cfi_def_cfa_offset 8
 4337              		.cfi_offset 3, -8
 4338              		.cfi_offset 14, -4
2132:../../iot_link/cJSON/cJSON.c ****     cJSON_Delete(cJSON_DetachItemFromObject(object, string));
 4339              		.loc 1 2132 0
 4340 0002 FFF7FEFF 		bl	cJSON_DetachItemFromObject
 4341              	.LVL499:
2133:../../iot_link/cJSON/cJSON.c **** }
 4342              		.loc 1 2133 0
 4343 0006 BDE80840 		pop	{r3, lr}
 4344              	.LCFI58:
 4345              		.cfi_restore 14
 4346              		.cfi_restore 3
 4347              		.cfi_def_cfa_offset 0
2132:../../iot_link/cJSON/cJSON.c ****     cJSON_Delete(cJSON_DetachItemFromObject(object, string));
 4348              		.loc 1 2132 0
 4349 000a FFF7FEBF 		b	cJSON_Delete
 4350              	.LVL500:
 4351              		.cfi_endproc
 4352              	.LFE68:
 4354              		.section	.text.cJSON_DeleteItemFromObjectCaseSensitive,"ax",%progbits
 4355              		.align	1
 4356              		.global	cJSON_DeleteItemFromObjectCaseSensitive
 4357              		.syntax unified
 4358              		.thumb
 4359              		.thumb_func
 4360              		.fpu fpv4-sp-d16
 4362              	cJSON_DeleteItemFromObjectCaseSensitive:
 4363              	.LFB69:
2134:../../iot_link/cJSON/cJSON.c **** 
2135:../../iot_link/cJSON/cJSON.c **** CJSON_PUBLIC(void) cJSON_DeleteItemFromObjectCaseSensitive(cJSON *object, const char *string)
2136:../../iot_link/cJSON/cJSON.c **** {
 4364              		.loc 1 2136 0
 4365              		.cfi_startproc
 4366              		@ args = 0, pretend = 0, frame = 0
 4367              		@ frame_needed = 0, uses_anonymous_args = 0
 4368              	.LVL501:
 4369 0000 08B5     		push	{r3, lr}
 4370              	.LCFI59:
 4371              		.cfi_def_cfa_offset 8
 4372              		.cfi_offset 3, -8
 4373              		.cfi_offset 14, -4
2137:../../iot_link/cJSON/cJSON.c ****     cJSON_Delete(cJSON_DetachItemFromObjectCaseSensitive(object, string));
 4374              		.loc 1 2137 0
 4375 0002 FFF7FEFF 		bl	cJSON_DetachItemFromObjectCaseSensitive
 4376              	.LVL502:
2138:../../iot_link/cJSON/cJSON.c **** }
 4377              		.loc 1 2138 0
 4378 0006 BDE80840 		pop	{r3, lr}
 4379              	.LCFI60:
 4380              		.cfi_restore 14
ARM GAS  C:\Users\LuckyE\AppData\Local\Temp\ccgn9LZs.s 			page 125


 4381              		.cfi_restore 3
 4382              		.cfi_def_cfa_offset 0
2137:../../iot_link/cJSON/cJSON.c ****     cJSON_Delete(cJSON_DetachItemFromObjectCaseSensitive(object, string));
 4383              		.loc 1 2137 0
 4384 000a FFF7FEBF 		b	cJSON_Delete
 4385              	.LVL503:
 4386              		.cfi_endproc
 4387              	.LFE69:
 4389              		.section	.text.cJSON_InsertItemInArray,"ax",%progbits
 4390              		.align	1
 4391              		.global	cJSON_InsertItemInArray
 4392              		.syntax unified
 4393              		.thumb
 4394              		.thumb_func
 4395              		.fpu fpv4-sp-d16
 4397              	cJSON_InsertItemInArray:
 4398              	.LFB70:
2139:../../iot_link/cJSON/cJSON.c **** 
2140:../../iot_link/cJSON/cJSON.c **** /* Replace array/object items with new ones. */
2141:../../iot_link/cJSON/cJSON.c **** CJSON_PUBLIC(void) cJSON_InsertItemInArray(cJSON *array, int which, cJSON *newitem)
2142:../../iot_link/cJSON/cJSON.c **** {
 4399              		.loc 1 2142 0
 4400              		.cfi_startproc
 4401              		@ args = 0, pretend = 0, frame = 0
 4402              		@ frame_needed = 0, uses_anonymous_args = 0
 4403              	.LVL504:
2143:../../iot_link/cJSON/cJSON.c ****     cJSON *after_inserted = NULL;
2144:../../iot_link/cJSON/cJSON.c **** 
2145:../../iot_link/cJSON/cJSON.c ****     if (which < 0)
 4404              		.loc 1 2145 0
 4405 0000 0029     		cmp	r1, #0
2142:../../iot_link/cJSON/cJSON.c ****     cJSON *after_inserted = NULL;
 4406              		.loc 1 2142 0
 4407 0002 08B5     		push	{r3, lr}
 4408              	.LCFI61:
 4409              		.cfi_def_cfa_offset 8
 4410              		.cfi_offset 3, -8
 4411              		.cfi_offset 14, -4
2142:../../iot_link/cJSON/cJSON.c ****     cJSON *after_inserted = NULL;
 4412              		.loc 1 2142 0
 4413 0004 0346     		mov	r3, r0
 4414              		.loc 1 2145 0
 4415 0006 12DB     		blt	.L638
2146:../../iot_link/cJSON/cJSON.c ****     {
2147:../../iot_link/cJSON/cJSON.c ****         return;
2148:../../iot_link/cJSON/cJSON.c ****     }
2149:../../iot_link/cJSON/cJSON.c **** 
2150:../../iot_link/cJSON/cJSON.c ****     after_inserted = get_array_item(array, (size_t)which);
 4416              		.loc 1 2150 0
 4417 0008 FFF7FEFF 		bl	get_array_item
 4418              	.LVL505:
2151:../../iot_link/cJSON/cJSON.c ****     if (after_inserted == NULL)
 4419              		.loc 1 2151 0
 4420 000c 28B9     		cbnz	r0, .L640
2152:../../iot_link/cJSON/cJSON.c ****     {
2153:../../iot_link/cJSON/cJSON.c ****         add_item_to_array(array, newitem);
 4421              		.loc 1 2153 0
ARM GAS  C:\Users\LuckyE\AppData\Local\Temp\ccgn9LZs.s 			page 126


 4422 000e 1846     		mov	r0, r3
 4423              	.LVL506:
 4424 0010 1146     		mov	r1, r2
2154:../../iot_link/cJSON/cJSON.c ****         return;
2155:../../iot_link/cJSON/cJSON.c ****     }
2156:../../iot_link/cJSON/cJSON.c **** 
2157:../../iot_link/cJSON/cJSON.c ****     newitem->next = after_inserted;
2158:../../iot_link/cJSON/cJSON.c ****     newitem->prev = after_inserted->prev;
2159:../../iot_link/cJSON/cJSON.c ****     after_inserted->prev = newitem;
2160:../../iot_link/cJSON/cJSON.c ****     if (after_inserted == array->child)
2161:../../iot_link/cJSON/cJSON.c ****     {
2162:../../iot_link/cJSON/cJSON.c ****         array->child = newitem;
2163:../../iot_link/cJSON/cJSON.c ****     }
2164:../../iot_link/cJSON/cJSON.c ****     else
2165:../../iot_link/cJSON/cJSON.c ****     {
2166:../../iot_link/cJSON/cJSON.c ****         newitem->prev->next = newitem;
2167:../../iot_link/cJSON/cJSON.c ****     }
2168:../../iot_link/cJSON/cJSON.c **** }
 4425              		.loc 1 2168 0
 4426 0012 BDE80840 		pop	{r3, lr}
 4427              	.LCFI62:
 4428              		.cfi_remember_state
 4429              		.cfi_restore 14
 4430              		.cfi_restore 3
 4431              		.cfi_def_cfa_offset 0
 4432              	.LVL507:
2153:../../iot_link/cJSON/cJSON.c ****         return;
 4433              		.loc 1 2153 0
 4434 0016 FFF7FEBF 		b	add_item_to_array
 4435              	.LVL508:
 4436              	.L640:
 4437              	.LCFI63:
 4438              		.cfi_restore_state
2158:../../iot_link/cJSON/cJSON.c ****     after_inserted->prev = newitem;
 4439              		.loc 1 2158 0
 4440 001a 4168     		ldr	r1, [r0, #4]
 4441 001c 5160     		str	r1, [r2, #4]
2160:../../iot_link/cJSON/cJSON.c ****     {
 4442              		.loc 1 2160 0
 4443 001e 9968     		ldr	r1, [r3, #8]
2157:../../iot_link/cJSON/cJSON.c ****     newitem->prev = after_inserted->prev;
 4444              		.loc 1 2157 0
 4445 0020 1060     		str	r0, [r2]
2160:../../iot_link/cJSON/cJSON.c ****     {
 4446              		.loc 1 2160 0
 4447 0022 8142     		cmp	r1, r0
2159:../../iot_link/cJSON/cJSON.c ****     if (after_inserted == array->child)
 4448              		.loc 1 2159 0
 4449 0024 4260     		str	r2, [r0, #4]
2166:../../iot_link/cJSON/cJSON.c ****     }
 4450              		.loc 1 2166 0
 4451 0026 16BF     		itet	ne
 4452 0028 5368     		ldrne	r3, [r2, #4]
 4453              	.LVL509:
2162:../../iot_link/cJSON/cJSON.c ****     }
 4454              		.loc 1 2162 0
 4455 002a 9A60     		streq	r2, [r3, #8]
ARM GAS  C:\Users\LuckyE\AppData\Local\Temp\ccgn9LZs.s 			page 127


2166:../../iot_link/cJSON/cJSON.c ****     }
 4456              		.loc 1 2166 0
 4457 002c 1A60     		strne	r2, [r3]
 4458              	.LVL510:
 4459              	.L638:
 4460              		.loc 1 2168 0
 4461 002e 08BD     		pop	{r3, pc}
 4462              		.cfi_endproc
 4463              	.LFE70:
 4465              		.section	.text.cJSON_ReplaceItemViaPointer,"ax",%progbits
 4466              		.align	1
 4467              		.global	cJSON_ReplaceItemViaPointer
 4468              		.syntax unified
 4469              		.thumb
 4470              		.thumb_func
 4471              		.fpu fpv4-sp-d16
 4473              	cJSON_ReplaceItemViaPointer:
 4474              	.LFB71:
2169:../../iot_link/cJSON/cJSON.c **** 
2170:../../iot_link/cJSON/cJSON.c **** CJSON_PUBLIC(cJSON_bool) cJSON_ReplaceItemViaPointer(cJSON * const parent, cJSON * const item, cJSO
2171:../../iot_link/cJSON/cJSON.c **** {
 4475              		.loc 1 2171 0
 4476              		.cfi_startproc
 4477              		@ args = 0, pretend = 0, frame = 0
 4478              		@ frame_needed = 0, uses_anonymous_args = 0
 4479              	.LVL511:
 4480 0000 10B5     		push	{r4, lr}
 4481              	.LCFI64:
 4482              		.cfi_def_cfa_offset 8
 4483              		.cfi_offset 4, -8
 4484              		.cfi_offset 14, -4
2172:../../iot_link/cJSON/cJSON.c ****     if ((parent == NULL) || (replacement == NULL) || (item == NULL))
 4485              		.loc 1 2172 0
 4486 0002 D0B1     		cbz	r0, .L642
 4487              		.loc 1 2172 0 is_stmt 0 discriminator 1
 4488 0004 C2B1     		cbz	r2, .L648
 4489              		.loc 1 2172 0 discriminator 2
 4490 0006 C9B1     		cbz	r1, .L649
2173:../../iot_link/cJSON/cJSON.c ****     {
2174:../../iot_link/cJSON/cJSON.c ****         return false;
2175:../../iot_link/cJSON/cJSON.c ****     }
2176:../../iot_link/cJSON/cJSON.c **** 
2177:../../iot_link/cJSON/cJSON.c ****     if (replacement == item)
 4491              		.loc 1 2177 0 is_stmt 1
 4492 0008 8A42     		cmp	r2, r1
 4493 000a 13D0     		beq	.L650
 4494              	.LVL512:
 4495              	.LBB168:
 4496              	.LBB169:
2178:../../iot_link/cJSON/cJSON.c ****     {
2179:../../iot_link/cJSON/cJSON.c ****         return true;
2180:../../iot_link/cJSON/cJSON.c ****     }
2181:../../iot_link/cJSON/cJSON.c **** 
2182:../../iot_link/cJSON/cJSON.c ****     replacement->next = item->next;
 4497              		.loc 1 2182 0
 4498 000c 0B68     		ldr	r3, [r1]
2183:../../iot_link/cJSON/cJSON.c ****     replacement->prev = item->prev;
ARM GAS  C:\Users\LuckyE\AppData\Local\Temp\ccgn9LZs.s 			page 128


 4499              		.loc 1 2183 0
 4500 000e 4C68     		ldr	r4, [r1, #4]
2182:../../iot_link/cJSON/cJSON.c ****     replacement->prev = item->prev;
 4501              		.loc 1 2182 0
 4502 0010 1360     		str	r3, [r2]
 4503              		.loc 1 2183 0
 4504 0012 5460     		str	r4, [r2, #4]
2184:../../iot_link/cJSON/cJSON.c **** 
2185:../../iot_link/cJSON/cJSON.c ****     if (replacement->next != NULL)
 4505              		.loc 1 2185 0
 4506 0014 03B1     		cbz	r3, .L644
2186:../../iot_link/cJSON/cJSON.c ****     {
2187:../../iot_link/cJSON/cJSON.c ****         replacement->next->prev = replacement;
 4507              		.loc 1 2187 0
 4508 0016 5A60     		str	r2, [r3, #4]
 4509              	.L644:
2188:../../iot_link/cJSON/cJSON.c ****     }
2189:../../iot_link/cJSON/cJSON.c ****     if (replacement->prev != NULL)
 4510              		.loc 1 2189 0
 4511 0018 5368     		ldr	r3, [r2, #4]
 4512 001a 03B1     		cbz	r3, .L645
2190:../../iot_link/cJSON/cJSON.c ****     {
2191:../../iot_link/cJSON/cJSON.c ****         replacement->prev->next = replacement;
 4513              		.loc 1 2191 0
 4514 001c 1A60     		str	r2, [r3]
 4515              	.L645:
2192:../../iot_link/cJSON/cJSON.c ****     }
2193:../../iot_link/cJSON/cJSON.c ****     if (parent->child == item)
 4516              		.loc 1 2193 0
 4517 001e 8368     		ldr	r3, [r0, #8]
 4518 0020 9942     		cmp	r1, r3
2194:../../iot_link/cJSON/cJSON.c ****     {
2195:../../iot_link/cJSON/cJSON.c ****         parent->child = replacement;
2196:../../iot_link/cJSON/cJSON.c ****     }
2197:../../iot_link/cJSON/cJSON.c **** 
2198:../../iot_link/cJSON/cJSON.c ****     item->next = NULL;
 4519              		.loc 1 2198 0
 4520 0022 4FF00003 		mov	r3, #0
2195:../../iot_link/cJSON/cJSON.c ****     }
 4521              		.loc 1 2195 0
 4522 0026 08BF     		it	eq
 4523 0028 8260     		streq	r2, [r0, #8]
2199:../../iot_link/cJSON/cJSON.c ****     item->prev = NULL;
 4524              		.loc 1 2199 0
 4525 002a C1E90033 		strd	r3, r3, [r1]
2200:../../iot_link/cJSON/cJSON.c ****     cJSON_Delete(item);
 4526              		.loc 1 2200 0
 4527 002e 0846     		mov	r0, r1
 4528              	.LVL513:
 4529 0030 FFF7FEFF 		bl	cJSON_Delete
 4530              	.LVL514:
 4531              	.L650:
 4532              	.LBE169:
 4533              	.LBE168:
2179:../../iot_link/cJSON/cJSON.c ****     }
 4534              		.loc 1 2179 0
 4535 0034 0120     		movs	r0, #1
ARM GAS  C:\Users\LuckyE\AppData\Local\Temp\ccgn9LZs.s 			page 129


 4536 0036 00E0     		b	.L642
 4537              	.LVL515:
 4538              	.L648:
2174:../../iot_link/cJSON/cJSON.c ****     }
 4539              		.loc 1 2174 0
 4540 0038 1046     		mov	r0, r2
 4541              	.LVL516:
 4542              	.L642:
2201:../../iot_link/cJSON/cJSON.c **** 
2202:../../iot_link/cJSON/cJSON.c ****     return true;
2203:../../iot_link/cJSON/cJSON.c **** }
 4543              		.loc 1 2203 0
 4544 003a 10BD     		pop	{r4, pc}
 4545              	.LVL517:
 4546              	.L649:
2174:../../iot_link/cJSON/cJSON.c ****     }
 4547              		.loc 1 2174 0
 4548 003c 0846     		mov	r0, r1
 4549              	.LVL518:
 4550 003e FCE7     		b	.L642
 4551              		.cfi_endproc
 4552              	.LFE71:
 4554              		.section	.text.cJSON_ReplaceItemInArray,"ax",%progbits
 4555              		.align	1
 4556              		.global	cJSON_ReplaceItemInArray
 4557              		.syntax unified
 4558              		.thumb
 4559              		.thumb_func
 4560              		.fpu fpv4-sp-d16
 4562              	cJSON_ReplaceItemInArray:
 4563              	.LFB72:
2204:../../iot_link/cJSON/cJSON.c **** 
2205:../../iot_link/cJSON/cJSON.c **** CJSON_PUBLIC(void) cJSON_ReplaceItemInArray(cJSON *array, int which, cJSON *newitem)
2206:../../iot_link/cJSON/cJSON.c **** {
 4564              		.loc 1 2206 0
 4565              		.cfi_startproc
 4566              		@ args = 0, pretend = 0, frame = 0
 4567              		@ frame_needed = 0, uses_anonymous_args = 0
 4568              	.LVL519:
2207:../../iot_link/cJSON/cJSON.c ****     if (which < 0)
 4569              		.loc 1 2207 0
 4570 0000 0029     		cmp	r1, #0
2206:../../iot_link/cJSON/cJSON.c ****     if (which < 0)
 4571              		.loc 1 2206 0
 4572 0002 08B5     		push	{r3, lr}
 4573              	.LCFI65:
 4574              		.cfi_def_cfa_offset 8
 4575              		.cfi_offset 3, -8
 4576              		.cfi_offset 14, -4
2206:../../iot_link/cJSON/cJSON.c ****     if (which < 0)
 4577              		.loc 1 2206 0
 4578 0004 0346     		mov	r3, r0
 4579              		.loc 1 2207 0
 4580 0006 07DB     		blt	.L657
2208:../../iot_link/cJSON/cJSON.c ****     {
2209:../../iot_link/cJSON/cJSON.c ****         return;
2210:../../iot_link/cJSON/cJSON.c ****     }
ARM GAS  C:\Users\LuckyE\AppData\Local\Temp\ccgn9LZs.s 			page 130


2211:../../iot_link/cJSON/cJSON.c **** 
2212:../../iot_link/cJSON/cJSON.c ****     cJSON_ReplaceItemViaPointer(array, get_array_item(array, (size_t)which), newitem);
 4581              		.loc 1 2212 0
 4582 0008 FFF7FEFF 		bl	get_array_item
 4583              	.LVL520:
 4584 000c 0146     		mov	r1, r0
 4585 000e 1846     		mov	r0, r3
2213:../../iot_link/cJSON/cJSON.c **** }
 4586              		.loc 1 2213 0
 4587 0010 BDE80840 		pop	{r3, lr}
 4588              	.LCFI66:
 4589              		.cfi_remember_state
 4590              		.cfi_restore 14
 4591              		.cfi_restore 3
 4592              		.cfi_def_cfa_offset 0
 4593              	.LVL521:
2212:../../iot_link/cJSON/cJSON.c **** }
 4594              		.loc 1 2212 0
 4595 0014 FFF7FEBF 		b	cJSON_ReplaceItemViaPointer
 4596              	.LVL522:
 4597              	.L657:
 4598              	.LCFI67:
 4599              		.cfi_restore_state
 4600              		.loc 1 2213 0
 4601 0018 08BD     		pop	{r3, pc}
 4602              		.cfi_endproc
 4603              	.LFE72:
 4605              		.section	.text.cJSON_CreateNull,"ax",%progbits
 4606              		.align	1
 4607              		.global	cJSON_CreateNull
 4608              		.syntax unified
 4609              		.thumb
 4610              		.thumb_func
 4611              		.fpu fpv4-sp-d16
 4613              	cJSON_CreateNull:
 4614              	.LFB76:
2214:../../iot_link/cJSON/cJSON.c **** 
2215:../../iot_link/cJSON/cJSON.c **** static cJSON_bool replace_item_in_object(cJSON *object, const char *string, cJSON *replacement, cJS
2216:../../iot_link/cJSON/cJSON.c **** {
2217:../../iot_link/cJSON/cJSON.c ****     if ((replacement == NULL) || (string == NULL))
2218:../../iot_link/cJSON/cJSON.c ****     {
2219:../../iot_link/cJSON/cJSON.c ****         return false;
2220:../../iot_link/cJSON/cJSON.c ****     }
2221:../../iot_link/cJSON/cJSON.c **** 
2222:../../iot_link/cJSON/cJSON.c ****     /* replace the name in the replacement */
2223:../../iot_link/cJSON/cJSON.c ****     if (!(replacement->type & cJSON_StringIsConst) && (replacement->string != NULL))
2224:../../iot_link/cJSON/cJSON.c ****     {
2225:../../iot_link/cJSON/cJSON.c ****         cJSON_free(replacement->string);
2226:../../iot_link/cJSON/cJSON.c ****     }
2227:../../iot_link/cJSON/cJSON.c ****     replacement->string = (char*)cJSON_strdup((const unsigned char*)string, &global_hooks);
2228:../../iot_link/cJSON/cJSON.c ****     replacement->type &= ~cJSON_StringIsConst;
2229:../../iot_link/cJSON/cJSON.c **** 
2230:../../iot_link/cJSON/cJSON.c ****     cJSON_ReplaceItemViaPointer(object, get_object_item(object, string, case_sensitive), replacemen
2231:../../iot_link/cJSON/cJSON.c **** 
2232:../../iot_link/cJSON/cJSON.c ****     return true;
2233:../../iot_link/cJSON/cJSON.c **** }
2234:../../iot_link/cJSON/cJSON.c **** 
ARM GAS  C:\Users\LuckyE\AppData\Local\Temp\ccgn9LZs.s 			page 131


2235:../../iot_link/cJSON/cJSON.c **** CJSON_PUBLIC(void) cJSON_ReplaceItemInObject(cJSON *object, const char *string, cJSON *newitem)
2236:../../iot_link/cJSON/cJSON.c **** {
2237:../../iot_link/cJSON/cJSON.c ****     replace_item_in_object(object, string, newitem, false);
2238:../../iot_link/cJSON/cJSON.c **** }
2239:../../iot_link/cJSON/cJSON.c **** 
2240:../../iot_link/cJSON/cJSON.c **** CJSON_PUBLIC(void) cJSON_ReplaceItemInObjectCaseSensitive(cJSON *object, const char *string, cJSON 
2241:../../iot_link/cJSON/cJSON.c **** {
2242:../../iot_link/cJSON/cJSON.c ****     replace_item_in_object(object, string, newitem, true);
2243:../../iot_link/cJSON/cJSON.c **** }
2244:../../iot_link/cJSON/cJSON.c **** 
2245:../../iot_link/cJSON/cJSON.c **** /* Create basic types: */
2246:../../iot_link/cJSON/cJSON.c **** CJSON_PUBLIC(cJSON *) cJSON_CreateNull(void)
2247:../../iot_link/cJSON/cJSON.c **** {
 4615              		.loc 1 2247 0
 4616              		.cfi_startproc
 4617              		@ args = 0, pretend = 0, frame = 0
 4618              		@ frame_needed = 0, uses_anonymous_args = 0
 4619 0000 08B5     		push	{r3, lr}
 4620              	.LCFI68:
 4621              		.cfi_def_cfa_offset 8
 4622              		.cfi_offset 3, -8
 4623              		.cfi_offset 14, -4
2248:../../iot_link/cJSON/cJSON.c ****     cJSON *item = cJSON_New_Item(&global_hooks);
 4624              		.loc 1 2248 0
 4625 0002 044B     		ldr	r3, .L664
 4626 0004 1868     		ldr	r0, [r3]
 4627 0006 FFF7FEFF 		bl	cJSON_New_Item.isra.1
 4628              	.LVL523:
2249:../../iot_link/cJSON/cJSON.c ****     if(item)
 4629              		.loc 1 2249 0
 4630 000a 08B1     		cbz	r0, .L659
2250:../../iot_link/cJSON/cJSON.c ****     {
2251:../../iot_link/cJSON/cJSON.c ****         item->type = cJSON_NULL;
 4631              		.loc 1 2251 0
 4632 000c 0423     		movs	r3, #4
 4633 000e C360     		str	r3, [r0, #12]
 4634              	.L659:
2252:../../iot_link/cJSON/cJSON.c ****     }
2253:../../iot_link/cJSON/cJSON.c **** 
2254:../../iot_link/cJSON/cJSON.c ****     return item;
2255:../../iot_link/cJSON/cJSON.c **** }
 4635              		.loc 1 2255 0
 4636 0010 08BD     		pop	{r3, pc}
 4637              	.L665:
 4638 0012 00BF     		.align	2
 4639              	.L664:
 4640 0014 00000000 		.word	.LANCHOR0
 4641              		.cfi_endproc
 4642              	.LFE76:
 4644              		.section	.text.cJSON_AddNullToObject,"ax",%progbits
 4645              		.align	1
 4646              		.global	cJSON_AddNullToObject
 4647              		.syntax unified
 4648              		.thumb
 4649              		.thumb_func
 4650              		.fpu fpv4-sp-d16
 4652              	cJSON_AddNullToObject:
ARM GAS  C:\Users\LuckyE\AppData\Local\Temp\ccgn9LZs.s 			page 132


 4653              	.LFB54:
1964:../../iot_link/cJSON/cJSON.c ****     cJSON *null = cJSON_CreateNull();
 4654              		.loc 1 1964 0
 4655              		.cfi_startproc
 4656              		@ args = 0, pretend = 0, frame = 0
 4657              		@ frame_needed = 0, uses_anonymous_args = 0
 4658              	.LVL524:
 4659 0000 70B5     		push	{r4, r5, r6, lr}
 4660              	.LCFI69:
 4661              		.cfi_def_cfa_offset 16
 4662              		.cfi_offset 4, -16
 4663              		.cfi_offset 5, -12
 4664              		.cfi_offset 6, -8
 4665              		.cfi_offset 14, -4
1964:../../iot_link/cJSON/cJSON.c ****     cJSON *null = cJSON_CreateNull();
 4666              		.loc 1 1964 0
 4667 0002 0546     		mov	r5, r0
 4668 0004 0E46     		mov	r6, r1
1965:../../iot_link/cJSON/cJSON.c ****     if (add_item_to_object(object, name, null, &global_hooks, false))
 4669              		.loc 1 1965 0
 4670 0006 FFF7FEFF 		bl	cJSON_CreateNull
 4671              	.LVL525:
1966:../../iot_link/cJSON/cJSON.c ****     {
 4672              		.loc 1 1966 0
 4673 000a 0023     		movs	r3, #0
 4674 000c 0246     		mov	r2, r0
1965:../../iot_link/cJSON/cJSON.c ****     if (add_item_to_object(object, name, null, &global_hooks, false))
 4675              		.loc 1 1965 0
 4676 000e 0446     		mov	r4, r0
 4677              	.LVL526:
1966:../../iot_link/cJSON/cJSON.c ****     {
 4678              		.loc 1 1966 0
 4679 0010 3146     		mov	r1, r6
 4680 0012 2846     		mov	r0, r5
 4681              	.LVL527:
 4682 0014 FFF7FEFF 		bl	add_item_to_object.constprop.11
 4683              	.LVL528:
 4684 0018 0546     		mov	r5, r0
 4685              	.LVL529:
 4686 001a 18B9     		cbnz	r0, .L666
1971:../../iot_link/cJSON/cJSON.c ****     return NULL;
 4687              		.loc 1 1971 0
 4688 001c 2046     		mov	r0, r4
 4689 001e FFF7FEFF 		bl	cJSON_Delete
 4690              	.LVL530:
1972:../../iot_link/cJSON/cJSON.c **** }
 4691              		.loc 1 1972 0
 4692 0022 2C46     		mov	r4, r5
 4693              	.LVL531:
 4694              	.L666:
1973:../../iot_link/cJSON/cJSON.c **** 
 4695              		.loc 1 1973 0
 4696 0024 2046     		mov	r0, r4
 4697 0026 70BD     		pop	{r4, r5, r6, pc}
 4698              		.cfi_endproc
 4699              	.LFE54:
 4701              		.section	.text.cJSON_CreateTrue,"ax",%progbits
ARM GAS  C:\Users\LuckyE\AppData\Local\Temp\ccgn9LZs.s 			page 133


 4702              		.align	1
 4703              		.global	cJSON_CreateTrue
 4704              		.syntax unified
 4705              		.thumb
 4706              		.thumb_func
 4707              		.fpu fpv4-sp-d16
 4709              	cJSON_CreateTrue:
 4710              	.LFB77:
2256:../../iot_link/cJSON/cJSON.c **** 
2257:../../iot_link/cJSON/cJSON.c **** CJSON_PUBLIC(cJSON *) cJSON_CreateTrue(void)
2258:../../iot_link/cJSON/cJSON.c **** {
 4711              		.loc 1 2258 0
 4712              		.cfi_startproc
 4713              		@ args = 0, pretend = 0, frame = 0
 4714              		@ frame_needed = 0, uses_anonymous_args = 0
 4715 0000 08B5     		push	{r3, lr}
 4716              	.LCFI70:
 4717              		.cfi_def_cfa_offset 8
 4718              		.cfi_offset 3, -8
 4719              		.cfi_offset 14, -4
2259:../../iot_link/cJSON/cJSON.c ****     cJSON *item = cJSON_New_Item(&global_hooks);
 4720              		.loc 1 2259 0
 4721 0002 044B     		ldr	r3, .L673
 4722 0004 1868     		ldr	r0, [r3]
 4723 0006 FFF7FEFF 		bl	cJSON_New_Item.isra.1
 4724              	.LVL532:
2260:../../iot_link/cJSON/cJSON.c ****     if(item)
 4725              		.loc 1 2260 0
 4726 000a 08B1     		cbz	r0, .L668
2261:../../iot_link/cJSON/cJSON.c ****     {
2262:../../iot_link/cJSON/cJSON.c ****         item->type = cJSON_True;
 4727              		.loc 1 2262 0
 4728 000c 0223     		movs	r3, #2
 4729 000e C360     		str	r3, [r0, #12]
 4730              	.L668:
2263:../../iot_link/cJSON/cJSON.c ****     }
2264:../../iot_link/cJSON/cJSON.c **** 
2265:../../iot_link/cJSON/cJSON.c ****     return item;
2266:../../iot_link/cJSON/cJSON.c **** }
 4731              		.loc 1 2266 0
 4732 0010 08BD     		pop	{r3, pc}
 4733              	.L674:
 4734 0012 00BF     		.align	2
 4735              	.L673:
 4736 0014 00000000 		.word	.LANCHOR0
 4737              		.cfi_endproc
 4738              	.LFE77:
 4740              		.section	.text.cJSON_AddTrueToObject,"ax",%progbits
 4741              		.align	1
 4742              		.global	cJSON_AddTrueToObject
 4743              		.syntax unified
 4744              		.thumb
 4745              		.thumb_func
 4746              		.fpu fpv4-sp-d16
 4748              	cJSON_AddTrueToObject:
 4749              	.LFB55:
1976:../../iot_link/cJSON/cJSON.c ****     cJSON *true_item = cJSON_CreateTrue();
ARM GAS  C:\Users\LuckyE\AppData\Local\Temp\ccgn9LZs.s 			page 134


 4750              		.loc 1 1976 0
 4751              		.cfi_startproc
 4752              		@ args = 0, pretend = 0, frame = 0
 4753              		@ frame_needed = 0, uses_anonymous_args = 0
 4754              	.LVL533:
 4755 0000 70B5     		push	{r4, r5, r6, lr}
 4756              	.LCFI71:
 4757              		.cfi_def_cfa_offset 16
 4758              		.cfi_offset 4, -16
 4759              		.cfi_offset 5, -12
 4760              		.cfi_offset 6, -8
 4761              		.cfi_offset 14, -4
1976:../../iot_link/cJSON/cJSON.c ****     cJSON *true_item = cJSON_CreateTrue();
 4762              		.loc 1 1976 0
 4763 0002 0546     		mov	r5, r0
 4764 0004 0E46     		mov	r6, r1
1977:../../iot_link/cJSON/cJSON.c ****     if (add_item_to_object(object, name, true_item, &global_hooks, false))
 4765              		.loc 1 1977 0
 4766 0006 FFF7FEFF 		bl	cJSON_CreateTrue
 4767              	.LVL534:
1978:../../iot_link/cJSON/cJSON.c ****     {
 4768              		.loc 1 1978 0
 4769 000a 0023     		movs	r3, #0
 4770 000c 0246     		mov	r2, r0
1977:../../iot_link/cJSON/cJSON.c ****     if (add_item_to_object(object, name, true_item, &global_hooks, false))
 4771              		.loc 1 1977 0
 4772 000e 0446     		mov	r4, r0
 4773              	.LVL535:
1978:../../iot_link/cJSON/cJSON.c ****     {
 4774              		.loc 1 1978 0
 4775 0010 3146     		mov	r1, r6
 4776 0012 2846     		mov	r0, r5
 4777              	.LVL536:
 4778 0014 FFF7FEFF 		bl	add_item_to_object.constprop.11
 4779              	.LVL537:
 4780 0018 0546     		mov	r5, r0
 4781              	.LVL538:
 4782 001a 18B9     		cbnz	r0, .L675
1983:../../iot_link/cJSON/cJSON.c ****     return NULL;
 4783              		.loc 1 1983 0
 4784 001c 2046     		mov	r0, r4
 4785 001e FFF7FEFF 		bl	cJSON_Delete
 4786              	.LVL539:
1984:../../iot_link/cJSON/cJSON.c **** }
 4787              		.loc 1 1984 0
 4788 0022 2C46     		mov	r4, r5
 4789              	.LVL540:
 4790              	.L675:
1985:../../iot_link/cJSON/cJSON.c **** 
 4791              		.loc 1 1985 0
 4792 0024 2046     		mov	r0, r4
 4793 0026 70BD     		pop	{r4, r5, r6, pc}
 4794              		.cfi_endproc
 4795              	.LFE55:
 4797              		.section	.text.cJSON_CreateFalse,"ax",%progbits
 4798              		.align	1
 4799              		.global	cJSON_CreateFalse
ARM GAS  C:\Users\LuckyE\AppData\Local\Temp\ccgn9LZs.s 			page 135


 4800              		.syntax unified
 4801              		.thumb
 4802              		.thumb_func
 4803              		.fpu fpv4-sp-d16
 4805              	cJSON_CreateFalse:
 4806              	.LFB78:
2267:../../iot_link/cJSON/cJSON.c **** 
2268:../../iot_link/cJSON/cJSON.c **** CJSON_PUBLIC(cJSON *) cJSON_CreateFalse(void)
2269:../../iot_link/cJSON/cJSON.c **** {
 4807              		.loc 1 2269 0
 4808              		.cfi_startproc
 4809              		@ args = 0, pretend = 0, frame = 0
 4810              		@ frame_needed = 0, uses_anonymous_args = 0
 4811 0000 08B5     		push	{r3, lr}
 4812              	.LCFI72:
 4813              		.cfi_def_cfa_offset 8
 4814              		.cfi_offset 3, -8
 4815              		.cfi_offset 14, -4
2270:../../iot_link/cJSON/cJSON.c ****     cJSON *item = cJSON_New_Item(&global_hooks);
 4816              		.loc 1 2270 0
 4817 0002 044B     		ldr	r3, .L682
 4818 0004 1868     		ldr	r0, [r3]
 4819 0006 FFF7FEFF 		bl	cJSON_New_Item.isra.1
 4820              	.LVL541:
2271:../../iot_link/cJSON/cJSON.c ****     if(item)
 4821              		.loc 1 2271 0
 4822 000a 08B1     		cbz	r0, .L677
2272:../../iot_link/cJSON/cJSON.c ****     {
2273:../../iot_link/cJSON/cJSON.c ****         item->type = cJSON_False;
 4823              		.loc 1 2273 0
 4824 000c 0123     		movs	r3, #1
 4825 000e C360     		str	r3, [r0, #12]
 4826              	.L677:
2274:../../iot_link/cJSON/cJSON.c ****     }
2275:../../iot_link/cJSON/cJSON.c **** 
2276:../../iot_link/cJSON/cJSON.c ****     return item;
2277:../../iot_link/cJSON/cJSON.c **** }
 4827              		.loc 1 2277 0
 4828 0010 08BD     		pop	{r3, pc}
 4829              	.L683:
 4830 0012 00BF     		.align	2
 4831              	.L682:
 4832 0014 00000000 		.word	.LANCHOR0
 4833              		.cfi_endproc
 4834              	.LFE78:
 4836              		.section	.text.cJSON_AddFalseToObject,"ax",%progbits
 4837              		.align	1
 4838              		.global	cJSON_AddFalseToObject
 4839              		.syntax unified
 4840              		.thumb
 4841              		.thumb_func
 4842              		.fpu fpv4-sp-d16
 4844              	cJSON_AddFalseToObject:
 4845              	.LFB56:
1988:../../iot_link/cJSON/cJSON.c ****     cJSON *false_item = cJSON_CreateFalse();
 4846              		.loc 1 1988 0
 4847              		.cfi_startproc
ARM GAS  C:\Users\LuckyE\AppData\Local\Temp\ccgn9LZs.s 			page 136


 4848              		@ args = 0, pretend = 0, frame = 0
 4849              		@ frame_needed = 0, uses_anonymous_args = 0
 4850              	.LVL542:
 4851 0000 70B5     		push	{r4, r5, r6, lr}
 4852              	.LCFI73:
 4853              		.cfi_def_cfa_offset 16
 4854              		.cfi_offset 4, -16
 4855              		.cfi_offset 5, -12
 4856              		.cfi_offset 6, -8
 4857              		.cfi_offset 14, -4
1988:../../iot_link/cJSON/cJSON.c ****     cJSON *false_item = cJSON_CreateFalse();
 4858              		.loc 1 1988 0
 4859 0002 0546     		mov	r5, r0
 4860 0004 0E46     		mov	r6, r1
1989:../../iot_link/cJSON/cJSON.c ****     if (add_item_to_object(object, name, false_item, &global_hooks, false))
 4861              		.loc 1 1989 0
 4862 0006 FFF7FEFF 		bl	cJSON_CreateFalse
 4863              	.LVL543:
1990:../../iot_link/cJSON/cJSON.c ****     {
 4864              		.loc 1 1990 0
 4865 000a 0023     		movs	r3, #0
 4866 000c 0246     		mov	r2, r0
1989:../../iot_link/cJSON/cJSON.c ****     if (add_item_to_object(object, name, false_item, &global_hooks, false))
 4867              		.loc 1 1989 0
 4868 000e 0446     		mov	r4, r0
 4869              	.LVL544:
1990:../../iot_link/cJSON/cJSON.c ****     {
 4870              		.loc 1 1990 0
 4871 0010 3146     		mov	r1, r6
 4872 0012 2846     		mov	r0, r5
 4873              	.LVL545:
 4874 0014 FFF7FEFF 		bl	add_item_to_object.constprop.11
 4875              	.LVL546:
 4876 0018 0546     		mov	r5, r0
 4877              	.LVL547:
 4878 001a 18B9     		cbnz	r0, .L684
1995:../../iot_link/cJSON/cJSON.c ****     return NULL;
 4879              		.loc 1 1995 0
 4880 001c 2046     		mov	r0, r4
 4881 001e FFF7FEFF 		bl	cJSON_Delete
 4882              	.LVL548:
1996:../../iot_link/cJSON/cJSON.c **** }
 4883              		.loc 1 1996 0
 4884 0022 2C46     		mov	r4, r5
 4885              	.LVL549:
 4886              	.L684:
1997:../../iot_link/cJSON/cJSON.c **** 
 4887              		.loc 1 1997 0
 4888 0024 2046     		mov	r0, r4
 4889 0026 70BD     		pop	{r4, r5, r6, pc}
 4890              		.cfi_endproc
 4891              	.LFE56:
 4893              		.section	.text.cJSON_CreateBool,"ax",%progbits
 4894              		.align	1
 4895              		.global	cJSON_CreateBool
 4896              		.syntax unified
 4897              		.thumb
ARM GAS  C:\Users\LuckyE\AppData\Local\Temp\ccgn9LZs.s 			page 137


 4898              		.thumb_func
 4899              		.fpu fpv4-sp-d16
 4901              	cJSON_CreateBool:
 4902              	.LFB79:
2278:../../iot_link/cJSON/cJSON.c **** 
2279:../../iot_link/cJSON/cJSON.c **** CJSON_PUBLIC(cJSON *) cJSON_CreateBool(cJSON_bool b)
2280:../../iot_link/cJSON/cJSON.c **** {
 4903              		.loc 1 2280 0
 4904              		.cfi_startproc
 4905              		@ args = 0, pretend = 0, frame = 0
 4906              		@ frame_needed = 0, uses_anonymous_args = 0
 4907              	.LVL550:
2281:../../iot_link/cJSON/cJSON.c ****     cJSON *item = cJSON_New_Item(&global_hooks);
 4908              		.loc 1 2281 0
 4909 0000 064B     		ldr	r3, .L693
2280:../../iot_link/cJSON/cJSON.c ****     cJSON *item = cJSON_New_Item(&global_hooks);
 4910              		.loc 1 2280 0
 4911 0002 10B5     		push	{r4, lr}
 4912              	.LCFI74:
 4913              		.cfi_def_cfa_offset 8
 4914              		.cfi_offset 4, -8
 4915              		.cfi_offset 14, -4
2280:../../iot_link/cJSON/cJSON.c ****     cJSON *item = cJSON_New_Item(&global_hooks);
 4916              		.loc 1 2280 0
 4917 0004 0446     		mov	r4, r0
 4918              		.loc 1 2281 0
 4919 0006 1868     		ldr	r0, [r3]
 4920              	.LVL551:
 4921 0008 FFF7FEFF 		bl	cJSON_New_Item.isra.1
 4922              	.LVL552:
2282:../../iot_link/cJSON/cJSON.c ****     if(item)
 4923              		.loc 1 2282 0
 4924 000c 20B1     		cbz	r0, .L686
2283:../../iot_link/cJSON/cJSON.c ****     {
2284:../../iot_link/cJSON/cJSON.c ****         item->type = b ? cJSON_True : cJSON_False;
 4925              		.loc 1 2284 0
 4926 000e 002C     		cmp	r4, #0
 4927 0010 14BF     		ite	ne
 4928 0012 0223     		movne	r3, #2
 4929 0014 0123     		moveq	r3, #1
 4930 0016 C360     		str	r3, [r0, #12]
 4931              	.L686:
2285:../../iot_link/cJSON/cJSON.c ****     }
2286:../../iot_link/cJSON/cJSON.c **** 
2287:../../iot_link/cJSON/cJSON.c ****     return item;
2288:../../iot_link/cJSON/cJSON.c **** }
 4932              		.loc 1 2288 0
 4933 0018 10BD     		pop	{r4, pc}
 4934              	.LVL553:
 4935              	.L694:
 4936 001a 00BF     		.align	2
 4937              	.L693:
 4938 001c 00000000 		.word	.LANCHOR0
 4939              		.cfi_endproc
 4940              	.LFE79:
 4942              		.section	.text.cJSON_AddBoolToObject,"ax",%progbits
 4943              		.align	1
ARM GAS  C:\Users\LuckyE\AppData\Local\Temp\ccgn9LZs.s 			page 138


 4944              		.global	cJSON_AddBoolToObject
 4945              		.syntax unified
 4946              		.thumb
 4947              		.thumb_func
 4948              		.fpu fpv4-sp-d16
 4950              	cJSON_AddBoolToObject:
 4951              	.LFB57:
2000:../../iot_link/cJSON/cJSON.c ****     cJSON *bool_item = cJSON_CreateBool(boolean);
 4952              		.loc 1 2000 0
 4953              		.cfi_startproc
 4954              		@ args = 0, pretend = 0, frame = 0
 4955              		@ frame_needed = 0, uses_anonymous_args = 0
 4956              	.LVL554:
 4957 0000 70B5     		push	{r4, r5, r6, lr}
 4958              	.LCFI75:
 4959              		.cfi_def_cfa_offset 16
 4960              		.cfi_offset 4, -16
 4961              		.cfi_offset 5, -12
 4962              		.cfi_offset 6, -8
 4963              		.cfi_offset 14, -4
2000:../../iot_link/cJSON/cJSON.c ****     cJSON *bool_item = cJSON_CreateBool(boolean);
 4964              		.loc 1 2000 0
 4965 0002 0546     		mov	r5, r0
2001:../../iot_link/cJSON/cJSON.c ****     if (add_item_to_object(object, name, bool_item, &global_hooks, false))
 4966              		.loc 1 2001 0
 4967 0004 1046     		mov	r0, r2
 4968              	.LVL555:
2000:../../iot_link/cJSON/cJSON.c ****     cJSON *bool_item = cJSON_CreateBool(boolean);
 4969              		.loc 1 2000 0
 4970 0006 0E46     		mov	r6, r1
2001:../../iot_link/cJSON/cJSON.c ****     if (add_item_to_object(object, name, bool_item, &global_hooks, false))
 4971              		.loc 1 2001 0
 4972 0008 FFF7FEFF 		bl	cJSON_CreateBool
 4973              	.LVL556:
2002:../../iot_link/cJSON/cJSON.c ****     {
 4974              		.loc 1 2002 0
 4975 000c 0023     		movs	r3, #0
 4976 000e 0246     		mov	r2, r0
2001:../../iot_link/cJSON/cJSON.c ****     if (add_item_to_object(object, name, bool_item, &global_hooks, false))
 4977              		.loc 1 2001 0
 4978 0010 0446     		mov	r4, r0
 4979              	.LVL557:
2002:../../iot_link/cJSON/cJSON.c ****     {
 4980              		.loc 1 2002 0
 4981 0012 3146     		mov	r1, r6
 4982 0014 2846     		mov	r0, r5
 4983              	.LVL558:
 4984 0016 FFF7FEFF 		bl	add_item_to_object.constprop.11
 4985              	.LVL559:
 4986 001a 0546     		mov	r5, r0
 4987              	.LVL560:
 4988 001c 18B9     		cbnz	r0, .L695
2007:../../iot_link/cJSON/cJSON.c ****     return NULL;
 4989              		.loc 1 2007 0
 4990 001e 2046     		mov	r0, r4
 4991 0020 FFF7FEFF 		bl	cJSON_Delete
 4992              	.LVL561:
ARM GAS  C:\Users\LuckyE\AppData\Local\Temp\ccgn9LZs.s 			page 139


2008:../../iot_link/cJSON/cJSON.c **** }
 4993              		.loc 1 2008 0
 4994 0024 2C46     		mov	r4, r5
 4995              	.LVL562:
 4996              	.L695:
2009:../../iot_link/cJSON/cJSON.c **** 
 4997              		.loc 1 2009 0
 4998 0026 2046     		mov	r0, r4
 4999 0028 70BD     		pop	{r4, r5, r6, pc}
 5000              		.cfi_endproc
 5001              	.LFE57:
 5003              		.section	.text.cJSON_CreateNumber,"ax",%progbits
 5004              		.align	1
 5005              		.global	cJSON_CreateNumber
 5006              		.syntax unified
 5007              		.thumb
 5008              		.thumb_func
 5009              		.fpu fpv4-sp-d16
 5011              	cJSON_CreateNumber:
 5012              	.LFB80:
2289:../../iot_link/cJSON/cJSON.c **** 
2290:../../iot_link/cJSON/cJSON.c **** CJSON_PUBLIC(cJSON *) cJSON_CreateNumber(double num)
2291:../../iot_link/cJSON/cJSON.c **** {
 5013              		.loc 1 2291 0
 5014              		.cfi_startproc
 5015              		@ args = 0, pretend = 0, frame = 0
 5016              		@ frame_needed = 0, uses_anonymous_args = 0
 5017              	.LVL563:
2292:../../iot_link/cJSON/cJSON.c ****     cJSON *item = cJSON_New_Item(&global_hooks);
 5018              		.loc 1 2292 0
 5019 0000 174B     		ldr	r3, .L711+8
2291:../../iot_link/cJSON/cJSON.c ****     cJSON *item = cJSON_New_Item(&global_hooks);
 5020              		.loc 1 2291 0
 5021 0002 D0B5     		push	{r4, r6, r7, lr}
 5022              	.LCFI76:
 5023              		.cfi_def_cfa_offset 16
 5024              		.cfi_offset 4, -16
 5025              		.cfi_offset 6, -12
 5026              		.cfi_offset 7, -8
 5027              		.cfi_offset 14, -4
 5028              		.loc 1 2292 0
 5029 0004 1868     		ldr	r0, [r3]
2291:../../iot_link/cJSON/cJSON.c ****     cJSON *item = cJSON_New_Item(&global_hooks);
 5030              		.loc 1 2291 0
 5031 0006 57EC106B 		vmov	r6, r7, d0
 5032              		.loc 1 2292 0
 5033 000a FFF7FEFF 		bl	cJSON_New_Item.isra.1
 5034              	.LVL564:
2293:../../iot_link/cJSON/cJSON.c ****     if(item)
 5035              		.loc 1 2293 0
 5036 000e 0446     		mov	r4, r0
 5037 0010 70B1     		cbz	r0, .L697
2294:../../iot_link/cJSON/cJSON.c ****     {
2295:../../iot_link/cJSON/cJSON.c ****         item->type = cJSON_Number;
 5038              		.loc 1 2295 0
 5039 0012 0823     		movs	r3, #8
 5040 0014 C360     		str	r3, [r0, #12]
ARM GAS  C:\Users\LuckyE\AppData\Local\Temp\ccgn9LZs.s 			page 140


2296:../../iot_link/cJSON/cJSON.c ****         item->valuedouble = num;
 5041              		.loc 1 2296 0
 5042 0016 C0E90667 		strd	r6, [r0, #24]
2297:../../iot_link/cJSON/cJSON.c **** 
2298:../../iot_link/cJSON/cJSON.c ****         /* use saturation in case of overflow */
2299:../../iot_link/cJSON/cJSON.c ****         if (num >= INT_MAX)
 5043              		.loc 1 2299 0
 5044 001a 0FA3     		adr	r3, .L711
 5045 001c D3E90023 		ldrd	r2, [r3]
 5046 0020 3046     		mov	r0, r6
 5047              	.LVL565:
 5048 0022 3946     		mov	r1, r7
 5049 0024 FFF7FEFF 		bl	__aeabi_dcmpge
 5050              	.LVL566:
 5051 0028 20B1     		cbz	r0, .L708
2300:../../iot_link/cJSON/cJSON.c ****         {
2301:../../iot_link/cJSON/cJSON.c ****             item->valueint = INT_MAX;
 5052              		.loc 1 2301 0
 5053 002a 6FF00043 		mvn	r3, #-2147483648
 5054              	.L710:
2302:../../iot_link/cJSON/cJSON.c ****         }
2303:../../iot_link/cJSON/cJSON.c ****         else if (num <= INT_MIN)
2304:../../iot_link/cJSON/cJSON.c ****         {
2305:../../iot_link/cJSON/cJSON.c ****             item->valueint = INT_MIN;
 5055              		.loc 1 2305 0
 5056 002e 6361     		str	r3, [r4, #20]
 5057              	.L697:
2306:../../iot_link/cJSON/cJSON.c ****         }
2307:../../iot_link/cJSON/cJSON.c ****         else
2308:../../iot_link/cJSON/cJSON.c ****         {
2309:../../iot_link/cJSON/cJSON.c ****             item->valueint = (int)num;
2310:../../iot_link/cJSON/cJSON.c ****         }
2311:../../iot_link/cJSON/cJSON.c ****     }
2312:../../iot_link/cJSON/cJSON.c **** 
2313:../../iot_link/cJSON/cJSON.c ****     return item;
2314:../../iot_link/cJSON/cJSON.c **** }
 5058              		.loc 1 2314 0
 5059 0030 2046     		mov	r0, r4
 5060 0032 D0BD     		pop	{r4, r6, r7, pc}
 5061              	.LVL567:
 5062              	.L708:
2303:../../iot_link/cJSON/cJSON.c ****         {
 5063              		.loc 1 2303 0
 5064 0034 0022     		movs	r2, #0
 5065 0036 0B4B     		ldr	r3, .L711+12
 5066 0038 3046     		mov	r0, r6
 5067 003a 3946     		mov	r1, r7
 5068 003c FFF7FEFF 		bl	__aeabi_dcmple
 5069              	.LVL568:
 5070 0040 10B1     		cbz	r0, .L709
2305:../../iot_link/cJSON/cJSON.c ****         }
 5071              		.loc 1 2305 0
 5072 0042 4FF00043 		mov	r3, #-2147483648
 5073 0046 F2E7     		b	.L710
 5074              	.L709:
2309:../../iot_link/cJSON/cJSON.c ****         }
 5075              		.loc 1 2309 0
ARM GAS  C:\Users\LuckyE\AppData\Local\Temp\ccgn9LZs.s 			page 141


 5076 0048 3046     		mov	r0, r6
 5077 004a 3946     		mov	r1, r7
 5078 004c FFF7FEFF 		bl	__aeabi_d2iz
 5079              	.LVL569:
 5080 0050 6061     		str	r0, [r4, #20]
2313:../../iot_link/cJSON/cJSON.c **** }
 5081              		.loc 1 2313 0
 5082 0052 EDE7     		b	.L697
 5083              	.L712:
 5084 0054 AFF30080 		.align	3
 5085              	.L711:
 5086 0058 0000C0FF 		.word	-4194304
 5087 005c FFFFDF41 		.word	1105199103
 5088 0060 00000000 		.word	.LANCHOR0
 5089 0064 0000E0C1 		.word	-1042284544
 5090              		.cfi_endproc
 5091              	.LFE80:
 5093              		.section	.text.cJSON_AddNumberToObject,"ax",%progbits
 5094              		.align	1
 5095              		.global	cJSON_AddNumberToObject
 5096              		.syntax unified
 5097              		.thumb
 5098              		.thumb_func
 5099              		.fpu fpv4-sp-d16
 5101              	cJSON_AddNumberToObject:
 5102              	.LFB58:
2012:../../iot_link/cJSON/cJSON.c ****     cJSON *number_item = cJSON_CreateNumber(number);
 5103              		.loc 1 2012 0
 5104              		.cfi_startproc
 5105              		@ args = 0, pretend = 0, frame = 0
 5106              		@ frame_needed = 0, uses_anonymous_args = 0
 5107              	.LVL570:
 5108 0000 70B5     		push	{r4, r5, r6, lr}
 5109              	.LCFI77:
 5110              		.cfi_def_cfa_offset 16
 5111              		.cfi_offset 4, -16
 5112              		.cfi_offset 5, -12
 5113              		.cfi_offset 6, -8
 5114              		.cfi_offset 14, -4
2012:../../iot_link/cJSON/cJSON.c ****     cJSON *number_item = cJSON_CreateNumber(number);
 5115              		.loc 1 2012 0
 5116 0002 0546     		mov	r5, r0
 5117 0004 0E46     		mov	r6, r1
2013:../../iot_link/cJSON/cJSON.c ****     if (add_item_to_object(object, name, number_item, &global_hooks, false))
 5118              		.loc 1 2013 0
 5119 0006 FFF7FEFF 		bl	cJSON_CreateNumber
 5120              	.LVL571:
2014:../../iot_link/cJSON/cJSON.c ****     {
 5121              		.loc 1 2014 0
 5122 000a 0023     		movs	r3, #0
 5123 000c 0246     		mov	r2, r0
2013:../../iot_link/cJSON/cJSON.c ****     if (add_item_to_object(object, name, number_item, &global_hooks, false))
 5124              		.loc 1 2013 0
 5125 000e 0446     		mov	r4, r0
 5126              	.LVL572:
2014:../../iot_link/cJSON/cJSON.c ****     {
 5127              		.loc 1 2014 0
ARM GAS  C:\Users\LuckyE\AppData\Local\Temp\ccgn9LZs.s 			page 142


 5128 0010 3146     		mov	r1, r6
 5129 0012 2846     		mov	r0, r5
 5130              	.LVL573:
 5131 0014 FFF7FEFF 		bl	add_item_to_object.constprop.11
 5132              	.LVL574:
 5133 0018 0546     		mov	r5, r0
 5134              	.LVL575:
 5135 001a 18B9     		cbnz	r0, .L713
2019:../../iot_link/cJSON/cJSON.c ****     return NULL;
 5136              		.loc 1 2019 0
 5137 001c 2046     		mov	r0, r4
 5138 001e FFF7FEFF 		bl	cJSON_Delete
 5139              	.LVL576:
2020:../../iot_link/cJSON/cJSON.c **** }
 5140              		.loc 1 2020 0
 5141 0022 2C46     		mov	r4, r5
 5142              	.LVL577:
 5143              	.L713:
2021:../../iot_link/cJSON/cJSON.c **** 
 5144              		.loc 1 2021 0
 5145 0024 2046     		mov	r0, r4
 5146 0026 70BD     		pop	{r4, r5, r6, pc}
 5147              		.cfi_endproc
 5148              	.LFE58:
 5150              		.section	.text.cJSON_CreateString,"ax",%progbits
 5151              		.align	1
 5152              		.global	cJSON_CreateString
 5153              		.syntax unified
 5154              		.thumb
 5155              		.thumb_func
 5156              		.fpu fpv4-sp-d16
 5158              	cJSON_CreateString:
 5159              	.LFB81:
2315:../../iot_link/cJSON/cJSON.c **** 
2316:../../iot_link/cJSON/cJSON.c **** CJSON_PUBLIC(cJSON *) cJSON_CreateString(const char *string)
2317:../../iot_link/cJSON/cJSON.c **** {
 5160              		.loc 1 2317 0
 5161              		.cfi_startproc
 5162              		@ args = 0, pretend = 0, frame = 0
 5163              		@ frame_needed = 0, uses_anonymous_args = 0
 5164              	.LVL578:
 5165 0000 38B5     		push	{r3, r4, r5, lr}
 5166              	.LCFI78:
 5167              		.cfi_def_cfa_offset 16
 5168              		.cfi_offset 3, -16
 5169              		.cfi_offset 4, -12
 5170              		.cfi_offset 5, -8
 5171              		.cfi_offset 14, -4
2318:../../iot_link/cJSON/cJSON.c ****     cJSON *item = cJSON_New_Item(&global_hooks);
 5172              		.loc 1 2318 0
 5173 0002 0A4B     		ldr	r3, .L720
2317:../../iot_link/cJSON/cJSON.c ****     cJSON *item = cJSON_New_Item(&global_hooks);
 5174              		.loc 1 2317 0
 5175 0004 0546     		mov	r5, r0
 5176              		.loc 1 2318 0
 5177 0006 1868     		ldr	r0, [r3]
 5178              	.LVL579:
ARM GAS  C:\Users\LuckyE\AppData\Local\Temp\ccgn9LZs.s 			page 143


 5179 0008 FFF7FEFF 		bl	cJSON_New_Item.isra.1
 5180              	.LVL580:
2319:../../iot_link/cJSON/cJSON.c ****     if(item)
 5181              		.loc 1 2319 0
 5182 000c 0446     		mov	r4, r0
 5183 000e 58B1     		cbz	r0, .L715
2320:../../iot_link/cJSON/cJSON.c ****     {
2321:../../iot_link/cJSON/cJSON.c ****         item->type = cJSON_String;
 5184              		.loc 1 2321 0
 5185 0010 1023     		movs	r3, #16
 5186 0012 C360     		str	r3, [r0, #12]
2322:../../iot_link/cJSON/cJSON.c ****         item->valuestring = (char*)cJSON_strdup((const unsigned char*)string, &global_hooks);
 5187              		.loc 1 2322 0
 5188 0014 2846     		mov	r0, r5
 5189              	.LVL581:
 5190 0016 FFF7FEFF 		bl	cJSON_strdup.isra.2.constprop.15
 5191              	.LVL582:
 5192 001a 0546     		mov	r5, r0
 5193              	.LVL583:
 5194 001c 2061     		str	r0, [r4, #16]
2323:../../iot_link/cJSON/cJSON.c ****         if(!item->valuestring)
 5195              		.loc 1 2323 0
 5196 001e 18B9     		cbnz	r0, .L715
2324:../../iot_link/cJSON/cJSON.c ****         {
2325:../../iot_link/cJSON/cJSON.c ****             cJSON_Delete(item);
 5197              		.loc 1 2325 0
 5198 0020 2046     		mov	r0, r4
 5199 0022 FFF7FEFF 		bl	cJSON_Delete
 5200              	.LVL584:
2326:../../iot_link/cJSON/cJSON.c ****             return NULL;
 5201              		.loc 1 2326 0
 5202 0026 2C46     		mov	r4, r5
 5203              	.LVL585:
 5204              	.L715:
2327:../../iot_link/cJSON/cJSON.c ****         }
2328:../../iot_link/cJSON/cJSON.c ****     }
2329:../../iot_link/cJSON/cJSON.c **** 
2330:../../iot_link/cJSON/cJSON.c ****     return item;
2331:../../iot_link/cJSON/cJSON.c **** }
 5205              		.loc 1 2331 0
 5206 0028 2046     		mov	r0, r4
 5207 002a 38BD     		pop	{r3, r4, r5, pc}
 5208              	.L721:
 5209              		.align	2
 5210              	.L720:
 5211 002c 00000000 		.word	.LANCHOR0
 5212              		.cfi_endproc
 5213              	.LFE81:
 5215              		.section	.text.cJSON_AddStringToObject,"ax",%progbits
 5216              		.align	1
 5217              		.global	cJSON_AddStringToObject
 5218              		.syntax unified
 5219              		.thumb
 5220              		.thumb_func
 5221              		.fpu fpv4-sp-d16
 5223              	cJSON_AddStringToObject:
 5224              	.LFB59:
ARM GAS  C:\Users\LuckyE\AppData\Local\Temp\ccgn9LZs.s 			page 144


2024:../../iot_link/cJSON/cJSON.c ****     cJSON *string_item = cJSON_CreateString(string);
 5225              		.loc 1 2024 0
 5226              		.cfi_startproc
 5227              		@ args = 0, pretend = 0, frame = 0
 5228              		@ frame_needed = 0, uses_anonymous_args = 0
 5229              	.LVL586:
 5230 0000 70B5     		push	{r4, r5, r6, lr}
 5231              	.LCFI79:
 5232              		.cfi_def_cfa_offset 16
 5233              		.cfi_offset 4, -16
 5234              		.cfi_offset 5, -12
 5235              		.cfi_offset 6, -8
 5236              		.cfi_offset 14, -4
2024:../../iot_link/cJSON/cJSON.c ****     cJSON *string_item = cJSON_CreateString(string);
 5237              		.loc 1 2024 0
 5238 0002 0546     		mov	r5, r0
2025:../../iot_link/cJSON/cJSON.c ****     if (add_item_to_object(object, name, string_item, &global_hooks, false))
 5239              		.loc 1 2025 0
 5240 0004 1046     		mov	r0, r2
 5241              	.LVL587:
2024:../../iot_link/cJSON/cJSON.c ****     cJSON *string_item = cJSON_CreateString(string);
 5242              		.loc 1 2024 0
 5243 0006 0E46     		mov	r6, r1
2025:../../iot_link/cJSON/cJSON.c ****     if (add_item_to_object(object, name, string_item, &global_hooks, false))
 5244              		.loc 1 2025 0
 5245 0008 FFF7FEFF 		bl	cJSON_CreateString
 5246              	.LVL588:
2026:../../iot_link/cJSON/cJSON.c ****     {
 5247              		.loc 1 2026 0
 5248 000c 0023     		movs	r3, #0
 5249 000e 0246     		mov	r2, r0
2025:../../iot_link/cJSON/cJSON.c ****     if (add_item_to_object(object, name, string_item, &global_hooks, false))
 5250              		.loc 1 2025 0
 5251 0010 0446     		mov	r4, r0
 5252              	.LVL589:
2026:../../iot_link/cJSON/cJSON.c ****     {
 5253              		.loc 1 2026 0
 5254 0012 3146     		mov	r1, r6
 5255 0014 2846     		mov	r0, r5
 5256              	.LVL590:
 5257 0016 FFF7FEFF 		bl	add_item_to_object.constprop.11
 5258              	.LVL591:
 5259 001a 0546     		mov	r5, r0
 5260              	.LVL592:
 5261 001c 18B9     		cbnz	r0, .L722
2031:../../iot_link/cJSON/cJSON.c ****     return NULL;
 5262              		.loc 1 2031 0
 5263 001e 2046     		mov	r0, r4
 5264 0020 FFF7FEFF 		bl	cJSON_Delete
 5265              	.LVL593:
2032:../../iot_link/cJSON/cJSON.c **** }
 5266              		.loc 1 2032 0
 5267 0024 2C46     		mov	r4, r5
 5268              	.LVL594:
 5269              	.L722:
2033:../../iot_link/cJSON/cJSON.c **** 
 5270              		.loc 1 2033 0
ARM GAS  C:\Users\LuckyE\AppData\Local\Temp\ccgn9LZs.s 			page 145


 5271 0026 2046     		mov	r0, r4
 5272 0028 70BD     		pop	{r4, r5, r6, pc}
 5273              		.cfi_endproc
 5274              	.LFE59:
 5276              		.section	.text.cJSON_CreateStringReference,"ax",%progbits
 5277              		.align	1
 5278              		.global	cJSON_CreateStringReference
 5279              		.syntax unified
 5280              		.thumb
 5281              		.thumb_func
 5282              		.fpu fpv4-sp-d16
 5284              	cJSON_CreateStringReference:
 5285              	.LFB82:
2332:../../iot_link/cJSON/cJSON.c **** 
2333:../../iot_link/cJSON/cJSON.c **** CJSON_PUBLIC(cJSON *) cJSON_CreateStringReference(const char *string)
2334:../../iot_link/cJSON/cJSON.c **** {
 5286              		.loc 1 2334 0
 5287              		.cfi_startproc
 5288              		@ args = 0, pretend = 0, frame = 0
 5289              		@ frame_needed = 0, uses_anonymous_args = 0
 5290              	.LVL595:
2335:../../iot_link/cJSON/cJSON.c ****     cJSON *item = cJSON_New_Item(&global_hooks);
 5291              		.loc 1 2335 0
 5292 0000 054B     		ldr	r3, .L729
2334:../../iot_link/cJSON/cJSON.c ****     cJSON *item = cJSON_New_Item(&global_hooks);
 5293              		.loc 1 2334 0
 5294 0002 10B5     		push	{r4, lr}
 5295              	.LCFI80:
 5296              		.cfi_def_cfa_offset 8
 5297              		.cfi_offset 4, -8
 5298              		.cfi_offset 14, -4
2334:../../iot_link/cJSON/cJSON.c ****     cJSON *item = cJSON_New_Item(&global_hooks);
 5299              		.loc 1 2334 0
 5300 0004 0446     		mov	r4, r0
 5301              		.loc 1 2335 0
 5302 0006 1868     		ldr	r0, [r3]
 5303              	.LVL596:
 5304 0008 FFF7FEFF 		bl	cJSON_New_Item.isra.1
 5305              	.LVL597:
2336:../../iot_link/cJSON/cJSON.c ****     if (item != NULL)
 5306              		.loc 1 2336 0
 5307 000c 18B1     		cbz	r0, .L724
2337:../../iot_link/cJSON/cJSON.c ****     {
2338:../../iot_link/cJSON/cJSON.c ****         item->type = cJSON_String | cJSON_IsReference;
 5308              		.loc 1 2338 0
 5309 000e 4FF48873 		mov	r3, #272
2339:../../iot_link/cJSON/cJSON.c ****         item->valuestring = (char*)cast_away_const(string);
 5310              		.loc 1 2339 0
 5311 0012 C0E90334 		strd	r3, r4, [r0, #12]
 5312              	.L724:
2340:../../iot_link/cJSON/cJSON.c ****     }
2341:../../iot_link/cJSON/cJSON.c **** 
2342:../../iot_link/cJSON/cJSON.c ****     return item;
2343:../../iot_link/cJSON/cJSON.c **** }
 5313              		.loc 1 2343 0
 5314 0016 10BD     		pop	{r4, pc}
 5315              	.LVL598:
ARM GAS  C:\Users\LuckyE\AppData\Local\Temp\ccgn9LZs.s 			page 146


 5316              	.L730:
 5317              		.align	2
 5318              	.L729:
 5319 0018 00000000 		.word	.LANCHOR0
 5320              		.cfi_endproc
 5321              	.LFE82:
 5323              		.section	.text.cJSON_CreateObjectReference,"ax",%progbits
 5324              		.align	1
 5325              		.global	cJSON_CreateObjectReference
 5326              		.syntax unified
 5327              		.thumb
 5328              		.thumb_func
 5329              		.fpu fpv4-sp-d16
 5331              	cJSON_CreateObjectReference:
 5332              	.LFB83:
2344:../../iot_link/cJSON/cJSON.c **** 
2345:../../iot_link/cJSON/cJSON.c **** CJSON_PUBLIC(cJSON *) cJSON_CreateObjectReference(const cJSON *child)
2346:../../iot_link/cJSON/cJSON.c **** {
 5333              		.loc 1 2346 0
 5334              		.cfi_startproc
 5335              		@ args = 0, pretend = 0, frame = 0
 5336              		@ frame_needed = 0, uses_anonymous_args = 0
 5337              	.LVL599:
2347:../../iot_link/cJSON/cJSON.c ****     cJSON *item = cJSON_New_Item(&global_hooks);
 5338              		.loc 1 2347 0
 5339 0000 054B     		ldr	r3, .L736
2346:../../iot_link/cJSON/cJSON.c ****     cJSON *item = cJSON_New_Item(&global_hooks);
 5340              		.loc 1 2346 0
 5341 0002 10B5     		push	{r4, lr}
 5342              	.LCFI81:
 5343              		.cfi_def_cfa_offset 8
 5344              		.cfi_offset 4, -8
 5345              		.cfi_offset 14, -4
2346:../../iot_link/cJSON/cJSON.c ****     cJSON *item = cJSON_New_Item(&global_hooks);
 5346              		.loc 1 2346 0
 5347 0004 0446     		mov	r4, r0
 5348              		.loc 1 2347 0
 5349 0006 1868     		ldr	r0, [r3]
 5350              	.LVL600:
 5351 0008 FFF7FEFF 		bl	cJSON_New_Item.isra.1
 5352              	.LVL601:
2348:../../iot_link/cJSON/cJSON.c ****     if (item != NULL) {
 5353              		.loc 1 2348 0
 5354 000c 18B1     		cbz	r0, .L731
2349:../../iot_link/cJSON/cJSON.c ****         item->type = cJSON_Object | cJSON_IsReference;
 5355              		.loc 1 2349 0
 5356 000e 4FF4A073 		mov	r3, #320
2350:../../iot_link/cJSON/cJSON.c ****         item->child = (cJSON*)cast_away_const(child);
 5357              		.loc 1 2350 0
 5358 0012 C0E90243 		strd	r4, r3, [r0, #8]
 5359              	.L731:
2351:../../iot_link/cJSON/cJSON.c ****     }
2352:../../iot_link/cJSON/cJSON.c **** 
2353:../../iot_link/cJSON/cJSON.c ****     return item;
2354:../../iot_link/cJSON/cJSON.c **** }
 5360              		.loc 1 2354 0
 5361 0016 10BD     		pop	{r4, pc}
ARM GAS  C:\Users\LuckyE\AppData\Local\Temp\ccgn9LZs.s 			page 147


 5362              	.LVL602:
 5363              	.L737:
 5364              		.align	2
 5365              	.L736:
 5366 0018 00000000 		.word	.LANCHOR0
 5367              		.cfi_endproc
 5368              	.LFE83:
 5370              		.section	.text.cJSON_CreateArrayReference,"ax",%progbits
 5371              		.align	1
 5372              		.global	cJSON_CreateArrayReference
 5373              		.syntax unified
 5374              		.thumb
 5375              		.thumb_func
 5376              		.fpu fpv4-sp-d16
 5378              	cJSON_CreateArrayReference:
 5379              	.LFB84:
2355:../../iot_link/cJSON/cJSON.c **** 
2356:../../iot_link/cJSON/cJSON.c **** CJSON_PUBLIC(cJSON *) cJSON_CreateArrayReference(const cJSON *child) {
 5380              		.loc 1 2356 0
 5381              		.cfi_startproc
 5382              		@ args = 0, pretend = 0, frame = 0
 5383              		@ frame_needed = 0, uses_anonymous_args = 0
 5384              	.LVL603:
2357:../../iot_link/cJSON/cJSON.c ****     cJSON *item = cJSON_New_Item(&global_hooks);
 5385              		.loc 1 2357 0
 5386 0000 054B     		ldr	r3, .L743
2356:../../iot_link/cJSON/cJSON.c ****     cJSON *item = cJSON_New_Item(&global_hooks);
 5387              		.loc 1 2356 0
 5388 0002 10B5     		push	{r4, lr}
 5389              	.LCFI82:
 5390              		.cfi_def_cfa_offset 8
 5391              		.cfi_offset 4, -8
 5392              		.cfi_offset 14, -4
2356:../../iot_link/cJSON/cJSON.c ****     cJSON *item = cJSON_New_Item(&global_hooks);
 5393              		.loc 1 2356 0
 5394 0004 0446     		mov	r4, r0
 5395              		.loc 1 2357 0
 5396 0006 1868     		ldr	r0, [r3]
 5397              	.LVL604:
 5398 0008 FFF7FEFF 		bl	cJSON_New_Item.isra.1
 5399              	.LVL605:
2358:../../iot_link/cJSON/cJSON.c ****     if (item != NULL) {
 5400              		.loc 1 2358 0
 5401 000c 18B1     		cbz	r0, .L738
2359:../../iot_link/cJSON/cJSON.c ****         item->type = cJSON_Array | cJSON_IsReference;
 5402              		.loc 1 2359 0
 5403 000e 4FF49073 		mov	r3, #288
2360:../../iot_link/cJSON/cJSON.c ****         item->child = (cJSON*)cast_away_const(child);
 5404              		.loc 1 2360 0
 5405 0012 C0E90243 		strd	r4, r3, [r0, #8]
 5406              	.L738:
2361:../../iot_link/cJSON/cJSON.c ****     }
2362:../../iot_link/cJSON/cJSON.c **** 
2363:../../iot_link/cJSON/cJSON.c ****     return item;
2364:../../iot_link/cJSON/cJSON.c **** }
 5407              		.loc 1 2364 0
 5408 0016 10BD     		pop	{r4, pc}
ARM GAS  C:\Users\LuckyE\AppData\Local\Temp\ccgn9LZs.s 			page 148


 5409              	.LVL606:
 5410              	.L744:
 5411              		.align	2
 5412              	.L743:
 5413 0018 00000000 		.word	.LANCHOR0
 5414              		.cfi_endproc
 5415              	.LFE84:
 5417              		.section	.text.cJSON_CreateRaw,"ax",%progbits
 5418              		.align	1
 5419              		.global	cJSON_CreateRaw
 5420              		.syntax unified
 5421              		.thumb
 5422              		.thumb_func
 5423              		.fpu fpv4-sp-d16
 5425              	cJSON_CreateRaw:
 5426              	.LFB85:
2365:../../iot_link/cJSON/cJSON.c **** 
2366:../../iot_link/cJSON/cJSON.c **** CJSON_PUBLIC(cJSON *) cJSON_CreateRaw(const char *raw)
2367:../../iot_link/cJSON/cJSON.c **** {
 5427              		.loc 1 2367 0
 5428              		.cfi_startproc
 5429              		@ args = 0, pretend = 0, frame = 0
 5430              		@ frame_needed = 0, uses_anonymous_args = 0
 5431              	.LVL607:
 5432 0000 38B5     		push	{r3, r4, r5, lr}
 5433              	.LCFI83:
 5434              		.cfi_def_cfa_offset 16
 5435              		.cfi_offset 3, -16
 5436              		.cfi_offset 4, -12
 5437              		.cfi_offset 5, -8
 5438              		.cfi_offset 14, -4
2368:../../iot_link/cJSON/cJSON.c ****     cJSON *item = cJSON_New_Item(&global_hooks);
 5439              		.loc 1 2368 0
 5440 0002 0A4B     		ldr	r3, .L750
2367:../../iot_link/cJSON/cJSON.c ****     cJSON *item = cJSON_New_Item(&global_hooks);
 5441              		.loc 1 2367 0
 5442 0004 0546     		mov	r5, r0
 5443              		.loc 1 2368 0
 5444 0006 1868     		ldr	r0, [r3]
 5445              	.LVL608:
 5446 0008 FFF7FEFF 		bl	cJSON_New_Item.isra.1
 5447              	.LVL609:
2369:../../iot_link/cJSON/cJSON.c ****     if(item)
 5448              		.loc 1 2369 0
 5449 000c 0446     		mov	r4, r0
 5450 000e 58B1     		cbz	r0, .L745
2370:../../iot_link/cJSON/cJSON.c ****     {
2371:../../iot_link/cJSON/cJSON.c ****         item->type = cJSON_Raw;
 5451              		.loc 1 2371 0
 5452 0010 8023     		movs	r3, #128
 5453 0012 C360     		str	r3, [r0, #12]
2372:../../iot_link/cJSON/cJSON.c ****         item->valuestring = (char*)cJSON_strdup((const unsigned char*)raw, &global_hooks);
 5454              		.loc 1 2372 0
 5455 0014 2846     		mov	r0, r5
 5456              	.LVL610:
 5457 0016 FFF7FEFF 		bl	cJSON_strdup.isra.2.constprop.15
 5458              	.LVL611:
ARM GAS  C:\Users\LuckyE\AppData\Local\Temp\ccgn9LZs.s 			page 149


 5459 001a 0546     		mov	r5, r0
 5460              	.LVL612:
 5461 001c 2061     		str	r0, [r4, #16]
2373:../../iot_link/cJSON/cJSON.c ****         if(!item->valuestring)
 5462              		.loc 1 2373 0
 5463 001e 18B9     		cbnz	r0, .L745
2374:../../iot_link/cJSON/cJSON.c ****         {
2375:../../iot_link/cJSON/cJSON.c ****             cJSON_Delete(item);
 5464              		.loc 1 2375 0
 5465 0020 2046     		mov	r0, r4
 5466 0022 FFF7FEFF 		bl	cJSON_Delete
 5467              	.LVL613:
2376:../../iot_link/cJSON/cJSON.c ****             return NULL;
 5468              		.loc 1 2376 0
 5469 0026 2C46     		mov	r4, r5
 5470              	.LVL614:
 5471              	.L745:
2377:../../iot_link/cJSON/cJSON.c ****         }
2378:../../iot_link/cJSON/cJSON.c ****     }
2379:../../iot_link/cJSON/cJSON.c **** 
2380:../../iot_link/cJSON/cJSON.c ****     return item;
2381:../../iot_link/cJSON/cJSON.c **** }
 5472              		.loc 1 2381 0
 5473 0028 2046     		mov	r0, r4
 5474 002a 38BD     		pop	{r3, r4, r5, pc}
 5475              	.L751:
 5476              		.align	2
 5477              	.L750:
 5478 002c 00000000 		.word	.LANCHOR0
 5479              		.cfi_endproc
 5480              	.LFE85:
 5482              		.section	.text.cJSON_AddRawToObject,"ax",%progbits
 5483              		.align	1
 5484              		.global	cJSON_AddRawToObject
 5485              		.syntax unified
 5486              		.thumb
 5487              		.thumb_func
 5488              		.fpu fpv4-sp-d16
 5490              	cJSON_AddRawToObject:
 5491              	.LFB60:
2036:../../iot_link/cJSON/cJSON.c ****     cJSON *raw_item = cJSON_CreateRaw(raw);
 5492              		.loc 1 2036 0
 5493              		.cfi_startproc
 5494              		@ args = 0, pretend = 0, frame = 0
 5495              		@ frame_needed = 0, uses_anonymous_args = 0
 5496              	.LVL615:
 5497 0000 70B5     		push	{r4, r5, r6, lr}
 5498              	.LCFI84:
 5499              		.cfi_def_cfa_offset 16
 5500              		.cfi_offset 4, -16
 5501              		.cfi_offset 5, -12
 5502              		.cfi_offset 6, -8
 5503              		.cfi_offset 14, -4
2036:../../iot_link/cJSON/cJSON.c ****     cJSON *raw_item = cJSON_CreateRaw(raw);
 5504              		.loc 1 2036 0
 5505 0002 0546     		mov	r5, r0
2037:../../iot_link/cJSON/cJSON.c ****     if (add_item_to_object(object, name, raw_item, &global_hooks, false))
ARM GAS  C:\Users\LuckyE\AppData\Local\Temp\ccgn9LZs.s 			page 150


 5506              		.loc 1 2037 0
 5507 0004 1046     		mov	r0, r2
 5508              	.LVL616:
2036:../../iot_link/cJSON/cJSON.c ****     cJSON *raw_item = cJSON_CreateRaw(raw);
 5509              		.loc 1 2036 0
 5510 0006 0E46     		mov	r6, r1
2037:../../iot_link/cJSON/cJSON.c ****     if (add_item_to_object(object, name, raw_item, &global_hooks, false))
 5511              		.loc 1 2037 0
 5512 0008 FFF7FEFF 		bl	cJSON_CreateRaw
 5513              	.LVL617:
2038:../../iot_link/cJSON/cJSON.c ****     {
 5514              		.loc 1 2038 0
 5515 000c 0023     		movs	r3, #0
 5516 000e 0246     		mov	r2, r0
2037:../../iot_link/cJSON/cJSON.c ****     if (add_item_to_object(object, name, raw_item, &global_hooks, false))
 5517              		.loc 1 2037 0
 5518 0010 0446     		mov	r4, r0
 5519              	.LVL618:
2038:../../iot_link/cJSON/cJSON.c ****     {
 5520              		.loc 1 2038 0
 5521 0012 3146     		mov	r1, r6
 5522 0014 2846     		mov	r0, r5
 5523              	.LVL619:
 5524 0016 FFF7FEFF 		bl	add_item_to_object.constprop.11
 5525              	.LVL620:
 5526 001a 0546     		mov	r5, r0
 5527              	.LVL621:
 5528 001c 18B9     		cbnz	r0, .L752
2043:../../iot_link/cJSON/cJSON.c ****     return NULL;
 5529              		.loc 1 2043 0
 5530 001e 2046     		mov	r0, r4
 5531 0020 FFF7FEFF 		bl	cJSON_Delete
 5532              	.LVL622:
2044:../../iot_link/cJSON/cJSON.c **** }
 5533              		.loc 1 2044 0
 5534 0024 2C46     		mov	r4, r5
 5535              	.LVL623:
 5536              	.L752:
2045:../../iot_link/cJSON/cJSON.c **** 
 5537              		.loc 1 2045 0
 5538 0026 2046     		mov	r0, r4
 5539 0028 70BD     		pop	{r4, r5, r6, pc}
 5540              		.cfi_endproc
 5541              	.LFE60:
 5543              		.section	.text.cJSON_CreateArray,"ax",%progbits
 5544              		.align	1
 5545              		.global	cJSON_CreateArray
 5546              		.syntax unified
 5547              		.thumb
 5548              		.thumb_func
 5549              		.fpu fpv4-sp-d16
 5551              	cJSON_CreateArray:
 5552              	.LFB86:
2382:../../iot_link/cJSON/cJSON.c **** 
2383:../../iot_link/cJSON/cJSON.c **** CJSON_PUBLIC(cJSON *) cJSON_CreateArray(void)
2384:../../iot_link/cJSON/cJSON.c **** {
 5553              		.loc 1 2384 0
ARM GAS  C:\Users\LuckyE\AppData\Local\Temp\ccgn9LZs.s 			page 151


 5554              		.cfi_startproc
 5555              		@ args = 0, pretend = 0, frame = 0
 5556              		@ frame_needed = 0, uses_anonymous_args = 0
 5557 0000 08B5     		push	{r3, lr}
 5558              	.LCFI85:
 5559              		.cfi_def_cfa_offset 8
 5560              		.cfi_offset 3, -8
 5561              		.cfi_offset 14, -4
2385:../../iot_link/cJSON/cJSON.c ****     cJSON *item = cJSON_New_Item(&global_hooks);
 5562              		.loc 1 2385 0
 5563 0002 044B     		ldr	r3, .L759
 5564 0004 1868     		ldr	r0, [r3]
 5565 0006 FFF7FEFF 		bl	cJSON_New_Item.isra.1
 5566              	.LVL624:
2386:../../iot_link/cJSON/cJSON.c ****     if(item)
 5567              		.loc 1 2386 0
 5568 000a 08B1     		cbz	r0, .L754
2387:../../iot_link/cJSON/cJSON.c ****     {
2388:../../iot_link/cJSON/cJSON.c ****         item->type=cJSON_Array;
 5569              		.loc 1 2388 0
 5570 000c 2023     		movs	r3, #32
 5571 000e C360     		str	r3, [r0, #12]
 5572              	.L754:
2389:../../iot_link/cJSON/cJSON.c ****     }
2390:../../iot_link/cJSON/cJSON.c **** 
2391:../../iot_link/cJSON/cJSON.c ****     return item;
2392:../../iot_link/cJSON/cJSON.c **** }
 5573              		.loc 1 2392 0
 5574 0010 08BD     		pop	{r3, pc}
 5575              	.L760:
 5576 0012 00BF     		.align	2
 5577              	.L759:
 5578 0014 00000000 		.word	.LANCHOR0
 5579              		.cfi_endproc
 5580              	.LFE86:
 5582              		.section	.text.cJSON_AddArrayToObject,"ax",%progbits
 5583              		.align	1
 5584              		.global	cJSON_AddArrayToObject
 5585              		.syntax unified
 5586              		.thumb
 5587              		.thumb_func
 5588              		.fpu fpv4-sp-d16
 5590              	cJSON_AddArrayToObject:
 5591              	.LFB62:
2060:../../iot_link/cJSON/cJSON.c ****     cJSON *array = cJSON_CreateArray();
 5592              		.loc 1 2060 0
 5593              		.cfi_startproc
 5594              		@ args = 0, pretend = 0, frame = 0
 5595              		@ frame_needed = 0, uses_anonymous_args = 0
 5596              	.LVL625:
 5597 0000 70B5     		push	{r4, r5, r6, lr}
 5598              	.LCFI86:
 5599              		.cfi_def_cfa_offset 16
 5600              		.cfi_offset 4, -16
 5601              		.cfi_offset 5, -12
 5602              		.cfi_offset 6, -8
 5603              		.cfi_offset 14, -4
ARM GAS  C:\Users\LuckyE\AppData\Local\Temp\ccgn9LZs.s 			page 152


2060:../../iot_link/cJSON/cJSON.c ****     cJSON *array = cJSON_CreateArray();
 5604              		.loc 1 2060 0
 5605 0002 0546     		mov	r5, r0
 5606 0004 0E46     		mov	r6, r1
2061:../../iot_link/cJSON/cJSON.c ****     if (add_item_to_object(object, name, array, &global_hooks, false))
 5607              		.loc 1 2061 0
 5608 0006 FFF7FEFF 		bl	cJSON_CreateArray
 5609              	.LVL626:
2062:../../iot_link/cJSON/cJSON.c ****     {
 5610              		.loc 1 2062 0
 5611 000a 0023     		movs	r3, #0
 5612 000c 0246     		mov	r2, r0
2061:../../iot_link/cJSON/cJSON.c ****     if (add_item_to_object(object, name, array, &global_hooks, false))
 5613              		.loc 1 2061 0
 5614 000e 0446     		mov	r4, r0
 5615              	.LVL627:
2062:../../iot_link/cJSON/cJSON.c ****     {
 5616              		.loc 1 2062 0
 5617 0010 3146     		mov	r1, r6
 5618 0012 2846     		mov	r0, r5
 5619              	.LVL628:
 5620 0014 FFF7FEFF 		bl	add_item_to_object.constprop.11
 5621              	.LVL629:
 5622 0018 0546     		mov	r5, r0
 5623              	.LVL630:
 5624 001a 18B9     		cbnz	r0, .L761
2067:../../iot_link/cJSON/cJSON.c ****     return NULL;
 5625              		.loc 1 2067 0
 5626 001c 2046     		mov	r0, r4
 5627 001e FFF7FEFF 		bl	cJSON_Delete
 5628              	.LVL631:
2068:../../iot_link/cJSON/cJSON.c **** }
 5629              		.loc 1 2068 0
 5630 0022 2C46     		mov	r4, r5
 5631              	.LVL632:
 5632              	.L761:
2069:../../iot_link/cJSON/cJSON.c **** 
 5633              		.loc 1 2069 0
 5634 0024 2046     		mov	r0, r4
 5635 0026 70BD     		pop	{r4, r5, r6, pc}
 5636              		.cfi_endproc
 5637              	.LFE62:
 5639              		.section	.text.cJSON_CreateObject,"ax",%progbits
 5640              		.align	1
 5641              		.global	cJSON_CreateObject
 5642              		.syntax unified
 5643              		.thumb
 5644              		.thumb_func
 5645              		.fpu fpv4-sp-d16
 5647              	cJSON_CreateObject:
 5648              	.LFB87:
2393:../../iot_link/cJSON/cJSON.c **** 
2394:../../iot_link/cJSON/cJSON.c **** CJSON_PUBLIC(cJSON *) cJSON_CreateObject(void)
2395:../../iot_link/cJSON/cJSON.c **** {
 5649              		.loc 1 2395 0
 5650              		.cfi_startproc
 5651              		@ args = 0, pretend = 0, frame = 0
ARM GAS  C:\Users\LuckyE\AppData\Local\Temp\ccgn9LZs.s 			page 153


 5652              		@ frame_needed = 0, uses_anonymous_args = 0
 5653 0000 08B5     		push	{r3, lr}
 5654              	.LCFI87:
 5655              		.cfi_def_cfa_offset 8
 5656              		.cfi_offset 3, -8
 5657              		.cfi_offset 14, -4
2396:../../iot_link/cJSON/cJSON.c ****     cJSON *item = cJSON_New_Item(&global_hooks);
 5658              		.loc 1 2396 0
 5659 0002 044B     		ldr	r3, .L768
 5660 0004 1868     		ldr	r0, [r3]
 5661 0006 FFF7FEFF 		bl	cJSON_New_Item.isra.1
 5662              	.LVL633:
2397:../../iot_link/cJSON/cJSON.c ****     if (item)
 5663              		.loc 1 2397 0
 5664 000a 08B1     		cbz	r0, .L763
2398:../../iot_link/cJSON/cJSON.c ****     {
2399:../../iot_link/cJSON/cJSON.c ****         item->type = cJSON_Object;
 5665              		.loc 1 2399 0
 5666 000c 4023     		movs	r3, #64
 5667 000e C360     		str	r3, [r0, #12]
 5668              	.L763:
2400:../../iot_link/cJSON/cJSON.c ****     }
2401:../../iot_link/cJSON/cJSON.c **** 
2402:../../iot_link/cJSON/cJSON.c ****     return item;
2403:../../iot_link/cJSON/cJSON.c **** }
 5669              		.loc 1 2403 0
 5670 0010 08BD     		pop	{r3, pc}
 5671              	.L769:
 5672 0012 00BF     		.align	2
 5673              	.L768:
 5674 0014 00000000 		.word	.LANCHOR0
 5675              		.cfi_endproc
 5676              	.LFE87:
 5678              		.section	.text.cJSON_AddObjectToObject,"ax",%progbits
 5679              		.align	1
 5680              		.global	cJSON_AddObjectToObject
 5681              		.syntax unified
 5682              		.thumb
 5683              		.thumb_func
 5684              		.fpu fpv4-sp-d16
 5686              	cJSON_AddObjectToObject:
 5687              	.LFB61:
2048:../../iot_link/cJSON/cJSON.c ****     cJSON *object_item = cJSON_CreateObject();
 5688              		.loc 1 2048 0
 5689              		.cfi_startproc
 5690              		@ args = 0, pretend = 0, frame = 0
 5691              		@ frame_needed = 0, uses_anonymous_args = 0
 5692              	.LVL634:
 5693 0000 70B5     		push	{r4, r5, r6, lr}
 5694              	.LCFI88:
 5695              		.cfi_def_cfa_offset 16
 5696              		.cfi_offset 4, -16
 5697              		.cfi_offset 5, -12
 5698              		.cfi_offset 6, -8
 5699              		.cfi_offset 14, -4
2048:../../iot_link/cJSON/cJSON.c ****     cJSON *object_item = cJSON_CreateObject();
 5700              		.loc 1 2048 0
ARM GAS  C:\Users\LuckyE\AppData\Local\Temp\ccgn9LZs.s 			page 154


 5701 0002 0546     		mov	r5, r0
 5702 0004 0E46     		mov	r6, r1
2049:../../iot_link/cJSON/cJSON.c ****     if (add_item_to_object(object, name, object_item, &global_hooks, false))
 5703              		.loc 1 2049 0
 5704 0006 FFF7FEFF 		bl	cJSON_CreateObject
 5705              	.LVL635:
2050:../../iot_link/cJSON/cJSON.c ****     {
 5706              		.loc 1 2050 0
 5707 000a 0023     		movs	r3, #0
 5708 000c 0246     		mov	r2, r0
2049:../../iot_link/cJSON/cJSON.c ****     if (add_item_to_object(object, name, object_item, &global_hooks, false))
 5709              		.loc 1 2049 0
 5710 000e 0446     		mov	r4, r0
 5711              	.LVL636:
2050:../../iot_link/cJSON/cJSON.c ****     {
 5712              		.loc 1 2050 0
 5713 0010 3146     		mov	r1, r6
 5714 0012 2846     		mov	r0, r5
 5715              	.LVL637:
 5716 0014 FFF7FEFF 		bl	add_item_to_object.constprop.11
 5717              	.LVL638:
 5718 0018 0546     		mov	r5, r0
 5719              	.LVL639:
 5720 001a 18B9     		cbnz	r0, .L770
2055:../../iot_link/cJSON/cJSON.c ****     return NULL;
 5721              		.loc 1 2055 0
 5722 001c 2046     		mov	r0, r4
 5723 001e FFF7FEFF 		bl	cJSON_Delete
 5724              	.LVL640:
2056:../../iot_link/cJSON/cJSON.c **** }
 5725              		.loc 1 2056 0
 5726 0022 2C46     		mov	r4, r5
 5727              	.LVL641:
 5728              	.L770:
2057:../../iot_link/cJSON/cJSON.c **** 
 5729              		.loc 1 2057 0
 5730 0024 2046     		mov	r0, r4
 5731 0026 70BD     		pop	{r4, r5, r6, pc}
 5732              		.cfi_endproc
 5733              	.LFE61:
 5735              		.global	__aeabi_i2d
 5736              		.section	.text.cJSON_CreateIntArray,"ax",%progbits
 5737              		.align	1
 5738              		.global	cJSON_CreateIntArray
 5739              		.syntax unified
 5740              		.thumb
 5741              		.thumb_func
 5742              		.fpu fpv4-sp-d16
 5744              	cJSON_CreateIntArray:
 5745              	.LFB88:
2404:../../iot_link/cJSON/cJSON.c **** 
2405:../../iot_link/cJSON/cJSON.c **** /* Create Arrays: */
2406:../../iot_link/cJSON/cJSON.c **** CJSON_PUBLIC(cJSON *) cJSON_CreateIntArray(const int *numbers, int count)
2407:../../iot_link/cJSON/cJSON.c **** {
 5746              		.loc 1 2407 0
 5747              		.cfi_startproc
 5748              		@ args = 0, pretend = 0, frame = 0
ARM GAS  C:\Users\LuckyE\AppData\Local\Temp\ccgn9LZs.s 			page 155


 5749              		@ frame_needed = 0, uses_anonymous_args = 0
 5750              	.LVL642:
 5751 0000 2DE9F843 		push	{r3, r4, r5, r6, r7, r8, r9, lr}
 5752              	.LCFI89:
 5753              		.cfi_def_cfa_offset 32
 5754              		.cfi_offset 3, -32
 5755              		.cfi_offset 4, -28
 5756              		.cfi_offset 5, -24
 5757              		.cfi_offset 6, -20
 5758              		.cfi_offset 7, -16
 5759              		.cfi_offset 8, -12
 5760              		.cfi_offset 9, -8
 5761              		.cfi_offset 14, -4
2408:../../iot_link/cJSON/cJSON.c ****     size_t i = 0;
2409:../../iot_link/cJSON/cJSON.c ****     cJSON *n = NULL;
2410:../../iot_link/cJSON/cJSON.c ****     cJSON *p = NULL;
2411:../../iot_link/cJSON/cJSON.c ****     cJSON *a = NULL;
2412:../../iot_link/cJSON/cJSON.c **** 
2413:../../iot_link/cJSON/cJSON.c ****     if ((count < 0) || (numbers == NULL))
 5762              		.loc 1 2413 0
 5763 0004 B1F10009 		subs	r9, r1, #0
2407:../../iot_link/cJSON/cJSON.c ****     size_t i = 0;
 5764              		.loc 1 2407 0
 5765 0008 8046     		mov	r8, r0
 5766              		.loc 1 2413 0
 5767 000a 03DA     		bge	.L773
 5768              	.LVL643:
 5769              	.L775:
2414:../../iot_link/cJSON/cJSON.c ****     {
2415:../../iot_link/cJSON/cJSON.c ****         return NULL;
 5770              		.loc 1 2415 0
 5771 000c 0024     		movs	r4, #0
 5772              	.L772:
2416:../../iot_link/cJSON/cJSON.c ****     }
2417:../../iot_link/cJSON/cJSON.c **** 
2418:../../iot_link/cJSON/cJSON.c ****     a = cJSON_CreateArray();
2419:../../iot_link/cJSON/cJSON.c ****     for(i = 0; a && (i < (size_t)count); i++)
2420:../../iot_link/cJSON/cJSON.c ****     {
2421:../../iot_link/cJSON/cJSON.c ****         n = cJSON_CreateNumber(numbers[i]);
2422:../../iot_link/cJSON/cJSON.c ****         if (!n)
2423:../../iot_link/cJSON/cJSON.c ****         {
2424:../../iot_link/cJSON/cJSON.c ****             cJSON_Delete(a);
2425:../../iot_link/cJSON/cJSON.c ****             return NULL;
2426:../../iot_link/cJSON/cJSON.c ****         }
2427:../../iot_link/cJSON/cJSON.c ****         if(!i)
2428:../../iot_link/cJSON/cJSON.c ****         {
2429:../../iot_link/cJSON/cJSON.c ****             a->child = n;
2430:../../iot_link/cJSON/cJSON.c ****         }
2431:../../iot_link/cJSON/cJSON.c ****         else
2432:../../iot_link/cJSON/cJSON.c ****         {
2433:../../iot_link/cJSON/cJSON.c ****             suffix_object(p, n);
2434:../../iot_link/cJSON/cJSON.c ****         }
2435:../../iot_link/cJSON/cJSON.c ****         p = n;
2436:../../iot_link/cJSON/cJSON.c ****     }
2437:../../iot_link/cJSON/cJSON.c **** 
2438:../../iot_link/cJSON/cJSON.c ****     return a;
2439:../../iot_link/cJSON/cJSON.c **** }
ARM GAS  C:\Users\LuckyE\AppData\Local\Temp\ccgn9LZs.s 			page 156


 5773              		.loc 1 2439 0
 5774 000e 2046     		mov	r0, r4
 5775 0010 BDE8F883 		pop	{r3, r4, r5, r6, r7, r8, r9, pc}
 5776              	.LVL644:
 5777              	.L773:
2413:../../iot_link/cJSON/cJSON.c ****     {
 5778              		.loc 1 2413 0 discriminator 1
 5779 0014 0028     		cmp	r0, #0
 5780 0016 F9D0     		beq	.L775
2418:../../iot_link/cJSON/cJSON.c ****     for(i = 0; a && (i < (size_t)count); i++)
 5781              		.loc 1 2418 0
 5782 0018 FFF7FEFF 		bl	cJSON_CreateArray
 5783              	.LVL645:
2410:../../iot_link/cJSON/cJSON.c ****     cJSON *a = NULL;
 5784              		.loc 1 2410 0
 5785 001c 0027     		movs	r7, #0
2418:../../iot_link/cJSON/cJSON.c ****     for(i = 0; a && (i < (size_t)count); i++)
 5786              		.loc 1 2418 0
 5787 001e 0446     		mov	r4, r0
 5788              	.LVL646:
2419:../../iot_link/cJSON/cJSON.c ****     {
 5789              		.loc 1 2419 0
 5790 0020 3E46     		mov	r6, r7
 5791              	.LVL647:
 5792              	.L776:
2419:../../iot_link/cJSON/cJSON.c ****     {
 5793              		.loc 1 2419 0 is_stmt 0 discriminator 1
 5794 0022 002C     		cmp	r4, #0
 5795 0024 F2D0     		beq	.L775
2419:../../iot_link/cJSON/cJSON.c ****     {
 5796              		.loc 1 2419 0 discriminator 3
 5797 0026 B145     		cmp	r9, r6
 5798 0028 F1D9     		bls	.L772
2421:../../iot_link/cJSON/cJSON.c ****         if (!n)
 5799              		.loc 1 2421 0 is_stmt 1
 5800 002a 58F82600 		ldr	r0, [r8, r6, lsl #2]
 5801 002e FFF7FEFF 		bl	__aeabi_i2d
 5802              	.LVL648:
 5803 0032 41EC100B 		vmov	d0, r0, r1
 5804 0036 FFF7FEFF 		bl	cJSON_CreateNumber
 5805              	.LVL649:
2422:../../iot_link/cJSON/cJSON.c ****         {
 5806              		.loc 1 2422 0
 5807 003a 0546     		mov	r5, r0
 5808 003c 18B9     		cbnz	r0, .L777
2424:../../iot_link/cJSON/cJSON.c ****             return NULL;
 5809              		.loc 1 2424 0
 5810 003e 2046     		mov	r0, r4
 5811              	.LVL650:
 5812 0040 FFF7FEFF 		bl	cJSON_Delete
 5813              	.LVL651:
 5814 0044 E2E7     		b	.L775
 5815              	.LVL652:
 5816              	.L777:
2427:../../iot_link/cJSON/cJSON.c ****         {
 5817              		.loc 1 2427 0
 5818 0046 1EB9     		cbnz	r6, .L778
ARM GAS  C:\Users\LuckyE\AppData\Local\Temp\ccgn9LZs.s 			page 157


2429:../../iot_link/cJSON/cJSON.c ****         }
 5819              		.loc 1 2429 0
 5820 0048 A060     		str	r0, [r4, #8]
 5821              	.L779:
 5822              	.LVL653:
2419:../../iot_link/cJSON/cJSON.c ****     {
 5823              		.loc 1 2419 0 discriminator 2
 5824 004a 0136     		adds	r6, r6, #1
 5825              	.LVL654:
 5826 004c 2F46     		mov	r7, r5
 5827 004e E8E7     		b	.L776
 5828              	.LVL655:
 5829              	.L778:
 5830              	.LBB170:
 5831              	.LBB171:
1818:../../iot_link/cJSON/cJSON.c ****     item->prev = prev;
 5832              		.loc 1 1818 0
 5833 0050 3860     		str	r0, [r7]
1819:../../iot_link/cJSON/cJSON.c **** }
 5834              		.loc 1 1819 0
 5835 0052 4760     		str	r7, [r0, #4]
 5836 0054 F9E7     		b	.L779
 5837              	.LBE171:
 5838              	.LBE170:
 5839              		.cfi_endproc
 5840              	.LFE88:
 5842              		.global	__aeabi_f2d
 5843              		.section	.text.cJSON_CreateFloatArray,"ax",%progbits
 5844              		.align	1
 5845              		.global	cJSON_CreateFloatArray
 5846              		.syntax unified
 5847              		.thumb
 5848              		.thumb_func
 5849              		.fpu fpv4-sp-d16
 5851              	cJSON_CreateFloatArray:
 5852              	.LFB89:
2440:../../iot_link/cJSON/cJSON.c **** 
2441:../../iot_link/cJSON/cJSON.c **** CJSON_PUBLIC(cJSON *) cJSON_CreateFloatArray(const float *numbers, int count)
2442:../../iot_link/cJSON/cJSON.c **** {
 5853              		.loc 1 2442 0
 5854              		.cfi_startproc
 5855              		@ args = 0, pretend = 0, frame = 0
 5856              		@ frame_needed = 0, uses_anonymous_args = 0
 5857              	.LVL656:
 5858 0000 2DE9F843 		push	{r3, r4, r5, r6, r7, r8, r9, lr}
 5859              	.LCFI90:
 5860              		.cfi_def_cfa_offset 32
 5861              		.cfi_offset 3, -32
 5862              		.cfi_offset 4, -28
 5863              		.cfi_offset 5, -24
 5864              		.cfi_offset 6, -20
 5865              		.cfi_offset 7, -16
 5866              		.cfi_offset 8, -12
 5867              		.cfi_offset 9, -8
 5868              		.cfi_offset 14, -4
2443:../../iot_link/cJSON/cJSON.c ****     size_t i = 0;
2444:../../iot_link/cJSON/cJSON.c ****     cJSON *n = NULL;
ARM GAS  C:\Users\LuckyE\AppData\Local\Temp\ccgn9LZs.s 			page 158


2445:../../iot_link/cJSON/cJSON.c ****     cJSON *p = NULL;
2446:../../iot_link/cJSON/cJSON.c ****     cJSON *a = NULL;
2447:../../iot_link/cJSON/cJSON.c **** 
2448:../../iot_link/cJSON/cJSON.c ****     if ((count < 0) || (numbers == NULL))
 5869              		.loc 1 2448 0
 5870 0004 B1F10009 		subs	r9, r1, #0
2442:../../iot_link/cJSON/cJSON.c ****     size_t i = 0;
 5871              		.loc 1 2442 0
 5872 0008 0646     		mov	r6, r0
 5873              		.loc 1 2448 0
 5874 000a 03DA     		bge	.L788
 5875              	.LVL657:
 5876              	.L790:
2449:../../iot_link/cJSON/cJSON.c ****     {
2450:../../iot_link/cJSON/cJSON.c ****         return NULL;
 5877              		.loc 1 2450 0
 5878 000c 0024     		movs	r4, #0
 5879              	.L787:
2451:../../iot_link/cJSON/cJSON.c ****     }
2452:../../iot_link/cJSON/cJSON.c **** 
2453:../../iot_link/cJSON/cJSON.c ****     a = cJSON_CreateArray();
2454:../../iot_link/cJSON/cJSON.c **** 
2455:../../iot_link/cJSON/cJSON.c ****     for(i = 0; a && (i < (size_t)count); i++)
2456:../../iot_link/cJSON/cJSON.c ****     {
2457:../../iot_link/cJSON/cJSON.c ****         n = cJSON_CreateNumber((double)numbers[i]);
2458:../../iot_link/cJSON/cJSON.c ****         if(!n)
2459:../../iot_link/cJSON/cJSON.c ****         {
2460:../../iot_link/cJSON/cJSON.c ****             cJSON_Delete(a);
2461:../../iot_link/cJSON/cJSON.c ****             return NULL;
2462:../../iot_link/cJSON/cJSON.c ****         }
2463:../../iot_link/cJSON/cJSON.c ****         if(!i)
2464:../../iot_link/cJSON/cJSON.c ****         {
2465:../../iot_link/cJSON/cJSON.c ****             a->child = n;
2466:../../iot_link/cJSON/cJSON.c ****         }
2467:../../iot_link/cJSON/cJSON.c ****         else
2468:../../iot_link/cJSON/cJSON.c ****         {
2469:../../iot_link/cJSON/cJSON.c ****             suffix_object(p, n);
2470:../../iot_link/cJSON/cJSON.c ****         }
2471:../../iot_link/cJSON/cJSON.c ****         p = n;
2472:../../iot_link/cJSON/cJSON.c ****     }
2473:../../iot_link/cJSON/cJSON.c **** 
2474:../../iot_link/cJSON/cJSON.c ****     return a;
2475:../../iot_link/cJSON/cJSON.c **** }
 5880              		.loc 1 2475 0
 5881 000e 2046     		mov	r0, r4
 5882 0010 BDE8F883 		pop	{r3, r4, r5, r6, r7, r8, r9, pc}
 5883              	.LVL658:
 5884              	.L788:
2448:../../iot_link/cJSON/cJSON.c ****     {
 5885              		.loc 1 2448 0 discriminator 1
 5886 0014 0028     		cmp	r0, #0
 5887 0016 F9D0     		beq	.L790
2453:../../iot_link/cJSON/cJSON.c **** 
 5888              		.loc 1 2453 0
 5889 0018 FFF7FEFF 		bl	cJSON_CreateArray
 5890              	.LVL659:
2445:../../iot_link/cJSON/cJSON.c ****     cJSON *a = NULL;
ARM GAS  C:\Users\LuckyE\AppData\Local\Temp\ccgn9LZs.s 			page 159


 5891              		.loc 1 2445 0
 5892 001c 4FF00008 		mov	r8, #0
2453:../../iot_link/cJSON/cJSON.c **** 
 5893              		.loc 1 2453 0
 5894 0020 0446     		mov	r4, r0
 5895              	.LVL660:
2455:../../iot_link/cJSON/cJSON.c ****     {
 5896              		.loc 1 2455 0
 5897 0022 4746     		mov	r7, r8
 5898              	.LVL661:
 5899              	.L791:
2455:../../iot_link/cJSON/cJSON.c ****     {
 5900              		.loc 1 2455 0 is_stmt 0 discriminator 1
 5901 0024 002C     		cmp	r4, #0
 5902 0026 F1D0     		beq	.L790
2455:../../iot_link/cJSON/cJSON.c ****     {
 5903              		.loc 1 2455 0 discriminator 3
 5904 0028 B945     		cmp	r9, r7
 5905 002a F0D9     		bls	.L787
2457:../../iot_link/cJSON/cJSON.c ****         if(!n)
 5906              		.loc 1 2457 0 is_stmt 1
 5907 002c 56F8040B 		ldr	r0, [r6], #4	@ float
 5908 0030 FFF7FEFF 		bl	__aeabi_f2d
 5909              	.LVL662:
 5910 0034 41EC100B 		vmov	d0, r0, r1
 5911 0038 FFF7FEFF 		bl	cJSON_CreateNumber
 5912              	.LVL663:
2458:../../iot_link/cJSON/cJSON.c ****         {
 5913              		.loc 1 2458 0
 5914 003c 0546     		mov	r5, r0
 5915 003e 18B9     		cbnz	r0, .L792
2460:../../iot_link/cJSON/cJSON.c ****             return NULL;
 5916              		.loc 1 2460 0
 5917 0040 2046     		mov	r0, r4
 5918              	.LVL664:
 5919 0042 FFF7FEFF 		bl	cJSON_Delete
 5920              	.LVL665:
 5921 0046 E1E7     		b	.L790
 5922              	.LVL666:
 5923              	.L792:
2463:../../iot_link/cJSON/cJSON.c ****         {
 5924              		.loc 1 2463 0
 5925 0048 1FB9     		cbnz	r7, .L793
2465:../../iot_link/cJSON/cJSON.c ****         }
 5926              		.loc 1 2465 0
 5927 004a A060     		str	r0, [r4, #8]
 5928              	.L794:
 5929              	.LVL667:
2455:../../iot_link/cJSON/cJSON.c ****     {
 5930              		.loc 1 2455 0 discriminator 2
 5931 004c 0137     		adds	r7, r7, #1
 5932              	.LVL668:
 5933 004e A846     		mov	r8, r5
 5934 0050 E8E7     		b	.L791
 5935              	.LVL669:
 5936              	.L793:
 5937              	.LBB172:
ARM GAS  C:\Users\LuckyE\AppData\Local\Temp\ccgn9LZs.s 			page 160


 5938              	.LBB173:
1818:../../iot_link/cJSON/cJSON.c ****     item->prev = prev;
 5939              		.loc 1 1818 0
 5940 0052 C8F80000 		str	r0, [r8]
1819:../../iot_link/cJSON/cJSON.c **** }
 5941              		.loc 1 1819 0
 5942 0056 C0F80480 		str	r8, [r0, #4]
 5943 005a F7E7     		b	.L794
 5944              	.LBE173:
 5945              	.LBE172:
 5946              		.cfi_endproc
 5947              	.LFE89:
 5949              		.section	.text.cJSON_CreateDoubleArray,"ax",%progbits
 5950              		.align	1
 5951              		.global	cJSON_CreateDoubleArray
 5952              		.syntax unified
 5953              		.thumb
 5954              		.thumb_func
 5955              		.fpu fpv4-sp-d16
 5957              	cJSON_CreateDoubleArray:
 5958              	.LFB90:
2476:../../iot_link/cJSON/cJSON.c **** 
2477:../../iot_link/cJSON/cJSON.c **** CJSON_PUBLIC(cJSON *) cJSON_CreateDoubleArray(const double *numbers, int count)
2478:../../iot_link/cJSON/cJSON.c **** {
 5959              		.loc 1 2478 0
 5960              		.cfi_startproc
 5961              		@ args = 0, pretend = 0, frame = 0
 5962              		@ frame_needed = 0, uses_anonymous_args = 0
 5963              	.LVL670:
 5964 0000 2DE9F843 		push	{r3, r4, r5, r6, r7, r8, r9, lr}
 5965              	.LCFI91:
 5966              		.cfi_def_cfa_offset 32
 5967              		.cfi_offset 3, -32
 5968              		.cfi_offset 4, -28
 5969              		.cfi_offset 5, -24
 5970              		.cfi_offset 6, -20
 5971              		.cfi_offset 7, -16
 5972              		.cfi_offset 8, -12
 5973              		.cfi_offset 9, -8
 5974              		.cfi_offset 14, -4
2479:../../iot_link/cJSON/cJSON.c ****     size_t i = 0;
2480:../../iot_link/cJSON/cJSON.c ****     cJSON *n = NULL;
2481:../../iot_link/cJSON/cJSON.c ****     cJSON *p = NULL;
2482:../../iot_link/cJSON/cJSON.c ****     cJSON *a = NULL;
2483:../../iot_link/cJSON/cJSON.c **** 
2484:../../iot_link/cJSON/cJSON.c ****     if ((count < 0) || (numbers == NULL))
 5975              		.loc 1 2484 0
 5976 0004 B1F10009 		subs	r9, r1, #0
2478:../../iot_link/cJSON/cJSON.c ****     size_t i = 0;
 5977              		.loc 1 2478 0
 5978 0008 0646     		mov	r6, r0
 5979              		.loc 1 2484 0
 5980 000a 03DA     		bge	.L803
 5981              	.LVL671:
 5982              	.L805:
2485:../../iot_link/cJSON/cJSON.c ****     {
2486:../../iot_link/cJSON/cJSON.c ****         return NULL;
ARM GAS  C:\Users\LuckyE\AppData\Local\Temp\ccgn9LZs.s 			page 161


 5983              		.loc 1 2486 0
 5984 000c 0024     		movs	r4, #0
 5985              	.L802:
2487:../../iot_link/cJSON/cJSON.c ****     }
2488:../../iot_link/cJSON/cJSON.c **** 
2489:../../iot_link/cJSON/cJSON.c ****     a = cJSON_CreateArray();
2490:../../iot_link/cJSON/cJSON.c **** 
2491:../../iot_link/cJSON/cJSON.c ****     for(i = 0;a && (i < (size_t)count); i++)
2492:../../iot_link/cJSON/cJSON.c ****     {
2493:../../iot_link/cJSON/cJSON.c ****         n = cJSON_CreateNumber(numbers[i]);
2494:../../iot_link/cJSON/cJSON.c ****         if(!n)
2495:../../iot_link/cJSON/cJSON.c ****         {
2496:../../iot_link/cJSON/cJSON.c ****             cJSON_Delete(a);
2497:../../iot_link/cJSON/cJSON.c ****             return NULL;
2498:../../iot_link/cJSON/cJSON.c ****         }
2499:../../iot_link/cJSON/cJSON.c ****         if(!i)
2500:../../iot_link/cJSON/cJSON.c ****         {
2501:../../iot_link/cJSON/cJSON.c ****             a->child = n;
2502:../../iot_link/cJSON/cJSON.c ****         }
2503:../../iot_link/cJSON/cJSON.c ****         else
2504:../../iot_link/cJSON/cJSON.c ****         {
2505:../../iot_link/cJSON/cJSON.c ****             suffix_object(p, n);
2506:../../iot_link/cJSON/cJSON.c ****         }
2507:../../iot_link/cJSON/cJSON.c ****         p = n;
2508:../../iot_link/cJSON/cJSON.c ****     }
2509:../../iot_link/cJSON/cJSON.c **** 
2510:../../iot_link/cJSON/cJSON.c ****     return a;
2511:../../iot_link/cJSON/cJSON.c **** }
 5986              		.loc 1 2511 0
 5987 000e 2046     		mov	r0, r4
 5988 0010 BDE8F883 		pop	{r3, r4, r5, r6, r7, r8, r9, pc}
 5989              	.LVL672:
 5990              	.L803:
2484:../../iot_link/cJSON/cJSON.c ****     {
 5991              		.loc 1 2484 0 discriminator 1
 5992 0014 0028     		cmp	r0, #0
 5993 0016 F9D0     		beq	.L805
2489:../../iot_link/cJSON/cJSON.c **** 
 5994              		.loc 1 2489 0
 5995 0018 FFF7FEFF 		bl	cJSON_CreateArray
 5996              	.LVL673:
2481:../../iot_link/cJSON/cJSON.c ****     cJSON *a = NULL;
 5997              		.loc 1 2481 0
 5998 001c 4FF00008 		mov	r8, #0
2489:../../iot_link/cJSON/cJSON.c **** 
 5999              		.loc 1 2489 0
 6000 0020 0446     		mov	r4, r0
 6001              	.LVL674:
2491:../../iot_link/cJSON/cJSON.c ****     {
 6002              		.loc 1 2491 0
 6003 0022 4746     		mov	r7, r8
 6004              	.LVL675:
 6005              	.L806:
2491:../../iot_link/cJSON/cJSON.c ****     {
 6006              		.loc 1 2491 0 is_stmt 0 discriminator 1
 6007 0024 002C     		cmp	r4, #0
 6008 0026 F1D0     		beq	.L805
ARM GAS  C:\Users\LuckyE\AppData\Local\Temp\ccgn9LZs.s 			page 162


2491:../../iot_link/cJSON/cJSON.c ****     {
 6009              		.loc 1 2491 0 discriminator 3
 6010 0028 B945     		cmp	r9, r7
 6011 002a F0D9     		bls	.L802
2493:../../iot_link/cJSON/cJSON.c ****         if(!n)
 6012              		.loc 1 2493 0 is_stmt 1
 6013 002c B6EC020B 		vldmia.64	r6!, {d0}
 6014 0030 FFF7FEFF 		bl	cJSON_CreateNumber
 6015              	.LVL676:
2494:../../iot_link/cJSON/cJSON.c ****         {
 6016              		.loc 1 2494 0
 6017 0034 0546     		mov	r5, r0
 6018 0036 18B9     		cbnz	r0, .L807
2496:../../iot_link/cJSON/cJSON.c ****             return NULL;
 6019              		.loc 1 2496 0
 6020 0038 2046     		mov	r0, r4
 6021              	.LVL677:
 6022 003a FFF7FEFF 		bl	cJSON_Delete
 6023              	.LVL678:
 6024 003e E5E7     		b	.L805
 6025              	.LVL679:
 6026              	.L807:
2499:../../iot_link/cJSON/cJSON.c ****         {
 6027              		.loc 1 2499 0
 6028 0040 1FB9     		cbnz	r7, .L808
2501:../../iot_link/cJSON/cJSON.c ****         }
 6029              		.loc 1 2501 0
 6030 0042 A060     		str	r0, [r4, #8]
 6031              	.L809:
 6032              	.LVL680:
2491:../../iot_link/cJSON/cJSON.c ****     {
 6033              		.loc 1 2491 0 discriminator 2
 6034 0044 0137     		adds	r7, r7, #1
 6035              	.LVL681:
 6036 0046 A846     		mov	r8, r5
 6037 0048 ECE7     		b	.L806
 6038              	.LVL682:
 6039              	.L808:
 6040              	.LBB174:
 6041              	.LBB175:
1818:../../iot_link/cJSON/cJSON.c ****     item->prev = prev;
 6042              		.loc 1 1818 0
 6043 004a C8F80000 		str	r0, [r8]
1819:../../iot_link/cJSON/cJSON.c **** }
 6044              		.loc 1 1819 0
 6045 004e C0F80480 		str	r8, [r0, #4]
 6046 0052 F7E7     		b	.L809
 6047              	.LBE175:
 6048              	.LBE174:
 6049              		.cfi_endproc
 6050              	.LFE90:
 6052              		.section	.text.cJSON_CreateStringArray,"ax",%progbits
 6053              		.align	1
 6054              		.global	cJSON_CreateStringArray
 6055              		.syntax unified
 6056              		.thumb
 6057              		.thumb_func
ARM GAS  C:\Users\LuckyE\AppData\Local\Temp\ccgn9LZs.s 			page 163


 6058              		.fpu fpv4-sp-d16
 6060              	cJSON_CreateStringArray:
 6061              	.LFB91:
2512:../../iot_link/cJSON/cJSON.c **** 
2513:../../iot_link/cJSON/cJSON.c **** CJSON_PUBLIC(cJSON *) cJSON_CreateStringArray(const char **strings, int count)
2514:../../iot_link/cJSON/cJSON.c **** {
 6062              		.loc 1 2514 0
 6063              		.cfi_startproc
 6064              		@ args = 0, pretend = 0, frame = 0
 6065              		@ frame_needed = 0, uses_anonymous_args = 0
 6066              	.LVL683:
 6067 0000 2DE9F843 		push	{r3, r4, r5, r6, r7, r8, r9, lr}
 6068              	.LCFI92:
 6069              		.cfi_def_cfa_offset 32
 6070              		.cfi_offset 3, -32
 6071              		.cfi_offset 4, -28
 6072              		.cfi_offset 5, -24
 6073              		.cfi_offset 6, -20
 6074              		.cfi_offset 7, -16
 6075              		.cfi_offset 8, -12
 6076              		.cfi_offset 9, -8
 6077              		.cfi_offset 14, -4
2515:../../iot_link/cJSON/cJSON.c ****     size_t i = 0;
2516:../../iot_link/cJSON/cJSON.c ****     cJSON *n = NULL;
2517:../../iot_link/cJSON/cJSON.c ****     cJSON *p = NULL;
2518:../../iot_link/cJSON/cJSON.c ****     cJSON *a = NULL;
2519:../../iot_link/cJSON/cJSON.c **** 
2520:../../iot_link/cJSON/cJSON.c ****     if ((count < 0) || (strings == NULL))
 6078              		.loc 1 2520 0
 6079 0004 B1F10009 		subs	r9, r1, #0
2514:../../iot_link/cJSON/cJSON.c ****     size_t i = 0;
 6080              		.loc 1 2514 0
 6081 0008 8046     		mov	r8, r0
 6082              		.loc 1 2520 0
 6083 000a 03DA     		bge	.L818
 6084              	.LVL684:
 6085              	.L820:
2521:../../iot_link/cJSON/cJSON.c ****     {
2522:../../iot_link/cJSON/cJSON.c ****         return NULL;
 6086              		.loc 1 2522 0
 6087 000c 0024     		movs	r4, #0
 6088              	.L817:
2523:../../iot_link/cJSON/cJSON.c ****     }
2524:../../iot_link/cJSON/cJSON.c **** 
2525:../../iot_link/cJSON/cJSON.c ****     a = cJSON_CreateArray();
2526:../../iot_link/cJSON/cJSON.c **** 
2527:../../iot_link/cJSON/cJSON.c ****     for (i = 0; a && (i < (size_t)count); i++)
2528:../../iot_link/cJSON/cJSON.c ****     {
2529:../../iot_link/cJSON/cJSON.c ****         n = cJSON_CreateString(strings[i]);
2530:../../iot_link/cJSON/cJSON.c ****         if(!n)
2531:../../iot_link/cJSON/cJSON.c ****         {
2532:../../iot_link/cJSON/cJSON.c ****             cJSON_Delete(a);
2533:../../iot_link/cJSON/cJSON.c ****             return NULL;
2534:../../iot_link/cJSON/cJSON.c ****         }
2535:../../iot_link/cJSON/cJSON.c ****         if(!i)
2536:../../iot_link/cJSON/cJSON.c ****         {
2537:../../iot_link/cJSON/cJSON.c ****             a->child = n;
ARM GAS  C:\Users\LuckyE\AppData\Local\Temp\ccgn9LZs.s 			page 164


2538:../../iot_link/cJSON/cJSON.c ****         }
2539:../../iot_link/cJSON/cJSON.c ****         else
2540:../../iot_link/cJSON/cJSON.c ****         {
2541:../../iot_link/cJSON/cJSON.c ****             suffix_object(p,n);
2542:../../iot_link/cJSON/cJSON.c ****         }
2543:../../iot_link/cJSON/cJSON.c ****         p = n;
2544:../../iot_link/cJSON/cJSON.c ****     }
2545:../../iot_link/cJSON/cJSON.c **** 
2546:../../iot_link/cJSON/cJSON.c ****     return a;
2547:../../iot_link/cJSON/cJSON.c **** }
 6089              		.loc 1 2547 0
 6090 000e 2046     		mov	r0, r4
 6091 0010 BDE8F883 		pop	{r3, r4, r5, r6, r7, r8, r9, pc}
 6092              	.LVL685:
 6093              	.L818:
2520:../../iot_link/cJSON/cJSON.c ****     {
 6094              		.loc 1 2520 0 discriminator 1
 6095 0014 0028     		cmp	r0, #0
 6096 0016 F9D0     		beq	.L820
2525:../../iot_link/cJSON/cJSON.c **** 
 6097              		.loc 1 2525 0
 6098 0018 FFF7FEFF 		bl	cJSON_CreateArray
 6099              	.LVL686:
2517:../../iot_link/cJSON/cJSON.c ****     cJSON *a = NULL;
 6100              		.loc 1 2517 0
 6101 001c 0027     		movs	r7, #0
2525:../../iot_link/cJSON/cJSON.c **** 
 6102              		.loc 1 2525 0
 6103 001e 0446     		mov	r4, r0
 6104              	.LVL687:
2527:../../iot_link/cJSON/cJSON.c ****     {
 6105              		.loc 1 2527 0
 6106 0020 3E46     		mov	r6, r7
 6107              	.LVL688:
 6108              	.L821:
2527:../../iot_link/cJSON/cJSON.c ****     {
 6109              		.loc 1 2527 0 is_stmt 0 discriminator 1
 6110 0022 002C     		cmp	r4, #0
 6111 0024 F2D0     		beq	.L820
2527:../../iot_link/cJSON/cJSON.c ****     {
 6112              		.loc 1 2527 0 discriminator 3
 6113 0026 B145     		cmp	r9, r6
 6114 0028 F1D9     		bls	.L817
2529:../../iot_link/cJSON/cJSON.c ****         if(!n)
 6115              		.loc 1 2529 0 is_stmt 1
 6116 002a 58F82600 		ldr	r0, [r8, r6, lsl #2]
 6117 002e FFF7FEFF 		bl	cJSON_CreateString
 6118              	.LVL689:
2530:../../iot_link/cJSON/cJSON.c ****         {
 6119              		.loc 1 2530 0
 6120 0032 0546     		mov	r5, r0
 6121 0034 18B9     		cbnz	r0, .L822
2532:../../iot_link/cJSON/cJSON.c ****             return NULL;
 6122              		.loc 1 2532 0
 6123 0036 2046     		mov	r0, r4
 6124              	.LVL690:
 6125 0038 FFF7FEFF 		bl	cJSON_Delete
ARM GAS  C:\Users\LuckyE\AppData\Local\Temp\ccgn9LZs.s 			page 165


 6126              	.LVL691:
 6127 003c E6E7     		b	.L820
 6128              	.LVL692:
 6129              	.L822:
2535:../../iot_link/cJSON/cJSON.c ****         {
 6130              		.loc 1 2535 0
 6131 003e 1EB9     		cbnz	r6, .L823
2537:../../iot_link/cJSON/cJSON.c ****         }
 6132              		.loc 1 2537 0
 6133 0040 A060     		str	r0, [r4, #8]
 6134              	.L824:
 6135              	.LVL693:
2527:../../iot_link/cJSON/cJSON.c ****     {
 6136              		.loc 1 2527 0 discriminator 2
 6137 0042 0136     		adds	r6, r6, #1
 6138              	.LVL694:
 6139 0044 2F46     		mov	r7, r5
 6140 0046 ECE7     		b	.L821
 6141              	.LVL695:
 6142              	.L823:
 6143              	.LBB176:
 6144              	.LBB177:
1818:../../iot_link/cJSON/cJSON.c ****     item->prev = prev;
 6145              		.loc 1 1818 0
 6146 0048 3860     		str	r0, [r7]
1819:../../iot_link/cJSON/cJSON.c **** }
 6147              		.loc 1 1819 0
 6148 004a 4760     		str	r7, [r0, #4]
 6149 004c F9E7     		b	.L824
 6150              	.LBE177:
 6151              	.LBE176:
 6152              		.cfi_endproc
 6153              	.LFE91:
 6155              		.section	.text.cJSON_Duplicate,"ax",%progbits
 6156              		.align	1
 6157              		.global	cJSON_Duplicate
 6158              		.syntax unified
 6159              		.thumb
 6160              		.thumb_func
 6161              		.fpu fpv4-sp-d16
 6163              	cJSON_Duplicate:
 6164              	.LFB92:
2548:../../iot_link/cJSON/cJSON.c **** 
2549:../../iot_link/cJSON/cJSON.c **** /* Duplication */
2550:../../iot_link/cJSON/cJSON.c **** CJSON_PUBLIC(cJSON *) cJSON_Duplicate(const cJSON *item, cJSON_bool recurse)
2551:../../iot_link/cJSON/cJSON.c **** {
 6165              		.loc 1 2551 0
 6166              		.cfi_startproc
 6167              		@ args = 0, pretend = 0, frame = 0
 6168              		@ frame_needed = 0, uses_anonymous_args = 0
 6169              	.LVL696:
 6170 0000 70B5     		push	{r4, r5, r6, lr}
 6171              	.LCFI93:
 6172              		.cfi_def_cfa_offset 16
 6173              		.cfi_offset 4, -16
 6174              		.cfi_offset 5, -12
 6175              		.cfi_offset 6, -8
ARM GAS  C:\Users\LuckyE\AppData\Local\Temp\ccgn9LZs.s 			page 166


 6176              		.cfi_offset 14, -4
 6177              		.loc 1 2551 0
 6178 0002 0E46     		mov	r6, r1
2552:../../iot_link/cJSON/cJSON.c ****     cJSON *newitem = NULL;
2553:../../iot_link/cJSON/cJSON.c ****     cJSON *child = NULL;
2554:../../iot_link/cJSON/cJSON.c ****     cJSON *next = NULL;
2555:../../iot_link/cJSON/cJSON.c ****     cJSON *newchild = NULL;
2556:../../iot_link/cJSON/cJSON.c **** 
2557:../../iot_link/cJSON/cJSON.c ****     /* Bail on bad ptr */
2558:../../iot_link/cJSON/cJSON.c ****     if (!item)
 6179              		.loc 1 2558 0
 6180 0004 0546     		mov	r5, r0
 6181 0006 08B9     		cbnz	r0, .L833
 6182              	.LVL697:
 6183              	.L863:
2559:../../iot_link/cJSON/cJSON.c ****     {
2560:../../iot_link/cJSON/cJSON.c ****         goto fail;
2561:../../iot_link/cJSON/cJSON.c ****     }
2562:../../iot_link/cJSON/cJSON.c ****     /* Create new item */
2563:../../iot_link/cJSON/cJSON.c ****     newitem = cJSON_New_Item(&global_hooks);
2564:../../iot_link/cJSON/cJSON.c ****     if (!newitem)
2565:../../iot_link/cJSON/cJSON.c ****     {
2566:../../iot_link/cJSON/cJSON.c ****         goto fail;
2567:../../iot_link/cJSON/cJSON.c ****     }
2568:../../iot_link/cJSON/cJSON.c ****     /* Copy over all vars */
2569:../../iot_link/cJSON/cJSON.c ****     newitem->type = item->type & (~cJSON_IsReference);
2570:../../iot_link/cJSON/cJSON.c ****     newitem->valueint = item->valueint;
2571:../../iot_link/cJSON/cJSON.c ****     newitem->valuedouble = item->valuedouble;
2572:../../iot_link/cJSON/cJSON.c ****     if (item->valuestring)
2573:../../iot_link/cJSON/cJSON.c ****     {
2574:../../iot_link/cJSON/cJSON.c ****         newitem->valuestring = (char*)cJSON_strdup((unsigned char*)item->valuestring, &global_hooks
2575:../../iot_link/cJSON/cJSON.c ****         if (!newitem->valuestring)
2576:../../iot_link/cJSON/cJSON.c ****         {
2577:../../iot_link/cJSON/cJSON.c ****             goto fail;
2578:../../iot_link/cJSON/cJSON.c ****         }
2579:../../iot_link/cJSON/cJSON.c ****     }
2580:../../iot_link/cJSON/cJSON.c ****     if (item->string)
2581:../../iot_link/cJSON/cJSON.c ****     {
2582:../../iot_link/cJSON/cJSON.c ****         newitem->string = (item->type&cJSON_StringIsConst) ? item->string : (char*)cJSON_strdup((un
2583:../../iot_link/cJSON/cJSON.c ****         if (!newitem->string)
2584:../../iot_link/cJSON/cJSON.c ****         {
2585:../../iot_link/cJSON/cJSON.c ****             goto fail;
2586:../../iot_link/cJSON/cJSON.c ****         }
2587:../../iot_link/cJSON/cJSON.c ****     }
2588:../../iot_link/cJSON/cJSON.c ****     /* If non-recursive, then we're done! */
2589:../../iot_link/cJSON/cJSON.c ****     if (!recurse)
2590:../../iot_link/cJSON/cJSON.c ****     {
2591:../../iot_link/cJSON/cJSON.c ****         return newitem;
2592:../../iot_link/cJSON/cJSON.c ****     }
2593:../../iot_link/cJSON/cJSON.c ****     /* Walk the ->next chain for the child. */
2594:../../iot_link/cJSON/cJSON.c ****     child = item->child;
2595:../../iot_link/cJSON/cJSON.c ****     while (child != NULL)
2596:../../iot_link/cJSON/cJSON.c ****     {
2597:../../iot_link/cJSON/cJSON.c ****         newchild = cJSON_Duplicate(child, true); /* Duplicate (with recurse) each item in the ->nex
2598:../../iot_link/cJSON/cJSON.c ****         if (!newchild)
2599:../../iot_link/cJSON/cJSON.c ****         {
2600:../../iot_link/cJSON/cJSON.c ****             goto fail;
ARM GAS  C:\Users\LuckyE\AppData\Local\Temp\ccgn9LZs.s 			page 167


2601:../../iot_link/cJSON/cJSON.c ****         }
2602:../../iot_link/cJSON/cJSON.c ****         if (next != NULL)
2603:../../iot_link/cJSON/cJSON.c ****         {
2604:../../iot_link/cJSON/cJSON.c ****             /* If newitem->child already set, then crosswire ->prev and ->next and move on */
2605:../../iot_link/cJSON/cJSON.c ****             next->next = newchild;
2606:../../iot_link/cJSON/cJSON.c ****             newchild->prev = next;
2607:../../iot_link/cJSON/cJSON.c ****             next = newchild;
2608:../../iot_link/cJSON/cJSON.c ****         }
2609:../../iot_link/cJSON/cJSON.c ****         else
2610:../../iot_link/cJSON/cJSON.c ****         {
2611:../../iot_link/cJSON/cJSON.c ****             /* Set newitem->child and move to it */
2612:../../iot_link/cJSON/cJSON.c ****             newitem->child = newchild;
2613:../../iot_link/cJSON/cJSON.c ****             next = newchild;
2614:../../iot_link/cJSON/cJSON.c ****         }
2615:../../iot_link/cJSON/cJSON.c ****         child = child->next;
2616:../../iot_link/cJSON/cJSON.c ****     }
2617:../../iot_link/cJSON/cJSON.c **** 
2618:../../iot_link/cJSON/cJSON.c ****     return newitem;
2619:../../iot_link/cJSON/cJSON.c **** 
2620:../../iot_link/cJSON/cJSON.c **** fail:
2621:../../iot_link/cJSON/cJSON.c ****     if (newitem != NULL)
2622:../../iot_link/cJSON/cJSON.c ****     {
2623:../../iot_link/cJSON/cJSON.c ****         cJSON_Delete(newitem);
2624:../../iot_link/cJSON/cJSON.c ****     }
2625:../../iot_link/cJSON/cJSON.c **** 
2626:../../iot_link/cJSON/cJSON.c ****     return NULL;
 6184              		.loc 1 2626 0
 6185 0008 0024     		movs	r4, #0
 6186 000a 15E0     		b	.L832
 6187              	.LVL698:
 6188              	.L833:
2563:../../iot_link/cJSON/cJSON.c ****     if (!newitem)
 6189              		.loc 1 2563 0
 6190 000c 1D4B     		ldr	r3, .L864
 6191 000e 1868     		ldr	r0, [r3]
 6192              	.LVL699:
 6193 0010 FFF7FEFF 		bl	cJSON_New_Item.isra.1
 6194              	.LVL700:
2564:../../iot_link/cJSON/cJSON.c ****     {
 6195              		.loc 1 2564 0
 6196 0014 0446     		mov	r4, r0
 6197 0016 0028     		cmp	r0, #0
 6198 0018 F6D0     		beq	.L863
2569:../../iot_link/cJSON/cJSON.c ****     newitem->valueint = item->valueint;
 6199              		.loc 1 2569 0
 6200 001a EB68     		ldr	r3, [r5, #12]
 6201 001c 23F48073 		bic	r3, r3, #256
 6202 0020 C360     		str	r3, [r0, #12]
2570:../../iot_link/cJSON/cJSON.c ****     newitem->valuedouble = item->valuedouble;
 6203              		.loc 1 2570 0
 6204 0022 6B69     		ldr	r3, [r5, #20]
 6205 0024 4361     		str	r3, [r0, #20]
2571:../../iot_link/cJSON/cJSON.c ****     if (item->valuestring)
 6206              		.loc 1 2571 0
 6207 0026 D5E90623 		ldrd	r2, [r5, #24]
 6208 002a C0E90623 		strd	r2, [r0, #24]
2572:../../iot_link/cJSON/cJSON.c ****     {
ARM GAS  C:\Users\LuckyE\AppData\Local\Temp\ccgn9LZs.s 			page 168


 6209              		.loc 1 2572 0
 6210 002e 2869     		ldr	r0, [r5, #16]
 6211              	.LVL701:
 6212 0030 20B9     		cbnz	r0, .L836
 6213              	.L840:
2580:../../iot_link/cJSON/cJSON.c ****     {
 6214              		.loc 1 2580 0
 6215 0032 286A     		ldr	r0, [r5, #32]
 6216 0034 58B9     		cbnz	r0, .L837
 6217              	.L838:
2589:../../iot_link/cJSON/cJSON.c ****     {
 6218              		.loc 1 2589 0
 6219 0036 9EB9     		cbnz	r6, .L862
 6220              	.LVL702:
 6221              	.L832:
2627:../../iot_link/cJSON/cJSON.c **** }
 6222              		.loc 1 2627 0
 6223 0038 2046     		mov	r0, r4
 6224 003a 70BD     		pop	{r4, r5, r6, pc}
 6225              	.LVL703:
 6226              	.L836:
2574:../../iot_link/cJSON/cJSON.c ****         if (!newitem->valuestring)
 6227              		.loc 1 2574 0
 6228 003c FFF7FEFF 		bl	cJSON_strdup.isra.2.constprop.15
 6229              	.LVL704:
 6230 0040 2061     		str	r0, [r4, #16]
2575:../../iot_link/cJSON/cJSON.c ****         {
 6231              		.loc 1 2575 0
 6232 0042 0028     		cmp	r0, #0
 6233 0044 F5D1     		bne	.L840
 6234              	.LVL705:
 6235              	.L839:
2623:../../iot_link/cJSON/cJSON.c ****     }
 6236              		.loc 1 2623 0
 6237 0046 2046     		mov	r0, r4
 6238 0048 FFF7FEFF 		bl	cJSON_Delete
 6239              	.LVL706:
 6240 004c DCE7     		b	.L863
 6241              	.LVL707:
 6242              	.L837:
2582:../../iot_link/cJSON/cJSON.c ****         if (!newitem->string)
 6243              		.loc 1 2582 0
 6244 004e EB68     		ldr	r3, [r5, #12]
 6245 0050 9B05     		lsls	r3, r3, #22
 6246 0052 01D4     		bmi	.L842
2582:../../iot_link/cJSON/cJSON.c ****         if (!newitem->string)
 6247              		.loc 1 2582 0 is_stmt 0 discriminator 2
 6248 0054 FFF7FEFF 		bl	cJSON_strdup.isra.2.constprop.15
 6249              	.LVL708:
 6250              	.L842:
2582:../../iot_link/cJSON/cJSON.c ****         if (!newitem->string)
 6251              		.loc 1 2582 0 discriminator 4
 6252 0058 2062     		str	r0, [r4, #32]
2583:../../iot_link/cJSON/cJSON.c ****         {
 6253              		.loc 1 2583 0 is_stmt 1 discriminator 4
 6254 005a 0028     		cmp	r0, #0
 6255 005c EBD1     		bne	.L838
ARM GAS  C:\Users\LuckyE\AppData\Local\Temp\ccgn9LZs.s 			page 169


 6256 005e F2E7     		b	.L839
 6257              	.L862:
2594:../../iot_link/cJSON/cJSON.c ****     while (child != NULL)
 6258              		.loc 1 2594 0
 6259 0060 AD68     		ldr	r5, [r5, #8]
 6260              	.LVL709:
2554:../../iot_link/cJSON/cJSON.c ****     cJSON *newchild = NULL;
 6261              		.loc 1 2554 0
 6262 0062 0026     		movs	r6, #0
 6263              	.LVL710:
 6264              	.L843:
2595:../../iot_link/cJSON/cJSON.c ****     {
 6265              		.loc 1 2595 0
 6266 0064 002D     		cmp	r5, #0
 6267 0066 E7D0     		beq	.L832
2597:../../iot_link/cJSON/cJSON.c ****         if (!newchild)
 6268              		.loc 1 2597 0
 6269 0068 0121     		movs	r1, #1
 6270 006a 2846     		mov	r0, r5
 6271 006c FFF7FEFF 		bl	cJSON_Duplicate
 6272              	.LVL711:
2598:../../iot_link/cJSON/cJSON.c ****         {
 6273              		.loc 1 2598 0
 6274 0070 0028     		cmp	r0, #0
 6275 0072 E8D0     		beq	.L839
2602:../../iot_link/cJSON/cJSON.c ****         {
 6276              		.loc 1 2602 0
 6277 0074 26B1     		cbz	r6, .L844
2605:../../iot_link/cJSON/cJSON.c ****             newchild->prev = next;
 6278              		.loc 1 2605 0
 6279 0076 3060     		str	r0, [r6]
2606:../../iot_link/cJSON/cJSON.c ****             next = newchild;
 6280              		.loc 1 2606 0
 6281 0078 4660     		str	r6, [r0, #4]
 6282              	.LVL712:
 6283              	.L845:
2615:../../iot_link/cJSON/cJSON.c ****     }
 6284              		.loc 1 2615 0
 6285 007a 2D68     		ldr	r5, [r5]
 6286              	.LVL713:
 6287 007c 0646     		mov	r6, r0
 6288 007e F1E7     		b	.L843
 6289              	.LVL714:
 6290              	.L844:
2612:../../iot_link/cJSON/cJSON.c ****             next = newchild;
 6291              		.loc 1 2612 0
 6292 0080 A060     		str	r0, [r4, #8]
 6293              	.LVL715:
 6294 0082 FAE7     		b	.L845
 6295              	.L865:
 6296              		.align	2
 6297              	.L864:
 6298 0084 00000000 		.word	.LANCHOR0
 6299              		.cfi_endproc
 6300              	.LFE92:
 6302              		.section	.text.cJSON_Minify,"ax",%progbits
 6303              		.align	1
ARM GAS  C:\Users\LuckyE\AppData\Local\Temp\ccgn9LZs.s 			page 170


 6304              		.global	cJSON_Minify
 6305              		.syntax unified
 6306              		.thumb
 6307              		.thumb_func
 6308              		.fpu fpv4-sp-d16
 6310              	cJSON_Minify:
 6311              	.LFB93:
2628:../../iot_link/cJSON/cJSON.c **** 
2629:../../iot_link/cJSON/cJSON.c **** CJSON_PUBLIC(void) cJSON_Minify(char *json)
2630:../../iot_link/cJSON/cJSON.c **** {
 6312              		.loc 1 2630 0
 6313              		.cfi_startproc
 6314              		@ args = 0, pretend = 0, frame = 0
 6315              		@ frame_needed = 0, uses_anonymous_args = 0
 6316              	.LVL716:
 6317 0000 10B5     		push	{r4, lr}
 6318              	.LCFI94:
 6319              		.cfi_def_cfa_offset 8
 6320              		.cfi_offset 4, -8
 6321              		.cfi_offset 14, -4
2631:../../iot_link/cJSON/cJSON.c ****     unsigned char *into = (unsigned char*)json;
2632:../../iot_link/cJSON/cJSON.c **** 
2633:../../iot_link/cJSON/cJSON.c ****     if (json == NULL)
 6322              		.loc 1 2633 0
 6323 0002 18B1     		cbz	r0, .L866
 6324 0004 0246     		mov	r2, r0
 6325              	.LVL717:
 6326              	.L868:
2634:../../iot_link/cJSON/cJSON.c ****     {
2635:../../iot_link/cJSON/cJSON.c ****         return;
2636:../../iot_link/cJSON/cJSON.c ****     }
2637:../../iot_link/cJSON/cJSON.c **** 
2638:../../iot_link/cJSON/cJSON.c ****     while (*json)
 6327              		.loc 1 2638 0
 6328 0006 0378     		ldrb	r3, [r0]	@ zero_extendqisi2
 6329 0008 0BB9     		cbnz	r3, .L885
2639:../../iot_link/cJSON/cJSON.c ****     {
2640:../../iot_link/cJSON/cJSON.c ****         if (*json == ' ')
2641:../../iot_link/cJSON/cJSON.c ****         {
2642:../../iot_link/cJSON/cJSON.c ****             json++;
2643:../../iot_link/cJSON/cJSON.c ****         }
2644:../../iot_link/cJSON/cJSON.c ****         else if (*json == '\t')
2645:../../iot_link/cJSON/cJSON.c ****         {
2646:../../iot_link/cJSON/cJSON.c ****             /* Whitespace characters. */
2647:../../iot_link/cJSON/cJSON.c ****             json++;
2648:../../iot_link/cJSON/cJSON.c ****         }
2649:../../iot_link/cJSON/cJSON.c ****         else if (*json == '\r')
2650:../../iot_link/cJSON/cJSON.c ****         {
2651:../../iot_link/cJSON/cJSON.c ****             json++;
2652:../../iot_link/cJSON/cJSON.c ****         }
2653:../../iot_link/cJSON/cJSON.c ****         else if (*json=='\n')
2654:../../iot_link/cJSON/cJSON.c ****         {
2655:../../iot_link/cJSON/cJSON.c ****             json++;
2656:../../iot_link/cJSON/cJSON.c ****         }
2657:../../iot_link/cJSON/cJSON.c ****         else if ((*json == '/') && (json[1] == '/'))
2658:../../iot_link/cJSON/cJSON.c ****         {
2659:../../iot_link/cJSON/cJSON.c ****             /* double-slash comments, to end of line. */
ARM GAS  C:\Users\LuckyE\AppData\Local\Temp\ccgn9LZs.s 			page 171


2660:../../iot_link/cJSON/cJSON.c ****             while (*json && (*json != '\n'))
2661:../../iot_link/cJSON/cJSON.c ****             {
2662:../../iot_link/cJSON/cJSON.c ****                 json++;
2663:../../iot_link/cJSON/cJSON.c ****             }
2664:../../iot_link/cJSON/cJSON.c ****         }
2665:../../iot_link/cJSON/cJSON.c ****         else if ((*json == '/') && (json[1] == '*'))
2666:../../iot_link/cJSON/cJSON.c ****         {
2667:../../iot_link/cJSON/cJSON.c ****             /* multiline comments. */
2668:../../iot_link/cJSON/cJSON.c ****             while (*json && !((*json == '*') && (json[1] == '/')))
2669:../../iot_link/cJSON/cJSON.c ****             {
2670:../../iot_link/cJSON/cJSON.c ****                 json++;
2671:../../iot_link/cJSON/cJSON.c ****             }
2672:../../iot_link/cJSON/cJSON.c ****             json += 2;
2673:../../iot_link/cJSON/cJSON.c ****         }
2674:../../iot_link/cJSON/cJSON.c ****         else if (*json == '\"')
2675:../../iot_link/cJSON/cJSON.c ****         {
2676:../../iot_link/cJSON/cJSON.c ****             /* string literals, which are \" sensitive. */
2677:../../iot_link/cJSON/cJSON.c ****             *into++ = (unsigned char)*json++;
2678:../../iot_link/cJSON/cJSON.c ****             while (*json && (*json != '\"'))
2679:../../iot_link/cJSON/cJSON.c ****             {
2680:../../iot_link/cJSON/cJSON.c ****                 if (*json == '\\')
2681:../../iot_link/cJSON/cJSON.c ****                 {
2682:../../iot_link/cJSON/cJSON.c ****                     *into++ = (unsigned char)*json++;
2683:../../iot_link/cJSON/cJSON.c ****                 }
2684:../../iot_link/cJSON/cJSON.c ****                 *into++ = (unsigned char)*json++;
2685:../../iot_link/cJSON/cJSON.c ****             }
2686:../../iot_link/cJSON/cJSON.c ****             *into++ = (unsigned char)*json++;
2687:../../iot_link/cJSON/cJSON.c ****         }
2688:../../iot_link/cJSON/cJSON.c ****         else
2689:../../iot_link/cJSON/cJSON.c ****         {
2690:../../iot_link/cJSON/cJSON.c ****             /* All other characters. */
2691:../../iot_link/cJSON/cJSON.c ****             *into++ = (unsigned char)*json++;
2692:../../iot_link/cJSON/cJSON.c ****         }
2693:../../iot_link/cJSON/cJSON.c ****     }
2694:../../iot_link/cJSON/cJSON.c **** 
2695:../../iot_link/cJSON/cJSON.c ****     /* and null-terminate. */
2696:../../iot_link/cJSON/cJSON.c ****     *into = '\0';
 6330              		.loc 1 2696 0
 6331 000a 1370     		strb	r3, [r2]
 6332              	.LVL718:
 6333              	.L866:
2697:../../iot_link/cJSON/cJSON.c **** }
 6334              		.loc 1 2697 0
 6335 000c 10BD     		pop	{r4, pc}
 6336              	.LVL719:
 6337              	.L885:
2640:../../iot_link/cJSON/cJSON.c ****         {
 6338              		.loc 1 2640 0
 6339 000e 202B     		cmp	r3, #32
 6340 0010 01D1     		bne	.L869
 6341              	.L901:
 6342              	.LVL720:
2655:../../iot_link/cJSON/cJSON.c ****         }
 6343              		.loc 1 2655 0
 6344 0012 0130     		adds	r0, r0, #1
 6345              	.LVL721:
 6346 0014 F7E7     		b	.L868
ARM GAS  C:\Users\LuckyE\AppData\Local\Temp\ccgn9LZs.s 			page 172


 6347              	.L869:
2644:../../iot_link/cJSON/cJSON.c ****         {
 6348              		.loc 1 2644 0
 6349 0016 092B     		cmp	r3, #9
 6350 0018 FBD0     		beq	.L901
2649:../../iot_link/cJSON/cJSON.c ****         {
 6351              		.loc 1 2649 0
 6352 001a 0D2B     		cmp	r3, #13
 6353 001c F9D0     		beq	.L901
2653:../../iot_link/cJSON/cJSON.c ****         {
 6354              		.loc 1 2653 0
 6355 001e 0A2B     		cmp	r3, #10
 6356 0020 F7D0     		beq	.L901
2657:../../iot_link/cJSON/cJSON.c ****         {
 6357              		.loc 1 2657 0
 6358 0022 2F2B     		cmp	r3, #47
 6359 0024 18D1     		bne	.L874
2657:../../iot_link/cJSON/cJSON.c ****         {
 6360              		.loc 1 2657 0 is_stmt 0 discriminator 1
 6361 0026 4178     		ldrb	r1, [r0, #1]	@ zero_extendqisi2
 6362 0028 2F29     		cmp	r1, #47
 6363 002a 08D1     		bne	.L875
 6364 002c 0346     		mov	r3, r0
 6365              	.L876:
 6366              	.LVL722:
 6367 002e 1846     		mov	r0, r3
2660:../../iot_link/cJSON/cJSON.c ****             {
 6368              		.loc 1 2660 0 is_stmt 1
 6369 0030 13F8011B 		ldrb	r1, [r3], #1	@ zero_extendqisi2
 6370              	.LVL723:
 6371 0034 0029     		cmp	r1, #0
 6372 0036 E6D0     		beq	.L868
2660:../../iot_link/cJSON/cJSON.c ****             {
 6373              		.loc 1 2660 0 is_stmt 0 discriminator 1
 6374 0038 0A29     		cmp	r1, #10
 6375 003a F8D1     		bne	.L876
 6376 003c E3E7     		b	.L868
 6377              	.L875:
2665:../../iot_link/cJSON/cJSON.c ****         {
 6378              		.loc 1 2665 0 is_stmt 1 discriminator 1
 6379 003e 2A29     		cmp	r1, #42
 6380 0040 22D1     		bne	.L877
 6381              	.LVL724:
 6382              	.L878:
 6383 0042 0146     		mov	r1, r0
 6384              	.LVL725:
2668:../../iot_link/cJSON/cJSON.c ****             {
 6385              		.loc 1 2668 0
 6386 0044 10F8013B 		ldrb	r3, [r0], #1	@ zero_extendqisi2
 6387              	.LVL726:
 6388 0048 23B1     		cbz	r3, .L879
 6389              	.LVL727:
2668:../../iot_link/cJSON/cJSON.c ****             {
 6390              		.loc 1 2668 0 is_stmt 0 discriminator 1
 6391 004a 2A2B     		cmp	r3, #42
 6392 004c 0478     		ldrb	r4, [r0]	@ zero_extendqisi2
 6393 004e F8D1     		bne	.L878
ARM GAS  C:\Users\LuckyE\AppData\Local\Temp\ccgn9LZs.s 			page 173


2668:../../iot_link/cJSON/cJSON.c ****             {
 6394              		.loc 1 2668 0 discriminator 2
 6395 0050 2F2C     		cmp	r4, #47
 6396 0052 F6D1     		bne	.L878
 6397              	.L879:
2672:../../iot_link/cJSON/cJSON.c ****         }
 6398              		.loc 1 2672 0 is_stmt 1
 6399 0054 881C     		adds	r0, r1, #2
 6400              	.LVL728:
 6401 0056 D6E7     		b	.L868
 6402              	.L874:
2674:../../iot_link/cJSON/cJSON.c ****         {
 6403              		.loc 1 2674 0
 6404 0058 222B     		cmp	r3, #34
 6405 005a 15D1     		bne	.L877
 6406 005c 441C     		adds	r4, r0, #1
 6407 005e 511C     		adds	r1, r2, #1
 6408              	.LVL729:
2677:../../iot_link/cJSON/cJSON.c ****             while (*json && (*json != '\"'))
 6409              		.loc 1 2677 0
 6410 0060 1370     		strb	r3, [r2]
 6411              	.LVL730:
 6412              	.L881:
2678:../../iot_link/cJSON/cJSON.c ****             {
 6413              		.loc 1 2678 0
 6414 0062 2046     		mov	r0, r4
 6415 0064 4A1C     		adds	r2, r1, #1
 6416 0066 10F8013B 		ldrb	r3, [r0], #1	@ zero_extendqisi2
 6417 006a 0BB1     		cbz	r3, .L883
2678:../../iot_link/cJSON/cJSON.c ****             {
 6418              		.loc 1 2678 0 is_stmt 0 discriminator 1
 6419 006c 222B     		cmp	r3, #34
 6420 006e 01D1     		bne	.L884
 6421              	.L883:
 6422              	.LVL731:
2686:../../iot_link/cJSON/cJSON.c ****         }
 6423              		.loc 1 2686 0 is_stmt 1
 6424 0070 0B70     		strb	r3, [r1]
 6425 0072 C8E7     		b	.L868
 6426              	.LVL732:
 6427              	.L884:
2680:../../iot_link/cJSON/cJSON.c ****                 {
 6428              		.loc 1 2680 0
 6429 0074 5C2B     		cmp	r3, #92
 6430              	.LVL733:
2682:../../iot_link/cJSON/cJSON.c ****                 }
 6431              		.loc 1 2682 0
 6432 0076 02BF     		ittt	eq
 6433 0078 0446     		moveq	r4, r0
 6434 007a 0B70     		strbeq	r3, [r1]
 6435 007c 1146     		moveq	r1, r2
 6436              	.LVL734:
2684:../../iot_link/cJSON/cJSON.c ****             }
 6437              		.loc 1 2684 0
 6438 007e 2378     		ldrb	r3, [r4]	@ zero_extendqisi2
 6439 0080 0B70     		strb	r3, [r1]
 6440 0082 0134     		adds	r4, r4, #1
ARM GAS  C:\Users\LuckyE\AppData\Local\Temp\ccgn9LZs.s 			page 174


 6441              	.LVL735:
 6442 0084 0131     		adds	r1, r1, #1
 6443              	.LVL736:
 6444 0086 ECE7     		b	.L881
 6445              	.LVL737:
 6446              	.L877:
2691:../../iot_link/cJSON/cJSON.c ****         }
 6447              		.loc 1 2691 0
 6448 0088 1370     		strb	r3, [r2]
 6449 008a 0130     		adds	r0, r0, #1
 6450              	.LVL738:
 6451 008c 0132     		adds	r2, r2, #1
 6452              	.LVL739:
 6453 008e BAE7     		b	.L868
 6454              		.cfi_endproc
 6455              	.LFE93:
 6457              		.section	.text.cJSON_IsInvalid,"ax",%progbits
 6458              		.align	1
 6459              		.global	cJSON_IsInvalid
 6460              		.syntax unified
 6461              		.thumb
 6462              		.thumb_func
 6463              		.fpu fpv4-sp-d16
 6465              	cJSON_IsInvalid:
 6466              	.LFB94:
2698:../../iot_link/cJSON/cJSON.c **** 
2699:../../iot_link/cJSON/cJSON.c **** CJSON_PUBLIC(cJSON_bool) cJSON_IsInvalid(const cJSON * const item)
2700:../../iot_link/cJSON/cJSON.c **** {
 6467              		.loc 1 2700 0
 6468              		.cfi_startproc
 6469              		@ args = 0, pretend = 0, frame = 0
 6470              		@ frame_needed = 0, uses_anonymous_args = 0
 6471              		@ link register save eliminated.
 6472              	.LVL740:
2701:../../iot_link/cJSON/cJSON.c ****     if (item == NULL)
 6473              		.loc 1 2701 0
 6474 0000 18B1     		cbz	r0, .L902
2702:../../iot_link/cJSON/cJSON.c ****     {
2703:../../iot_link/cJSON/cJSON.c ****         return false;
2704:../../iot_link/cJSON/cJSON.c ****     }
2705:../../iot_link/cJSON/cJSON.c **** 
2706:../../iot_link/cJSON/cJSON.c ****     return (item->type & 0xFF) == cJSON_Invalid;
 6475              		.loc 1 2706 0
 6476 0002 007B     		ldrb	r0, [r0, #12]	@ zero_extendqisi2
 6477              	.LVL741:
 6478 0004 B0FA80F0 		clz	r0, r0
 6479 0008 4009     		lsrs	r0, r0, #5
 6480              	.L902:
2707:../../iot_link/cJSON/cJSON.c **** }
 6481              		.loc 1 2707 0
 6482 000a 7047     		bx	lr
 6483              		.cfi_endproc
 6484              	.LFE94:
 6486              		.section	.text.cJSON_IsFalse,"ax",%progbits
 6487              		.align	1
 6488              		.global	cJSON_IsFalse
 6489              		.syntax unified
ARM GAS  C:\Users\LuckyE\AppData\Local\Temp\ccgn9LZs.s 			page 175


 6490              		.thumb
 6491              		.thumb_func
 6492              		.fpu fpv4-sp-d16
 6494              	cJSON_IsFalse:
 6495              	.LFB95:
2708:../../iot_link/cJSON/cJSON.c **** 
2709:../../iot_link/cJSON/cJSON.c **** CJSON_PUBLIC(cJSON_bool) cJSON_IsFalse(const cJSON * const item)
2710:../../iot_link/cJSON/cJSON.c **** {
 6496              		.loc 1 2710 0
 6497              		.cfi_startproc
 6498              		@ args = 0, pretend = 0, frame = 0
 6499              		@ frame_needed = 0, uses_anonymous_args = 0
 6500              		@ link register save eliminated.
 6501              	.LVL742:
2711:../../iot_link/cJSON/cJSON.c ****     if (item == NULL)
 6502              		.loc 1 2711 0
 6503 0000 18B1     		cbz	r0, .L905
2712:../../iot_link/cJSON/cJSON.c ****     {
2713:../../iot_link/cJSON/cJSON.c ****         return false;
2714:../../iot_link/cJSON/cJSON.c ****     }
2715:../../iot_link/cJSON/cJSON.c **** 
2716:../../iot_link/cJSON/cJSON.c ****     return (item->type & 0xFF) == cJSON_False;
 6504              		.loc 1 2716 0
 6505 0002 007B     		ldrb	r0, [r0, #12]	@ zero_extendqisi2
 6506              	.LVL743:
 6507 0004 431E     		subs	r3, r0, #1
 6508 0006 5842     		rsbs	r0, r3, #0
 6509 0008 5841     		adcs	r0, r0, r3
 6510              	.L905:
2717:../../iot_link/cJSON/cJSON.c **** }
 6511              		.loc 1 2717 0
 6512 000a 7047     		bx	lr
 6513              		.cfi_endproc
 6514              	.LFE95:
 6516              		.section	.text.cJSON_IsTrue,"ax",%progbits
 6517              		.align	1
 6518              		.global	cJSON_IsTrue
 6519              		.syntax unified
 6520              		.thumb
 6521              		.thumb_func
 6522              		.fpu fpv4-sp-d16
 6524              	cJSON_IsTrue:
 6525              	.LFB96:
2718:../../iot_link/cJSON/cJSON.c **** 
2719:../../iot_link/cJSON/cJSON.c **** CJSON_PUBLIC(cJSON_bool) cJSON_IsTrue(const cJSON * const item)
2720:../../iot_link/cJSON/cJSON.c **** {
 6526              		.loc 1 2720 0
 6527              		.cfi_startproc
 6528              		@ args = 0, pretend = 0, frame = 0
 6529              		@ frame_needed = 0, uses_anonymous_args = 0
 6530              		@ link register save eliminated.
 6531              	.LVL744:
2721:../../iot_link/cJSON/cJSON.c ****     if (item == NULL)
 6532              		.loc 1 2721 0
 6533 0000 18B1     		cbz	r0, .L908
2722:../../iot_link/cJSON/cJSON.c ****     {
2723:../../iot_link/cJSON/cJSON.c ****         return false;
ARM GAS  C:\Users\LuckyE\AppData\Local\Temp\ccgn9LZs.s 			page 176


2724:../../iot_link/cJSON/cJSON.c ****     }
2725:../../iot_link/cJSON/cJSON.c **** 
2726:../../iot_link/cJSON/cJSON.c ****     return (item->type & 0xff) == cJSON_True;
 6534              		.loc 1 2726 0
 6535 0002 007B     		ldrb	r0, [r0, #12]	@ zero_extendqisi2
 6536              	.LVL745:
 6537 0004 831E     		subs	r3, r0, #2
 6538 0006 5842     		rsbs	r0, r3, #0
 6539 0008 5841     		adcs	r0, r0, r3
 6540              	.L908:
2727:../../iot_link/cJSON/cJSON.c **** }
 6541              		.loc 1 2727 0
 6542 000a 7047     		bx	lr
 6543              		.cfi_endproc
 6544              	.LFE96:
 6546              		.section	.text.cJSON_IsBool,"ax",%progbits
 6547              		.align	1
 6548              		.global	cJSON_IsBool
 6549              		.syntax unified
 6550              		.thumb
 6551              		.thumb_func
 6552              		.fpu fpv4-sp-d16
 6554              	cJSON_IsBool:
 6555              	.LFB97:
2728:../../iot_link/cJSON/cJSON.c **** 
2729:../../iot_link/cJSON/cJSON.c **** 
2730:../../iot_link/cJSON/cJSON.c **** CJSON_PUBLIC(cJSON_bool) cJSON_IsBool(const cJSON * const item)
2731:../../iot_link/cJSON/cJSON.c **** {
 6556              		.loc 1 2731 0
 6557              		.cfi_startproc
 6558              		@ args = 0, pretend = 0, frame = 0
 6559              		@ frame_needed = 0, uses_anonymous_args = 0
 6560              		@ link register save eliminated.
 6561              	.LVL746:
2732:../../iot_link/cJSON/cJSON.c ****     if (item == NULL)
 6562              		.loc 1 2732 0
 6563 0000 20B1     		cbz	r0, .L911
2733:../../iot_link/cJSON/cJSON.c ****     {
2734:../../iot_link/cJSON/cJSON.c ****         return false;
2735:../../iot_link/cJSON/cJSON.c ****     }
2736:../../iot_link/cJSON/cJSON.c **** 
2737:../../iot_link/cJSON/cJSON.c ****     return (item->type & (cJSON_True | cJSON_False)) != 0;
 6564              		.loc 1 2737 0
 6565 0002 C068     		ldr	r0, [r0, #12]
 6566              	.LVL747:
 6567 0004 10F00300 		ands	r0, r0, #3
 6568 0008 18BF     		it	ne
 6569 000a 0120     		movne	r0, #1
 6570              	.L911:
2738:../../iot_link/cJSON/cJSON.c **** }
 6571              		.loc 1 2738 0
 6572 000c 7047     		bx	lr
 6573              		.cfi_endproc
 6574              	.LFE97:
 6576              		.section	.text.cJSON_IsNull,"ax",%progbits
 6577              		.align	1
 6578              		.global	cJSON_IsNull
ARM GAS  C:\Users\LuckyE\AppData\Local\Temp\ccgn9LZs.s 			page 177


 6579              		.syntax unified
 6580              		.thumb
 6581              		.thumb_func
 6582              		.fpu fpv4-sp-d16
 6584              	cJSON_IsNull:
 6585              	.LFB98:
2739:../../iot_link/cJSON/cJSON.c **** CJSON_PUBLIC(cJSON_bool) cJSON_IsNull(const cJSON * const item)
2740:../../iot_link/cJSON/cJSON.c **** {
 6586              		.loc 1 2740 0
 6587              		.cfi_startproc
 6588              		@ args = 0, pretend = 0, frame = 0
 6589              		@ frame_needed = 0, uses_anonymous_args = 0
 6590              		@ link register save eliminated.
 6591              	.LVL748:
2741:../../iot_link/cJSON/cJSON.c ****     if (item == NULL)
 6592              		.loc 1 2741 0
 6593 0000 18B1     		cbz	r0, .L914
2742:../../iot_link/cJSON/cJSON.c ****     {
2743:../../iot_link/cJSON/cJSON.c ****         return false;
2744:../../iot_link/cJSON/cJSON.c ****     }
2745:../../iot_link/cJSON/cJSON.c **** 
2746:../../iot_link/cJSON/cJSON.c ****     return (item->type & 0xFF) == cJSON_NULL;
 6594              		.loc 1 2746 0
 6595 0002 007B     		ldrb	r0, [r0, #12]	@ zero_extendqisi2
 6596              	.LVL749:
 6597 0004 031F     		subs	r3, r0, #4
 6598 0006 5842     		rsbs	r0, r3, #0
 6599 0008 5841     		adcs	r0, r0, r3
 6600              	.L914:
2747:../../iot_link/cJSON/cJSON.c **** }
 6601              		.loc 1 2747 0
 6602 000a 7047     		bx	lr
 6603              		.cfi_endproc
 6604              	.LFE98:
 6606              		.section	.text.cJSON_IsNumber,"ax",%progbits
 6607              		.align	1
 6608              		.global	cJSON_IsNumber
 6609              		.syntax unified
 6610              		.thumb
 6611              		.thumb_func
 6612              		.fpu fpv4-sp-d16
 6614              	cJSON_IsNumber:
 6615              	.LFB99:
2748:../../iot_link/cJSON/cJSON.c **** 
2749:../../iot_link/cJSON/cJSON.c **** CJSON_PUBLIC(cJSON_bool) cJSON_IsNumber(const cJSON * const item)
2750:../../iot_link/cJSON/cJSON.c **** {
 6616              		.loc 1 2750 0
 6617              		.cfi_startproc
 6618              		@ args = 0, pretend = 0, frame = 0
 6619              		@ frame_needed = 0, uses_anonymous_args = 0
 6620              		@ link register save eliminated.
 6621              	.LVL750:
2751:../../iot_link/cJSON/cJSON.c ****     if (item == NULL)
 6622              		.loc 1 2751 0
 6623 0000 20B1     		cbz	r0, .L917
2752:../../iot_link/cJSON/cJSON.c ****     {
2753:../../iot_link/cJSON/cJSON.c ****         return false;
ARM GAS  C:\Users\LuckyE\AppData\Local\Temp\ccgn9LZs.s 			page 178


2754:../../iot_link/cJSON/cJSON.c ****     }
2755:../../iot_link/cJSON/cJSON.c **** 
2756:../../iot_link/cJSON/cJSON.c ****     return (item->type & 0xFF) == cJSON_Number;
 6624              		.loc 1 2756 0
 6625 0002 007B     		ldrb	r0, [r0, #12]	@ zero_extendqisi2
 6626              	.LVL751:
 6627 0004 A0F10803 		sub	r3, r0, #8
 6628 0008 5842     		rsbs	r0, r3, #0
 6629 000a 5841     		adcs	r0, r0, r3
 6630              	.L917:
2757:../../iot_link/cJSON/cJSON.c **** }
 6631              		.loc 1 2757 0
 6632 000c 7047     		bx	lr
 6633              		.cfi_endproc
 6634              	.LFE99:
 6636              		.section	.text.cJSON_IsString,"ax",%progbits
 6637              		.align	1
 6638              		.global	cJSON_IsString
 6639              		.syntax unified
 6640              		.thumb
 6641              		.thumb_func
 6642              		.fpu fpv4-sp-d16
 6644              	cJSON_IsString:
 6645              	.LFB100:
2758:../../iot_link/cJSON/cJSON.c **** 
2759:../../iot_link/cJSON/cJSON.c **** CJSON_PUBLIC(cJSON_bool) cJSON_IsString(const cJSON * const item)
2760:../../iot_link/cJSON/cJSON.c **** {
 6646              		.loc 1 2760 0
 6647              		.cfi_startproc
 6648              		@ args = 0, pretend = 0, frame = 0
 6649              		@ frame_needed = 0, uses_anonymous_args = 0
 6650              		@ link register save eliminated.
 6651              	.LVL752:
2761:../../iot_link/cJSON/cJSON.c ****     if (item == NULL)
 6652              		.loc 1 2761 0
 6653 0000 20B1     		cbz	r0, .L920
2762:../../iot_link/cJSON/cJSON.c ****     {
2763:../../iot_link/cJSON/cJSON.c ****         return false;
2764:../../iot_link/cJSON/cJSON.c ****     }
2765:../../iot_link/cJSON/cJSON.c **** 
2766:../../iot_link/cJSON/cJSON.c ****     return (item->type & 0xFF) == cJSON_String;
 6654              		.loc 1 2766 0
 6655 0002 007B     		ldrb	r0, [r0, #12]	@ zero_extendqisi2
 6656              	.LVL753:
 6657 0004 A0F11003 		sub	r3, r0, #16
 6658 0008 5842     		rsbs	r0, r3, #0
 6659 000a 5841     		adcs	r0, r0, r3
 6660              	.L920:
2767:../../iot_link/cJSON/cJSON.c **** }
 6661              		.loc 1 2767 0
 6662 000c 7047     		bx	lr
 6663              		.cfi_endproc
 6664              	.LFE100:
 6666              		.section	.text.cJSON_GetStringValue,"ax",%progbits
 6667              		.align	1
 6668              		.global	cJSON_GetStringValue
 6669              		.syntax unified
ARM GAS  C:\Users\LuckyE\AppData\Local\Temp\ccgn9LZs.s 			page 179


 6670              		.thumb
 6671              		.thumb_func
 6672              		.fpu fpv4-sp-d16
 6674              	cJSON_GetStringValue:
 6675              	.LFB4:
  75:../../iot_link/cJSON/cJSON.c ****     if (!cJSON_IsString(item)) {
 6676              		.loc 1 75 0
 6677              		.cfi_startproc
 6678              		@ args = 0, pretend = 0, frame = 0
 6679              		@ frame_needed = 0, uses_anonymous_args = 0
 6680              	.LVL754:
 6681 0000 08B5     		push	{r3, lr}
 6682              	.LCFI95:
 6683              		.cfi_def_cfa_offset 8
 6684              		.cfi_offset 3, -8
 6685              		.cfi_offset 14, -4
  75:../../iot_link/cJSON/cJSON.c ****     if (!cJSON_IsString(item)) {
 6686              		.loc 1 75 0
 6687 0002 0246     		mov	r2, r0
  76:../../iot_link/cJSON/cJSON.c ****         return NULL;
 6688              		.loc 1 76 0
 6689 0004 FFF7FEFF 		bl	cJSON_IsString
 6690              	.LVL755:
 6691 0008 00B1     		cbz	r0, .L923
  80:../../iot_link/cJSON/cJSON.c **** }
 6692              		.loc 1 80 0
 6693 000a 1069     		ldr	r0, [r2, #16]
 6694              	.L923:
  81:../../iot_link/cJSON/cJSON.c **** 
 6695              		.loc 1 81 0
 6696 000c 08BD     		pop	{r3, pc}
 6697              		.cfi_endproc
 6698              	.LFE4:
 6700              		.section	.text.cJSON_IsArray,"ax",%progbits
 6701              		.align	1
 6702              		.global	cJSON_IsArray
 6703              		.syntax unified
 6704              		.thumb
 6705              		.thumb_func
 6706              		.fpu fpv4-sp-d16
 6708              	cJSON_IsArray:
 6709              	.LFB101:
2768:../../iot_link/cJSON/cJSON.c **** 
2769:../../iot_link/cJSON/cJSON.c **** CJSON_PUBLIC(cJSON_bool) cJSON_IsArray(const cJSON * const item)
2770:../../iot_link/cJSON/cJSON.c **** {
 6710              		.loc 1 2770 0
 6711              		.cfi_startproc
 6712              		@ args = 0, pretend = 0, frame = 0
 6713              		@ frame_needed = 0, uses_anonymous_args = 0
 6714              		@ link register save eliminated.
 6715              	.LVL756:
2771:../../iot_link/cJSON/cJSON.c ****     if (item == NULL)
 6716              		.loc 1 2771 0
 6717 0000 20B1     		cbz	r0, .L926
2772:../../iot_link/cJSON/cJSON.c ****     {
2773:../../iot_link/cJSON/cJSON.c ****         return false;
2774:../../iot_link/cJSON/cJSON.c ****     }
ARM GAS  C:\Users\LuckyE\AppData\Local\Temp\ccgn9LZs.s 			page 180


2775:../../iot_link/cJSON/cJSON.c **** 
2776:../../iot_link/cJSON/cJSON.c ****     return (item->type & 0xFF) == cJSON_Array;
 6718              		.loc 1 2776 0
 6719 0002 007B     		ldrb	r0, [r0, #12]	@ zero_extendqisi2
 6720              	.LVL757:
 6721 0004 A0F12003 		sub	r3, r0, #32
 6722 0008 5842     		rsbs	r0, r3, #0
 6723 000a 5841     		adcs	r0, r0, r3
 6724              	.L926:
2777:../../iot_link/cJSON/cJSON.c **** }
 6725              		.loc 1 2777 0
 6726 000c 7047     		bx	lr
 6727              		.cfi_endproc
 6728              	.LFE101:
 6730              		.section	.text.cJSON_IsObject,"ax",%progbits
 6731              		.align	1
 6732              		.global	cJSON_IsObject
 6733              		.syntax unified
 6734              		.thumb
 6735              		.thumb_func
 6736              		.fpu fpv4-sp-d16
 6738              	cJSON_IsObject:
 6739              	.LFB102:
2778:../../iot_link/cJSON/cJSON.c **** 
2779:../../iot_link/cJSON/cJSON.c **** CJSON_PUBLIC(cJSON_bool) cJSON_IsObject(const cJSON * const item)
2780:../../iot_link/cJSON/cJSON.c **** {
 6740              		.loc 1 2780 0
 6741              		.cfi_startproc
 6742              		@ args = 0, pretend = 0, frame = 0
 6743              		@ frame_needed = 0, uses_anonymous_args = 0
 6744              		@ link register save eliminated.
 6745              	.LVL758:
2781:../../iot_link/cJSON/cJSON.c ****     if (item == NULL)
 6746              		.loc 1 2781 0
 6747 0000 20B1     		cbz	r0, .L929
2782:../../iot_link/cJSON/cJSON.c ****     {
2783:../../iot_link/cJSON/cJSON.c ****         return false;
2784:../../iot_link/cJSON/cJSON.c ****     }
2785:../../iot_link/cJSON/cJSON.c **** 
2786:../../iot_link/cJSON/cJSON.c ****     return (item->type & 0xFF) == cJSON_Object;
 6748              		.loc 1 2786 0
 6749 0002 007B     		ldrb	r0, [r0, #12]	@ zero_extendqisi2
 6750              	.LVL759:
 6751 0004 A0F14003 		sub	r3, r0, #64
 6752 0008 5842     		rsbs	r0, r3, #0
 6753 000a 5841     		adcs	r0, r0, r3
 6754              	.L929:
2787:../../iot_link/cJSON/cJSON.c **** }
 6755              		.loc 1 2787 0
 6756 000c 7047     		bx	lr
 6757              		.cfi_endproc
 6758              	.LFE102:
 6760              		.section	.text.cJSON_IsRaw,"ax",%progbits
 6761              		.align	1
 6762              		.global	cJSON_IsRaw
 6763              		.syntax unified
 6764              		.thumb
ARM GAS  C:\Users\LuckyE\AppData\Local\Temp\ccgn9LZs.s 			page 181


 6765              		.thumb_func
 6766              		.fpu fpv4-sp-d16
 6768              	cJSON_IsRaw:
 6769              	.LFB103:
2788:../../iot_link/cJSON/cJSON.c **** 
2789:../../iot_link/cJSON/cJSON.c **** CJSON_PUBLIC(cJSON_bool) cJSON_IsRaw(const cJSON * const item)
2790:../../iot_link/cJSON/cJSON.c **** {
 6770              		.loc 1 2790 0
 6771              		.cfi_startproc
 6772              		@ args = 0, pretend = 0, frame = 0
 6773              		@ frame_needed = 0, uses_anonymous_args = 0
 6774              		@ link register save eliminated.
 6775              	.LVL760:
2791:../../iot_link/cJSON/cJSON.c ****     if (item == NULL)
 6776              		.loc 1 2791 0
 6777 0000 20B1     		cbz	r0, .L932
2792:../../iot_link/cJSON/cJSON.c ****     {
2793:../../iot_link/cJSON/cJSON.c ****         return false;
2794:../../iot_link/cJSON/cJSON.c ****     }
2795:../../iot_link/cJSON/cJSON.c **** 
2796:../../iot_link/cJSON/cJSON.c ****     return (item->type & 0xFF) == cJSON_Raw;
 6778              		.loc 1 2796 0
 6779 0002 007B     		ldrb	r0, [r0, #12]	@ zero_extendqisi2
 6780              	.LVL761:
 6781 0004 A0F18003 		sub	r3, r0, #128
 6782 0008 5842     		rsbs	r0, r3, #0
 6783 000a 5841     		adcs	r0, r0, r3
 6784              	.L932:
2797:../../iot_link/cJSON/cJSON.c **** }
 6785              		.loc 1 2797 0
 6786 000c 7047     		bx	lr
 6787              		.cfi_endproc
 6788              	.LFE103:
 6790              		.section	.text.cJSON_Compare,"ax",%progbits
 6791              		.align	1
 6792              		.global	cJSON_Compare
 6793              		.syntax unified
 6794              		.thumb
 6795              		.thumb_func
 6796              		.fpu fpv4-sp-d16
 6798              	cJSON_Compare:
 6799              	.LFB104:
2798:../../iot_link/cJSON/cJSON.c **** 
2799:../../iot_link/cJSON/cJSON.c **** CJSON_PUBLIC(cJSON_bool) cJSON_Compare(const cJSON * const a, const cJSON * const b, const cJSON_bo
2800:../../iot_link/cJSON/cJSON.c **** {
 6800              		.loc 1 2800 0
 6801              		.cfi_startproc
 6802              		@ args = 0, pretend = 0, frame = 0
 6803              		@ frame_needed = 0, uses_anonymous_args = 0
 6804              	.LVL762:
 6805 0000 F8B5     		push	{r3, r4, r5, r6, r7, lr}
 6806              	.LCFI96:
 6807              		.cfi_def_cfa_offset 24
 6808              		.cfi_offset 3, -24
 6809              		.cfi_offset 4, -20
 6810              		.cfi_offset 5, -16
 6811              		.cfi_offset 6, -12
ARM GAS  C:\Users\LuckyE\AppData\Local\Temp\ccgn9LZs.s 			page 182


 6812              		.cfi_offset 7, -8
 6813              		.cfi_offset 14, -4
 6814              		.loc 1 2800 0
 6815 0002 0C46     		mov	r4, r1
 6816 0004 1646     		mov	r6, r2
2801:../../iot_link/cJSON/cJSON.c ****     if ((a == NULL) || (b == NULL) || ((a->type & 0xFF) != (b->type & 0xFF)) || cJSON_IsInvalid(a))
 6817              		.loc 1 2801 0
 6818 0006 0546     		mov	r5, r0
 6819 0008 08B9     		cbnz	r0, .L936
 6820              	.LVL763:
 6821              	.L938:
2802:../../iot_link/cJSON/cJSON.c ****     {
2803:../../iot_link/cJSON/cJSON.c ****         return false;
 6822              		.loc 1 2803 0
 6823 000a 0020     		movs	r0, #0
 6824              	.L935:
2804:../../iot_link/cJSON/cJSON.c ****     }
2805:../../iot_link/cJSON/cJSON.c **** 
2806:../../iot_link/cJSON/cJSON.c ****     /* check if type is valid */
2807:../../iot_link/cJSON/cJSON.c ****     switch (a->type & 0xFF)
2808:../../iot_link/cJSON/cJSON.c ****     {
2809:../../iot_link/cJSON/cJSON.c ****         case cJSON_False:
2810:../../iot_link/cJSON/cJSON.c ****         case cJSON_True:
2811:../../iot_link/cJSON/cJSON.c ****         case cJSON_NULL:
2812:../../iot_link/cJSON/cJSON.c ****         case cJSON_Number:
2813:../../iot_link/cJSON/cJSON.c ****         case cJSON_String:
2814:../../iot_link/cJSON/cJSON.c ****         case cJSON_Raw:
2815:../../iot_link/cJSON/cJSON.c ****         case cJSON_Array:
2816:../../iot_link/cJSON/cJSON.c ****         case cJSON_Object:
2817:../../iot_link/cJSON/cJSON.c ****             break;
2818:../../iot_link/cJSON/cJSON.c **** 
2819:../../iot_link/cJSON/cJSON.c ****         default:
2820:../../iot_link/cJSON/cJSON.c ****             return false;
2821:../../iot_link/cJSON/cJSON.c ****     }
2822:../../iot_link/cJSON/cJSON.c **** 
2823:../../iot_link/cJSON/cJSON.c ****     /* identical objects are equal */
2824:../../iot_link/cJSON/cJSON.c ****     if (a == b)
2825:../../iot_link/cJSON/cJSON.c ****     {
2826:../../iot_link/cJSON/cJSON.c ****         return true;
2827:../../iot_link/cJSON/cJSON.c ****     }
2828:../../iot_link/cJSON/cJSON.c **** 
2829:../../iot_link/cJSON/cJSON.c ****     switch (a->type & 0xFF)
2830:../../iot_link/cJSON/cJSON.c ****     {
2831:../../iot_link/cJSON/cJSON.c ****         /* in these cases and equal type is enough */
2832:../../iot_link/cJSON/cJSON.c ****         case cJSON_False:
2833:../../iot_link/cJSON/cJSON.c ****         case cJSON_True:
2834:../../iot_link/cJSON/cJSON.c ****         case cJSON_NULL:
2835:../../iot_link/cJSON/cJSON.c ****             return true;
2836:../../iot_link/cJSON/cJSON.c **** 
2837:../../iot_link/cJSON/cJSON.c ****         case cJSON_Number:
2838:../../iot_link/cJSON/cJSON.c ****             if (a->valuedouble == b->valuedouble)
2839:../../iot_link/cJSON/cJSON.c ****             {
2840:../../iot_link/cJSON/cJSON.c ****                 return true;
2841:../../iot_link/cJSON/cJSON.c ****             }
2842:../../iot_link/cJSON/cJSON.c ****             return false;
2843:../../iot_link/cJSON/cJSON.c **** 
2844:../../iot_link/cJSON/cJSON.c ****         case cJSON_String:
ARM GAS  C:\Users\LuckyE\AppData\Local\Temp\ccgn9LZs.s 			page 183


2845:../../iot_link/cJSON/cJSON.c ****         case cJSON_Raw:
2846:../../iot_link/cJSON/cJSON.c ****             if ((a->valuestring == NULL) || (b->valuestring == NULL))
2847:../../iot_link/cJSON/cJSON.c ****             {
2848:../../iot_link/cJSON/cJSON.c ****                 return false;
2849:../../iot_link/cJSON/cJSON.c ****             }
2850:../../iot_link/cJSON/cJSON.c ****             if (strcmp(a->valuestring, b->valuestring) == 0)
2851:../../iot_link/cJSON/cJSON.c ****             {
2852:../../iot_link/cJSON/cJSON.c ****                 return true;
2853:../../iot_link/cJSON/cJSON.c ****             }
2854:../../iot_link/cJSON/cJSON.c **** 
2855:../../iot_link/cJSON/cJSON.c ****             return false;
2856:../../iot_link/cJSON/cJSON.c **** 
2857:../../iot_link/cJSON/cJSON.c ****         case cJSON_Array:
2858:../../iot_link/cJSON/cJSON.c ****         {
2859:../../iot_link/cJSON/cJSON.c ****             cJSON *a_element = a->child;
2860:../../iot_link/cJSON/cJSON.c ****             cJSON *b_element = b->child;
2861:../../iot_link/cJSON/cJSON.c **** 
2862:../../iot_link/cJSON/cJSON.c ****             for (; (a_element != NULL) && (b_element != NULL);)
2863:../../iot_link/cJSON/cJSON.c ****             {
2864:../../iot_link/cJSON/cJSON.c ****                 if (!cJSON_Compare(a_element, b_element, case_sensitive))
2865:../../iot_link/cJSON/cJSON.c ****                 {
2866:../../iot_link/cJSON/cJSON.c ****                     return false;
2867:../../iot_link/cJSON/cJSON.c ****                 }
2868:../../iot_link/cJSON/cJSON.c **** 
2869:../../iot_link/cJSON/cJSON.c ****                 a_element = a_element->next;
2870:../../iot_link/cJSON/cJSON.c ****                 b_element = b_element->next;
2871:../../iot_link/cJSON/cJSON.c ****             }
2872:../../iot_link/cJSON/cJSON.c **** 
2873:../../iot_link/cJSON/cJSON.c ****             /* one of the arrays is longer than the other */
2874:../../iot_link/cJSON/cJSON.c ****             if (a_element != b_element) {
2875:../../iot_link/cJSON/cJSON.c ****                 return false;
2876:../../iot_link/cJSON/cJSON.c ****             }
2877:../../iot_link/cJSON/cJSON.c **** 
2878:../../iot_link/cJSON/cJSON.c ****             return true;
2879:../../iot_link/cJSON/cJSON.c ****         }
2880:../../iot_link/cJSON/cJSON.c **** 
2881:../../iot_link/cJSON/cJSON.c ****         case cJSON_Object:
2882:../../iot_link/cJSON/cJSON.c ****         {
2883:../../iot_link/cJSON/cJSON.c ****             cJSON *a_element = NULL;
2884:../../iot_link/cJSON/cJSON.c ****             cJSON *b_element = NULL;
2885:../../iot_link/cJSON/cJSON.c ****             cJSON_ArrayForEach(a_element, a)
2886:../../iot_link/cJSON/cJSON.c ****             {
2887:../../iot_link/cJSON/cJSON.c ****                 /* TODO This has O(n^2) runtime, which is horrible! */
2888:../../iot_link/cJSON/cJSON.c ****                 b_element = get_object_item(b, a_element->string, case_sensitive);
2889:../../iot_link/cJSON/cJSON.c ****                 if (b_element == NULL)
2890:../../iot_link/cJSON/cJSON.c ****                 {
2891:../../iot_link/cJSON/cJSON.c ****                     return false;
2892:../../iot_link/cJSON/cJSON.c ****                 }
2893:../../iot_link/cJSON/cJSON.c **** 
2894:../../iot_link/cJSON/cJSON.c ****                 if (!cJSON_Compare(a_element, b_element, case_sensitive))
2895:../../iot_link/cJSON/cJSON.c ****                 {
2896:../../iot_link/cJSON/cJSON.c ****                     return false;
2897:../../iot_link/cJSON/cJSON.c ****                 }
2898:../../iot_link/cJSON/cJSON.c ****             }
2899:../../iot_link/cJSON/cJSON.c **** 
2900:../../iot_link/cJSON/cJSON.c ****             /* doing this twice, once on a and b to prevent true comparison if a subset of b
2901:../../iot_link/cJSON/cJSON.c ****              * TODO: Do this the proper way, this is just a fix for now */
ARM GAS  C:\Users\LuckyE\AppData\Local\Temp\ccgn9LZs.s 			page 184


2902:../../iot_link/cJSON/cJSON.c ****             cJSON_ArrayForEach(b_element, b)
2903:../../iot_link/cJSON/cJSON.c ****             {
2904:../../iot_link/cJSON/cJSON.c ****                 a_element = get_object_item(a, b_element->string, case_sensitive);
2905:../../iot_link/cJSON/cJSON.c ****                 if (a_element == NULL)
2906:../../iot_link/cJSON/cJSON.c ****                 {
2907:../../iot_link/cJSON/cJSON.c ****                     return false;
2908:../../iot_link/cJSON/cJSON.c ****                 }
2909:../../iot_link/cJSON/cJSON.c **** 
2910:../../iot_link/cJSON/cJSON.c ****                 if (!cJSON_Compare(b_element, a_element, case_sensitive))
2911:../../iot_link/cJSON/cJSON.c ****                 {
2912:../../iot_link/cJSON/cJSON.c ****                     return false;
2913:../../iot_link/cJSON/cJSON.c ****                 }
2914:../../iot_link/cJSON/cJSON.c ****             }
2915:../../iot_link/cJSON/cJSON.c **** 
2916:../../iot_link/cJSON/cJSON.c ****             return true;
2917:../../iot_link/cJSON/cJSON.c ****         }
2918:../../iot_link/cJSON/cJSON.c **** 
2919:../../iot_link/cJSON/cJSON.c ****         default:
2920:../../iot_link/cJSON/cJSON.c ****             return false;
2921:../../iot_link/cJSON/cJSON.c ****     }
2922:../../iot_link/cJSON/cJSON.c **** }
 6825              		.loc 1 2922 0
 6826 000c F8BD     		pop	{r3, r4, r5, r6, r7, pc}
 6827              	.LVL764:
 6828              	.L936:
2801:../../iot_link/cJSON/cJSON.c ****     {
 6829              		.loc 1 2801 0 discriminator 1
 6830 000e 0029     		cmp	r1, #0
 6831 0010 FBD0     		beq	.L938
2801:../../iot_link/cJSON/cJSON.c ****     {
 6832              		.loc 1 2801 0 is_stmt 0 discriminator 2
 6833 0012 C368     		ldr	r3, [r0, #12]
 6834 0014 CA68     		ldr	r2, [r1, #12]
 6835              	.LVL765:
 6836 0016 5A40     		eors	r2, r2, r3
 6837 0018 12F0FF0F 		tst	r2, #255
 6838 001c F5D1     		bne	.L938
2801:../../iot_link/cJSON/cJSON.c ****     {
 6839              		.loc 1 2801 0 discriminator 3
 6840 001e FFF7FEFF 		bl	cJSON_IsInvalid
 6841              	.LVL766:
 6842 0022 0028     		cmp	r0, #0
 6843 0024 F1D1     		bne	.L938
2807:../../iot_link/cJSON/cJSON.c ****     {
 6844              		.loc 1 2807 0 is_stmt 1
 6845 0026 DBB2     		uxtb	r3, r3
 6846 0028 082B     		cmp	r3, #8
 6847 002a 06D0     		beq	.L939
 6848 002c 09DC     		bgt	.L940
 6849 002e 002B     		cmp	r3, #0
 6850 0030 ECD0     		beq	.L935
 6851 0032 022B     		cmp	r3, #2
 6852 0034 01DD     		ble	.L939
 6853 0036 042B     		cmp	r3, #4
 6854              	.L1011:
 6855 0038 E8D1     		bne	.L935
 6856              	.L939:
ARM GAS  C:\Users\LuckyE\AppData\Local\Temp\ccgn9LZs.s 			page 185


2824:../../iot_link/cJSON/cJSON.c ****     {
 6857              		.loc 1 2824 0
 6858 003a A542     		cmp	r5, r4
 6859 003c 0AD1     		bne	.L942
 6860              	.LVL767:
 6861              	.L945:
2835:../../iot_link/cJSON/cJSON.c **** 
 6862              		.loc 1 2835 0
 6863 003e 0120     		movs	r0, #1
 6864 0040 E4E7     		b	.L935
 6865              	.LVL768:
 6866              	.L940:
2807:../../iot_link/cJSON/cJSON.c ****     {
 6867              		.loc 1 2807 0
 6868 0042 202B     		cmp	r3, #32
 6869 0044 F9D0     		beq	.L939
 6870 0046 01DC     		bgt	.L941
 6871 0048 102B     		cmp	r3, #16
 6872 004a F5E7     		b	.L1011
 6873              	.L941:
 6874 004c 402B     		cmp	r3, #64
 6875 004e F4D0     		beq	.L939
 6876 0050 802B     		cmp	r3, #128
 6877 0052 F1E7     		b	.L1011
 6878              	.L942:
2829:../../iot_link/cJSON/cJSON.c ****     {
 6879              		.loc 1 2829 0
 6880 0054 082B     		cmp	r3, #8
 6881 0056 1CD0     		beq	.L943
 6882 0058 06DC     		bgt	.L944
 6883 005a 002B     		cmp	r3, #0
 6884 005c D6D0     		beq	.L935
 6885 005e 022B     		cmp	r3, #2
 6886 0060 EDDD     		ble	.L945
 6887 0062 042B     		cmp	r3, #4
 6888 0064 EBD0     		beq	.L945
 6889 0066 D1E7     		b	.L935
 6890              	.L944:
 6891 0068 202B     		cmp	r3, #32
 6892 006a 1CD0     		beq	.L946
 6893 006c 0DDC     		bgt	.L947
 6894 006e 102B     		cmp	r3, #16
 6895              	.L1013:
 6896 0070 CCD1     		bne	.L935
2846:../../iot_link/cJSON/cJSON.c ****             {
 6897              		.loc 1 2846 0
 6898 0072 2869     		ldr	r0, [r5, #16]
 6899 0074 0028     		cmp	r0, #0
 6900 0076 C8D0     		beq	.L938
2846:../../iot_link/cJSON/cJSON.c ****             {
 6901              		.loc 1 2846 0 is_stmt 0 discriminator 1
 6902 0078 2169     		ldr	r1, [r4, #16]
 6903              	.LVL769:
 6904 007a 0029     		cmp	r1, #0
 6905 007c C5D0     		beq	.L938
2850:../../iot_link/cJSON/cJSON.c ****             {
 6906              		.loc 1 2850 0 is_stmt 1
ARM GAS  C:\Users\LuckyE\AppData\Local\Temp\ccgn9LZs.s 			page 186


 6907 007e FFF7FEFF 		bl	strcmp
 6908              	.LVL770:
 6909 0082 B0FA80F0 		clz	r0, r0
 6910              	.LVL771:
 6911              	.L1014:
 6912              	.LBB178:
2874:../../iot_link/cJSON/cJSON.c ****                 return false;
 6913              		.loc 1 2874 0
 6914 0086 4009     		lsrs	r0, r0, #5
 6915 0088 C0E7     		b	.L935
 6916              	.LVL772:
 6917              	.L947:
 6918              	.LBE178:
2829:../../iot_link/cJSON/cJSON.c ****     {
 6919              		.loc 1 2829 0
 6920 008a 402B     		cmp	r3, #64
 6921 008c 1DD0     		beq	.L949
 6922 008e 802B     		cmp	r3, #128
 6923 0090 EEE7     		b	.L1013
 6924              	.L943:
2838:../../iot_link/cJSON/cJSON.c ****             {
 6925              		.loc 1 2838 0
 6926 0092 D4E90623 		ldrd	r2, [r4, #24]
 6927 0096 D5E90601 		ldrd	r0, [r5, #24]
 6928 009a FFF7FEFF 		bl	__aeabi_dcmpeq
 6929              	.LVL773:
 6930 009e 0030     		adds	r0, r0, #0
 6931 00a0 18BF     		it	ne
 6932 00a2 0120     		movne	r0, #1
 6933 00a4 B2E7     		b	.L935
 6934              	.LVL774:
 6935              	.L946:
 6936              	.LBB179:
2859:../../iot_link/cJSON/cJSON.c ****             cJSON *b_element = b->child;
 6937              		.loc 1 2859 0
 6938 00a6 AD68     		ldr	r5, [r5, #8]
 6939              	.LVL775:
2860:../../iot_link/cJSON/cJSON.c **** 
 6940              		.loc 1 2860 0
 6941 00a8 A468     		ldr	r4, [r4, #8]
 6942              	.LVL776:
 6943              	.L951:
2862:../../iot_link/cJSON/cJSON.c ****             {
 6944              		.loc 1 2862 0
 6945 00aa 5DB1     		cbz	r5, .L952
2862:../../iot_link/cJSON/cJSON.c ****             {
 6946              		.loc 1 2862 0 is_stmt 0 discriminator 1
 6947 00ac 002C     		cmp	r4, #0
 6948 00ae ACD0     		beq	.L938
2864:../../iot_link/cJSON/cJSON.c ****                 {
 6949              		.loc 1 2864 0 is_stmt 1
 6950 00b0 3246     		mov	r2, r6
 6951 00b2 2146     		mov	r1, r4
 6952 00b4 2846     		mov	r0, r5
 6953 00b6 FFF7FEFF 		bl	cJSON_Compare
 6954              	.LVL777:
 6955 00ba 0028     		cmp	r0, #0
ARM GAS  C:\Users\LuckyE\AppData\Local\Temp\ccgn9LZs.s 			page 187


 6956 00bc A5D0     		beq	.L938
2869:../../iot_link/cJSON/cJSON.c ****                 b_element = b_element->next;
 6957              		.loc 1 2869 0
 6958 00be 2D68     		ldr	r5, [r5]
 6959              	.LVL778:
2870:../../iot_link/cJSON/cJSON.c ****             }
 6960              		.loc 1 2870 0
 6961 00c0 2468     		ldr	r4, [r4]
 6962              	.LVL779:
 6963 00c2 F2E7     		b	.L951
 6964              	.L952:
2874:../../iot_link/cJSON/cJSON.c ****                 return false;
 6965              		.loc 1 2874 0
 6966 00c4 B4FA84F0 		clz	r0, r4
 6967 00c8 DDE7     		b	.L1014
 6968              	.LVL780:
 6969              	.L949:
 6970              	.LBE179:
 6971              	.LBB180:
2885:../../iot_link/cJSON/cJSON.c ****             {
 6972              		.loc 1 2885 0 discriminator 1
 6973 00ca AF68     		ldr	r7, [r5, #8]
 6974              	.LVL781:
 6975              	.L954:
2885:../../iot_link/cJSON/cJSON.c ****             {
 6976              		.loc 1 2885 0 is_stmt 0 discriminator 5
 6977 00cc 97B9     		cbnz	r7, .L955
2902:../../iot_link/cJSON/cJSON.c ****             {
 6978              		.loc 1 2902 0 is_stmt 1 discriminator 1
 6979 00ce A468     		ldr	r4, [r4, #8]
 6980              	.LVL782:
 6981              	.L956:
2902:../../iot_link/cJSON/cJSON.c ****             {
 6982              		.loc 1 2902 0 is_stmt 0 discriminator 5
 6983 00d0 002C     		cmp	r4, #0
 6984 00d2 B4D0     		beq	.L945
2904:../../iot_link/cJSON/cJSON.c ****                 if (a_element == NULL)
 6985              		.loc 1 2904 0 is_stmt 1
 6986 00d4 216A     		ldr	r1, [r4, #32]
 6987 00d6 3246     		mov	r2, r6
 6988 00d8 2846     		mov	r0, r5
 6989 00da FFF7FEFF 		bl	get_object_item
 6990              	.LVL783:
2905:../../iot_link/cJSON/cJSON.c ****                 {
 6991              		.loc 1 2905 0
 6992 00de 0146     		mov	r1, r0
 6993 00e0 0028     		cmp	r0, #0
 6994 00e2 92D0     		beq	.L938
2910:../../iot_link/cJSON/cJSON.c ****                 {
 6995              		.loc 1 2910 0
 6996 00e4 3246     		mov	r2, r6
 6997 00e6 2046     		mov	r0, r4
 6998              	.LVL784:
 6999 00e8 FFF7FEFF 		bl	cJSON_Compare
 7000              	.LVL785:
 7001 00ec 0028     		cmp	r0, #0
 7002 00ee 8CD0     		beq	.L938
ARM GAS  C:\Users\LuckyE\AppData\Local\Temp\ccgn9LZs.s 			page 188


2902:../../iot_link/cJSON/cJSON.c ****             {
 7003              		.loc 1 2902 0 discriminator 6
 7004 00f0 2468     		ldr	r4, [r4]
 7005              	.LVL786:
 7006 00f2 EDE7     		b	.L956
 7007              	.LVL787:
 7008              	.L955:
2888:../../iot_link/cJSON/cJSON.c ****                 if (b_element == NULL)
 7009              		.loc 1 2888 0
 7010 00f4 396A     		ldr	r1, [r7, #32]
 7011 00f6 3246     		mov	r2, r6
 7012 00f8 2046     		mov	r0, r4
 7013 00fa FFF7FEFF 		bl	get_object_item
 7014              	.LVL788:
2889:../../iot_link/cJSON/cJSON.c ****                 {
 7015              		.loc 1 2889 0
 7016 00fe 0146     		mov	r1, r0
 7017 0100 0028     		cmp	r0, #0
 7018 0102 82D0     		beq	.L938
2894:../../iot_link/cJSON/cJSON.c ****                 {
 7019              		.loc 1 2894 0
 7020 0104 3246     		mov	r2, r6
 7021 0106 3846     		mov	r0, r7
 7022              	.LVL789:
 7023 0108 FFF7FEFF 		bl	cJSON_Compare
 7024              	.LVL790:
 7025 010c 0028     		cmp	r0, #0
 7026 010e 3FF47CAF 		beq	.L938
2885:../../iot_link/cJSON/cJSON.c ****             {
 7027              		.loc 1 2885 0 discriminator 6
 7028 0112 3F68     		ldr	r7, [r7]
 7029              	.LVL791:
 7030 0114 DAE7     		b	.L954
 7031              	.LBE180:
 7032              		.cfi_endproc
 7033              	.LFE104:
 7035              		.section	.text.cJSON_malloc,"ax",%progbits
 7036              		.align	1
 7037              		.global	cJSON_malloc
 7038              		.syntax unified
 7039              		.thumb
 7040              		.thumb_func
 7041              		.fpu fpv4-sp-d16
 7043              	cJSON_malloc:
 7044              	.LFB105:
2923:../../iot_link/cJSON/cJSON.c **** 
2924:../../iot_link/cJSON/cJSON.c **** CJSON_PUBLIC(void *) cJSON_malloc(size_t size)
2925:../../iot_link/cJSON/cJSON.c **** {
 7045              		.loc 1 2925 0
 7046              		.cfi_startproc
 7047              		@ args = 0, pretend = 0, frame = 0
 7048              		@ frame_needed = 0, uses_anonymous_args = 0
 7049              		@ link register save eliminated.
 7050              	.LVL792:
2926:../../iot_link/cJSON/cJSON.c ****     return global_hooks.allocate(size);
 7051              		.loc 1 2926 0
 7052 0000 014B     		ldr	r3, .L1016
ARM GAS  C:\Users\LuckyE\AppData\Local\Temp\ccgn9LZs.s 			page 189


 7053 0002 1B68     		ldr	r3, [r3]
 7054 0004 1847     		bx	r3
 7055              	.LVL793:
 7056              	.L1017:
 7057 0006 00BF     		.align	2
 7058              	.L1016:
 7059 0008 00000000 		.word	.LANCHOR0
 7060              		.cfi_endproc
 7061              	.LFE105:
 7063              		.section	.text.cJSON_free,"ax",%progbits
 7064              		.align	1
 7065              		.global	cJSON_free
 7066              		.syntax unified
 7067              		.thumb
 7068              		.thumb_func
 7069              		.fpu fpv4-sp-d16
 7071              	cJSON_free:
 7072              	.LFB106:
2927:../../iot_link/cJSON/cJSON.c **** }
2928:../../iot_link/cJSON/cJSON.c **** 
2929:../../iot_link/cJSON/cJSON.c **** CJSON_PUBLIC(void) cJSON_free(void *object)
2930:../../iot_link/cJSON/cJSON.c **** {
 7073              		.loc 1 2930 0
 7074              		.cfi_startproc
 7075              		@ args = 0, pretend = 0, frame = 0
 7076              		@ frame_needed = 0, uses_anonymous_args = 0
 7077              		@ link register save eliminated.
 7078              	.LVL794:
2931:../../iot_link/cJSON/cJSON.c ****     global_hooks.deallocate(object);
 7079              		.loc 1 2931 0
 7080 0000 014B     		ldr	r3, .L1019
 7081 0002 5B68     		ldr	r3, [r3, #4]
 7082 0004 1847     		bx	r3	@ indirect register sibling call
 7083              	.LVL795:
 7084              	.L1020:
 7085 0006 00BF     		.align	2
 7086              	.L1019:
 7087 0008 00000000 		.word	.LANCHOR0
 7088              		.cfi_endproc
 7089              	.LFE106:
 7091              		.section	.text.replace_item_in_object.part.10,"ax",%progbits
 7092              		.align	1
 7093              		.syntax unified
 7094              		.thumb
 7095              		.thumb_func
 7096              		.fpu fpv4-sp-d16
 7098              	replace_item_in_object.part.10:
 7099              	.LFB117:
2215:../../iot_link/cJSON/cJSON.c **** {
 7100              		.loc 1 2215 0
 7101              		.cfi_startproc
 7102              		@ args = 0, pretend = 0, frame = 0
 7103              		@ frame_needed = 0, uses_anonymous_args = 0
 7104              	.LVL796:
 7105 0000 F8B5     		push	{r3, r4, r5, r6, r7, lr}
 7106              	.LCFI97:
 7107              		.cfi_def_cfa_offset 24
ARM GAS  C:\Users\LuckyE\AppData\Local\Temp\ccgn9LZs.s 			page 190


 7108              		.cfi_offset 3, -24
 7109              		.cfi_offset 4, -20
 7110              		.cfi_offset 5, -16
 7111              		.cfi_offset 6, -12
 7112              		.cfi_offset 7, -8
 7113              		.cfi_offset 14, -4
2215:../../iot_link/cJSON/cJSON.c **** {
 7114              		.loc 1 2215 0
 7115 0002 1F46     		mov	r7, r3
2223:../../iot_link/cJSON/cJSON.c ****     {
 7116              		.loc 1 2223 0
 7117 0004 D368     		ldr	r3, [r2, #12]
 7118              	.LVL797:
 7119 0006 9B05     		lsls	r3, r3, #22
2215:../../iot_link/cJSON/cJSON.c **** {
 7120              		.loc 1 2215 0
 7121 0008 0546     		mov	r5, r0
 7122 000a 0E46     		mov	r6, r1
 7123 000c 1446     		mov	r4, r2
2223:../../iot_link/cJSON/cJSON.c ****     {
 7124              		.loc 1 2223 0
 7125 000e 03D4     		bmi	.L1022
 7126 0010 106A     		ldr	r0, [r2, #32]
 7127              	.LVL798:
 7128 0012 08B1     		cbz	r0, .L1022
2225:../../iot_link/cJSON/cJSON.c ****     }
 7129              		.loc 1 2225 0
 7130 0014 FFF7FEFF 		bl	cJSON_free
 7131              	.LVL799:
 7132              	.L1022:
2227:../../iot_link/cJSON/cJSON.c ****     replacement->type &= ~cJSON_StringIsConst;
 7133              		.loc 1 2227 0
 7134 0018 3046     		mov	r0, r6
 7135 001a FFF7FEFF 		bl	cJSON_strdup.isra.2.constprop.15
 7136              	.LVL800:
2228:../../iot_link/cJSON/cJSON.c **** 
 7137              		.loc 1 2228 0
 7138 001e E368     		ldr	r3, [r4, #12]
2227:../../iot_link/cJSON/cJSON.c ****     replacement->type &= ~cJSON_StringIsConst;
 7139              		.loc 1 2227 0
 7140 0020 2062     		str	r0, [r4, #32]
2228:../../iot_link/cJSON/cJSON.c **** 
 7141              		.loc 1 2228 0
 7142 0022 23F40073 		bic	r3, r3, #512
 7143 0026 E360     		str	r3, [r4, #12]
2230:../../iot_link/cJSON/cJSON.c **** 
 7144              		.loc 1 2230 0
 7145 0028 3A46     		mov	r2, r7
 7146 002a 3146     		mov	r1, r6
 7147 002c 2846     		mov	r0, r5
 7148 002e FFF7FEFF 		bl	get_object_item
 7149              	.LVL801:
 7150 0032 2246     		mov	r2, r4
 7151 0034 0146     		mov	r1, r0
 7152 0036 2846     		mov	r0, r5
 7153 0038 FFF7FEFF 		bl	cJSON_ReplaceItemViaPointer
 7154              	.LVL802:
ARM GAS  C:\Users\LuckyE\AppData\Local\Temp\ccgn9LZs.s 			page 191


2233:../../iot_link/cJSON/cJSON.c **** 
 7155              		.loc 1 2233 0
 7156 003c 0120     		movs	r0, #1
 7157 003e F8BD     		pop	{r3, r4, r5, r6, r7, pc}
 7158              		.cfi_endproc
 7159              	.LFE117:
 7161              		.section	.text.cJSON_ReplaceItemInObject,"ax",%progbits
 7162              		.align	1
 7163              		.global	cJSON_ReplaceItemInObject
 7164              		.syntax unified
 7165              		.thumb
 7166              		.thumb_func
 7167              		.fpu fpv4-sp-d16
 7169              	cJSON_ReplaceItemInObject:
 7170              	.LFB74:
2236:../../iot_link/cJSON/cJSON.c ****     replace_item_in_object(object, string, newitem, false);
 7171              		.loc 1 2236 0
 7172              		.cfi_startproc
 7173              		@ args = 0, pretend = 0, frame = 0
 7174              		@ frame_needed = 0, uses_anonymous_args = 0
 7175              		@ link register save eliminated.
 7176              	.LVL803:
 7177              	.LBB183:
 7178              	.LBB184:
2217:../../iot_link/cJSON/cJSON.c ****     {
 7179              		.loc 1 2217 0
 7180 0000 1AB1     		cbz	r2, .L1026
 7181 0002 11B1     		cbz	r1, .L1026
 7182 0004 0023     		movs	r3, #0
 7183 0006 FFF7FEBF 		b	replace_item_in_object.part.10
 7184              	.LVL804:
 7185              	.L1026:
 7186              	.LBE184:
 7187              	.LBE183:
2238:../../iot_link/cJSON/cJSON.c **** 
 7188              		.loc 1 2238 0
 7189 000a 7047     		bx	lr
 7190              		.cfi_endproc
 7191              	.LFE74:
 7193              		.section	.text.cJSON_ReplaceItemInObjectCaseSensitive,"ax",%progbits
 7194              		.align	1
 7195              		.global	cJSON_ReplaceItemInObjectCaseSensitive
 7196              		.syntax unified
 7197              		.thumb
 7198              		.thumb_func
 7199              		.fpu fpv4-sp-d16
 7201              	cJSON_ReplaceItemInObjectCaseSensitive:
 7202              	.LFB75:
2241:../../iot_link/cJSON/cJSON.c ****     replace_item_in_object(object, string, newitem, true);
 7203              		.loc 1 2241 0
 7204              		.cfi_startproc
 7205              		@ args = 0, pretend = 0, frame = 0
 7206              		@ frame_needed = 0, uses_anonymous_args = 0
 7207              		@ link register save eliminated.
 7208              	.LVL805:
 7209              	.LBB187:
 7210              	.LBB188:
ARM GAS  C:\Users\LuckyE\AppData\Local\Temp\ccgn9LZs.s 			page 192


2217:../../iot_link/cJSON/cJSON.c ****     {
 7211              		.loc 1 2217 0
 7212 0000 1AB1     		cbz	r2, .L1034
 7213 0002 11B1     		cbz	r1, .L1034
 7214 0004 0123     		movs	r3, #1
 7215 0006 FFF7FEBF 		b	replace_item_in_object.part.10
 7216              	.LVL806:
 7217              	.L1034:
 7218              	.LBE188:
 7219              	.LBE187:
2243:../../iot_link/cJSON/cJSON.c **** 
 7220              		.loc 1 2243 0
 7221 000a 7047     		bx	lr
 7222              		.cfi_endproc
 7223              	.LFE75:
 7225              		.section	.bss.global_error,"aw",%nobits
 7226              		.align	2
 7227              		.set	.LANCHOR1,. + 0
 7230              	global_error:
 7231 0000 00000000 		.space	8
 7231      00000000 
 7232              		.section	.bss.version.7869,"aw",%nobits
 7233              		.set	.LANCHOR2,. + 0
 7236              	version.7869:
 7237 0000 00000000 		.space	15
 7237      00000000 
 7237      00000000 
 7237      000000
 7238              		.section	.data.global_hooks,"aw",%progbits
 7239              		.align	2
 7240              		.set	.LANCHOR0,. + 0
 7243              	global_hooks:
 7244 0000 00000000 		.word	malloc
 7245 0004 00000000 		.word	free
 7246 0008 00000000 		.word	realloc
 7247              		.section	.rodata.cJSON_ParseWithOpts.str1.1,"aMS",%progbits,1
 7248              	.LC9:
 7249 0000 EFBBBF00 		.ascii	"\357\273\277\000"
 7250              		.section	.rodata.cJSON_Version.str1.1,"aMS",%progbits,1
 7251              	.LC8:
 7252 0000 25692E25 		.ascii	"%i.%i.%i\000"
 7252      692E2569 
 7252      00
 7253              		.section	.rodata.print_string_ptr.str1.1,"aMS",%progbits,1
 7254              	.LC0:
 7255 0000 75253034 		.ascii	"u%04x\000"
 7255      7800
 7256              	.LC1:
 7257 0006 222200   		.ascii	"\"\"\000"
 7258              		.section	.rodata.print_value.str1.1,"aMS",%progbits,1
 7259              	.LC2:
 7260 0000 6E756C6C 		.ascii	"null\000"
 7260      00
 7261              	.LC3:
 7262 0005 66616C73 		.ascii	"false\000"
 7262      6500
 7263              	.LC4:
ARM GAS  C:\Users\LuckyE\AppData\Local\Temp\ccgn9LZs.s 			page 193


 7264 000b 74727565 		.ascii	"true\000"
 7264      00
 7265              	.LC5:
 7266 0010 25312E31 		.ascii	"%1.15g\000"
 7266      356700
 7267              	.LC6:
 7268 0017 256C6700 		.ascii	"%lg\000"
 7269              	.LC7:
 7270 001b 25312E31 		.ascii	"%1.17g\000"
 7270      376700
 7271              		.text
 7272              	.Letext0:
 7273              		.file 2 "c:\\bearpi\\developtools\\gnu tools arm embedded\\7 2018-q2-update\\lib\\gcc\\arm-none-ea
 7274              		.file 3 "c:\\bearpi\\developtools\\gnu tools arm embedded\\7 2018-q2-update\\arm-none-eabi\\includ
 7275              		.file 4 "c:\\bearpi\\developtools\\gnu tools arm embedded\\7 2018-q2-update\\arm-none-eabi\\includ
 7276              		.file 5 "c:\\bearpi\\developtools\\gnu tools arm embedded\\7 2018-q2-update\\arm-none-eabi\\includ
 7277              		.file 6 "c:\\bearpi\\developtools\\gnu tools arm embedded\\7 2018-q2-update\\arm-none-eabi\\includ
 7278              		.file 7 "c:\\bearpi\\developtools\\gnu tools arm embedded\\7 2018-q2-update\\arm-none-eabi\\includ
 7279              		.file 8 "c:\\bearpi\\developtools\\gnu tools arm embedded\\7 2018-q2-update\\arm-none-eabi\\includ
 7280              		.file 9 "../../iot_link/cJSON/cJSON.h"
 7281              		.file 10 "c:\\bearpi\\developtools\\gnu tools arm embedded\\7 2018-q2-update\\arm-none-eabi\\inclu
 7282              		.file 11 "<built-in>"
 7283              		.file 12 "c:\\bearpi\\developtools\\gnu tools arm embedded\\7 2018-q2-update\\arm-none-eabi\\inclu
ARM GAS  C:\Users\LuckyE\AppData\Local\Temp\ccgn9LZs.s 			page 194


DEFINED SYMBOLS
                            *ABS*:00000000 cJSON.c
C:\Users\LuckyE\AppData\Local\Temp\ccgn9LZs.s:18     .text.parse_hex4:00000000 $t
C:\Users\LuckyE\AppData\Local\Temp\ccgn9LZs.s:24     .text.parse_hex4:00000000 parse_hex4
C:\Users\LuckyE\AppData\Local\Temp\ccgn9LZs.s:100    .text.parse_string:00000000 $t
C:\Users\LuckyE\AppData\Local\Temp\ccgn9LZs.s:106    .text.parse_string:00000000 parse_string
C:\Users\LuckyE\AppData\Local\Temp\ccgn9LZs.s:492    .text.parse_string:000001c0 $d
C:\Users\LuckyE\AppData\Local\Temp\ccgn9LZs.s:498    .text.buffer_skip_whitespace:00000000 $t
C:\Users\LuckyE\AppData\Local\Temp\ccgn9LZs.s:504    .text.buffer_skip_whitespace:00000000 buffer_skip_whitespace
C:\Users\LuckyE\AppData\Local\Temp\ccgn9LZs.s:557    .text.get_array_item:00000000 $t
C:\Users\LuckyE\AppData\Local\Temp\ccgn9LZs.s:563    .text.get_array_item:00000000 get_array_item
C:\Users\LuckyE\AppData\Local\Temp\ccgn9LZs.s:598    .text.update_offset:00000000 $t
C:\Users\LuckyE\AppData\Local\Temp\ccgn9LZs.s:604    .text.update_offset:00000000 update_offset
C:\Users\LuckyE\AppData\Local\Temp\ccgn9LZs.s:642    .text.ensure:00000000 $t
C:\Users\LuckyE\AppData\Local\Temp\ccgn9LZs.s:648    .text.ensure:00000000 ensure
C:\Users\LuckyE\AppData\Local\Temp\ccgn9LZs.s:782    .text.get_object_item:00000000 $t
C:\Users\LuckyE\AppData\Local\Temp\ccgn9LZs.s:788    .text.get_object_item:00000000 get_object_item
C:\Users\LuckyE\AppData\Local\Temp\ccgn9LZs.s:954    .text.add_item_to_array:00000000 $t
C:\Users\LuckyE\AppData\Local\Temp\ccgn9LZs.s:960    .text.add_item_to_array:00000000 add_item_to_array
C:\Users\LuckyE\AppData\Local\Temp\ccgn9LZs.s:1024   .text.cJSON_New_Item.isra.1:00000000 $t
C:\Users\LuckyE\AppData\Local\Temp\ccgn9LZs.s:1030   .text.cJSON_New_Item.isra.1:00000000 cJSON_New_Item.isra.1
C:\Users\LuckyE\AppData\Local\Temp\ccgn9LZs.s:1063   .text.print_string_ptr:00000000 $t
C:\Users\LuckyE\AppData\Local\Temp\ccgn9LZs.s:1069   .text.print_string_ptr:00000000 print_string_ptr
C:\Users\LuckyE\AppData\Local\Temp\ccgn9LZs.s:1314   .text.print_string_ptr:0000011c $d
C:\Users\LuckyE\AppData\Local\Temp\ccgn9LZs.s:1322   .text.print_value:00000000 $t
C:\Users\LuckyE\AppData\Local\Temp\ccgn9LZs.s:1328   .text.print_value:00000000 print_value
C:\Users\LuckyE\AppData\Local\Temp\ccgn9LZs.s:2001   .text.print_value:000002f4 $d
C:\Users\LuckyE\AppData\Local\Temp\ccgn9LZs.s:2016   .text.create_reference.constprop.13:00000000 $t
C:\Users\LuckyE\AppData\Local\Temp\ccgn9LZs.s:2022   .text.create_reference.constprop.13:00000000 create_reference.constprop.13
C:\Users\LuckyE\AppData\Local\Temp\ccgn9LZs.s:2073   .text.create_reference.constprop.13:00000038 $d
C:\Users\LuckyE\AppData\Local\Temp\ccgn9LZs.s:2078   .text.print.constprop.14:00000000 $t
C:\Users\LuckyE\AppData\Local\Temp\ccgn9LZs.s:2084   .text.print.constprop.14:00000000 print.constprop.14
C:\Users\LuckyE\AppData\Local\Temp\ccgn9LZs.s:2219   .text.print.constprop.14:00000094 $d
C:\Users\LuckyE\AppData\Local\Temp\ccgn9LZs.s:2224   .text.cJSON_strdup.isra.2.constprop.15:00000000 $t
C:\Users\LuckyE\AppData\Local\Temp\ccgn9LZs.s:2230   .text.cJSON_strdup.isra.2.constprop.15:00000000 cJSON_strdup.isra.2.constprop.15
C:\Users\LuckyE\AppData\Local\Temp\ccgn9LZs.s:2280   .text.cJSON_strdup.isra.2.constprop.15:00000028 $d
C:\Users\LuckyE\AppData\Local\Temp\ccgn9LZs.s:2285   .text.add_item_to_object.constprop.11:00000000 $t
C:\Users\LuckyE\AppData\Local\Temp\ccgn9LZs.s:2291   .text.add_item_to_object.constprop.11:00000000 add_item_to_object.constprop.11
C:\Users\LuckyE\AppData\Local\Temp\ccgn9LZs.s:2391   .text.add_item_to_object.constprop.11:0000004c $d
C:\Users\LuckyE\AppData\Local\Temp\ccgn9LZs.s:2396   .text.cJSON_GetErrorPtr:00000000 $t
C:\Users\LuckyE\AppData\Local\Temp\ccgn9LZs.s:2403   .text.cJSON_GetErrorPtr:00000000 cJSON_GetErrorPtr
C:\Users\LuckyE\AppData\Local\Temp\ccgn9LZs.s:2419   .text.cJSON_GetErrorPtr:0000000c $d
C:\Users\LuckyE\AppData\Local\Temp\ccgn9LZs.s:2424   .text.cJSON_Version:00000000 $t
C:\Users\LuckyE\AppData\Local\Temp\ccgn9LZs.s:2431   .text.cJSON_Version:00000000 cJSON_Version
C:\Users\LuckyE\AppData\Local\Temp\ccgn9LZs.s:2462   .text.cJSON_Version:0000001c $d
C:\Users\LuckyE\AppData\Local\Temp\ccgn9LZs.s:2468   .text.cJSON_InitHooks:00000000 $t
C:\Users\LuckyE\AppData\Local\Temp\ccgn9LZs.s:2475   .text.cJSON_InitHooks:00000000 cJSON_InitHooks
C:\Users\LuckyE\AppData\Local\Temp\ccgn9LZs.s:2537   .text.cJSON_InitHooks:00000034 $d
C:\Users\LuckyE\AppData\Local\Temp\ccgn9LZs.s:2545   .text.cJSON_Delete:00000000 $t
C:\Users\LuckyE\AppData\Local\Temp\ccgn9LZs.s:2552   .text.cJSON_Delete:00000000 cJSON_Delete
C:\Users\LuckyE\AppData\Local\Temp\ccgn9LZs.s:2627   .text.cJSON_Delete:00000040 $d
C:\Users\LuckyE\AppData\Local\Temp\ccgn9LZs.s:2635   .text.parse_value:00000000 $t
C:\Users\LuckyE\AppData\Local\Temp\ccgn9LZs.s:2641   .text.parse_value:00000000 parse_value
C:\Users\LuckyE\AppData\Local\Temp\ccgn9LZs.s:3214   .text.parse_value:000002d0 $d
C:\Users\LuckyE\AppData\Local\Temp\ccgn9LZs.s:3226   .text.cJSON_SetNumberHelper:00000000 $t
C:\Users\LuckyE\AppData\Local\Temp\ccgn9LZs.s:3233   .text.cJSON_SetNumberHelper:00000000 cJSON_SetNumberHelper
C:\Users\LuckyE\AppData\Local\Temp\ccgn9LZs.s:3294   .text.cJSON_SetNumberHelper:00000050 $d
ARM GAS  C:\Users\LuckyE\AppData\Local\Temp\ccgn9LZs.s 			page 195


C:\Users\LuckyE\AppData\Local\Temp\ccgn9LZs.s:3301   .text.cJSON_ParseWithOpts:00000000 $t
C:\Users\LuckyE\AppData\Local\Temp\ccgn9LZs.s:3308   .text.cJSON_ParseWithOpts:00000000 cJSON_ParseWithOpts
C:\Users\LuckyE\AppData\Local\Temp\ccgn9LZs.s:3499   .text.cJSON_ParseWithOpts:000000d4 $d
C:\Users\LuckyE\AppData\Local\Temp\ccgn9LZs.s:3507   .text.cJSON_Parse:00000000 $t
C:\Users\LuckyE\AppData\Local\Temp\ccgn9LZs.s:3514   .text.cJSON_Parse:00000000 cJSON_Parse
C:\Users\LuckyE\AppData\Local\Temp\ccgn9LZs.s:3531   .text.cJSON_Print:00000000 $t
C:\Users\LuckyE\AppData\Local\Temp\ccgn9LZs.s:3538   .text.cJSON_Print:00000000 cJSON_Print
C:\Users\LuckyE\AppData\Local\Temp\ccgn9LZs.s:3554   .text.cJSON_PrintUnformatted:00000000 $t
C:\Users\LuckyE\AppData\Local\Temp\ccgn9LZs.s:3561   .text.cJSON_PrintUnformatted:00000000 cJSON_PrintUnformatted
C:\Users\LuckyE\AppData\Local\Temp\ccgn9LZs.s:3577   .text.cJSON_PrintBuffered:00000000 $t
C:\Users\LuckyE\AppData\Local\Temp\ccgn9LZs.s:3584   .text.cJSON_PrintBuffered:00000000 cJSON_PrintBuffered
C:\Users\LuckyE\AppData\Local\Temp\ccgn9LZs.s:3675   .text.cJSON_PrintBuffered:00000058 $d
C:\Users\LuckyE\AppData\Local\Temp\ccgn9LZs.s:3680   .text.cJSON_PrintPreallocated:00000000 $t
C:\Users\LuckyE\AppData\Local\Temp\ccgn9LZs.s:3687   .text.cJSON_PrintPreallocated:00000000 cJSON_PrintPreallocated
C:\Users\LuckyE\AppData\Local\Temp\ccgn9LZs.s:3764   .text.cJSON_PrintPreallocated:00000048 $d
C:\Users\LuckyE\AppData\Local\Temp\ccgn9LZs.s:3769   .text.cJSON_GetArraySize:00000000 $t
C:\Users\LuckyE\AppData\Local\Temp\ccgn9LZs.s:3776   .text.cJSON_GetArraySize:00000000 cJSON_GetArraySize
C:\Users\LuckyE\AppData\Local\Temp\ccgn9LZs.s:3812   .text.cJSON_GetArrayItem:00000000 $t
C:\Users\LuckyE\AppData\Local\Temp\ccgn9LZs.s:3819   .text.cJSON_GetArrayItem:00000000 cJSON_GetArrayItem
C:\Users\LuckyE\AppData\Local\Temp\ccgn9LZs.s:3842   .text.cJSON_GetObjectItem:00000000 $t
C:\Users\LuckyE\AppData\Local\Temp\ccgn9LZs.s:3849   .text.cJSON_GetObjectItem:00000000 cJSON_GetObjectItem
C:\Users\LuckyE\AppData\Local\Temp\ccgn9LZs.s:3865   .text.cJSON_GetObjectItemCaseSensitive:00000000 $t
C:\Users\LuckyE\AppData\Local\Temp\ccgn9LZs.s:3872   .text.cJSON_GetObjectItemCaseSensitive:00000000 cJSON_GetObjectItemCaseSensitive
C:\Users\LuckyE\AppData\Local\Temp\ccgn9LZs.s:3888   .text.cJSON_HasObjectItem:00000000 $t
C:\Users\LuckyE\AppData\Local\Temp\ccgn9LZs.s:3895   .text.cJSON_HasObjectItem:00000000 cJSON_HasObjectItem
C:\Users\LuckyE\AppData\Local\Temp\ccgn9LZs.s:3919   .text.cJSON_AddItemToArray:00000000 $t
C:\Users\LuckyE\AppData\Local\Temp\ccgn9LZs.s:3926   .text.cJSON_AddItemToArray:00000000 cJSON_AddItemToArray
C:\Users\LuckyE\AppData\Local\Temp\ccgn9LZs.s:3941   .text.cJSON_AddItemToObject:00000000 $t
C:\Users\LuckyE\AppData\Local\Temp\ccgn9LZs.s:3948   .text.cJSON_AddItemToObject:00000000 cJSON_AddItemToObject
C:\Users\LuckyE\AppData\Local\Temp\ccgn9LZs.s:3964   .text.cJSON_AddItemToObjectCS:00000000 $t
C:\Users\LuckyE\AppData\Local\Temp\ccgn9LZs.s:3971   .text.cJSON_AddItemToObjectCS:00000000 cJSON_AddItemToObjectCS
C:\Users\LuckyE\AppData\Local\Temp\ccgn9LZs.s:3987   .text.cJSON_AddItemReferenceToArray:00000000 $t
C:\Users\LuckyE\AppData\Local\Temp\ccgn9LZs.s:3994   .text.cJSON_AddItemReferenceToArray:00000000 cJSON_AddItemReferenceToArray
C:\Users\LuckyE\AppData\Local\Temp\ccgn9LZs.s:4036   .text.cJSON_AddItemReferenceToObject:00000000 $t
C:\Users\LuckyE\AppData\Local\Temp\ccgn9LZs.s:4043   .text.cJSON_AddItemReferenceToObject:00000000 cJSON_AddItemReferenceToObject
C:\Users\LuckyE\AppData\Local\Temp\ccgn9LZs.s:4095   .text.cJSON_DetachItemViaPointer:00000000 $t
C:\Users\LuckyE\AppData\Local\Temp\ccgn9LZs.s:4102   .text.cJSON_DetachItemViaPointer:00000000 cJSON_DetachItemViaPointer
C:\Users\LuckyE\AppData\Local\Temp\ccgn9LZs.s:4148   .text.cJSON_DetachItemFromArray:00000000 $t
C:\Users\LuckyE\AppData\Local\Temp\ccgn9LZs.s:4155   .text.cJSON_DetachItemFromArray:00000000 cJSON_DetachItemFromArray
C:\Users\LuckyE\AppData\Local\Temp\ccgn9LZs.s:4201   .text.cJSON_DeleteItemFromArray:00000000 $t
C:\Users\LuckyE\AppData\Local\Temp\ccgn9LZs.s:4208   .text.cJSON_DeleteItemFromArray:00000000 cJSON_DeleteItemFromArray
C:\Users\LuckyE\AppData\Local\Temp\ccgn9LZs.s:4236   .text.cJSON_DetachItemFromObject:00000000 $t
C:\Users\LuckyE\AppData\Local\Temp\ccgn9LZs.s:4243   .text.cJSON_DetachItemFromObject:00000000 cJSON_DetachItemFromObject
C:\Users\LuckyE\AppData\Local\Temp\ccgn9LZs.s:4278   .text.cJSON_DetachItemFromObjectCaseSensitive:00000000 $t
C:\Users\LuckyE\AppData\Local\Temp\ccgn9LZs.s:4285   .text.cJSON_DetachItemFromObjectCaseSensitive:00000000 cJSON_DetachItemFromObjectCaseSensitive
C:\Users\LuckyE\AppData\Local\Temp\ccgn9LZs.s:4320   .text.cJSON_DeleteItemFromObject:00000000 $t
C:\Users\LuckyE\AppData\Local\Temp\ccgn9LZs.s:4327   .text.cJSON_DeleteItemFromObject:00000000 cJSON_DeleteItemFromObject
C:\Users\LuckyE\AppData\Local\Temp\ccgn9LZs.s:4355   .text.cJSON_DeleteItemFromObjectCaseSensitive:00000000 $t
C:\Users\LuckyE\AppData\Local\Temp\ccgn9LZs.s:4362   .text.cJSON_DeleteItemFromObjectCaseSensitive:00000000 cJSON_DeleteItemFromObjectCaseSensitive
C:\Users\LuckyE\AppData\Local\Temp\ccgn9LZs.s:4390   .text.cJSON_InsertItemInArray:00000000 $t
C:\Users\LuckyE\AppData\Local\Temp\ccgn9LZs.s:4397   .text.cJSON_InsertItemInArray:00000000 cJSON_InsertItemInArray
C:\Users\LuckyE\AppData\Local\Temp\ccgn9LZs.s:4466   .text.cJSON_ReplaceItemViaPointer:00000000 $t
C:\Users\LuckyE\AppData\Local\Temp\ccgn9LZs.s:4473   .text.cJSON_ReplaceItemViaPointer:00000000 cJSON_ReplaceItemViaPointer
C:\Users\LuckyE\AppData\Local\Temp\ccgn9LZs.s:4555   .text.cJSON_ReplaceItemInArray:00000000 $t
C:\Users\LuckyE\AppData\Local\Temp\ccgn9LZs.s:4562   .text.cJSON_ReplaceItemInArray:00000000 cJSON_ReplaceItemInArray
C:\Users\LuckyE\AppData\Local\Temp\ccgn9LZs.s:4606   .text.cJSON_CreateNull:00000000 $t
C:\Users\LuckyE\AppData\Local\Temp\ccgn9LZs.s:4613   .text.cJSON_CreateNull:00000000 cJSON_CreateNull
ARM GAS  C:\Users\LuckyE\AppData\Local\Temp\ccgn9LZs.s 			page 196


C:\Users\LuckyE\AppData\Local\Temp\ccgn9LZs.s:4640   .text.cJSON_CreateNull:00000014 $d
C:\Users\LuckyE\AppData\Local\Temp\ccgn9LZs.s:4645   .text.cJSON_AddNullToObject:00000000 $t
C:\Users\LuckyE\AppData\Local\Temp\ccgn9LZs.s:4652   .text.cJSON_AddNullToObject:00000000 cJSON_AddNullToObject
C:\Users\LuckyE\AppData\Local\Temp\ccgn9LZs.s:4702   .text.cJSON_CreateTrue:00000000 $t
C:\Users\LuckyE\AppData\Local\Temp\ccgn9LZs.s:4709   .text.cJSON_CreateTrue:00000000 cJSON_CreateTrue
C:\Users\LuckyE\AppData\Local\Temp\ccgn9LZs.s:4736   .text.cJSON_CreateTrue:00000014 $d
C:\Users\LuckyE\AppData\Local\Temp\ccgn9LZs.s:4741   .text.cJSON_AddTrueToObject:00000000 $t
C:\Users\LuckyE\AppData\Local\Temp\ccgn9LZs.s:4748   .text.cJSON_AddTrueToObject:00000000 cJSON_AddTrueToObject
C:\Users\LuckyE\AppData\Local\Temp\ccgn9LZs.s:4798   .text.cJSON_CreateFalse:00000000 $t
C:\Users\LuckyE\AppData\Local\Temp\ccgn9LZs.s:4805   .text.cJSON_CreateFalse:00000000 cJSON_CreateFalse
C:\Users\LuckyE\AppData\Local\Temp\ccgn9LZs.s:4832   .text.cJSON_CreateFalse:00000014 $d
C:\Users\LuckyE\AppData\Local\Temp\ccgn9LZs.s:4837   .text.cJSON_AddFalseToObject:00000000 $t
C:\Users\LuckyE\AppData\Local\Temp\ccgn9LZs.s:4844   .text.cJSON_AddFalseToObject:00000000 cJSON_AddFalseToObject
C:\Users\LuckyE\AppData\Local\Temp\ccgn9LZs.s:4894   .text.cJSON_CreateBool:00000000 $t
C:\Users\LuckyE\AppData\Local\Temp\ccgn9LZs.s:4901   .text.cJSON_CreateBool:00000000 cJSON_CreateBool
C:\Users\LuckyE\AppData\Local\Temp\ccgn9LZs.s:4938   .text.cJSON_CreateBool:0000001c $d
C:\Users\LuckyE\AppData\Local\Temp\ccgn9LZs.s:4943   .text.cJSON_AddBoolToObject:00000000 $t
C:\Users\LuckyE\AppData\Local\Temp\ccgn9LZs.s:4950   .text.cJSON_AddBoolToObject:00000000 cJSON_AddBoolToObject
C:\Users\LuckyE\AppData\Local\Temp\ccgn9LZs.s:5004   .text.cJSON_CreateNumber:00000000 $t
C:\Users\LuckyE\AppData\Local\Temp\ccgn9LZs.s:5011   .text.cJSON_CreateNumber:00000000 cJSON_CreateNumber
C:\Users\LuckyE\AppData\Local\Temp\ccgn9LZs.s:5086   .text.cJSON_CreateNumber:00000058 $d
C:\Users\LuckyE\AppData\Local\Temp\ccgn9LZs.s:5094   .text.cJSON_AddNumberToObject:00000000 $t
C:\Users\LuckyE\AppData\Local\Temp\ccgn9LZs.s:5101   .text.cJSON_AddNumberToObject:00000000 cJSON_AddNumberToObject
C:\Users\LuckyE\AppData\Local\Temp\ccgn9LZs.s:5151   .text.cJSON_CreateString:00000000 $t
C:\Users\LuckyE\AppData\Local\Temp\ccgn9LZs.s:5158   .text.cJSON_CreateString:00000000 cJSON_CreateString
C:\Users\LuckyE\AppData\Local\Temp\ccgn9LZs.s:5211   .text.cJSON_CreateString:0000002c $d
C:\Users\LuckyE\AppData\Local\Temp\ccgn9LZs.s:5216   .text.cJSON_AddStringToObject:00000000 $t
C:\Users\LuckyE\AppData\Local\Temp\ccgn9LZs.s:5223   .text.cJSON_AddStringToObject:00000000 cJSON_AddStringToObject
C:\Users\LuckyE\AppData\Local\Temp\ccgn9LZs.s:5277   .text.cJSON_CreateStringReference:00000000 $t
C:\Users\LuckyE\AppData\Local\Temp\ccgn9LZs.s:5284   .text.cJSON_CreateStringReference:00000000 cJSON_CreateStringReference
C:\Users\LuckyE\AppData\Local\Temp\ccgn9LZs.s:5319   .text.cJSON_CreateStringReference:00000018 $d
C:\Users\LuckyE\AppData\Local\Temp\ccgn9LZs.s:5324   .text.cJSON_CreateObjectReference:00000000 $t
C:\Users\LuckyE\AppData\Local\Temp\ccgn9LZs.s:5331   .text.cJSON_CreateObjectReference:00000000 cJSON_CreateObjectReference
C:\Users\LuckyE\AppData\Local\Temp\ccgn9LZs.s:5366   .text.cJSON_CreateObjectReference:00000018 $d
C:\Users\LuckyE\AppData\Local\Temp\ccgn9LZs.s:5371   .text.cJSON_CreateArrayReference:00000000 $t
C:\Users\LuckyE\AppData\Local\Temp\ccgn9LZs.s:5378   .text.cJSON_CreateArrayReference:00000000 cJSON_CreateArrayReference
C:\Users\LuckyE\AppData\Local\Temp\ccgn9LZs.s:5413   .text.cJSON_CreateArrayReference:00000018 $d
C:\Users\LuckyE\AppData\Local\Temp\ccgn9LZs.s:5418   .text.cJSON_CreateRaw:00000000 $t
C:\Users\LuckyE\AppData\Local\Temp\ccgn9LZs.s:5425   .text.cJSON_CreateRaw:00000000 cJSON_CreateRaw
C:\Users\LuckyE\AppData\Local\Temp\ccgn9LZs.s:5478   .text.cJSON_CreateRaw:0000002c $d
C:\Users\LuckyE\AppData\Local\Temp\ccgn9LZs.s:5483   .text.cJSON_AddRawToObject:00000000 $t
C:\Users\LuckyE\AppData\Local\Temp\ccgn9LZs.s:5490   .text.cJSON_AddRawToObject:00000000 cJSON_AddRawToObject
C:\Users\LuckyE\AppData\Local\Temp\ccgn9LZs.s:5544   .text.cJSON_CreateArray:00000000 $t
C:\Users\LuckyE\AppData\Local\Temp\ccgn9LZs.s:5551   .text.cJSON_CreateArray:00000000 cJSON_CreateArray
C:\Users\LuckyE\AppData\Local\Temp\ccgn9LZs.s:5578   .text.cJSON_CreateArray:00000014 $d
C:\Users\LuckyE\AppData\Local\Temp\ccgn9LZs.s:5583   .text.cJSON_AddArrayToObject:00000000 $t
C:\Users\LuckyE\AppData\Local\Temp\ccgn9LZs.s:5590   .text.cJSON_AddArrayToObject:00000000 cJSON_AddArrayToObject
C:\Users\LuckyE\AppData\Local\Temp\ccgn9LZs.s:5640   .text.cJSON_CreateObject:00000000 $t
C:\Users\LuckyE\AppData\Local\Temp\ccgn9LZs.s:5647   .text.cJSON_CreateObject:00000000 cJSON_CreateObject
C:\Users\LuckyE\AppData\Local\Temp\ccgn9LZs.s:5674   .text.cJSON_CreateObject:00000014 $d
C:\Users\LuckyE\AppData\Local\Temp\ccgn9LZs.s:5679   .text.cJSON_AddObjectToObject:00000000 $t
C:\Users\LuckyE\AppData\Local\Temp\ccgn9LZs.s:5686   .text.cJSON_AddObjectToObject:00000000 cJSON_AddObjectToObject
C:\Users\LuckyE\AppData\Local\Temp\ccgn9LZs.s:5737   .text.cJSON_CreateIntArray:00000000 $t
C:\Users\LuckyE\AppData\Local\Temp\ccgn9LZs.s:5744   .text.cJSON_CreateIntArray:00000000 cJSON_CreateIntArray
C:\Users\LuckyE\AppData\Local\Temp\ccgn9LZs.s:5844   .text.cJSON_CreateFloatArray:00000000 $t
C:\Users\LuckyE\AppData\Local\Temp\ccgn9LZs.s:5851   .text.cJSON_CreateFloatArray:00000000 cJSON_CreateFloatArray
C:\Users\LuckyE\AppData\Local\Temp\ccgn9LZs.s:5950   .text.cJSON_CreateDoubleArray:00000000 $t
ARM GAS  C:\Users\LuckyE\AppData\Local\Temp\ccgn9LZs.s 			page 197


C:\Users\LuckyE\AppData\Local\Temp\ccgn9LZs.s:5957   .text.cJSON_CreateDoubleArray:00000000 cJSON_CreateDoubleArray
C:\Users\LuckyE\AppData\Local\Temp\ccgn9LZs.s:6053   .text.cJSON_CreateStringArray:00000000 $t
C:\Users\LuckyE\AppData\Local\Temp\ccgn9LZs.s:6060   .text.cJSON_CreateStringArray:00000000 cJSON_CreateStringArray
C:\Users\LuckyE\AppData\Local\Temp\ccgn9LZs.s:6156   .text.cJSON_Duplicate:00000000 $t
C:\Users\LuckyE\AppData\Local\Temp\ccgn9LZs.s:6163   .text.cJSON_Duplicate:00000000 cJSON_Duplicate
C:\Users\LuckyE\AppData\Local\Temp\ccgn9LZs.s:6298   .text.cJSON_Duplicate:00000084 $d
C:\Users\LuckyE\AppData\Local\Temp\ccgn9LZs.s:6303   .text.cJSON_Minify:00000000 $t
C:\Users\LuckyE\AppData\Local\Temp\ccgn9LZs.s:6310   .text.cJSON_Minify:00000000 cJSON_Minify
C:\Users\LuckyE\AppData\Local\Temp\ccgn9LZs.s:6458   .text.cJSON_IsInvalid:00000000 $t
C:\Users\LuckyE\AppData\Local\Temp\ccgn9LZs.s:6465   .text.cJSON_IsInvalid:00000000 cJSON_IsInvalid
C:\Users\LuckyE\AppData\Local\Temp\ccgn9LZs.s:6487   .text.cJSON_IsFalse:00000000 $t
C:\Users\LuckyE\AppData\Local\Temp\ccgn9LZs.s:6494   .text.cJSON_IsFalse:00000000 cJSON_IsFalse
C:\Users\LuckyE\AppData\Local\Temp\ccgn9LZs.s:6517   .text.cJSON_IsTrue:00000000 $t
C:\Users\LuckyE\AppData\Local\Temp\ccgn9LZs.s:6524   .text.cJSON_IsTrue:00000000 cJSON_IsTrue
C:\Users\LuckyE\AppData\Local\Temp\ccgn9LZs.s:6547   .text.cJSON_IsBool:00000000 $t
C:\Users\LuckyE\AppData\Local\Temp\ccgn9LZs.s:6554   .text.cJSON_IsBool:00000000 cJSON_IsBool
C:\Users\LuckyE\AppData\Local\Temp\ccgn9LZs.s:6577   .text.cJSON_IsNull:00000000 $t
C:\Users\LuckyE\AppData\Local\Temp\ccgn9LZs.s:6584   .text.cJSON_IsNull:00000000 cJSON_IsNull
C:\Users\LuckyE\AppData\Local\Temp\ccgn9LZs.s:6607   .text.cJSON_IsNumber:00000000 $t
C:\Users\LuckyE\AppData\Local\Temp\ccgn9LZs.s:6614   .text.cJSON_IsNumber:00000000 cJSON_IsNumber
C:\Users\LuckyE\AppData\Local\Temp\ccgn9LZs.s:6637   .text.cJSON_IsString:00000000 $t
C:\Users\LuckyE\AppData\Local\Temp\ccgn9LZs.s:6644   .text.cJSON_IsString:00000000 cJSON_IsString
C:\Users\LuckyE\AppData\Local\Temp\ccgn9LZs.s:6667   .text.cJSON_GetStringValue:00000000 $t
C:\Users\LuckyE\AppData\Local\Temp\ccgn9LZs.s:6674   .text.cJSON_GetStringValue:00000000 cJSON_GetStringValue
C:\Users\LuckyE\AppData\Local\Temp\ccgn9LZs.s:6701   .text.cJSON_IsArray:00000000 $t
C:\Users\LuckyE\AppData\Local\Temp\ccgn9LZs.s:6708   .text.cJSON_IsArray:00000000 cJSON_IsArray
C:\Users\LuckyE\AppData\Local\Temp\ccgn9LZs.s:6731   .text.cJSON_IsObject:00000000 $t
C:\Users\LuckyE\AppData\Local\Temp\ccgn9LZs.s:6738   .text.cJSON_IsObject:00000000 cJSON_IsObject
C:\Users\LuckyE\AppData\Local\Temp\ccgn9LZs.s:6761   .text.cJSON_IsRaw:00000000 $t
C:\Users\LuckyE\AppData\Local\Temp\ccgn9LZs.s:6768   .text.cJSON_IsRaw:00000000 cJSON_IsRaw
C:\Users\LuckyE\AppData\Local\Temp\ccgn9LZs.s:6791   .text.cJSON_Compare:00000000 $t
C:\Users\LuckyE\AppData\Local\Temp\ccgn9LZs.s:6798   .text.cJSON_Compare:00000000 cJSON_Compare
C:\Users\LuckyE\AppData\Local\Temp\ccgn9LZs.s:7036   .text.cJSON_malloc:00000000 $t
C:\Users\LuckyE\AppData\Local\Temp\ccgn9LZs.s:7043   .text.cJSON_malloc:00000000 cJSON_malloc
C:\Users\LuckyE\AppData\Local\Temp\ccgn9LZs.s:7059   .text.cJSON_malloc:00000008 $d
C:\Users\LuckyE\AppData\Local\Temp\ccgn9LZs.s:7064   .text.cJSON_free:00000000 $t
C:\Users\LuckyE\AppData\Local\Temp\ccgn9LZs.s:7071   .text.cJSON_free:00000000 cJSON_free
C:\Users\LuckyE\AppData\Local\Temp\ccgn9LZs.s:7087   .text.cJSON_free:00000008 $d
C:\Users\LuckyE\AppData\Local\Temp\ccgn9LZs.s:7092   .text.replace_item_in_object.part.10:00000000 $t
C:\Users\LuckyE\AppData\Local\Temp\ccgn9LZs.s:7098   .text.replace_item_in_object.part.10:00000000 replace_item_in_object.part.10
C:\Users\LuckyE\AppData\Local\Temp\ccgn9LZs.s:7162   .text.cJSON_ReplaceItemInObject:00000000 $t
C:\Users\LuckyE\AppData\Local\Temp\ccgn9LZs.s:7169   .text.cJSON_ReplaceItemInObject:00000000 cJSON_ReplaceItemInObject
C:\Users\LuckyE\AppData\Local\Temp\ccgn9LZs.s:7194   .text.cJSON_ReplaceItemInObjectCaseSensitive:00000000 $t
C:\Users\LuckyE\AppData\Local\Temp\ccgn9LZs.s:7201   .text.cJSON_ReplaceItemInObjectCaseSensitive:00000000 cJSON_ReplaceItemInObjectCaseSensitive
C:\Users\LuckyE\AppData\Local\Temp\ccgn9LZs.s:7226   .bss.global_error:00000000 $d
C:\Users\LuckyE\AppData\Local\Temp\ccgn9LZs.s:7230   .bss.global_error:00000000 global_error
C:\Users\LuckyE\AppData\Local\Temp\ccgn9LZs.s:7236   .bss.version.7869:00000000 version.7869
C:\Users\LuckyE\AppData\Local\Temp\ccgn9LZs.s:7237   .bss.version.7869:00000000 $d
C:\Users\LuckyE\AppData\Local\Temp\ccgn9LZs.s:7239   .data.global_hooks:00000000 $d
C:\Users\LuckyE\AppData\Local\Temp\ccgn9LZs.s:7243   .data.global_hooks:00000000 global_hooks

UNDEFINED SYMBOLS
strlen
memcpy
__locale_ctype_ptr
strcmp
memset
ARM GAS  C:\Users\LuckyE\AppData\Local\Temp\ccgn9LZs.s 			page 198


sprintf
strcpy
__aeabi_dmul
__aeabi_dcmpeq
sscanf
malloc
free
realloc
__aeabi_dcmpge
__aeabi_dcmple
__aeabi_d2iz
strncmp
strtod
__aeabi_i2d
__aeabi_f2d
