ARM GAS  C:\Users\LuckyE\AppData\Local\Temp\ccgn9LZs.s 			page 1


   1              		.cpu cortex-m4
   2              		.eabi_attribute 27, 1
   3              		.eabi_attribute 28, 1
   4              		.eabi_attribute 20, 1
   5              		.eabi_attribute 21, 1
   6              		.eabi_attribute 23, 3
   7              		.eabi_attribute 24, 1
   8              		.eabi_attribute 25, 1
   9              		.eabi_attribute 26, 1
  10              		.eabi_attribute 30, 4
  11              		.eabi_attribute 34, 1
  12              		.eabi_attribute 18, 4
  13              		.file	"cJSON.c"
  14              		.text
  15              	.Ltext0:
  16              		.cfi_sections	.debug_frame
  17              		.section	.text.parse_hex4,"ax",%progbits
  18              		.align	1
  19              		.syntax unified
  20              		.thumb
  21              		.thumb_func
  22              		.fpu fpv4-sp-d16
  24              	parse_hex4:
  25              	.LFB17:
  26              		.file 1 "../../iot_link/cJSON/cJSON.c"
   1:../../iot_link/cJSON/cJSON.c **** /*
   2:../../iot_link/cJSON/cJSON.c ****   Copyright (c) 2009-2017 Dave Gamble and cJSON contributors
   3:../../iot_link/cJSON/cJSON.c **** 
   4:../../iot_link/cJSON/cJSON.c ****   Permission is hereby granted, free of charge, to any person obtaining a copy
   5:../../iot_link/cJSON/cJSON.c ****   of this software and associated documentation files (the "Software"), to deal
   6:../../iot_link/cJSON/cJSON.c ****   in the Software without restriction, including without limitation the rights
   7:../../iot_link/cJSON/cJSON.c ****   to use, copy, modify, merge, publish, distribute, sublicense, and/or sell
   8:../../iot_link/cJSON/cJSON.c ****   copies of the Software, and to permit persons to whom the Software is
   9:../../iot_link/cJSON/cJSON.c ****   furnished to do so, subject to the following conditions:
  10:../../iot_link/cJSON/cJSON.c **** 
  11:../../iot_link/cJSON/cJSON.c ****   The above copyright notice and this permission notice shall be included in
  12:../../iot_link/cJSON/cJSON.c ****   all copies or substantial portions of the Software.
  13:../../iot_link/cJSON/cJSON.c **** 
  14:../../iot_link/cJSON/cJSON.c ****   THE SOFTWARE IS PROVIDED "AS IS", WITHOUT WARRANTY OF ANY KIND, EXPRESS OR
  15:../../iot_link/cJSON/cJSON.c ****   IMPLIED, INCLUDING BUT NOT LIMITED TO THE WARRANTIES OF MERCHANTABILITY,
  16:../../iot_link/cJSON/cJSON.c ****   FITNESS FOR A PARTICULAR PURPOSE AND NONINFRINGEMENT. IN NO EVENT SHALL THE
  17:../../iot_link/cJSON/cJSON.c ****   AUTHORS OR COPYRIGHT HOLDERS BE LIABLE FOR ANY CLAIM, DAMAGES OR OTHER
  18:../../iot_link/cJSON/cJSON.c ****   LIABILITY, WHETHER IN AN ACTION OF CONTRACT, TORT OR OTHERWISE, ARISING FROM,
  19:../../iot_link/cJSON/cJSON.c ****   OUT OF OR IN CONNECTION WITH THE SOFTWARE OR THE USE OR OTHER DEALINGS IN
  20:../../iot_link/cJSON/cJSON.c ****   THE SOFTWARE.
  21:../../iot_link/cJSON/cJSON.c **** */
  22:../../iot_link/cJSON/cJSON.c **** 
  23:../../iot_link/cJSON/cJSON.c **** /* cJSON */
  24:../../iot_link/cJSON/cJSON.c **** /* JSON parser in C. */
  25:../../iot_link/cJSON/cJSON.c **** 
  26:../../iot_link/cJSON/cJSON.c **** /* disable warnings about old C89 functions in MSVC */
  27:../../iot_link/cJSON/cJSON.c **** #if !defined(_CRT_SECURE_NO_DEPRECATE) && defined(_MSC_VER)
  28:../../iot_link/cJSON/cJSON.c **** #define _CRT_SECURE_NO_DEPRECATE
  29:../../iot_link/cJSON/cJSON.c **** #endif
  30:../../iot_link/cJSON/cJSON.c **** 
  31:../../iot_link/cJSON/cJSON.c **** #ifdef __GNUC__
  32:../../iot_link/cJSON/cJSON.c **** #pragma GCC visibility push(default)
ARM GAS  C:\Users\LuckyE\AppData\Local\Temp\ccgn9LZs.s 			page 2


  33:../../iot_link/cJSON/cJSON.c **** #endif
  34:../../iot_link/cJSON/cJSON.c **** #if defined(_MSC_VER)
  35:../../iot_link/cJSON/cJSON.c **** #pragma warning (push)
  36:../../iot_link/cJSON/cJSON.c **** /* disable warning about single line comments in system headers */
  37:../../iot_link/cJSON/cJSON.c **** #pragma warning (disable : 4001)
  38:../../iot_link/cJSON/cJSON.c **** #endif
  39:../../iot_link/cJSON/cJSON.c **** 
  40:../../iot_link/cJSON/cJSON.c **** #include <string.h>
  41:../../iot_link/cJSON/cJSON.c **** #include <stdio.h>
  42:../../iot_link/cJSON/cJSON.c **** #include <math.h>
  43:../../iot_link/cJSON/cJSON.c **** #include <stdlib.h>
  44:../../iot_link/cJSON/cJSON.c **** #include <limits.h>
  45:../../iot_link/cJSON/cJSON.c **** #include <ctype.h>
  46:../../iot_link/cJSON/cJSON.c **** 
  47:../../iot_link/cJSON/cJSON.c **** #ifdef ENABLE_LOCALES
  48:../../iot_link/cJSON/cJSON.c **** #include <locale.h>
  49:../../iot_link/cJSON/cJSON.c **** #endif
  50:../../iot_link/cJSON/cJSON.c **** 
  51:../../iot_link/cJSON/cJSON.c **** #if defined(_MSC_VER)
  52:../../iot_link/cJSON/cJSON.c **** #pragma warning (pop)
  53:../../iot_link/cJSON/cJSON.c **** #endif
  54:../../iot_link/cJSON/cJSON.c **** #ifdef __GNUC__
  55:../../iot_link/cJSON/cJSON.c **** #pragma GCC visibility pop
  56:../../iot_link/cJSON/cJSON.c **** #endif
  57:../../iot_link/cJSON/cJSON.c **** 
  58:../../iot_link/cJSON/cJSON.c **** #include "cJSON.h"
  59:../../iot_link/cJSON/cJSON.c **** 
  60:../../iot_link/cJSON/cJSON.c **** /* define our own boolean type */
  61:../../iot_link/cJSON/cJSON.c **** #define true ((cJSON_bool)1)
  62:../../iot_link/cJSON/cJSON.c **** #define false ((cJSON_bool)0)
  63:../../iot_link/cJSON/cJSON.c **** 
  64:../../iot_link/cJSON/cJSON.c **** typedef struct {
  65:../../iot_link/cJSON/cJSON.c ****     const unsigned char *json;
  66:../../iot_link/cJSON/cJSON.c ****     size_t position;
  67:../../iot_link/cJSON/cJSON.c **** } error;
  68:../../iot_link/cJSON/cJSON.c **** static error global_error = { NULL, 0 };
  69:../../iot_link/cJSON/cJSON.c **** 
  70:../../iot_link/cJSON/cJSON.c **** CJSON_PUBLIC(const char *) cJSON_GetErrorPtr(void)
  71:../../iot_link/cJSON/cJSON.c **** {
  72:../../iot_link/cJSON/cJSON.c ****     return (const char*) (global_error.json + global_error.position);
  73:../../iot_link/cJSON/cJSON.c **** }
  74:../../iot_link/cJSON/cJSON.c **** 
  75:../../iot_link/cJSON/cJSON.c **** CJSON_PUBLIC(char *) cJSON_GetStringValue(cJSON *item) {
  76:../../iot_link/cJSON/cJSON.c ****     if (!cJSON_IsString(item)) {
  77:../../iot_link/cJSON/cJSON.c ****         return NULL;
  78:../../iot_link/cJSON/cJSON.c ****     }
  79:../../iot_link/cJSON/cJSON.c **** 
  80:../../iot_link/cJSON/cJSON.c ****     return item->valuestring;
  81:../../iot_link/cJSON/cJSON.c **** }
  82:../../iot_link/cJSON/cJSON.c **** 
  83:../../iot_link/cJSON/cJSON.c **** /* This is a safeguard to prevent copy-pasters from using incompatible C and header files */
  84:../../iot_link/cJSON/cJSON.c **** #if (CJSON_VERSION_MAJOR != 1) || (CJSON_VERSION_MINOR != 7) || (CJSON_VERSION_PATCH != 8)
  85:../../iot_link/cJSON/cJSON.c ****     #error cJSON.h and cJSON.c have different versions. Make sure that both have the same.
  86:../../iot_link/cJSON/cJSON.c **** #endif
  87:../../iot_link/cJSON/cJSON.c **** 
  88:../../iot_link/cJSON/cJSON.c **** CJSON_PUBLIC(const char*) cJSON_Version(void)
  89:../../iot_link/cJSON/cJSON.c **** {
ARM GAS  C:\Users\LuckyE\AppData\Local\Temp\ccgn9LZs.s 			page 3


  90:../../iot_link/cJSON/cJSON.c ****     static char version[15];
  91:../../iot_link/cJSON/cJSON.c ****     sprintf(version, "%i.%i.%i", CJSON_VERSION_MAJOR, CJSON_VERSION_MINOR, CJSON_VERSION_PATCH);
  92:../../iot_link/cJSON/cJSON.c **** 
  93:../../iot_link/cJSON/cJSON.c ****     return version;
  94:../../iot_link/cJSON/cJSON.c **** }
  95:../../iot_link/cJSON/cJSON.c **** 
  96:../../iot_link/cJSON/cJSON.c **** /* Case insensitive string comparison, doesn't consider two NULL pointers equal though */
  97:../../iot_link/cJSON/cJSON.c **** static int case_insensitive_strcmp(const unsigned char *string1, const unsigned char *string2)
  98:../../iot_link/cJSON/cJSON.c **** {
  99:../../iot_link/cJSON/cJSON.c ****     if ((string1 == NULL) || (string2 == NULL))
 100:../../iot_link/cJSON/cJSON.c ****     {
 101:../../iot_link/cJSON/cJSON.c ****         return 1;
 102:../../iot_link/cJSON/cJSON.c ****     }
 103:../../iot_link/cJSON/cJSON.c **** 
 104:../../iot_link/cJSON/cJSON.c ****     if (string1 == string2)
 105:../../iot_link/cJSON/cJSON.c ****     {
 106:../../iot_link/cJSON/cJSON.c ****         return 0;
 107:../../iot_link/cJSON/cJSON.c ****     }
 108:../../iot_link/cJSON/cJSON.c **** 
 109:../../iot_link/cJSON/cJSON.c ****     for(; tolower(*string1) == tolower(*string2); (void)string1++, string2++)
 110:../../iot_link/cJSON/cJSON.c ****     {
 111:../../iot_link/cJSON/cJSON.c ****         if (*string1 == '\0')
 112:../../iot_link/cJSON/cJSON.c ****         {
 113:../../iot_link/cJSON/cJSON.c ****             return 0;
 114:../../iot_link/cJSON/cJSON.c ****         }
 115:../../iot_link/cJSON/cJSON.c ****     }
 116:../../iot_link/cJSON/cJSON.c **** 
 117:../../iot_link/cJSON/cJSON.c ****     return tolower(*string1) - tolower(*string2);
 118:../../iot_link/cJSON/cJSON.c **** }
 119:../../iot_link/cJSON/cJSON.c **** 
 120:../../iot_link/cJSON/cJSON.c **** typedef struct internal_hooks
 121:../../iot_link/cJSON/cJSON.c **** {
 122:../../iot_link/cJSON/cJSON.c ****     void *(CJSON_CDECL *allocate)(size_t size);
 123:../../iot_link/cJSON/cJSON.c ****     void (CJSON_CDECL *deallocate)(void *pointer);
 124:../../iot_link/cJSON/cJSON.c ****     void *(CJSON_CDECL *reallocate)(void *pointer, size_t size);
 125:../../iot_link/cJSON/cJSON.c **** } internal_hooks;
 126:../../iot_link/cJSON/cJSON.c **** 
 127:../../iot_link/cJSON/cJSON.c **** #if defined(_MSC_VER)
 128:../../iot_link/cJSON/cJSON.c **** /* work around MSVC error C2322: '...' address of dillimport '...' is not static */
 129:../../iot_link/cJSON/cJSON.c **** static void * CJSON_CDECL internal_malloc(size_t size)
 130:../../iot_link/cJSON/cJSON.c **** {
 131:../../iot_link/cJSON/cJSON.c ****     return malloc(size);
 132:../../iot_link/cJSON/cJSON.c **** }
 133:../../iot_link/cJSON/cJSON.c **** static void CJSON_CDECL internal_free(void *pointer)
 134:../../iot_link/cJSON/cJSON.c **** {
 135:../../iot_link/cJSON/cJSON.c ****     free(pointer);
 136:../../iot_link/cJSON/cJSON.c **** }
 137:../../iot_link/cJSON/cJSON.c **** static void * CJSON_CDECL internal_realloc(void *pointer, size_t size)
 138:../../iot_link/cJSON/cJSON.c **** {
 139:../../iot_link/cJSON/cJSON.c ****     return realloc(pointer, size);
 140:../../iot_link/cJSON/cJSON.c **** }
 141:../../iot_link/cJSON/cJSON.c **** #else
 142:../../iot_link/cJSON/cJSON.c **** #define internal_malloc malloc
 143:../../iot_link/cJSON/cJSON.c **** #define internal_free free
 144:../../iot_link/cJSON/cJSON.c **** #define internal_realloc realloc
 145:../../iot_link/cJSON/cJSON.c **** #endif
 146:../../iot_link/cJSON/cJSON.c **** 
ARM GAS  C:\Users\LuckyE\AppData\Local\Temp\ccgn9LZs.s 			page 4


 147:../../iot_link/cJSON/cJSON.c **** static internal_hooks global_hooks = { internal_malloc, internal_free, internal_realloc };
 148:../../iot_link/cJSON/cJSON.c **** 
 149:../../iot_link/cJSON/cJSON.c **** static unsigned char* cJSON_strdup(const unsigned char* string, const internal_hooks * const hooks)
 150:../../iot_link/cJSON/cJSON.c **** {
 151:../../iot_link/cJSON/cJSON.c ****     size_t length = 0;
 152:../../iot_link/cJSON/cJSON.c ****     unsigned char *copy = NULL;
 153:../../iot_link/cJSON/cJSON.c **** 
 154:../../iot_link/cJSON/cJSON.c ****     if (string == NULL)
 155:../../iot_link/cJSON/cJSON.c ****     {
 156:../../iot_link/cJSON/cJSON.c ****         return NULL;
 157:../../iot_link/cJSON/cJSON.c ****     }
 158:../../iot_link/cJSON/cJSON.c **** 
 159:../../iot_link/cJSON/cJSON.c ****     length = strlen((const char*)string) + sizeof("");
 160:../../iot_link/cJSON/cJSON.c ****     copy = (unsigned char*)hooks->allocate(length);
 161:../../iot_link/cJSON/cJSON.c ****     if (copy == NULL)
 162:../../iot_link/cJSON/cJSON.c ****     {
 163:../../iot_link/cJSON/cJSON.c ****         return NULL;
 164:../../iot_link/cJSON/cJSON.c ****     }
 165:../../iot_link/cJSON/cJSON.c ****     (void) memcpy(copy, string, length);
 166:../../iot_link/cJSON/cJSON.c **** 
 167:../../iot_link/cJSON/cJSON.c ****     return copy;
 168:../../iot_link/cJSON/cJSON.c **** }
 169:../../iot_link/cJSON/cJSON.c **** 
 170:../../iot_link/cJSON/cJSON.c **** CJSON_PUBLIC(void) cJSON_InitHooks(cJSON_Hooks* hooks)
 171:../../iot_link/cJSON/cJSON.c **** {
 172:../../iot_link/cJSON/cJSON.c ****     if (hooks == NULL)
 173:../../iot_link/cJSON/cJSON.c ****     {
 174:../../iot_link/cJSON/cJSON.c ****         /* Reset hooks */
 175:../../iot_link/cJSON/cJSON.c ****         global_hooks.allocate = malloc;
 176:../../iot_link/cJSON/cJSON.c ****         global_hooks.deallocate = free;
 177:../../iot_link/cJSON/cJSON.c ****         global_hooks.reallocate = realloc;
 178:../../iot_link/cJSON/cJSON.c ****         return;
 179:../../iot_link/cJSON/cJSON.c ****     }
 180:../../iot_link/cJSON/cJSON.c **** 
 181:../../iot_link/cJSON/cJSON.c ****     global_hooks.allocate = malloc;
 182:../../iot_link/cJSON/cJSON.c ****     if (hooks->malloc_fn != NULL)
 183:../../iot_link/cJSON/cJSON.c ****     {
 184:../../iot_link/cJSON/cJSON.c ****         global_hooks.allocate = hooks->malloc_fn;
 185:../../iot_link/cJSON/cJSON.c ****     }
 186:../../iot_link/cJSON/cJSON.c **** 
 187:../../iot_link/cJSON/cJSON.c ****     global_hooks.deallocate = free;
 188:../../iot_link/cJSON/cJSON.c ****     if (hooks->free_fn != NULL)
 189:../../iot_link/cJSON/cJSON.c ****     {
 190:../../iot_link/cJSON/cJSON.c ****         global_hooks.deallocate = hooks->free_fn;
 191:../../iot_link/cJSON/cJSON.c ****     }
 192:../../iot_link/cJSON/cJSON.c **** 
 193:../../iot_link/cJSON/cJSON.c ****     /* use realloc only if both free and malloc are used */
 194:../../iot_link/cJSON/cJSON.c ****     global_hooks.reallocate = NULL;
 195:../../iot_link/cJSON/cJSON.c ****     if ((global_hooks.allocate == malloc) && (global_hooks.deallocate == free))
 196:../../iot_link/cJSON/cJSON.c ****     {
 197:../../iot_link/cJSON/cJSON.c ****         global_hooks.reallocate = realloc;
 198:../../iot_link/cJSON/cJSON.c ****     }
 199:../../iot_link/cJSON/cJSON.c **** }
 200:../../iot_link/cJSON/cJSON.c **** 
 201:../../iot_link/cJSON/cJSON.c **** /* Internal constructor. */
 202:../../iot_link/cJSON/cJSON.c **** static cJSON *cJSON_New_Item(const internal_hooks * const hooks)
 203:../../iot_link/cJSON/cJSON.c **** {
ARM GAS  C:\Users\LuckyE\AppData\Local\Temp\ccgn9LZs.s 			page 5


 204:../../iot_link/cJSON/cJSON.c ****     cJSON* node = (cJSON*)hooks->allocate(sizeof(cJSON));
 205:../../iot_link/cJSON/cJSON.c ****     if (node)
 206:../../iot_link/cJSON/cJSON.c ****     {
 207:../../iot_link/cJSON/cJSON.c ****         memset(node, '\0', sizeof(cJSON));
 208:../../iot_link/cJSON/cJSON.c ****     }
 209:../../iot_link/cJSON/cJSON.c **** 
 210:../../iot_link/cJSON/cJSON.c ****     return node;
 211:../../iot_link/cJSON/cJSON.c **** }
 212:../../iot_link/cJSON/cJSON.c **** 
 213:../../iot_link/cJSON/cJSON.c **** /* Delete a cJSON structure. */
 214:../../iot_link/cJSON/cJSON.c **** CJSON_PUBLIC(void) cJSON_Delete(cJSON *item)
 215:../../iot_link/cJSON/cJSON.c **** {
 216:../../iot_link/cJSON/cJSON.c ****     cJSON *next = NULL;
 217:../../iot_link/cJSON/cJSON.c ****     while (item != NULL)
 218:../../iot_link/cJSON/cJSON.c ****     {
 219:../../iot_link/cJSON/cJSON.c ****         next = item->next;
 220:../../iot_link/cJSON/cJSON.c ****         if (!(item->type & cJSON_IsReference) && (item->child != NULL))
 221:../../iot_link/cJSON/cJSON.c ****         {
 222:../../iot_link/cJSON/cJSON.c ****             cJSON_Delete(item->child);
 223:../../iot_link/cJSON/cJSON.c ****         }
 224:../../iot_link/cJSON/cJSON.c ****         if (!(item->type & cJSON_IsReference) && (item->valuestring != NULL))
 225:../../iot_link/cJSON/cJSON.c ****         {
 226:../../iot_link/cJSON/cJSON.c ****             global_hooks.deallocate(item->valuestring);
 227:../../iot_link/cJSON/cJSON.c ****         }
 228:../../iot_link/cJSON/cJSON.c ****         if (!(item->type & cJSON_StringIsConst) && (item->string != NULL))
 229:../../iot_link/cJSON/cJSON.c ****         {
 230:../../iot_link/cJSON/cJSON.c ****             global_hooks.deallocate(item->string);
 231:../../iot_link/cJSON/cJSON.c ****         }
 232:../../iot_link/cJSON/cJSON.c ****         global_hooks.deallocate(item);
 233:../../iot_link/cJSON/cJSON.c ****         item = next;
 234:../../iot_link/cJSON/cJSON.c ****     }
 235:../../iot_link/cJSON/cJSON.c **** }
 236:../../iot_link/cJSON/cJSON.c **** 
 237:../../iot_link/cJSON/cJSON.c **** /* get the decimal point character of the current locale */
 238:../../iot_link/cJSON/cJSON.c **** static unsigned char get_decimal_point(void)
 239:../../iot_link/cJSON/cJSON.c **** {
 240:../../iot_link/cJSON/cJSON.c **** #ifdef ENABLE_LOCALES
 241:../../iot_link/cJSON/cJSON.c ****     struct lconv *lconv = localeconv();
 242:../../iot_link/cJSON/cJSON.c ****     return (unsigned char) lconv->decimal_point[0];
 243:../../iot_link/cJSON/cJSON.c **** #else
 244:../../iot_link/cJSON/cJSON.c ****     return '.';
 245:../../iot_link/cJSON/cJSON.c **** #endif
 246:../../iot_link/cJSON/cJSON.c **** }
 247:../../iot_link/cJSON/cJSON.c **** 
 248:../../iot_link/cJSON/cJSON.c **** typedef struct
 249:../../iot_link/cJSON/cJSON.c **** {
 250:../../iot_link/cJSON/cJSON.c ****     const unsigned char *content;
 251:../../iot_link/cJSON/cJSON.c ****     size_t length;
 252:../../iot_link/cJSON/cJSON.c ****     size_t offset;
 253:../../iot_link/cJSON/cJSON.c ****     size_t depth; /* How deeply nested (in arrays/objects) is the input at the current offset. */
 254:../../iot_link/cJSON/cJSON.c ****     internal_hooks hooks;
 255:../../iot_link/cJSON/cJSON.c **** } parse_buffer;
 256:../../iot_link/cJSON/cJSON.c **** 
 257:../../iot_link/cJSON/cJSON.c **** /* check if the given size is left to read in a given parse buffer (starting with 1) */
 258:../../iot_link/cJSON/cJSON.c **** #define can_read(buffer, size) ((buffer != NULL) && (((buffer)->offset + size) <= (buffer)->length)
 259:../../iot_link/cJSON/cJSON.c **** /* check if the buffer can be accessed at the given index (starting with 0) */
 260:../../iot_link/cJSON/cJSON.c **** #define can_access_at_index(buffer, index) ((buffer != NULL) && (((buffer)->offset + index) < (buff
ARM GAS  C:\Users\LuckyE\AppData\Local\Temp\ccgn9LZs.s 			page 6


 261:../../iot_link/cJSON/cJSON.c **** #define cannot_access_at_index(buffer, index) (!can_access_at_index(buffer, index))
 262:../../iot_link/cJSON/cJSON.c **** /* get a pointer to the buffer at the position */
 263:../../iot_link/cJSON/cJSON.c **** #define buffer_at_offset(buffer) ((buffer)->content + (buffer)->offset)
 264:../../iot_link/cJSON/cJSON.c **** 
 265:../../iot_link/cJSON/cJSON.c **** /* Parse the input text to generate a number, and populate the result into item. */
 266:../../iot_link/cJSON/cJSON.c **** static cJSON_bool parse_number(cJSON * const item, parse_buffer * const input_buffer)
 267:../../iot_link/cJSON/cJSON.c **** {
 268:../../iot_link/cJSON/cJSON.c ****     double number = 0;
 269:../../iot_link/cJSON/cJSON.c ****     unsigned char *after_end = NULL;
 270:../../iot_link/cJSON/cJSON.c ****     unsigned char number_c_string[64];
 271:../../iot_link/cJSON/cJSON.c ****     unsigned char decimal_point = get_decimal_point();
 272:../../iot_link/cJSON/cJSON.c ****     size_t i = 0;
 273:../../iot_link/cJSON/cJSON.c **** 
 274:../../iot_link/cJSON/cJSON.c ****     if ((input_buffer == NULL) || (input_buffer->content == NULL))
 275:../../iot_link/cJSON/cJSON.c ****     {
 276:../../iot_link/cJSON/cJSON.c ****         return false;
 277:../../iot_link/cJSON/cJSON.c ****     }
 278:../../iot_link/cJSON/cJSON.c **** 
 279:../../iot_link/cJSON/cJSON.c ****     /* copy the number into a temporary buffer and replace '.' with the decimal point
 280:../../iot_link/cJSON/cJSON.c ****      * of the current locale (for strtod)
 281:../../iot_link/cJSON/cJSON.c ****      * This also takes care of '\0' not necessarily being available for marking the end of the inpu
 282:../../iot_link/cJSON/cJSON.c ****     for (i = 0; (i < (sizeof(number_c_string) - 1)) && can_access_at_index(input_buffer, i); i++)
 283:../../iot_link/cJSON/cJSON.c ****     {
 284:../../iot_link/cJSON/cJSON.c ****         switch (buffer_at_offset(input_buffer)[i])
 285:../../iot_link/cJSON/cJSON.c ****         {
 286:../../iot_link/cJSON/cJSON.c ****             case '0':
 287:../../iot_link/cJSON/cJSON.c ****             case '1':
 288:../../iot_link/cJSON/cJSON.c ****             case '2':
 289:../../iot_link/cJSON/cJSON.c ****             case '3':
 290:../../iot_link/cJSON/cJSON.c ****             case '4':
 291:../../iot_link/cJSON/cJSON.c ****             case '5':
 292:../../iot_link/cJSON/cJSON.c ****             case '6':
 293:../../iot_link/cJSON/cJSON.c ****             case '7':
 294:../../iot_link/cJSON/cJSON.c ****             case '8':
 295:../../iot_link/cJSON/cJSON.c ****             case '9':
 296:../../iot_link/cJSON/cJSON.c ****             case '+':
 297:../../iot_link/cJSON/cJSON.c ****             case '-':
 298:../../iot_link/cJSON/cJSON.c ****             case 'e':
 299:../../iot_link/cJSON/cJSON.c ****             case 'E':
 300:../../iot_link/cJSON/cJSON.c ****                 number_c_string[i] = buffer_at_offset(input_buffer)[i];
 301:../../iot_link/cJSON/cJSON.c ****                 break;
 302:../../iot_link/cJSON/cJSON.c **** 
 303:../../iot_link/cJSON/cJSON.c ****             case '.':
 304:../../iot_link/cJSON/cJSON.c ****                 number_c_string[i] = decimal_point;
 305:../../iot_link/cJSON/cJSON.c ****                 break;
 306:../../iot_link/cJSON/cJSON.c **** 
 307:../../iot_link/cJSON/cJSON.c ****             default:
 308:../../iot_link/cJSON/cJSON.c ****                 goto loop_end;
 309:../../iot_link/cJSON/cJSON.c ****         }
 310:../../iot_link/cJSON/cJSON.c ****     }
 311:../../iot_link/cJSON/cJSON.c **** loop_end:
 312:../../iot_link/cJSON/cJSON.c ****     number_c_string[i] = '\0';
 313:../../iot_link/cJSON/cJSON.c **** 
 314:../../iot_link/cJSON/cJSON.c ****     number = strtod((const char*)number_c_string, (char**)&after_end);
 315:../../iot_link/cJSON/cJSON.c ****     if (number_c_string == after_end)
 316:../../iot_link/cJSON/cJSON.c ****     {
 317:../../iot_link/cJSON/cJSON.c ****         return false; /* parse_error */
ARM GAS  C:\Users\LuckyE\AppData\Local\Temp\ccgn9LZs.s 			page 7


 318:../../iot_link/cJSON/cJSON.c ****     }
 319:../../iot_link/cJSON/cJSON.c **** 
 320:../../iot_link/cJSON/cJSON.c ****     item->valuedouble = number;
 321:../../iot_link/cJSON/cJSON.c **** 
 322:../../iot_link/cJSON/cJSON.c ****     /* use saturation in case of overflow */
 323:../../iot_link/cJSON/cJSON.c ****     if (number >= INT_MAX)
 324:../../iot_link/cJSON/cJSON.c ****     {
 325:../../iot_link/cJSON/cJSON.c ****         item->valueint = INT_MAX;
 326:../../iot_link/cJSON/cJSON.c ****     }
 327:../../iot_link/cJSON/cJSON.c ****     else if (number <= INT_MIN)
 328:../../iot_link/cJSON/cJSON.c ****     {
 329:../../iot_link/cJSON/cJSON.c ****         item->valueint = INT_MIN;
 330:../../iot_link/cJSON/cJSON.c ****     }
 331:../../iot_link/cJSON/cJSON.c ****     else
 332:../../iot_link/cJSON/cJSON.c ****     {
 333:../../iot_link/cJSON/cJSON.c ****         item->valueint = (int)number;
 334:../../iot_link/cJSON/cJSON.c ****     }
 335:../../iot_link/cJSON/cJSON.c **** 
 336:../../iot_link/cJSON/cJSON.c ****     item->type = cJSON_Number;
 337:../../iot_link/cJSON/cJSON.c **** 
 338:../../iot_link/cJSON/cJSON.c ****     input_buffer->offset += (size_t)(after_end - number_c_string);
 339:../../iot_link/cJSON/cJSON.c ****     return true;
 340:../../iot_link/cJSON/cJSON.c **** }
 341:../../iot_link/cJSON/cJSON.c **** 
 342:../../iot_link/cJSON/cJSON.c **** /* don't ask me, but the original cJSON_SetNumberValue returns an integer or double */
 343:../../iot_link/cJSON/cJSON.c **** CJSON_PUBLIC(double) cJSON_SetNumberHelper(cJSON *object, double number)
 344:../../iot_link/cJSON/cJSON.c **** {
 345:../../iot_link/cJSON/cJSON.c ****     if (number >= INT_MAX)
 346:../../iot_link/cJSON/cJSON.c ****     {
 347:../../iot_link/cJSON/cJSON.c ****         object->valueint = INT_MAX;
 348:../../iot_link/cJSON/cJSON.c ****     }
 349:../../iot_link/cJSON/cJSON.c ****     else if (number <= INT_MIN)
 350:../../iot_link/cJSON/cJSON.c ****     {
 351:../../iot_link/cJSON/cJSON.c ****         object->valueint = INT_MIN;
 352:../../iot_link/cJSON/cJSON.c ****     }
 353:../../iot_link/cJSON/cJSON.c ****     else
 354:../../iot_link/cJSON/cJSON.c ****     {
 355:../../iot_link/cJSON/cJSON.c ****         object->valueint = (int)number;
 356:../../iot_link/cJSON/cJSON.c ****     }
 357:../../iot_link/cJSON/cJSON.c **** 
 358:../../iot_link/cJSON/cJSON.c ****     return object->valuedouble = number;
 359:../../iot_link/cJSON/cJSON.c **** }
 360:../../iot_link/cJSON/cJSON.c **** 
 361:../../iot_link/cJSON/cJSON.c **** typedef struct
 362:../../iot_link/cJSON/cJSON.c **** {
 363:../../iot_link/cJSON/cJSON.c ****     unsigned char *buffer;
 364:../../iot_link/cJSON/cJSON.c ****     size_t length;
 365:../../iot_link/cJSON/cJSON.c ****     size_t offset;
 366:../../iot_link/cJSON/cJSON.c ****     size_t depth; /* current nesting depth (for formatted printing) */
 367:../../iot_link/cJSON/cJSON.c ****     cJSON_bool noalloc;
 368:../../iot_link/cJSON/cJSON.c ****     cJSON_bool format; /* is this print a formatted print */
 369:../../iot_link/cJSON/cJSON.c ****     internal_hooks hooks;
 370:../../iot_link/cJSON/cJSON.c **** } printbuffer;
 371:../../iot_link/cJSON/cJSON.c **** 
 372:../../iot_link/cJSON/cJSON.c **** /* realloc printbuffer if necessary to have at least "needed" bytes more */
 373:../../iot_link/cJSON/cJSON.c **** static unsigned char* ensure(printbuffer * const p, size_t needed)
 374:../../iot_link/cJSON/cJSON.c **** {
ARM GAS  C:\Users\LuckyE\AppData\Local\Temp\ccgn9LZs.s 			page 8


 375:../../iot_link/cJSON/cJSON.c ****     unsigned char *newbuffer = NULL;
 376:../../iot_link/cJSON/cJSON.c ****     size_t newsize = 0;
 377:../../iot_link/cJSON/cJSON.c **** 
 378:../../iot_link/cJSON/cJSON.c ****     if ((p == NULL) || (p->buffer == NULL))
 379:../../iot_link/cJSON/cJSON.c ****     {
 380:../../iot_link/cJSON/cJSON.c ****         return NULL;
 381:../../iot_link/cJSON/cJSON.c ****     }
 382:../../iot_link/cJSON/cJSON.c **** 
 383:../../iot_link/cJSON/cJSON.c ****     if ((p->length > 0) && (p->offset >= p->length))
 384:../../iot_link/cJSON/cJSON.c ****     {
 385:../../iot_link/cJSON/cJSON.c ****         /* make sure that offset is valid */
 386:../../iot_link/cJSON/cJSON.c ****         return NULL;
 387:../../iot_link/cJSON/cJSON.c ****     }
 388:../../iot_link/cJSON/cJSON.c **** 
 389:../../iot_link/cJSON/cJSON.c ****     if (needed > INT_MAX)
 390:../../iot_link/cJSON/cJSON.c ****     {
 391:../../iot_link/cJSON/cJSON.c ****         /* sizes bigger than INT_MAX are currently not supported */
 392:../../iot_link/cJSON/cJSON.c ****         return NULL;
 393:../../iot_link/cJSON/cJSON.c ****     }
 394:../../iot_link/cJSON/cJSON.c **** 
 395:../../iot_link/cJSON/cJSON.c ****     needed += p->offset + 1;
 396:../../iot_link/cJSON/cJSON.c ****     if (needed <= p->length)
 397:../../iot_link/cJSON/cJSON.c ****     {
 398:../../iot_link/cJSON/cJSON.c ****         return p->buffer + p->offset;
 399:../../iot_link/cJSON/cJSON.c ****     }
 400:../../iot_link/cJSON/cJSON.c **** 
 401:../../iot_link/cJSON/cJSON.c ****     if (p->noalloc) {
 402:../../iot_link/cJSON/cJSON.c ****         return NULL;
 403:../../iot_link/cJSON/cJSON.c ****     }
 404:../../iot_link/cJSON/cJSON.c **** 
 405:../../iot_link/cJSON/cJSON.c ****     /* calculate new buffer size */
 406:../../iot_link/cJSON/cJSON.c ****     if (needed > (INT_MAX / 2))
 407:../../iot_link/cJSON/cJSON.c ****     {
 408:../../iot_link/cJSON/cJSON.c ****         /* overflow of int, use INT_MAX if possible */
 409:../../iot_link/cJSON/cJSON.c ****         if (needed <= INT_MAX)
 410:../../iot_link/cJSON/cJSON.c ****         {
 411:../../iot_link/cJSON/cJSON.c ****             newsize = INT_MAX;
 412:../../iot_link/cJSON/cJSON.c ****         }
 413:../../iot_link/cJSON/cJSON.c ****         else
 414:../../iot_link/cJSON/cJSON.c ****         {
 415:../../iot_link/cJSON/cJSON.c ****             return NULL;
 416:../../iot_link/cJSON/cJSON.c ****         }
 417:../../iot_link/cJSON/cJSON.c ****     }
 418:../../iot_link/cJSON/cJSON.c ****     else
 419:../../iot_link/cJSON/cJSON.c ****     {
 420:../../iot_link/cJSON/cJSON.c ****         newsize = needed * 2;
 421:../../iot_link/cJSON/cJSON.c ****     }
 422:../../iot_link/cJSON/cJSON.c **** 
 423:../../iot_link/cJSON/cJSON.c ****     if (p->hooks.reallocate != NULL)
 424:../../iot_link/cJSON/cJSON.c ****     {
 425:../../iot_link/cJSON/cJSON.c ****         /* reallocate with realloc if available */
 426:../../iot_link/cJSON/cJSON.c ****         newbuffer = (unsigned char*)p->hooks.reallocate(p->buffer, newsize);
 427:../../iot_link/cJSON/cJSON.c ****         if (newbuffer == NULL)
 428:../../iot_link/cJSON/cJSON.c ****         {
 429:../../iot_link/cJSON/cJSON.c ****             p->hooks.deallocate(p->buffer);
 430:../../iot_link/cJSON/cJSON.c ****             p->length = 0;
 431:../../iot_link/cJSON/cJSON.c ****             p->buffer = NULL;
ARM GAS  C:\Users\LuckyE\AppData\Local\Temp\ccgn9LZs.s 			page 9


 432:../../iot_link/cJSON/cJSON.c **** 
 433:../../iot_link/cJSON/cJSON.c ****             return NULL;
 434:../../iot_link/cJSON/cJSON.c ****         }
 435:../../iot_link/cJSON/cJSON.c ****     }
 436:../../iot_link/cJSON/cJSON.c ****     else
 437:../../iot_link/cJSON/cJSON.c ****     {
 438:../../iot_link/cJSON/cJSON.c ****         /* otherwise reallocate manually */
 439:../../iot_link/cJSON/cJSON.c ****         newbuffer = (unsigned char*)p->hooks.allocate(newsize);
 440:../../iot_link/cJSON/cJSON.c ****         if (!newbuffer)
 441:../../iot_link/cJSON/cJSON.c ****         {
 442:../../iot_link/cJSON/cJSON.c ****             p->hooks.deallocate(p->buffer);
 443:../../iot_link/cJSON/cJSON.c ****             p->length = 0;
 444:../../iot_link/cJSON/cJSON.c ****             p->buffer = NULL;
 445:../../iot_link/cJSON/cJSON.c **** 
 446:../../iot_link/cJSON/cJSON.c ****             return NULL;
 447:../../iot_link/cJSON/cJSON.c ****         }
 448:../../iot_link/cJSON/cJSON.c ****         if (newbuffer)
 449:../../iot_link/cJSON/cJSON.c ****         {
 450:../../iot_link/cJSON/cJSON.c ****             (void) memcpy(newbuffer, p->buffer, p->offset + 1);
 451:../../iot_link/cJSON/cJSON.c ****         }
 452:../../iot_link/cJSON/cJSON.c ****         p->hooks.deallocate(p->buffer);
 453:../../iot_link/cJSON/cJSON.c ****     }
 454:../../iot_link/cJSON/cJSON.c ****     p->length = newsize;
 455:../../iot_link/cJSON/cJSON.c ****     p->buffer = newbuffer;
 456:../../iot_link/cJSON/cJSON.c **** 
 457:../../iot_link/cJSON/cJSON.c ****     return newbuffer + p->offset;
 458:../../iot_link/cJSON/cJSON.c **** }
 459:../../iot_link/cJSON/cJSON.c **** 
 460:../../iot_link/cJSON/cJSON.c **** /* calculate the new length of the string in a printbuffer and update the offset */
 461:../../iot_link/cJSON/cJSON.c **** static void update_offset(printbuffer * const buffer)
 462:../../iot_link/cJSON/cJSON.c **** {
 463:../../iot_link/cJSON/cJSON.c ****     const unsigned char *buffer_pointer = NULL;
 464:../../iot_link/cJSON/cJSON.c ****     if ((buffer == NULL) || (buffer->buffer == NULL))
 465:../../iot_link/cJSON/cJSON.c ****     {
 466:../../iot_link/cJSON/cJSON.c ****         return;
 467:../../iot_link/cJSON/cJSON.c ****     }
 468:../../iot_link/cJSON/cJSON.c ****     buffer_pointer = buffer->buffer + buffer->offset;
 469:../../iot_link/cJSON/cJSON.c **** 
 470:../../iot_link/cJSON/cJSON.c ****     buffer->offset += strlen((const char*)buffer_pointer);
 471:../../iot_link/cJSON/cJSON.c **** }
 472:../../iot_link/cJSON/cJSON.c **** 
 473:../../iot_link/cJSON/cJSON.c **** /* Render the number nicely from the given item into a string. */
 474:../../iot_link/cJSON/cJSON.c **** static cJSON_bool print_number(const cJSON * const item, printbuffer * const output_buffer)
 475:../../iot_link/cJSON/cJSON.c **** {
 476:../../iot_link/cJSON/cJSON.c ****     unsigned char *output_pointer = NULL;
 477:../../iot_link/cJSON/cJSON.c ****     double d = item->valuedouble;
 478:../../iot_link/cJSON/cJSON.c ****     int length = 0;
 479:../../iot_link/cJSON/cJSON.c ****     size_t i = 0;
 480:../../iot_link/cJSON/cJSON.c ****     unsigned char number_buffer[26]; /* temporary buffer to print the number into */
 481:../../iot_link/cJSON/cJSON.c ****     unsigned char decimal_point = get_decimal_point();
 482:../../iot_link/cJSON/cJSON.c ****     double test;
 483:../../iot_link/cJSON/cJSON.c **** 
 484:../../iot_link/cJSON/cJSON.c ****     if (output_buffer == NULL)
 485:../../iot_link/cJSON/cJSON.c ****     {
 486:../../iot_link/cJSON/cJSON.c ****         return false;
 487:../../iot_link/cJSON/cJSON.c ****     }
 488:../../iot_link/cJSON/cJSON.c **** 
ARM GAS  C:\Users\LuckyE\AppData\Local\Temp\ccgn9LZs.s 			page 10


 489:../../iot_link/cJSON/cJSON.c ****     /* This checks for NaN and Infinity */
 490:../../iot_link/cJSON/cJSON.c ****     if ((d * 0) != 0)
 491:../../iot_link/cJSON/cJSON.c ****     {
 492:../../iot_link/cJSON/cJSON.c ****         length = sprintf((char*)number_buffer, "null");
 493:../../iot_link/cJSON/cJSON.c ****     }
 494:../../iot_link/cJSON/cJSON.c ****     else
 495:../../iot_link/cJSON/cJSON.c ****     {
 496:../../iot_link/cJSON/cJSON.c ****         /* Try 15 decimal places of precision to avoid nonsignificant nonzero digits */
 497:../../iot_link/cJSON/cJSON.c ****         length = sprintf((char*)number_buffer, "%1.15g", d);
 498:../../iot_link/cJSON/cJSON.c **** 
 499:../../iot_link/cJSON/cJSON.c ****         /* Check whether the original double can be recovered */
 500:../../iot_link/cJSON/cJSON.c ****         if ((sscanf((char*)number_buffer, "%lg", &test) != 1) || ((double)test != d))
 501:../../iot_link/cJSON/cJSON.c ****         {
 502:../../iot_link/cJSON/cJSON.c ****             /* If not, print with 17 decimal places of precision */
 503:../../iot_link/cJSON/cJSON.c ****             length = sprintf((char*)number_buffer, "%1.17g", d);
 504:../../iot_link/cJSON/cJSON.c ****         }
 505:../../iot_link/cJSON/cJSON.c ****     }
 506:../../iot_link/cJSON/cJSON.c **** 
 507:../../iot_link/cJSON/cJSON.c ****     /* sprintf failed or buffer overrun occured */
 508:../../iot_link/cJSON/cJSON.c ****     if ((length < 0) || (length > (int)(sizeof(number_buffer) - 1)))
 509:../../iot_link/cJSON/cJSON.c ****     {
 510:../../iot_link/cJSON/cJSON.c ****         return false;
 511:../../iot_link/cJSON/cJSON.c ****     }
 512:../../iot_link/cJSON/cJSON.c **** 
 513:../../iot_link/cJSON/cJSON.c ****     /* reserve appropriate space in the output */
 514:../../iot_link/cJSON/cJSON.c ****     output_pointer = ensure(output_buffer, (size_t)length + sizeof(""));
 515:../../iot_link/cJSON/cJSON.c ****     if (output_pointer == NULL)
 516:../../iot_link/cJSON/cJSON.c ****     {
 517:../../iot_link/cJSON/cJSON.c ****         return false;
 518:../../iot_link/cJSON/cJSON.c ****     }
 519:../../iot_link/cJSON/cJSON.c **** 
 520:../../iot_link/cJSON/cJSON.c ****     /* copy the printed number to the output and replace locale
 521:../../iot_link/cJSON/cJSON.c ****      * dependent decimal point with '.' */
 522:../../iot_link/cJSON/cJSON.c ****     for (i = 0; i < ((size_t)length); i++)
 523:../../iot_link/cJSON/cJSON.c ****     {
 524:../../iot_link/cJSON/cJSON.c ****         if (number_buffer[i] == decimal_point)
 525:../../iot_link/cJSON/cJSON.c ****         {
 526:../../iot_link/cJSON/cJSON.c ****             output_pointer[i] = '.';
 527:../../iot_link/cJSON/cJSON.c ****             continue;
 528:../../iot_link/cJSON/cJSON.c ****         }
 529:../../iot_link/cJSON/cJSON.c **** 
 530:../../iot_link/cJSON/cJSON.c ****         output_pointer[i] = number_buffer[i];
 531:../../iot_link/cJSON/cJSON.c ****     }
 532:../../iot_link/cJSON/cJSON.c ****     output_pointer[i] = '\0';
 533:../../iot_link/cJSON/cJSON.c **** 
 534:../../iot_link/cJSON/cJSON.c ****     output_buffer->offset += (size_t)length;
 535:../../iot_link/cJSON/cJSON.c **** 
 536:../../iot_link/cJSON/cJSON.c ****     return true;
 537:../../iot_link/cJSON/cJSON.c **** }
 538:../../iot_link/cJSON/cJSON.c **** 
 539:../../iot_link/cJSON/cJSON.c **** /* parse 4 digit hexadecimal number */
 540:../../iot_link/cJSON/cJSON.c **** static unsigned parse_hex4(const unsigned char * const input)
 541:../../iot_link/cJSON/cJSON.c **** {
  27              		.loc 1 541 0
  28              		.cfi_startproc
  29              		@ args = 0, pretend = 0, frame = 0
  30              		@ frame_needed = 0, uses_anonymous_args = 0
ARM GAS  C:\Users\LuckyE\AppData\Local\Temp\ccgn9LZs.s 			page 11


  31              	.LVL0:
  32 0000 10B5     		push	{r4, lr}
  33              	.LCFI0:
  34              		.cfi_def_cfa_offset 8
  35              		.cfi_offset 4, -8
  36              		.cfi_offset 14, -4
 542:../../iot_link/cJSON/cJSON.c ****     unsigned int h = 0;
 543:../../iot_link/cJSON/cJSON.c ****     size_t i = 0;
 544:../../iot_link/cJSON/cJSON.c **** 
 545:../../iot_link/cJSON/cJSON.c ****     for (i = 0; i < 4; i++)
  37              		.loc 1 545 0
  38 0002 0022     		movs	r2, #0
 542:../../iot_link/cJSON/cJSON.c ****     unsigned int h = 0;
  39              		.loc 1 542 0
  40 0004 1346     		mov	r3, r2
  41              	.LVL1:
  42              	.L7:
 546:../../iot_link/cJSON/cJSON.c ****     {
 547:../../iot_link/cJSON/cJSON.c ****         /* parse digit */
 548:../../iot_link/cJSON/cJSON.c ****         if ((input[i] >= '0') && (input[i] <= '9'))
  43              		.loc 1 548 0
  44 0006 815C     		ldrb	r1, [r0, r2]	@ zero_extendqisi2
  45 0008 A1F13004 		sub	r4, r1, #48
  46 000c 092C     		cmp	r4, #9
  47 000e 0AD8     		bhi	.L2
  48 0010 303B     		subs	r3, r3, #48
  49              	.LVL2:
  50              	.L13:
 549:../../iot_link/cJSON/cJSON.c ****         {
 550:../../iot_link/cJSON/cJSON.c ****             h += (unsigned int) input[i] - '0';
 551:../../iot_link/cJSON/cJSON.c ****         }
 552:../../iot_link/cJSON/cJSON.c ****         else if ((input[i] >= 'A') && (input[i] <= 'F'))
 553:../../iot_link/cJSON/cJSON.c ****         {
 554:../../iot_link/cJSON/cJSON.c ****             h += (unsigned int) 10 + input[i] - 'A';
 555:../../iot_link/cJSON/cJSON.c ****         }
 556:../../iot_link/cJSON/cJSON.c ****         else if ((input[i] >= 'a') && (input[i] <= 'f'))
 557:../../iot_link/cJSON/cJSON.c ****         {
 558:../../iot_link/cJSON/cJSON.c ****             h += (unsigned int) 10 + input[i] - 'a';
 559:../../iot_link/cJSON/cJSON.c ****         }
 560:../../iot_link/cJSON/cJSON.c ****         else /* invalid */
 561:../../iot_link/cJSON/cJSON.c ****         {
 562:../../iot_link/cJSON/cJSON.c ****             return 0;
 563:../../iot_link/cJSON/cJSON.c ****         }
 564:../../iot_link/cJSON/cJSON.c **** 
 565:../../iot_link/cJSON/cJSON.c ****         if (i < 3)
  51              		.loc 1 565 0
  52 0012 032A     		cmp	r2, #3
 558:../../iot_link/cJSON/cJSON.c ****         }
  53              		.loc 1 558 0
  54 0014 0B44     		add	r3, r3, r1
  55              	.LVL3:
 545:../../iot_link/cJSON/cJSON.c ****     {
  56              		.loc 1 545 0
  57 0016 02F10102 		add	r2, r2, #1
  58              	.LVL4:
 566:../../iot_link/cJSON/cJSON.c ****         {
 567:../../iot_link/cJSON/cJSON.c ****             /* shift left to make place for the next nibble */
ARM GAS  C:\Users\LuckyE\AppData\Local\Temp\ccgn9LZs.s 			page 12


 568:../../iot_link/cJSON/cJSON.c ****             h = h << 4;
  59              		.loc 1 568 0
  60 001a 18BF     		it	ne
  61 001c 1B01     		lslne	r3, r3, #4
  62              	.LVL5:
 545:../../iot_link/cJSON/cJSON.c ****     {
  63              		.loc 1 545 0
  64 001e 042A     		cmp	r2, #4
  65 0020 F1D1     		bne	.L7
  66              	.LVL6:
  67              	.L1:
 569:../../iot_link/cJSON/cJSON.c ****         }
 570:../../iot_link/cJSON/cJSON.c ****     }
 571:../../iot_link/cJSON/cJSON.c **** 
 572:../../iot_link/cJSON/cJSON.c ****     return h;
 573:../../iot_link/cJSON/cJSON.c **** }
  68              		.loc 1 573 0
  69 0022 1846     		mov	r0, r3
  70              	.LVL7:
  71 0024 10BD     		pop	{r4, pc}
  72              	.LVL8:
  73              	.L2:
 552:../../iot_link/cJSON/cJSON.c ****         {
  74              		.loc 1 552 0
  75 0026 A1F14104 		sub	r4, r1, #65
  76 002a 052C     		cmp	r4, #5
  77 002c 01D8     		bhi	.L4
  78 002e 373B     		subs	r3, r3, #55
  79              	.LVL9:
  80 0030 EFE7     		b	.L13
  81              	.LVL10:
  82              	.L4:
 556:../../iot_link/cJSON/cJSON.c ****         {
  83              		.loc 1 556 0
  84 0032 A1F16104 		sub	r4, r1, #97
  85 0036 052C     		cmp	r4, #5
  86 0038 01D8     		bhi	.L8
  87 003a 573B     		subs	r3, r3, #87
  88              	.LVL11:
  89 003c E9E7     		b	.L13
  90              	.LVL12:
  91              	.L8:
 562:../../iot_link/cJSON/cJSON.c ****         }
  92              		.loc 1 562 0
  93 003e 0023     		movs	r3, #0
  94              	.LVL13:
  95 0040 EFE7     		b	.L1
  96              		.cfi_endproc
  97              	.LFE17:
  99              		.section	.text.parse_string,"ax",%progbits
 100              		.align	1
 101              		.syntax unified
 102              		.thumb
 103              		.thumb_func
 104              		.fpu fpv4-sp-d16
 106              	parse_string:
 107              	.LFB19:
ARM GAS  C:\Users\LuckyE\AppData\Local\Temp\ccgn9LZs.s 			page 13


 574:../../iot_link/cJSON/cJSON.c **** 
 575:../../iot_link/cJSON/cJSON.c **** /* converts a UTF-16 literal to UTF-8
 576:../../iot_link/cJSON/cJSON.c ****  * A literal can be one or two sequences of the form \uXXXX */
 577:../../iot_link/cJSON/cJSON.c **** static unsigned char utf16_literal_to_utf8(const unsigned char * const input_pointer, const unsigne
 578:../../iot_link/cJSON/cJSON.c **** {
 579:../../iot_link/cJSON/cJSON.c ****     long unsigned int codepoint = 0;
 580:../../iot_link/cJSON/cJSON.c ****     unsigned int first_code = 0;
 581:../../iot_link/cJSON/cJSON.c ****     const unsigned char *first_sequence = input_pointer;
 582:../../iot_link/cJSON/cJSON.c ****     unsigned char utf8_length = 0;
 583:../../iot_link/cJSON/cJSON.c ****     unsigned char utf8_position = 0;
 584:../../iot_link/cJSON/cJSON.c ****     unsigned char sequence_length = 0;
 585:../../iot_link/cJSON/cJSON.c ****     unsigned char first_byte_mark = 0;
 586:../../iot_link/cJSON/cJSON.c **** 
 587:../../iot_link/cJSON/cJSON.c ****     if ((input_end - first_sequence) < 6)
 588:../../iot_link/cJSON/cJSON.c ****     {
 589:../../iot_link/cJSON/cJSON.c ****         /* input ends unexpectedly */
 590:../../iot_link/cJSON/cJSON.c ****         goto fail;
 591:../../iot_link/cJSON/cJSON.c ****     }
 592:../../iot_link/cJSON/cJSON.c **** 
 593:../../iot_link/cJSON/cJSON.c ****     /* get the first utf16 sequence */
 594:../../iot_link/cJSON/cJSON.c ****     first_code = parse_hex4(first_sequence + 2);
 595:../../iot_link/cJSON/cJSON.c **** 
 596:../../iot_link/cJSON/cJSON.c ****     /* check that the code is valid */
 597:../../iot_link/cJSON/cJSON.c ****     if (((first_code >= 0xDC00) && (first_code <= 0xDFFF)))
 598:../../iot_link/cJSON/cJSON.c ****     {
 599:../../iot_link/cJSON/cJSON.c ****         goto fail;
 600:../../iot_link/cJSON/cJSON.c ****     }
 601:../../iot_link/cJSON/cJSON.c **** 
 602:../../iot_link/cJSON/cJSON.c ****     /* UTF16 surrogate pair */
 603:../../iot_link/cJSON/cJSON.c ****     if ((first_code >= 0xD800) && (first_code <= 0xDBFF))
 604:../../iot_link/cJSON/cJSON.c ****     {
 605:../../iot_link/cJSON/cJSON.c ****         const unsigned char *second_sequence = first_sequence + 6;
 606:../../iot_link/cJSON/cJSON.c ****         unsigned int second_code = 0;
 607:../../iot_link/cJSON/cJSON.c ****         sequence_length = 12; /* \uXXXX\uXXXX */
 608:../../iot_link/cJSON/cJSON.c **** 
 609:../../iot_link/cJSON/cJSON.c ****         if ((input_end - second_sequence) < 6)
 610:../../iot_link/cJSON/cJSON.c ****         {
 611:../../iot_link/cJSON/cJSON.c ****             /* input ends unexpectedly */
 612:../../iot_link/cJSON/cJSON.c ****             goto fail;
 613:../../iot_link/cJSON/cJSON.c ****         }
 614:../../iot_link/cJSON/cJSON.c **** 
 615:../../iot_link/cJSON/cJSON.c ****         if ((second_sequence[0] != '\\') || (second_sequence[1] != 'u'))
 616:../../iot_link/cJSON/cJSON.c ****         {
 617:../../iot_link/cJSON/cJSON.c ****             /* missing second half of the surrogate pair */
 618:../../iot_link/cJSON/cJSON.c ****             goto fail;
 619:../../iot_link/cJSON/cJSON.c ****         }
 620:../../iot_link/cJSON/cJSON.c **** 
 621:../../iot_link/cJSON/cJSON.c ****         /* get the second utf16 sequence */
 622:../../iot_link/cJSON/cJSON.c ****         second_code = parse_hex4(second_sequence + 2);
 623:../../iot_link/cJSON/cJSON.c ****         /* check that the code is valid */
 624:../../iot_link/cJSON/cJSON.c ****         if ((second_code < 0xDC00) || (second_code > 0xDFFF))
 625:../../iot_link/cJSON/cJSON.c ****         {
 626:../../iot_link/cJSON/cJSON.c ****             /* invalid second half of the surrogate pair */
 627:../../iot_link/cJSON/cJSON.c ****             goto fail;
 628:../../iot_link/cJSON/cJSON.c ****         }
 629:../../iot_link/cJSON/cJSON.c **** 
 630:../../iot_link/cJSON/cJSON.c **** 
ARM GAS  C:\Users\LuckyE\AppData\Local\Temp\ccgn9LZs.s 			page 14


 631:../../iot_link/cJSON/cJSON.c ****         /* calculate the unicode codepoint from the surrogate pair */
 632:../../iot_link/cJSON/cJSON.c ****         codepoint = 0x10000 + (((first_code & 0x3FF) << 10) | (second_code & 0x3FF));
 633:../../iot_link/cJSON/cJSON.c ****     }
 634:../../iot_link/cJSON/cJSON.c ****     else
 635:../../iot_link/cJSON/cJSON.c ****     {
 636:../../iot_link/cJSON/cJSON.c ****         sequence_length = 6; /* \uXXXX */
 637:../../iot_link/cJSON/cJSON.c ****         codepoint = first_code;
 638:../../iot_link/cJSON/cJSON.c ****     }
 639:../../iot_link/cJSON/cJSON.c **** 
 640:../../iot_link/cJSON/cJSON.c ****     /* encode as UTF-8
 641:../../iot_link/cJSON/cJSON.c ****      * takes at maximum 4 bytes to encode:
 642:../../iot_link/cJSON/cJSON.c ****      * 11110xxx 10xxxxxx 10xxxxxx 10xxxxxx */
 643:../../iot_link/cJSON/cJSON.c ****     if (codepoint < 0x80)
 644:../../iot_link/cJSON/cJSON.c ****     {
 645:../../iot_link/cJSON/cJSON.c ****         /* normal ascii, encoding 0xxxxxxx */
 646:../../iot_link/cJSON/cJSON.c ****         utf8_length = 1;
 647:../../iot_link/cJSON/cJSON.c ****     }
 648:../../iot_link/cJSON/cJSON.c ****     else if (codepoint < 0x800)
 649:../../iot_link/cJSON/cJSON.c ****     {
 650:../../iot_link/cJSON/cJSON.c ****         /* two bytes, encoding 110xxxxx 10xxxxxx */
 651:../../iot_link/cJSON/cJSON.c ****         utf8_length = 2;
 652:../../iot_link/cJSON/cJSON.c ****         first_byte_mark = 0xC0; /* 11000000 */
 653:../../iot_link/cJSON/cJSON.c ****     }
 654:../../iot_link/cJSON/cJSON.c ****     else if (codepoint < 0x10000)
 655:../../iot_link/cJSON/cJSON.c ****     {
 656:../../iot_link/cJSON/cJSON.c ****         /* three bytes, encoding 1110xxxx 10xxxxxx 10xxxxxx */
 657:../../iot_link/cJSON/cJSON.c ****         utf8_length = 3;
 658:../../iot_link/cJSON/cJSON.c ****         first_byte_mark = 0xE0; /* 11100000 */
 659:../../iot_link/cJSON/cJSON.c ****     }
 660:../../iot_link/cJSON/cJSON.c ****     else if (codepoint <= 0x10FFFF)
 661:../../iot_link/cJSON/cJSON.c ****     {
 662:../../iot_link/cJSON/cJSON.c ****         /* four bytes, encoding 1110xxxx 10xxxxxx 10xxxxxx 10xxxxxx */
 663:../../iot_link/cJSON/cJSON.c ****         utf8_length = 4;
 664:../../iot_link/cJSON/cJSON.c ****         first_byte_mark = 0xF0; /* 11110000 */
 665:../../iot_link/cJSON/cJSON.c ****     }
 666:../../iot_link/cJSON/cJSON.c ****     else
 667:../../iot_link/cJSON/cJSON.c ****     {
 668:../../iot_link/cJSON/cJSON.c ****         /* invalid unicode codepoint */
 669:../../iot_link/cJSON/cJSON.c ****         goto fail;
 670:../../iot_link/cJSON/cJSON.c ****     }
 671:../../iot_link/cJSON/cJSON.c **** 
 672:../../iot_link/cJSON/cJSON.c ****     /* encode as utf8 */
 673:../../iot_link/cJSON/cJSON.c ****     for (utf8_position = (unsigned char)(utf8_length - 1); utf8_position > 0; utf8_position--)
 674:../../iot_link/cJSON/cJSON.c ****     {
 675:../../iot_link/cJSON/cJSON.c ****         /* 10xxxxxx */
 676:../../iot_link/cJSON/cJSON.c ****         (*output_pointer)[utf8_position] = (unsigned char)((codepoint | 0x80) & 0xBF);
 677:../../iot_link/cJSON/cJSON.c ****         codepoint >>= 6;
 678:../../iot_link/cJSON/cJSON.c ****     }
 679:../../iot_link/cJSON/cJSON.c ****     /* encode first byte */
 680:../../iot_link/cJSON/cJSON.c ****     if (utf8_length > 1)
 681:../../iot_link/cJSON/cJSON.c ****     {
 682:../../iot_link/cJSON/cJSON.c ****         (*output_pointer)[0] = (unsigned char)((codepoint | first_byte_mark) & 0xFF);
 683:../../iot_link/cJSON/cJSON.c ****     }
 684:../../iot_link/cJSON/cJSON.c ****     else
 685:../../iot_link/cJSON/cJSON.c ****     {
 686:../../iot_link/cJSON/cJSON.c ****         (*output_pointer)[0] = (unsigned char)(codepoint & 0x7F);
 687:../../iot_link/cJSON/cJSON.c ****     }
ARM GAS  C:\Users\LuckyE\AppData\Local\Temp\ccgn9LZs.s 			page 15


 688:../../iot_link/cJSON/cJSON.c **** 
 689:../../iot_link/cJSON/cJSON.c ****     *output_pointer += utf8_length;
 690:../../iot_link/cJSON/cJSON.c **** 
 691:../../iot_link/cJSON/cJSON.c ****     return sequence_length;
 692:../../iot_link/cJSON/cJSON.c **** 
 693:../../iot_link/cJSON/cJSON.c **** fail:
 694:../../iot_link/cJSON/cJSON.c ****     return 0;
 695:../../iot_link/cJSON/cJSON.c **** }
 696:../../iot_link/cJSON/cJSON.c **** 
 697:../../iot_link/cJSON/cJSON.c **** /* Parse the input text into an unescaped cinput, and populate item. */
 698:../../iot_link/cJSON/cJSON.c **** static cJSON_bool parse_string(cJSON * const item, parse_buffer * const input_buffer)
 699:../../iot_link/cJSON/cJSON.c **** {
 108              		.loc 1 699 0
 109              		.cfi_startproc
 110              		@ args = 0, pretend = 0, frame = 0
 111              		@ frame_needed = 0, uses_anonymous_args = 0
 112              	.LVL14:
 113 0000 2DE9F84F 		push	{r3, r4, r5, r6, r7, r8, r9, r10, fp, lr}
 114              	.LCFI1:
 115              		.cfi_def_cfa_offset 40
 116              		.cfi_offset 3, -40
 117              		.cfi_offset 4, -36
 118              		.cfi_offset 5, -32
 119              		.cfi_offset 6, -28
 120              		.cfi_offset 7, -24
 121              		.cfi_offset 8, -20
 122              		.cfi_offset 9, -16
 123              		.cfi_offset 10, -12
 124              		.cfi_offset 11, -8
 125              		.cfi_offset 14, -4
 700:../../iot_link/cJSON/cJSON.c ****     const unsigned char *input_pointer = buffer_at_offset(input_buffer) + 1;
 126              		.loc 1 700 0
 127 0004 0A68     		ldr	r2, [r1]
 128 0006 8B68     		ldr	r3, [r1, #8]
 699:../../iot_link/cJSON/cJSON.c ****     const unsigned char *input_pointer = buffer_at_offset(input_buffer) + 1;
 129              		.loc 1 699 0
 130 0008 8046     		mov	r8, r0
 131              		.loc 1 700 0
 132 000a 5D1C     		adds	r5, r3, #1
 701:../../iot_link/cJSON/cJSON.c ****     const unsigned char *input_end = buffer_at_offset(input_buffer) + 1;
 702:../../iot_link/cJSON/cJSON.c ****     unsigned char *output_pointer = NULL;
 703:../../iot_link/cJSON/cJSON.c ****     unsigned char *output = NULL;
 704:../../iot_link/cJSON/cJSON.c **** 
 705:../../iot_link/cJSON/cJSON.c ****     /* not a string */
 706:../../iot_link/cJSON/cJSON.c ****     if (buffer_at_offset(input_buffer)[0] != '\"')
 133              		.loc 1 706 0
 134 000c D018     		adds	r0, r2, r3
 135              	.LVL15:
 136 000e D35C     		ldrb	r3, [r2, r3]	@ zero_extendqisi2
 137 0010 222B     		cmp	r3, #34
 699:../../iot_link/cJSON/cJSON.c ****     const unsigned char *input_pointer = buffer_at_offset(input_buffer) + 1;
 138              		.loc 1 699 0
 139 0012 8B46     		mov	fp, r1
 700:../../iot_link/cJSON/cJSON.c ****     const unsigned char *input_end = buffer_at_offset(input_buffer) + 1;
 140              		.loc 1 700 0
 141 0014 1544     		add	r5, r5, r2
 142              	.LVL16:
ARM GAS  C:\Users\LuckyE\AppData\Local\Temp\ccgn9LZs.s 			page 16


 143              		.loc 1 706 0
 144 0016 40F0CE80 		bne	.L15
 145              	.LBB39:
 707:../../iot_link/cJSON/cJSON.c ****     {
 708:../../iot_link/cJSON/cJSON.c ****         goto fail;
 709:../../iot_link/cJSON/cJSON.c ****     }
 710:../../iot_link/cJSON/cJSON.c **** 
 711:../../iot_link/cJSON/cJSON.c ****     {
 712:../../iot_link/cJSON/cJSON.c ****         /* calculate approximate size of the output (overestimate) */
 713:../../iot_link/cJSON/cJSON.c ****         size_t allocation_length = 0;
 714:../../iot_link/cJSON/cJSON.c ****         size_t skipped_bytes = 0;
 715:../../iot_link/cJSON/cJSON.c ****         while (((size_t)(input_end - input_buffer->content) < input_buffer->length) && (*input_end 
 146              		.loc 1 715 0
 147 001a 4C68     		ldr	r4, [r1, #4]
 148              	.LBE39:
 701:../../iot_link/cJSON/cJSON.c ****     unsigned char *output_pointer = NULL;
 149              		.loc 1 701 0
 150 001c 2E46     		mov	r6, r5
 151              	.LBB40:
 714:../../iot_link/cJSON/cJSON.c ****         while (((size_t)(input_end - input_buffer->content) < input_buffer->length) && (*input_end 
 152              		.loc 1 714 0
 153 001e 0023     		movs	r3, #0
 154              	.LVL17:
 155              	.L16:
 156              		.loc 1 715 0
 157 0020 B11A     		subs	r1, r6, r2
 158 0022 A142     		cmp	r1, r4
 159 0024 80F0C780 		bcs	.L15
 160              		.loc 1 715 0 is_stmt 0 discriminator 1
 161 0028 3178     		ldrb	r1, [r6]	@ zero_extendqisi2
 162 002a 2229     		cmp	r1, #34
 163 002c 1DD1     		bne	.L18
 164              	.LVL18:
 716:../../iot_link/cJSON/cJSON.c ****         {
 717:../../iot_link/cJSON/cJSON.c ****             /* is escape sequence */
 718:../../iot_link/cJSON/cJSON.c ****             if (input_end[0] == '\\')
 719:../../iot_link/cJSON/cJSON.c ****             {
 720:../../iot_link/cJSON/cJSON.c ****                 if ((size_t)(input_end + 1 - input_buffer->content) >= input_buffer->length)
 721:../../iot_link/cJSON/cJSON.c ****                 {
 722:../../iot_link/cJSON/cJSON.c ****                     /* prevent buffer overflow when last input character is a backslash */
 723:../../iot_link/cJSON/cJSON.c ****                     goto fail;
 724:../../iot_link/cJSON/cJSON.c ****                 }
 725:../../iot_link/cJSON/cJSON.c ****                 skipped_bytes++;
 726:../../iot_link/cJSON/cJSON.c ****                 input_end++;
 727:../../iot_link/cJSON/cJSON.c ****             }
 728:../../iot_link/cJSON/cJSON.c ****             input_end++;
 729:../../iot_link/cJSON/cJSON.c ****         }
 730:../../iot_link/cJSON/cJSON.c ****         if (((size_t)(input_end - input_buffer->content) >= input_buffer->length) || (*input_end !=
 731:../../iot_link/cJSON/cJSON.c ****         {
 732:../../iot_link/cJSON/cJSON.c ****             goto fail; /* string ended unexpectedly */
 733:../../iot_link/cJSON/cJSON.c ****         }
 734:../../iot_link/cJSON/cJSON.c **** 
 735:../../iot_link/cJSON/cJSON.c ****         /* This is at most how much we need for the output */
 736:../../iot_link/cJSON/cJSON.c ****         allocation_length = (size_t) (input_end - buffer_at_offset(input_buffer)) - skipped_bytes;
 737:../../iot_link/cJSON/cJSON.c ****         output = (unsigned char*)input_buffer->hooks.allocate(allocation_length + sizeof(""));
 165              		.loc 1 737 0 is_stmt 1 discriminator 1
 166 002e C3F10103 		rsb	r3, r3, #1
ARM GAS  C:\Users\LuckyE\AppData\Local\Temp\ccgn9LZs.s 			page 17


 167              	.LVL19:
 736:../../iot_link/cJSON/cJSON.c ****         output = (unsigned char*)input_buffer->hooks.allocate(allocation_length + sizeof(""));
 168              		.loc 1 736 0 discriminator 1
 169 0032 301A     		subs	r0, r6, r0
 170              		.loc 1 737 0 discriminator 1
 171 0034 DBF81020 		ldr	r2, [fp, #16]
 172 0038 1844     		add	r0, r0, r3
 173 003a 9047     		blx	r2
 174              	.LVL20:
 738:../../iot_link/cJSON/cJSON.c ****         if (output == NULL)
 175              		.loc 1 738 0 discriminator 1
 176 003c 8146     		mov	r9, r0
 177 003e 0028     		cmp	r0, #0
 178 0040 00F0B980 		beq	.L15
 179 0044 0446     		mov	r4, r0
 180              	.LBE40:
 181              	.LBB41:
 739:../../iot_link/cJSON/cJSON.c ****         {
 740:../../iot_link/cJSON/cJSON.c ****             goto fail; /* allocation failure */
 741:../../iot_link/cJSON/cJSON.c ****         }
 742:../../iot_link/cJSON/cJSON.c ****     }
 743:../../iot_link/cJSON/cJSON.c **** 
 744:../../iot_link/cJSON/cJSON.c ****     output_pointer = output;
 745:../../iot_link/cJSON/cJSON.c ****     /* loop through the string literal */
 746:../../iot_link/cJSON/cJSON.c ****     while (input_pointer < input_end)
 747:../../iot_link/cJSON/cJSON.c ****     {
 748:../../iot_link/cJSON/cJSON.c ****         if (*input_pointer != '\\')
 749:../../iot_link/cJSON/cJSON.c ****         {
 750:../../iot_link/cJSON/cJSON.c ****             *output_pointer++ = *input_pointer++;
 751:../../iot_link/cJSON/cJSON.c ****         }
 752:../../iot_link/cJSON/cJSON.c ****         /* escape sequence */
 753:../../iot_link/cJSON/cJSON.c ****         else
 754:../../iot_link/cJSON/cJSON.c ****         {
 755:../../iot_link/cJSON/cJSON.c ****             unsigned char sequence_length = 2;
 756:../../iot_link/cJSON/cJSON.c ****             if ((input_end - input_pointer) < 1)
 757:../../iot_link/cJSON/cJSON.c ****             {
 758:../../iot_link/cJSON/cJSON.c ****                 goto fail;
 759:../../iot_link/cJSON/cJSON.c ****             }
 760:../../iot_link/cJSON/cJSON.c **** 
 761:../../iot_link/cJSON/cJSON.c ****             switch (input_pointer[1])
 762:../../iot_link/cJSON/cJSON.c ****             {
 763:../../iot_link/cJSON/cJSON.c ****                 case 'b':
 764:../../iot_link/cJSON/cJSON.c ****                     *output_pointer++ = '\b';
 765:../../iot_link/cJSON/cJSON.c ****                     break;
 766:../../iot_link/cJSON/cJSON.c ****                 case 'f':
 767:../../iot_link/cJSON/cJSON.c ****                     *output_pointer++ = '\f';
 182              		.loc 1 767 0
 183 0046 4FF00C0A 		mov	r10, #12
 184              	.LVL21:
 185              	.L19:
 186              	.LBE41:
 746:../../iot_link/cJSON/cJSON.c ****     {
 187              		.loc 1 746 0
 188 004a B542     		cmp	r5, r6
 189 004c 17D3     		bcc	.L41
 768:../../iot_link/cJSON/cJSON.c ****                     break;
 769:../../iot_link/cJSON/cJSON.c ****                 case 'n':
ARM GAS  C:\Users\LuckyE\AppData\Local\Temp\ccgn9LZs.s 			page 18


 770:../../iot_link/cJSON/cJSON.c ****                     *output_pointer++ = '\n';
 771:../../iot_link/cJSON/cJSON.c ****                     break;
 772:../../iot_link/cJSON/cJSON.c ****                 case 'r':
 773:../../iot_link/cJSON/cJSON.c ****                     *output_pointer++ = '\r';
 774:../../iot_link/cJSON/cJSON.c ****                     break;
 775:../../iot_link/cJSON/cJSON.c ****                 case 't':
 776:../../iot_link/cJSON/cJSON.c ****                     *output_pointer++ = '\t';
 777:../../iot_link/cJSON/cJSON.c ****                     break;
 778:../../iot_link/cJSON/cJSON.c ****                 case '\"':
 779:../../iot_link/cJSON/cJSON.c ****                 case '\\':
 780:../../iot_link/cJSON/cJSON.c ****                 case '/':
 781:../../iot_link/cJSON/cJSON.c ****                     *output_pointer++ = input_pointer[1];
 782:../../iot_link/cJSON/cJSON.c ****                     break;
 783:../../iot_link/cJSON/cJSON.c **** 
 784:../../iot_link/cJSON/cJSON.c ****                 /* UTF-16 literal */
 785:../../iot_link/cJSON/cJSON.c ****                 case 'u':
 786:../../iot_link/cJSON/cJSON.c ****                     sequence_length = utf16_literal_to_utf8(input_pointer, input_end, &output_point
 787:../../iot_link/cJSON/cJSON.c ****                     if (sequence_length == 0)
 788:../../iot_link/cJSON/cJSON.c ****                     {
 789:../../iot_link/cJSON/cJSON.c ****                         /* failed to convert UTF16-literal to UTF-8 */
 790:../../iot_link/cJSON/cJSON.c ****                         goto fail;
 791:../../iot_link/cJSON/cJSON.c ****                     }
 792:../../iot_link/cJSON/cJSON.c ****                     break;
 793:../../iot_link/cJSON/cJSON.c **** 
 794:../../iot_link/cJSON/cJSON.c ****                 default:
 795:../../iot_link/cJSON/cJSON.c ****                     goto fail;
 796:../../iot_link/cJSON/cJSON.c ****             }
 797:../../iot_link/cJSON/cJSON.c ****             input_pointer += sequence_length;
 798:../../iot_link/cJSON/cJSON.c ****         }
 799:../../iot_link/cJSON/cJSON.c ****     }
 800:../../iot_link/cJSON/cJSON.c **** 
 801:../../iot_link/cJSON/cJSON.c ****     /* zero terminate the output */
 802:../../iot_link/cJSON/cJSON.c ****     *output_pointer = '\0';
 190              		.loc 1 802 0
 191 004e 0023     		movs	r3, #0
 192 0050 2370     		strb	r3, [r4]
 803:../../iot_link/cJSON/cJSON.c **** 
 804:../../iot_link/cJSON/cJSON.c ****     item->type = cJSON_String;
 193              		.loc 1 804 0
 194 0052 1023     		movs	r3, #16
 805:../../iot_link/cJSON/cJSON.c ****     item->valuestring = (char*)output;
 195              		.loc 1 805 0
 196 0054 C8E90339 		strd	r3, r9, [r8, #12]
 806:../../iot_link/cJSON/cJSON.c **** 
 807:../../iot_link/cJSON/cJSON.c ****     input_buffer->offset = (size_t) (input_end - input_buffer->content);
 197              		.loc 1 807 0
 198 0058 DBF80030 		ldr	r3, [fp]
 199 005c F61A     		subs	r6, r6, r3
 200              	.LVL22:
 808:../../iot_link/cJSON/cJSON.c ****     input_buffer->offset++;
 201              		.loc 1 808 0
 202 005e 0136     		adds	r6, r6, #1
 203 0060 CBF80860 		str	r6, [fp, #8]
 809:../../iot_link/cJSON/cJSON.c **** 
 810:../../iot_link/cJSON/cJSON.c ****     return true;
 204              		.loc 1 810 0
 205 0064 0120     		movs	r0, #1
ARM GAS  C:\Users\LuckyE\AppData\Local\Temp\ccgn9LZs.s 			page 19


 206              	.LVL23:
 207              	.L14:
 811:../../iot_link/cJSON/cJSON.c **** 
 812:../../iot_link/cJSON/cJSON.c **** fail:
 813:../../iot_link/cJSON/cJSON.c ****     if (output != NULL)
 814:../../iot_link/cJSON/cJSON.c ****     {
 815:../../iot_link/cJSON/cJSON.c ****         input_buffer->hooks.deallocate(output);
 816:../../iot_link/cJSON/cJSON.c ****     }
 817:../../iot_link/cJSON/cJSON.c **** 
 818:../../iot_link/cJSON/cJSON.c ****     if (input_pointer != NULL)
 819:../../iot_link/cJSON/cJSON.c ****     {
 820:../../iot_link/cJSON/cJSON.c ****         input_buffer->offset = (size_t)(input_pointer - input_buffer->content);
 821:../../iot_link/cJSON/cJSON.c ****     }
 822:../../iot_link/cJSON/cJSON.c **** 
 823:../../iot_link/cJSON/cJSON.c ****     return false;
 824:../../iot_link/cJSON/cJSON.c **** }
 208              		.loc 1 824 0
 209 0066 BDE8F88F 		pop	{r3, r4, r5, r6, r7, r8, r9, r10, fp, pc}
 210              	.LVL24:
 211              	.L18:
 212              	.LBB47:
 718:../../iot_link/cJSON/cJSON.c ****             {
 213              		.loc 1 718 0
 214 006a 5C29     		cmp	r1, #92
 215 006c 05D1     		bne	.L17
 216 006e 0136     		adds	r6, r6, #1
 217              	.LVL25:
 720:../../iot_link/cJSON/cJSON.c ****                 {
 218              		.loc 1 720 0
 219 0070 B11A     		subs	r1, r6, r2
 220 0072 8C42     		cmp	r4, r1
 221 0074 40F29F80 		bls	.L15
 725:../../iot_link/cJSON/cJSON.c ****                 input_end++;
 222              		.loc 1 725 0
 223 0078 0133     		adds	r3, r3, #1
 224              	.LVL26:
 225              	.L17:
 728:../../iot_link/cJSON/cJSON.c ****         }
 226              		.loc 1 728 0
 227 007a 0136     		adds	r6, r6, #1
 228              	.LVL27:
 229 007c D0E7     		b	.L16
 230              	.LVL28:
 231              	.L41:
 232              	.LBE47:
 748:../../iot_link/cJSON/cJSON.c ****         {
 233              		.loc 1 748 0
 234 007e 2B78     		ldrb	r3, [r5]	@ zero_extendqisi2
 235 0080 5C2B     		cmp	r3, #92
 236 0082 03D0     		beq	.L20
 750:../../iot_link/cJSON/cJSON.c ****         }
 237              		.loc 1 750 0
 238 0084 2370     		strb	r3, [r4]
 239 0086 0135     		adds	r5, r5, #1
 240              	.LVL29:
 241 0088 0134     		adds	r4, r4, #1
 242              	.LVL30:
ARM GAS  C:\Users\LuckyE\AppData\Local\Temp\ccgn9LZs.s 			page 20


 243 008a DEE7     		b	.L19
 244              	.L20:
 245              	.LVL31:
 246              	.LBB48:
 756:../../iot_link/cJSON/cJSON.c ****             {
 247              		.loc 1 756 0
 248 008c 721B     		subs	r2, r6, r5
 249 008e 002A     		cmp	r2, #0
 250 0090 08DD     		ble	.L22
 761:../../iot_link/cJSON/cJSON.c ****             {
 251              		.loc 1 761 0
 252 0092 6B78     		ldrb	r3, [r5, #1]	@ zero_extendqisi2
 253 0094 662B     		cmp	r3, #102
 254 0096 67D0     		beq	.L23
 255 0098 16D8     		bhi	.L24
 256 009a 2F2B     		cmp	r3, #47
 257 009c 12D0     		beq	.L25
 258 009e 0CD8     		bhi	.L26
 259 00a0 222B     		cmp	r3, #34
 260 00a2 0FD0     		beq	.L25
 261              	.L22:
 262              	.LBE48:
 815:../../iot_link/cJSON/cJSON.c ****     }
 263              		.loc 1 815 0
 264 00a4 DBF81430 		ldr	r3, [fp, #20]
 265 00a8 4846     		mov	r0, r9
 266 00aa 9847     		blx	r3
 267              	.LVL32:
 268              	.L43:
 820:../../iot_link/cJSON/cJSON.c ****     }
 269              		.loc 1 820 0
 270 00ac DBF80000 		ldr	r0, [fp]
 271 00b0 281A     		subs	r0, r5, r0
 272 00b2 CBF80800 		str	r0, [fp, #8]
 823:../../iot_link/cJSON/cJSON.c **** }
 273              		.loc 1 823 0
 274 00b6 0020     		movs	r0, #0
 275 00b8 D5E7     		b	.L14
 276              	.LVL33:
 277              	.L26:
 278              	.LBB49:
 761:../../iot_link/cJSON/cJSON.c ****             {
 279              		.loc 1 761 0
 280 00ba 5C2B     		cmp	r3, #92
 281 00bc 02D0     		beq	.L25
 282 00be 622B     		cmp	r3, #98
 283 00c0 F0D1     		bne	.L22
 284              	.LVL34:
 764:../../iot_link/cJSON/cJSON.c ****                     break;
 285              		.loc 1 764 0
 286 00c2 0823     		movs	r3, #8
 287              	.LVL35:
 288              	.L25:
 781:../../iot_link/cJSON/cJSON.c ****                     break;
 289              		.loc 1 781 0
 290 00c4 2370     		strb	r3, [r4]
 291 00c6 51E0     		b	.L61
ARM GAS  C:\Users\LuckyE\AppData\Local\Temp\ccgn9LZs.s 			page 21


 292              	.LVL36:
 293              	.L24:
 761:../../iot_link/cJSON/cJSON.c ****             {
 294              		.loc 1 761 0
 295 00c8 722B     		cmp	r3, #114
 296 00ca 53D0     		beq	.L28
 297 00cc 03D8     		bhi	.L29
 298 00ce 6E2B     		cmp	r3, #110
 299 00d0 E8D1     		bne	.L22
 300              	.LVL37:
 770:../../iot_link/cJSON/cJSON.c ****                     break;
 301              		.loc 1 770 0
 302 00d2 0A23     		movs	r3, #10
 303 00d4 F6E7     		b	.L25
 304              	.LVL38:
 305              	.L29:
 761:../../iot_link/cJSON/cJSON.c ****             {
 306              		.loc 1 761 0
 307 00d6 742B     		cmp	r3, #116
 308 00d8 4FD0     		beq	.L31
 309 00da 752B     		cmp	r3, #117
 310 00dc E2D1     		bne	.L22
 311              	.LVL39:
 312              	.LBB42:
 313              	.LBB43:
 587:../../iot_link/cJSON/cJSON.c ****     {
 314              		.loc 1 587 0
 315 00de 052A     		cmp	r2, #5
 316 00e0 E0DD     		ble	.L22
 594:../../iot_link/cJSON/cJSON.c **** 
 317              		.loc 1 594 0
 318 00e2 A81C     		adds	r0, r5, #2
 319 00e4 FFF7FEFF 		bl	parse_hex4
 320              	.LVL40:
 597:../../iot_link/cJSON/cJSON.c ****     {
 321              		.loc 1 597 0
 322 00e8 A0F55C43 		sub	r3, r0, #56320
 323 00ec B3F5806F 		cmp	r3, #1024
 594:../../iot_link/cJSON/cJSON.c **** 
 324              		.loc 1 594 0
 325 00f0 0746     		mov	r7, r0
 326              	.LVL41:
 597:../../iot_link/cJSON/cJSON.c ****     {
 327              		.loc 1 597 0
 328 00f2 D7D3     		bcc	.L22
 603:../../iot_link/cJSON/cJSON.c ****     {
 329              		.loc 1 603 0
 330 00f4 A0F55843 		sub	r3, r0, #55296
 331 00f8 B3F5806F 		cmp	r3, #1024
 332 00fc 40D2     		bcs	.L34
 333              	.LVL42:
 334              	.LBB44:
 605:../../iot_link/cJSON/cJSON.c ****         unsigned int second_code = 0;
 335              		.loc 1 605 0
 336 00fe AB1D     		adds	r3, r5, #6
 337              	.LVL43:
 609:../../iot_link/cJSON/cJSON.c ****         {
ARM GAS  C:\Users\LuckyE\AppData\Local\Temp\ccgn9LZs.s 			page 22


 338              		.loc 1 609 0
 339 0100 F31A     		subs	r3, r6, r3
 340              	.LVL44:
 341 0102 052B     		cmp	r3, #5
 342 0104 CEDD     		ble	.L22
 615:../../iot_link/cJSON/cJSON.c ****         {
 343              		.loc 1 615 0
 344 0106 AB79     		ldrb	r3, [r5, #6]	@ zero_extendqisi2
 345 0108 5C2B     		cmp	r3, #92
 346 010a CBD1     		bne	.L22
 347 010c EB79     		ldrb	r3, [r5, #7]	@ zero_extendqisi2
 348 010e 752B     		cmp	r3, #117
 349 0110 C8D1     		bne	.L22
 622:../../iot_link/cJSON/cJSON.c ****         /* check that the code is valid */
 350              		.loc 1 622 0
 351 0112 05F10800 		add	r0, r5, #8
 352              	.LVL45:
 353 0116 FFF7FEFF 		bl	parse_hex4
 354              	.LVL46:
 624:../../iot_link/cJSON/cJSON.c ****         {
 355              		.loc 1 624 0
 356 011a A0F55C43 		sub	r3, r0, #56320
 357 011e B3F5806F 		cmp	r3, #1024
 358 0122 BFD2     		bcs	.L22
 632:../../iot_link/cJSON/cJSON.c ****     }
 359              		.loc 1 632 0
 360 0124 264B     		ldr	r3, .L62
 361 0126 C0F30900 		ubfx	r0, r0, #0, #10
 362              	.LVL47:
 363 012a 03EA8727 		and	r7, r3, r7, lsl #10
 364              	.LVL48:
 365 012e 3843     		orrs	r0, r0, r7
 366 0130 00F58037 		add	r7, r0, #65536
 367              	.LVL49:
 607:../../iot_link/cJSON/cJSON.c **** 
 368              		.loc 1 607 0
 369 0134 0C23     		movs	r3, #12
 370              	.LVL50:
 371              	.L35:
 372              	.LBE44:
 654:../../iot_link/cJSON/cJSON.c ****     {
 373              		.loc 1 654 0
 374 0136 B7F5803F 		cmp	r7, #65536
 375 013a 30D3     		bcc	.L46
 660:../../iot_link/cJSON/cJSON.c ****     {
 376              		.loc 1 660 0
 377 013c 214A     		ldr	r2, .L62+4
 378 013e 9742     		cmp	r7, r2
 379 0140 B0D8     		bhi	.L22
 664:../../iot_link/cJSON/cJSON.c ****     }
 380              		.loc 1 664 0
 381 0142 4FF0F00C 		mov	ip, #240
 663:../../iot_link/cJSON/cJSON.c ****         first_byte_mark = 0xF0; /* 11110000 */
 382              		.loc 1 663 0
 383 0146 0420     		movs	r0, #4
 384              	.LVL51:
 385              	.L36:
ARM GAS  C:\Users\LuckyE\AppData\Local\Temp\ccgn9LZs.s 			page 23


 673:../../iot_link/cJSON/cJSON.c ****     {
 386              		.loc 1 673 0
 387 0148 00F1FF3E 		add	lr, r0, #-1
 388 014c 54FA8EFE 		uxtab	lr, r4, lr
 389              	.LVL52:
 390              	.L37:
 391 0150 A645     		cmp	lr, r4
 392 0152 FAB2     		uxtb	r2, r7
 393 0154 27D1     		bne	.L38
 680:../../iot_link/cJSON/cJSON.c ****     {
 394              		.loc 1 680 0
 395 0156 0128     		cmp	r0, #1
 682:../../iot_link/cJSON/cJSON.c ****     }
 396              		.loc 1 682 0
 397 0158 14BF     		ite	ne
 398 015a 42EA0C02 		orrne	r2, r2, ip
 686:../../iot_link/cJSON/cJSON.c ****     }
 399              		.loc 1 686 0
 400 015e 02F07F02 		andeq	r2, r2, #127
 401 0162 2270     		strb	r2, [r4]
 689:../../iot_link/cJSON/cJSON.c **** 
 402              		.loc 1 689 0
 403 0164 0444     		add	r4, r4, r0
 404              	.LVL53:
 405              	.LBE43:
 406              	.LBE42:
 407 0166 03E0     		b	.L33
 408              	.LVL54:
 409              	.L23:
 767:../../iot_link/cJSON/cJSON.c ****                     break;
 410              		.loc 1 767 0
 411 0168 84F800A0 		strb	r10, [r4]
 412              	.LVL55:
 413              	.L61:
 414 016c 0134     		adds	r4, r4, #1
 755:../../iot_link/cJSON/cJSON.c ****             if ((input_end - input_pointer) < 1)
 415              		.loc 1 755 0
 416 016e 0223     		movs	r3, #2
 417              	.LVL56:
 418              	.L33:
 797:../../iot_link/cJSON/cJSON.c ****         }
 419              		.loc 1 797 0
 420 0170 1D44     		add	r5, r5, r3
 421              	.LVL57:
 422 0172 6AE7     		b	.L19
 423              	.LVL58:
 424              	.L28:
 773:../../iot_link/cJSON/cJSON.c ****                     break;
 425              		.loc 1 773 0
 426 0174 4FF00D03 		mov	r3, #13
 427 0178 A4E7     		b	.L25
 428              	.LVL59:
 429              	.L31:
 776:../../iot_link/cJSON/cJSON.c ****                     break;
 430              		.loc 1 776 0
 431 017a 4FF00903 		mov	r3, #9
 432 017e A1E7     		b	.L25
ARM GAS  C:\Users\LuckyE\AppData\Local\Temp\ccgn9LZs.s 			page 24


 433              	.LVL60:
 434              	.L34:
 435              	.LBB46:
 436              	.LBB45:
 643:../../iot_link/cJSON/cJSON.c ****     {
 437              		.loc 1 643 0
 438 0180 7F28     		cmp	r0, #127
 636:../../iot_link/cJSON/cJSON.c ****         codepoint = first_code;
 439              		.loc 1 636 0
 440 0182 4FF00603 		mov	r3, #6
 643:../../iot_link/cJSON/cJSON.c ****     {
 441              		.loc 1 643 0
 442 0186 06D9     		bls	.L44
 648:../../iot_link/cJSON/cJSON.c ****     {
 443              		.loc 1 648 0
 444 0188 B0F5006F 		cmp	r0, #2048
 445 018c D3D2     		bcs	.L35
 652:../../iot_link/cJSON/cJSON.c ****     }
 446              		.loc 1 652 0
 447 018e 4FF0C00C 		mov	ip, #192
 651:../../iot_link/cJSON/cJSON.c ****         first_byte_mark = 0xC0; /* 11000000 */
 448              		.loc 1 651 0
 449 0192 0220     		movs	r0, #2
 450              	.LVL61:
 451 0194 D8E7     		b	.L36
 452              	.LVL62:
 453              	.L44:
 585:../../iot_link/cJSON/cJSON.c **** 
 454              		.loc 1 585 0
 455 0196 4FF0000C 		mov	ip, #0
 646:../../iot_link/cJSON/cJSON.c ****     }
 456              		.loc 1 646 0
 457 019a 0120     		movs	r0, #1
 458              	.LVL63:
 459 019c D4E7     		b	.L36
 460              	.LVL64:
 461              	.L46:
 658:../../iot_link/cJSON/cJSON.c ****     }
 462              		.loc 1 658 0
 463 019e 4FF0E00C 		mov	ip, #224
 657:../../iot_link/cJSON/cJSON.c ****         first_byte_mark = 0xE0; /* 11100000 */
 464              		.loc 1 657 0
 465 01a2 0320     		movs	r0, #3
 466 01a4 D0E7     		b	.L36
 467              	.LVL65:
 468              	.L38:
 676:../../iot_link/cJSON/cJSON.c ****         codepoint >>= 6;
 469              		.loc 1 676 0
 470 01a6 02F03F02 		and	r2, r2, #63
 471 01aa 62F07F02 		orn	r2, r2, #127
 472 01ae 0EF80129 		strb	r2, [lr], #-1
 677:../../iot_link/cJSON/cJSON.c ****     }
 473              		.loc 1 677 0
 474 01b2 BF09     		lsrs	r7, r7, #6
 475              	.LVL66:
 476 01b4 CCE7     		b	.L37
 477              	.LVL67:
ARM GAS  C:\Users\LuckyE\AppData\Local\Temp\ccgn9LZs.s 			page 25


 478              	.L15:
 479              	.LBE45:
 480              	.LBE46:
 481              	.LBE49:
 818:../../iot_link/cJSON/cJSON.c ****     {
 482              		.loc 1 818 0
 483 01b6 002D     		cmp	r5, #0
 484 01b8 7FF478AF 		bne	.L43
 823:../../iot_link/cJSON/cJSON.c **** }
 485              		.loc 1 823 0
 486 01bc 2846     		mov	r0, r5
 487              	.LVL68:
 488 01be 52E7     		b	.L14
 489              	.L63:
 490              		.align	2
 491              	.L62:
 492 01c0 00FC0F00 		.word	1047552
 493 01c4 FFFF1000 		.word	1114111
 494              		.cfi_endproc
 495              	.LFE19:
 497              		.section	.text.buffer_skip_whitespace,"ax",%progbits
 498              		.align	1
 499              		.syntax unified
 500              		.thumb
 501              		.thumb_func
 502              		.fpu fpv4-sp-d16
 504              	buffer_skip_whitespace:
 505              	.LFB22:
 825:../../iot_link/cJSON/cJSON.c **** 
 826:../../iot_link/cJSON/cJSON.c **** /* Render the cstring provided to an escaped version that can be printed. */
 827:../../iot_link/cJSON/cJSON.c **** static cJSON_bool print_string_ptr(const unsigned char * const input, printbuffer * const output_bu
 828:../../iot_link/cJSON/cJSON.c **** {
 829:../../iot_link/cJSON/cJSON.c ****     const unsigned char *input_pointer = NULL;
 830:../../iot_link/cJSON/cJSON.c ****     unsigned char *output = NULL;
 831:../../iot_link/cJSON/cJSON.c ****     unsigned char *output_pointer = NULL;
 832:../../iot_link/cJSON/cJSON.c ****     size_t output_length = 0;
 833:../../iot_link/cJSON/cJSON.c ****     /* numbers of additional characters needed for escaping */
 834:../../iot_link/cJSON/cJSON.c ****     size_t escape_characters = 0;
 835:../../iot_link/cJSON/cJSON.c **** 
 836:../../iot_link/cJSON/cJSON.c ****     if (output_buffer == NULL)
 837:../../iot_link/cJSON/cJSON.c ****     {
 838:../../iot_link/cJSON/cJSON.c ****         return false;
 839:../../iot_link/cJSON/cJSON.c ****     }
 840:../../iot_link/cJSON/cJSON.c **** 
 841:../../iot_link/cJSON/cJSON.c ****     /* empty string */
 842:../../iot_link/cJSON/cJSON.c ****     if (input == NULL)
 843:../../iot_link/cJSON/cJSON.c ****     {
 844:../../iot_link/cJSON/cJSON.c ****         output = ensure(output_buffer, sizeof("\"\""));
 845:../../iot_link/cJSON/cJSON.c ****         if (output == NULL)
 846:../../iot_link/cJSON/cJSON.c ****         {
 847:../../iot_link/cJSON/cJSON.c ****             return false;
 848:../../iot_link/cJSON/cJSON.c ****         }
 849:../../iot_link/cJSON/cJSON.c ****         strcpy((char*)output, "\"\"");
 850:../../iot_link/cJSON/cJSON.c **** 
 851:../../iot_link/cJSON/cJSON.c ****         return true;
 852:../../iot_link/cJSON/cJSON.c ****     }
 853:../../iot_link/cJSON/cJSON.c **** 
ARM GAS  C:\Users\LuckyE\AppData\Local\Temp\ccgn9LZs.s 			page 26


 854:../../iot_link/cJSON/cJSON.c ****     /* set "flag" to 1 if something needs to be escaped */
 855:../../iot_link/cJSON/cJSON.c ****     for (input_pointer = input; *input_pointer; input_pointer++)
 856:../../iot_link/cJSON/cJSON.c ****     {
 857:../../iot_link/cJSON/cJSON.c ****         switch (*input_pointer)
 858:../../iot_link/cJSON/cJSON.c ****         {
 859:../../iot_link/cJSON/cJSON.c ****             case '\"':
 860:../../iot_link/cJSON/cJSON.c ****             case '\\':
 861:../../iot_link/cJSON/cJSON.c ****             case '\b':
 862:../../iot_link/cJSON/cJSON.c ****             case '\f':
 863:../../iot_link/cJSON/cJSON.c ****             case '\n':
 864:../../iot_link/cJSON/cJSON.c ****             case '\r':
 865:../../iot_link/cJSON/cJSON.c ****             case '\t':
 866:../../iot_link/cJSON/cJSON.c ****                 /* one character escape sequence */
 867:../../iot_link/cJSON/cJSON.c ****                 escape_characters++;
 868:../../iot_link/cJSON/cJSON.c ****                 break;
 869:../../iot_link/cJSON/cJSON.c ****             default:
 870:../../iot_link/cJSON/cJSON.c ****                 if (*input_pointer < 32)
 871:../../iot_link/cJSON/cJSON.c ****                 {
 872:../../iot_link/cJSON/cJSON.c ****                     /* UTF-16 escape sequence uXXXX */
 873:../../iot_link/cJSON/cJSON.c ****                     escape_characters += 5;
 874:../../iot_link/cJSON/cJSON.c ****                 }
 875:../../iot_link/cJSON/cJSON.c ****                 break;
 876:../../iot_link/cJSON/cJSON.c ****         }
 877:../../iot_link/cJSON/cJSON.c ****     }
 878:../../iot_link/cJSON/cJSON.c ****     output_length = (size_t)(input_pointer - input) + escape_characters;
 879:../../iot_link/cJSON/cJSON.c **** 
 880:../../iot_link/cJSON/cJSON.c ****     output = ensure(output_buffer, output_length + sizeof("\"\""));
 881:../../iot_link/cJSON/cJSON.c ****     if (output == NULL)
 882:../../iot_link/cJSON/cJSON.c ****     {
 883:../../iot_link/cJSON/cJSON.c ****         return false;
 884:../../iot_link/cJSON/cJSON.c ****     }
 885:../../iot_link/cJSON/cJSON.c **** 
 886:../../iot_link/cJSON/cJSON.c ****     /* no characters have to be escaped */
 887:../../iot_link/cJSON/cJSON.c ****     if (escape_characters == 0)
 888:../../iot_link/cJSON/cJSON.c ****     {
 889:../../iot_link/cJSON/cJSON.c ****         output[0] = '\"';
 890:../../iot_link/cJSON/cJSON.c ****         (void) memcpy(output + 1, input, output_length);
 891:../../iot_link/cJSON/cJSON.c ****         output[output_length + 1] = '\"';
 892:../../iot_link/cJSON/cJSON.c ****         output[output_length + 2] = '\0';
 893:../../iot_link/cJSON/cJSON.c **** 
 894:../../iot_link/cJSON/cJSON.c ****         return true;
 895:../../iot_link/cJSON/cJSON.c ****     }
 896:../../iot_link/cJSON/cJSON.c **** 
 897:../../iot_link/cJSON/cJSON.c ****     output[0] = '\"';
 898:../../iot_link/cJSON/cJSON.c ****     output_pointer = output + 1;
 899:../../iot_link/cJSON/cJSON.c ****     /* copy the string */
 900:../../iot_link/cJSON/cJSON.c ****     for (input_pointer = input; *input_pointer != '\0'; (void)input_pointer++, output_pointer++)
 901:../../iot_link/cJSON/cJSON.c ****     {
 902:../../iot_link/cJSON/cJSON.c ****         if ((*input_pointer > 31) && (*input_pointer != '\"') && (*input_pointer != '\\'))
 903:../../iot_link/cJSON/cJSON.c ****         {
 904:../../iot_link/cJSON/cJSON.c ****             /* normal character, copy */
 905:../../iot_link/cJSON/cJSON.c ****             *output_pointer = *input_pointer;
 906:../../iot_link/cJSON/cJSON.c ****         }
 907:../../iot_link/cJSON/cJSON.c ****         else
 908:../../iot_link/cJSON/cJSON.c ****         {
 909:../../iot_link/cJSON/cJSON.c ****             /* character needs to be escaped */
 910:../../iot_link/cJSON/cJSON.c ****             *output_pointer++ = '\\';
ARM GAS  C:\Users\LuckyE\AppData\Local\Temp\ccgn9LZs.s 			page 27


 911:../../iot_link/cJSON/cJSON.c ****             switch (*input_pointer)
 912:../../iot_link/cJSON/cJSON.c ****             {
 913:../../iot_link/cJSON/cJSON.c ****                 case '\\':
 914:../../iot_link/cJSON/cJSON.c ****                     *output_pointer = '\\';
 915:../../iot_link/cJSON/cJSON.c ****                     break;
 916:../../iot_link/cJSON/cJSON.c ****                 case '\"':
 917:../../iot_link/cJSON/cJSON.c ****                     *output_pointer = '\"';
 918:../../iot_link/cJSON/cJSON.c ****                     break;
 919:../../iot_link/cJSON/cJSON.c ****                 case '\b':
 920:../../iot_link/cJSON/cJSON.c ****                     *output_pointer = 'b';
 921:../../iot_link/cJSON/cJSON.c ****                     break;
 922:../../iot_link/cJSON/cJSON.c ****                 case '\f':
 923:../../iot_link/cJSON/cJSON.c ****                     *output_pointer = 'f';
 924:../../iot_link/cJSON/cJSON.c ****                     break;
 925:../../iot_link/cJSON/cJSON.c ****                 case '\n':
 926:../../iot_link/cJSON/cJSON.c ****                     *output_pointer = 'n';
 927:../../iot_link/cJSON/cJSON.c ****                     break;
 928:../../iot_link/cJSON/cJSON.c ****                 case '\r':
 929:../../iot_link/cJSON/cJSON.c ****                     *output_pointer = 'r';
 930:../../iot_link/cJSON/cJSON.c ****                     break;
 931:../../iot_link/cJSON/cJSON.c ****                 case '\t':
 932:../../iot_link/cJSON/cJSON.c ****                     *output_pointer = 't';
 933:../../iot_link/cJSON/cJSON.c ****                     break;
 934:../../iot_link/cJSON/cJSON.c ****                 default:
 935:../../iot_link/cJSON/cJSON.c ****                     /* escape and print as unicode codepoint */
 936:../../iot_link/cJSON/cJSON.c ****                     sprintf((char*)output_pointer, "u%04x", *input_pointer);
 937:../../iot_link/cJSON/cJSON.c ****                     output_pointer += 4;
 938:../../iot_link/cJSON/cJSON.c ****                     break;
 939:../../iot_link/cJSON/cJSON.c ****             }
 940:../../iot_link/cJSON/cJSON.c ****         }
 941:../../iot_link/cJSON/cJSON.c ****     }
 942:../../iot_link/cJSON/cJSON.c ****     output[output_length + 1] = '\"';
 943:../../iot_link/cJSON/cJSON.c ****     output[output_length + 2] = '\0';
 944:../../iot_link/cJSON/cJSON.c **** 
 945:../../iot_link/cJSON/cJSON.c ****     return true;
 946:../../iot_link/cJSON/cJSON.c **** }
 947:../../iot_link/cJSON/cJSON.c **** 
 948:../../iot_link/cJSON/cJSON.c **** /* Invoke print_string_ptr (which is useful) on an item. */
 949:../../iot_link/cJSON/cJSON.c **** static cJSON_bool print_string(const cJSON * const item, printbuffer * const p)
 950:../../iot_link/cJSON/cJSON.c **** {
 951:../../iot_link/cJSON/cJSON.c ****     return print_string_ptr((unsigned char*)item->valuestring, p);
 952:../../iot_link/cJSON/cJSON.c **** }
 953:../../iot_link/cJSON/cJSON.c **** 
 954:../../iot_link/cJSON/cJSON.c **** /* Predeclare these prototypes. */
 955:../../iot_link/cJSON/cJSON.c **** static cJSON_bool parse_value(cJSON * const item, parse_buffer * const input_buffer);
 956:../../iot_link/cJSON/cJSON.c **** static cJSON_bool print_value(const cJSON * const item, printbuffer * const output_buffer);
 957:../../iot_link/cJSON/cJSON.c **** static cJSON_bool parse_array(cJSON * const item, parse_buffer * const input_buffer);
 958:../../iot_link/cJSON/cJSON.c **** static cJSON_bool print_array(const cJSON * const item, printbuffer * const output_buffer);
 959:../../iot_link/cJSON/cJSON.c **** static cJSON_bool parse_object(cJSON * const item, parse_buffer * const input_buffer);
 960:../../iot_link/cJSON/cJSON.c **** static cJSON_bool print_object(const cJSON * const item, printbuffer * const output_buffer);
 961:../../iot_link/cJSON/cJSON.c **** 
 962:../../iot_link/cJSON/cJSON.c **** /* Utility to jump whitespace and cr/lf */
 963:../../iot_link/cJSON/cJSON.c **** static parse_buffer *buffer_skip_whitespace(parse_buffer * const buffer)
 964:../../iot_link/cJSON/cJSON.c **** {
 506              		.loc 1 964 0
 507              		.cfi_startproc
 508              		@ args = 0, pretend = 0, frame = 0
ARM GAS  C:\Users\LuckyE\AppData\Local\Temp\ccgn9LZs.s 			page 28


 509              		@ frame_needed = 0, uses_anonymous_args = 0
 510              	.LVL69:
 511 0000 10B5     		push	{r4, lr}
 512              	.LCFI2:
 513              		.cfi_def_cfa_offset 8
 514              		.cfi_offset 4, -8
 515              		.cfi_offset 14, -4
 965:../../iot_link/cJSON/cJSON.c ****     if ((buffer == NULL) || (buffer->content == NULL))
 516              		.loc 1 965 0
 517 0002 40B1     		cbz	r0, .L65
 518              		.loc 1 965 0 is_stmt 0 discriminator 1
 519 0004 0168     		ldr	r1, [r0]
 520 0006 71B1     		cbz	r1, .L70
 966:../../iot_link/cJSON/cJSON.c ****     {
 967:../../iot_link/cJSON/cJSON.c ****         return NULL;
 968:../../iot_link/cJSON/cJSON.c ****     }
 969:../../iot_link/cJSON/cJSON.c **** 
 970:../../iot_link/cJSON/cJSON.c ****     while (can_access_at_index(buffer, 0) && (buffer_at_offset(buffer)[0] <= 32))
 521              		.loc 1 970 0 is_stmt 1
 522 0008 4268     		ldr	r2, [r0, #4]
 523              	.L66:
 524 000a 8368     		ldr	r3, [r0, #8]
 525 000c 9342     		cmp	r3, r2
 526 000e 06D2     		bcs	.L67
 527              		.loc 1 970 0 is_stmt 0 discriminator 2
 528 0010 CC5C     		ldrb	r4, [r1, r3]	@ zero_extendqisi2
 529 0012 202C     		cmp	r4, #32
 530 0014 00D9     		bls	.L68
 531              	.LVL70:
 532              	.L65:
 971:../../iot_link/cJSON/cJSON.c ****     {
 972:../../iot_link/cJSON/cJSON.c ****        buffer->offset++;
 973:../../iot_link/cJSON/cJSON.c ****     }
 974:../../iot_link/cJSON/cJSON.c **** 
 975:../../iot_link/cJSON/cJSON.c ****     if (buffer->offset == buffer->length)
 976:../../iot_link/cJSON/cJSON.c ****     {
 977:../../iot_link/cJSON/cJSON.c ****         buffer->offset--;
 978:../../iot_link/cJSON/cJSON.c ****     }
 979:../../iot_link/cJSON/cJSON.c **** 
 980:../../iot_link/cJSON/cJSON.c ****     return buffer;
 981:../../iot_link/cJSON/cJSON.c **** }
 533              		.loc 1 981 0 is_stmt 1
 534 0016 10BD     		pop	{r4, pc}
 535              	.LVL71:
 536              	.L68:
 972:../../iot_link/cJSON/cJSON.c ****     }
 537              		.loc 1 972 0
 538 0018 0133     		adds	r3, r3, #1
 539 001a 8360     		str	r3, [r0, #8]
 540 001c F5E7     		b	.L66
 541              	.L67:
 975:../../iot_link/cJSON/cJSON.c ****     {
 542              		.loc 1 975 0
 543 001e FAD1     		bne	.L65
 977:../../iot_link/cJSON/cJSON.c ****     }
 544              		.loc 1 977 0
 545 0020 013A     		subs	r2, r2, #1
ARM GAS  C:\Users\LuckyE\AppData\Local\Temp\ccgn9LZs.s 			page 29


 546 0022 8260     		str	r2, [r0, #8]
 547 0024 F7E7     		b	.L65
 548              	.L70:
 967:../../iot_link/cJSON/cJSON.c ****     }
 549              		.loc 1 967 0
 550 0026 0846     		mov	r0, r1
 551              	.LVL72:
 552 0028 F5E7     		b	.L65
 553              		.cfi_endproc
 554              	.LFE22:
 556              		.section	.text.get_array_item,"ax",%progbits
 557              		.align	1
 558              		.syntax unified
 559              		.thumb
 560              		.thumb_func
 561              		.fpu fpv4-sp-d16
 563              	get_array_item:
 564              	.LFB38:
 982:../../iot_link/cJSON/cJSON.c **** 
 983:../../iot_link/cJSON/cJSON.c **** /* skip the UTF-8 BOM (byte order mark) if it is at the beginning of a buffer */
 984:../../iot_link/cJSON/cJSON.c **** static parse_buffer *skip_utf8_bom(parse_buffer * const buffer)
 985:../../iot_link/cJSON/cJSON.c **** {
 986:../../iot_link/cJSON/cJSON.c ****     if ((buffer == NULL) || (buffer->content == NULL) || (buffer->offset != 0))
 987:../../iot_link/cJSON/cJSON.c ****     {
 988:../../iot_link/cJSON/cJSON.c ****         return NULL;
 989:../../iot_link/cJSON/cJSON.c ****     }
 990:../../iot_link/cJSON/cJSON.c **** 
 991:../../iot_link/cJSON/cJSON.c ****     if (can_access_at_index(buffer, 4) && (strncmp((const char*)buffer_at_offset(buffer), "\xEF\xBB
 992:../../iot_link/cJSON/cJSON.c ****     {
 993:../../iot_link/cJSON/cJSON.c ****         buffer->offset += 3;
 994:../../iot_link/cJSON/cJSON.c ****     }
 995:../../iot_link/cJSON/cJSON.c **** 
 996:../../iot_link/cJSON/cJSON.c ****     return buffer;
 997:../../iot_link/cJSON/cJSON.c **** }
 998:../../iot_link/cJSON/cJSON.c **** 
 999:../../iot_link/cJSON/cJSON.c **** /* Parse an object - create a new root, and populate. */
1000:../../iot_link/cJSON/cJSON.c **** CJSON_PUBLIC(cJSON *) cJSON_ParseWithOpts(const char *value, const char **return_parse_end, cJSON_b
1001:../../iot_link/cJSON/cJSON.c **** {
1002:../../iot_link/cJSON/cJSON.c ****     parse_buffer buffer = { 0, 0, 0, 0, { 0, 0, 0 } };
1003:../../iot_link/cJSON/cJSON.c ****     cJSON *item = NULL;
1004:../../iot_link/cJSON/cJSON.c **** 
1005:../../iot_link/cJSON/cJSON.c ****     /* reset error position */
1006:../../iot_link/cJSON/cJSON.c ****     global_error.json = NULL;
1007:../../iot_link/cJSON/cJSON.c ****     global_error.position = 0;
1008:../../iot_link/cJSON/cJSON.c **** 
1009:../../iot_link/cJSON/cJSON.c ****     if (value == NULL)
1010:../../iot_link/cJSON/cJSON.c ****     {
1011:../../iot_link/cJSON/cJSON.c ****         goto fail;
1012:../../iot_link/cJSON/cJSON.c ****     }
1013:../../iot_link/cJSON/cJSON.c **** 
1014:../../iot_link/cJSON/cJSON.c ****     buffer.content = (const unsigned char*)value;
1015:../../iot_link/cJSON/cJSON.c ****     buffer.length = strlen((const char*)value) + sizeof("");
1016:../../iot_link/cJSON/cJSON.c ****     buffer.offset = 0;
1017:../../iot_link/cJSON/cJSON.c ****     buffer.hooks = global_hooks;
1018:../../iot_link/cJSON/cJSON.c **** 
1019:../../iot_link/cJSON/cJSON.c ****     item = cJSON_New_Item(&global_hooks);
1020:../../iot_link/cJSON/cJSON.c ****     if (item == NULL) /* memory fail */
ARM GAS  C:\Users\LuckyE\AppData\Local\Temp\ccgn9LZs.s 			page 30


1021:../../iot_link/cJSON/cJSON.c ****     {
1022:../../iot_link/cJSON/cJSON.c ****         goto fail;
1023:../../iot_link/cJSON/cJSON.c ****     }
1024:../../iot_link/cJSON/cJSON.c **** 
1025:../../iot_link/cJSON/cJSON.c ****     if (!parse_value(item, buffer_skip_whitespace(skip_utf8_bom(&buffer))))
1026:../../iot_link/cJSON/cJSON.c ****     {
1027:../../iot_link/cJSON/cJSON.c ****         /* parse failure. ep is set. */
1028:../../iot_link/cJSON/cJSON.c ****         goto fail;
1029:../../iot_link/cJSON/cJSON.c ****     }
1030:../../iot_link/cJSON/cJSON.c **** 
1031:../../iot_link/cJSON/cJSON.c ****     /* if we require null-terminated JSON without appended garbage, skip and then check for a null 
1032:../../iot_link/cJSON/cJSON.c ****     if (require_null_terminated)
1033:../../iot_link/cJSON/cJSON.c ****     {
1034:../../iot_link/cJSON/cJSON.c ****         buffer_skip_whitespace(&buffer);
1035:../../iot_link/cJSON/cJSON.c ****         if ((buffer.offset >= buffer.length) || buffer_at_offset(&buffer)[0] != '\0')
1036:../../iot_link/cJSON/cJSON.c ****         {
1037:../../iot_link/cJSON/cJSON.c ****             goto fail;
1038:../../iot_link/cJSON/cJSON.c ****         }
1039:../../iot_link/cJSON/cJSON.c ****     }
1040:../../iot_link/cJSON/cJSON.c ****     if (return_parse_end)
1041:../../iot_link/cJSON/cJSON.c ****     {
1042:../../iot_link/cJSON/cJSON.c ****         *return_parse_end = (const char*)buffer_at_offset(&buffer);
1043:../../iot_link/cJSON/cJSON.c ****     }
1044:../../iot_link/cJSON/cJSON.c **** 
1045:../../iot_link/cJSON/cJSON.c ****     return item;
1046:../../iot_link/cJSON/cJSON.c **** 
1047:../../iot_link/cJSON/cJSON.c **** fail:
1048:../../iot_link/cJSON/cJSON.c ****     if (item != NULL)
1049:../../iot_link/cJSON/cJSON.c ****     {
1050:../../iot_link/cJSON/cJSON.c ****         cJSON_Delete(item);
1051:../../iot_link/cJSON/cJSON.c ****     }
1052:../../iot_link/cJSON/cJSON.c **** 
1053:../../iot_link/cJSON/cJSON.c ****     if (value != NULL)
1054:../../iot_link/cJSON/cJSON.c ****     {
1055:../../iot_link/cJSON/cJSON.c ****         error local_error;
1056:../../iot_link/cJSON/cJSON.c ****         local_error.json = (const unsigned char*)value;
1057:../../iot_link/cJSON/cJSON.c ****         local_error.position = 0;
1058:../../iot_link/cJSON/cJSON.c **** 
1059:../../iot_link/cJSON/cJSON.c ****         if (buffer.offset < buffer.length)
1060:../../iot_link/cJSON/cJSON.c ****         {
1061:../../iot_link/cJSON/cJSON.c ****             local_error.position = buffer.offset;
1062:../../iot_link/cJSON/cJSON.c ****         }
1063:../../iot_link/cJSON/cJSON.c ****         else if (buffer.length > 0)
1064:../../iot_link/cJSON/cJSON.c ****         {
1065:../../iot_link/cJSON/cJSON.c ****             local_error.position = buffer.length - 1;
1066:../../iot_link/cJSON/cJSON.c ****         }
1067:../../iot_link/cJSON/cJSON.c **** 
1068:../../iot_link/cJSON/cJSON.c ****         if (return_parse_end != NULL)
1069:../../iot_link/cJSON/cJSON.c ****         {
1070:../../iot_link/cJSON/cJSON.c ****             *return_parse_end = (const char*)local_error.json + local_error.position;
1071:../../iot_link/cJSON/cJSON.c ****         }
1072:../../iot_link/cJSON/cJSON.c **** 
1073:../../iot_link/cJSON/cJSON.c ****         global_error = local_error;
1074:../../iot_link/cJSON/cJSON.c ****     }
1075:../../iot_link/cJSON/cJSON.c **** 
1076:../../iot_link/cJSON/cJSON.c ****     return NULL;
1077:../../iot_link/cJSON/cJSON.c **** }
ARM GAS  C:\Users\LuckyE\AppData\Local\Temp\ccgn9LZs.s 			page 31


1078:../../iot_link/cJSON/cJSON.c **** 
1079:../../iot_link/cJSON/cJSON.c **** /* Default options for cJSON_Parse */
1080:../../iot_link/cJSON/cJSON.c **** CJSON_PUBLIC(cJSON *) cJSON_Parse(const char *value)
1081:../../iot_link/cJSON/cJSON.c **** {
1082:../../iot_link/cJSON/cJSON.c ****     return cJSON_ParseWithOpts(value, 0, 0);
1083:../../iot_link/cJSON/cJSON.c **** }
1084:../../iot_link/cJSON/cJSON.c **** 
1085:../../iot_link/cJSON/cJSON.c **** #define cjson_min(a, b) ((a < b) ? a : b)
1086:../../iot_link/cJSON/cJSON.c **** 
1087:../../iot_link/cJSON/cJSON.c **** static unsigned char *print(const cJSON * const item, cJSON_bool format, const internal_hooks * con
1088:../../iot_link/cJSON/cJSON.c **** {
1089:../../iot_link/cJSON/cJSON.c ****     static const size_t default_buffer_size = 256;
1090:../../iot_link/cJSON/cJSON.c ****     printbuffer buffer[1];
1091:../../iot_link/cJSON/cJSON.c ****     unsigned char *printed = NULL;
1092:../../iot_link/cJSON/cJSON.c **** 
1093:../../iot_link/cJSON/cJSON.c ****     memset(buffer, 0, sizeof(buffer));
1094:../../iot_link/cJSON/cJSON.c **** 
1095:../../iot_link/cJSON/cJSON.c ****     /* create buffer */
1096:../../iot_link/cJSON/cJSON.c ****     buffer->buffer = (unsigned char*) hooks->allocate(default_buffer_size);
1097:../../iot_link/cJSON/cJSON.c ****     buffer->length = default_buffer_size;
1098:../../iot_link/cJSON/cJSON.c ****     buffer->format = format;
1099:../../iot_link/cJSON/cJSON.c ****     buffer->hooks = *hooks;
1100:../../iot_link/cJSON/cJSON.c ****     if (buffer->buffer == NULL)
1101:../../iot_link/cJSON/cJSON.c ****     {
1102:../../iot_link/cJSON/cJSON.c ****         goto fail;
1103:../../iot_link/cJSON/cJSON.c ****     }
1104:../../iot_link/cJSON/cJSON.c **** 
1105:../../iot_link/cJSON/cJSON.c ****     /* print the value */
1106:../../iot_link/cJSON/cJSON.c ****     if (!print_value(item, buffer))
1107:../../iot_link/cJSON/cJSON.c ****     {
1108:../../iot_link/cJSON/cJSON.c ****         goto fail;
1109:../../iot_link/cJSON/cJSON.c ****     }
1110:../../iot_link/cJSON/cJSON.c ****     update_offset(buffer);
1111:../../iot_link/cJSON/cJSON.c **** 
1112:../../iot_link/cJSON/cJSON.c ****     /* check if reallocate is available */
1113:../../iot_link/cJSON/cJSON.c ****     if (hooks->reallocate != NULL)
1114:../../iot_link/cJSON/cJSON.c ****     {
1115:../../iot_link/cJSON/cJSON.c ****         printed = (unsigned char*) hooks->reallocate(buffer->buffer, buffer->offset + 1);
1116:../../iot_link/cJSON/cJSON.c ****         if (printed == NULL) {
1117:../../iot_link/cJSON/cJSON.c ****             goto fail;
1118:../../iot_link/cJSON/cJSON.c ****         }
1119:../../iot_link/cJSON/cJSON.c ****         buffer->buffer = NULL;
1120:../../iot_link/cJSON/cJSON.c ****     }
1121:../../iot_link/cJSON/cJSON.c ****     else /* otherwise copy the JSON over to a new buffer */
1122:../../iot_link/cJSON/cJSON.c ****     {
1123:../../iot_link/cJSON/cJSON.c ****         printed = (unsigned char*) hooks->allocate(buffer->offset + 1);
1124:../../iot_link/cJSON/cJSON.c ****         if (printed == NULL)
1125:../../iot_link/cJSON/cJSON.c ****         {
1126:../../iot_link/cJSON/cJSON.c ****             goto fail;
1127:../../iot_link/cJSON/cJSON.c ****         }
1128:../../iot_link/cJSON/cJSON.c ****         (void) memcpy(printed, buffer->buffer, cjson_min(buffer->length, buffer->offset + 1));
1129:../../iot_link/cJSON/cJSON.c ****         printed[buffer->offset] = '\0'; /* just to be sure */
1130:../../iot_link/cJSON/cJSON.c **** 
1131:../../iot_link/cJSON/cJSON.c ****         /* free the buffer */
1132:../../iot_link/cJSON/cJSON.c ****         hooks->deallocate(buffer->buffer);
1133:../../iot_link/cJSON/cJSON.c ****     }
1134:../../iot_link/cJSON/cJSON.c **** 
ARM GAS  C:\Users\LuckyE\AppData\Local\Temp\ccgn9LZs.s 			page 32


1135:../../iot_link/cJSON/cJSON.c ****     return printed;
1136:../../iot_link/cJSON/cJSON.c **** 
1137:../../iot_link/cJSON/cJSON.c **** fail:
1138:../../iot_link/cJSON/cJSON.c ****     if (buffer->buffer != NULL)
1139:../../iot_link/cJSON/cJSON.c ****     {
1140:../../iot_link/cJSON/cJSON.c ****         hooks->deallocate(buffer->buffer);
1141:../../iot_link/cJSON/cJSON.c ****     }
1142:../../iot_link/cJSON/cJSON.c **** 
1143:../../iot_link/cJSON/cJSON.c ****     if (printed != NULL)
1144:../../iot_link/cJSON/cJSON.c ****     {
1145:../../iot_link/cJSON/cJSON.c ****         hooks->deallocate(printed);
1146:../../iot_link/cJSON/cJSON.c ****     }
1147:../../iot_link/cJSON/cJSON.c **** 
1148:../../iot_link/cJSON/cJSON.c ****     return NULL;
1149:../../iot_link/cJSON/cJSON.c **** }
1150:../../iot_link/cJSON/cJSON.c **** 
1151:../../iot_link/cJSON/cJSON.c **** /* Render a cJSON item/entity/structure to text. */
1152:../../iot_link/cJSON/cJSON.c **** CJSON_PUBLIC(char *) cJSON_Print(const cJSON *item)
1153:../../iot_link/cJSON/cJSON.c **** {
1154:../../iot_link/cJSON/cJSON.c ****     return (char*)print(item, true, &global_hooks);
1155:../../iot_link/cJSON/cJSON.c **** }
1156:../../iot_link/cJSON/cJSON.c **** 
1157:../../iot_link/cJSON/cJSON.c **** CJSON_PUBLIC(char *) cJSON_PrintUnformatted(const cJSON *item)
1158:../../iot_link/cJSON/cJSON.c **** {
1159:../../iot_link/cJSON/cJSON.c ****     return (char*)print(item, false, &global_hooks);
1160:../../iot_link/cJSON/cJSON.c **** }
1161:../../iot_link/cJSON/cJSON.c **** 
1162:../../iot_link/cJSON/cJSON.c **** CJSON_PUBLIC(char *) cJSON_PrintBuffered(const cJSON *item, int prebuffer, cJSON_bool fmt)
1163:../../iot_link/cJSON/cJSON.c **** {
1164:../../iot_link/cJSON/cJSON.c ****     printbuffer p = { 0, 0, 0, 0, 0, 0, { 0, 0, 0 } };
1165:../../iot_link/cJSON/cJSON.c **** 
1166:../../iot_link/cJSON/cJSON.c ****     if (prebuffer < 0)
1167:../../iot_link/cJSON/cJSON.c ****     {
1168:../../iot_link/cJSON/cJSON.c ****         return NULL;
1169:../../iot_link/cJSON/cJSON.c ****     }
1170:../../iot_link/cJSON/cJSON.c **** 
1171:../../iot_link/cJSON/cJSON.c ****     p.buffer = (unsigned char*)global_hooks.allocate((size_t)prebuffer);
1172:../../iot_link/cJSON/cJSON.c ****     if (!p.buffer)
1173:../../iot_link/cJSON/cJSON.c ****     {
1174:../../iot_link/cJSON/cJSON.c ****         return NULL;
1175:../../iot_link/cJSON/cJSON.c ****     }
1176:../../iot_link/cJSON/cJSON.c **** 
1177:../../iot_link/cJSON/cJSON.c ****     p.length = (size_t)prebuffer;
1178:../../iot_link/cJSON/cJSON.c ****     p.offset = 0;
1179:../../iot_link/cJSON/cJSON.c ****     p.noalloc = false;
1180:../../iot_link/cJSON/cJSON.c ****     p.format = fmt;
1181:../../iot_link/cJSON/cJSON.c ****     p.hooks = global_hooks;
1182:../../iot_link/cJSON/cJSON.c **** 
1183:../../iot_link/cJSON/cJSON.c ****     if (!print_value(item, &p))
1184:../../iot_link/cJSON/cJSON.c ****     {
1185:../../iot_link/cJSON/cJSON.c ****         global_hooks.deallocate(p.buffer);
1186:../../iot_link/cJSON/cJSON.c ****         return NULL;
1187:../../iot_link/cJSON/cJSON.c ****     }
1188:../../iot_link/cJSON/cJSON.c **** 
1189:../../iot_link/cJSON/cJSON.c ****     return (char*)p.buffer;
1190:../../iot_link/cJSON/cJSON.c **** }
1191:../../iot_link/cJSON/cJSON.c **** 
ARM GAS  C:\Users\LuckyE\AppData\Local\Temp\ccgn9LZs.s 			page 33


1192:../../iot_link/cJSON/cJSON.c **** CJSON_PUBLIC(cJSON_bool) cJSON_PrintPreallocated(cJSON *item, char *buf, const int len, const cJSON
1193:../../iot_link/cJSON/cJSON.c **** {
1194:../../iot_link/cJSON/cJSON.c ****     printbuffer p = { 0, 0, 0, 0, 0, 0, { 0, 0, 0 } };
1195:../../iot_link/cJSON/cJSON.c **** 
1196:../../iot_link/cJSON/cJSON.c ****     if ((len < 0) || (buf == NULL))
1197:../../iot_link/cJSON/cJSON.c ****     {
1198:../../iot_link/cJSON/cJSON.c ****         return false;
1199:../../iot_link/cJSON/cJSON.c ****     }
1200:../../iot_link/cJSON/cJSON.c **** 
1201:../../iot_link/cJSON/cJSON.c ****     p.buffer = (unsigned char*)buf;
1202:../../iot_link/cJSON/cJSON.c ****     p.length = (size_t)len;
1203:../../iot_link/cJSON/cJSON.c ****     p.offset = 0;
1204:../../iot_link/cJSON/cJSON.c ****     p.noalloc = true;
1205:../../iot_link/cJSON/cJSON.c ****     p.format = fmt;
1206:../../iot_link/cJSON/cJSON.c ****     p.hooks = global_hooks;
1207:../../iot_link/cJSON/cJSON.c **** 
1208:../../iot_link/cJSON/cJSON.c ****     return print_value(item, &p);
1209:../../iot_link/cJSON/cJSON.c **** }
1210:../../iot_link/cJSON/cJSON.c **** 
1211:../../iot_link/cJSON/cJSON.c **** /* Parser core - when encountering text, process appropriately. */
1212:../../iot_link/cJSON/cJSON.c **** static cJSON_bool parse_value(cJSON * const item, parse_buffer * const input_buffer)
1213:../../iot_link/cJSON/cJSON.c **** {
1214:../../iot_link/cJSON/cJSON.c ****     if ((input_buffer == NULL) || (input_buffer->content == NULL))
1215:../../iot_link/cJSON/cJSON.c ****     {
1216:../../iot_link/cJSON/cJSON.c ****         return false; /* no input */
1217:../../iot_link/cJSON/cJSON.c ****     }
1218:../../iot_link/cJSON/cJSON.c **** 
1219:../../iot_link/cJSON/cJSON.c ****     /* parse the different types of values */
1220:../../iot_link/cJSON/cJSON.c ****     /* null */
1221:../../iot_link/cJSON/cJSON.c ****     if (can_read(input_buffer, 4) && (strncmp((const char*)buffer_at_offset(input_buffer), "null", 
1222:../../iot_link/cJSON/cJSON.c ****     {
1223:../../iot_link/cJSON/cJSON.c ****         item->type = cJSON_NULL;
1224:../../iot_link/cJSON/cJSON.c ****         input_buffer->offset += 4;
1225:../../iot_link/cJSON/cJSON.c ****         return true;
1226:../../iot_link/cJSON/cJSON.c ****     }
1227:../../iot_link/cJSON/cJSON.c ****     /* false */
1228:../../iot_link/cJSON/cJSON.c ****     if (can_read(input_buffer, 5) && (strncmp((const char*)buffer_at_offset(input_buffer), "false",
1229:../../iot_link/cJSON/cJSON.c ****     {
1230:../../iot_link/cJSON/cJSON.c ****         item->type = cJSON_False;
1231:../../iot_link/cJSON/cJSON.c ****         input_buffer->offset += 5;
1232:../../iot_link/cJSON/cJSON.c ****         return true;
1233:../../iot_link/cJSON/cJSON.c ****     }
1234:../../iot_link/cJSON/cJSON.c ****     /* true */
1235:../../iot_link/cJSON/cJSON.c ****     if (can_read(input_buffer, 4) && (strncmp((const char*)buffer_at_offset(input_buffer), "true", 
1236:../../iot_link/cJSON/cJSON.c ****     {
1237:../../iot_link/cJSON/cJSON.c ****         item->type = cJSON_True;
1238:../../iot_link/cJSON/cJSON.c ****         item->valueint = 1;
1239:../../iot_link/cJSON/cJSON.c ****         input_buffer->offset += 4;
1240:../../iot_link/cJSON/cJSON.c ****         return true;
1241:../../iot_link/cJSON/cJSON.c ****     }
1242:../../iot_link/cJSON/cJSON.c ****     /* string */
1243:../../iot_link/cJSON/cJSON.c ****     if (can_access_at_index(input_buffer, 0) && (buffer_at_offset(input_buffer)[0] == '\"'))
1244:../../iot_link/cJSON/cJSON.c ****     {
1245:../../iot_link/cJSON/cJSON.c ****         return parse_string(item, input_buffer);
1246:../../iot_link/cJSON/cJSON.c ****     }
1247:../../iot_link/cJSON/cJSON.c ****     /* number */
1248:../../iot_link/cJSON/cJSON.c ****     if (can_access_at_index(input_buffer, 0) && ((buffer_at_offset(input_buffer)[0] == '-') || ((bu
ARM GAS  C:\Users\LuckyE\AppData\Local\Temp\ccgn9LZs.s 			page 34


1249:../../iot_link/cJSON/cJSON.c ****     {
1250:../../iot_link/cJSON/cJSON.c ****         return parse_number(item, input_buffer);
1251:../../iot_link/cJSON/cJSON.c ****     }
1252:../../iot_link/cJSON/cJSON.c ****     /* array */
1253:../../iot_link/cJSON/cJSON.c ****     if (can_access_at_index(input_buffer, 0) && (buffer_at_offset(input_buffer)[0] == '['))
1254:../../iot_link/cJSON/cJSON.c ****     {
1255:../../iot_link/cJSON/cJSON.c ****         return parse_array(item, input_buffer);
1256:../../iot_link/cJSON/cJSON.c ****     }
1257:../../iot_link/cJSON/cJSON.c ****     /* object */
1258:../../iot_link/cJSON/cJSON.c ****     if (can_access_at_index(input_buffer, 0) && (buffer_at_offset(input_buffer)[0] == '{'))
1259:../../iot_link/cJSON/cJSON.c ****     {
1260:../../iot_link/cJSON/cJSON.c ****         return parse_object(item, input_buffer);
1261:../../iot_link/cJSON/cJSON.c ****     }
1262:../../iot_link/cJSON/cJSON.c **** 
1263:../../iot_link/cJSON/cJSON.c ****     return false;
1264:../../iot_link/cJSON/cJSON.c **** }
1265:../../iot_link/cJSON/cJSON.c **** 
1266:../../iot_link/cJSON/cJSON.c **** /* Render a value to text. */
1267:../../iot_link/cJSON/cJSON.c **** static cJSON_bool print_value(const cJSON * const item, printbuffer * const output_buffer)
1268:../../iot_link/cJSON/cJSON.c **** {
1269:../../iot_link/cJSON/cJSON.c ****     unsigned char *output = NULL;
1270:../../iot_link/cJSON/cJSON.c **** 
1271:../../iot_link/cJSON/cJSON.c ****     if ((item == NULL) || (output_buffer == NULL))
1272:../../iot_link/cJSON/cJSON.c ****     {
1273:../../iot_link/cJSON/cJSON.c ****         return false;
1274:../../iot_link/cJSON/cJSON.c ****     }
1275:../../iot_link/cJSON/cJSON.c **** 
1276:../../iot_link/cJSON/cJSON.c ****     switch ((item->type) & 0xFF)
1277:../../iot_link/cJSON/cJSON.c ****     {
1278:../../iot_link/cJSON/cJSON.c ****         case cJSON_NULL:
1279:../../iot_link/cJSON/cJSON.c ****             output = ensure(output_buffer, 5);
1280:../../iot_link/cJSON/cJSON.c ****             if (output == NULL)
1281:../../iot_link/cJSON/cJSON.c ****             {
1282:../../iot_link/cJSON/cJSON.c ****                 return false;
1283:../../iot_link/cJSON/cJSON.c ****             }
1284:../../iot_link/cJSON/cJSON.c ****             strcpy((char*)output, "null");
1285:../../iot_link/cJSON/cJSON.c ****             return true;
1286:../../iot_link/cJSON/cJSON.c **** 
1287:../../iot_link/cJSON/cJSON.c ****         case cJSON_False:
1288:../../iot_link/cJSON/cJSON.c ****             output = ensure(output_buffer, 6);
1289:../../iot_link/cJSON/cJSON.c ****             if (output == NULL)
1290:../../iot_link/cJSON/cJSON.c ****             {
1291:../../iot_link/cJSON/cJSON.c ****                 return false;
1292:../../iot_link/cJSON/cJSON.c ****             }
1293:../../iot_link/cJSON/cJSON.c ****             strcpy((char*)output, "false");
1294:../../iot_link/cJSON/cJSON.c ****             return true;
1295:../../iot_link/cJSON/cJSON.c **** 
1296:../../iot_link/cJSON/cJSON.c ****         case cJSON_True:
1297:../../iot_link/cJSON/cJSON.c ****             output = ensure(output_buffer, 5);
1298:../../iot_link/cJSON/cJSON.c ****             if (output == NULL)
1299:../../iot_link/cJSON/cJSON.c ****             {
1300:../../iot_link/cJSON/cJSON.c ****                 return false;
1301:../../iot_link/cJSON/cJSON.c ****             }
1302:../../iot_link/cJSON/cJSON.c ****             strcpy((char*)output, "true");
1303:../../iot_link/cJSON/cJSON.c ****             return true;
1304:../../iot_link/cJSON/cJSON.c **** 
1305:../../iot_link/cJSON/cJSON.c ****         case cJSON_Number:
ARM GAS  C:\Users\LuckyE\AppData\Local\Temp\ccgn9LZs.s 			page 35


1306:../../iot_link/cJSON/cJSON.c ****             return print_number(item, output_buffer);
1307:../../iot_link/cJSON/cJSON.c **** 
1308:../../iot_link/cJSON/cJSON.c ****         case cJSON_Raw:
1309:../../iot_link/cJSON/cJSON.c ****         {
1310:../../iot_link/cJSON/cJSON.c ****             size_t raw_length = 0;
1311:../../iot_link/cJSON/cJSON.c ****             if (item->valuestring == NULL)
1312:../../iot_link/cJSON/cJSON.c ****             {
1313:../../iot_link/cJSON/cJSON.c ****                 return false;
1314:../../iot_link/cJSON/cJSON.c ****             }
1315:../../iot_link/cJSON/cJSON.c **** 
1316:../../iot_link/cJSON/cJSON.c ****             raw_length = strlen(item->valuestring) + sizeof("");
1317:../../iot_link/cJSON/cJSON.c ****             output = ensure(output_buffer, raw_length);
1318:../../iot_link/cJSON/cJSON.c ****             if (output == NULL)
1319:../../iot_link/cJSON/cJSON.c ****             {
1320:../../iot_link/cJSON/cJSON.c ****                 return false;
1321:../../iot_link/cJSON/cJSON.c ****             }
1322:../../iot_link/cJSON/cJSON.c ****             (void) memcpy(output, item->valuestring, raw_length);
1323:../../iot_link/cJSON/cJSON.c ****             return true;
1324:../../iot_link/cJSON/cJSON.c ****         }
1325:../../iot_link/cJSON/cJSON.c **** 
1326:../../iot_link/cJSON/cJSON.c ****         case cJSON_String:
1327:../../iot_link/cJSON/cJSON.c ****             return print_string(item, output_buffer);
1328:../../iot_link/cJSON/cJSON.c **** 
1329:../../iot_link/cJSON/cJSON.c ****         case cJSON_Array:
1330:../../iot_link/cJSON/cJSON.c ****             return print_array(item, output_buffer);
1331:../../iot_link/cJSON/cJSON.c **** 
1332:../../iot_link/cJSON/cJSON.c ****         case cJSON_Object:
1333:../../iot_link/cJSON/cJSON.c ****             return print_object(item, output_buffer);
1334:../../iot_link/cJSON/cJSON.c **** 
1335:../../iot_link/cJSON/cJSON.c ****         default:
1336:../../iot_link/cJSON/cJSON.c ****             return false;
1337:../../iot_link/cJSON/cJSON.c ****     }
1338:../../iot_link/cJSON/cJSON.c **** }
1339:../../iot_link/cJSON/cJSON.c **** 
1340:../../iot_link/cJSON/cJSON.c **** /* Build an array from input text. */
1341:../../iot_link/cJSON/cJSON.c **** static cJSON_bool parse_array(cJSON * const item, parse_buffer * const input_buffer)
1342:../../iot_link/cJSON/cJSON.c **** {
1343:../../iot_link/cJSON/cJSON.c ****     cJSON *head = NULL; /* head of the linked list */
1344:../../iot_link/cJSON/cJSON.c ****     cJSON *current_item = NULL;
1345:../../iot_link/cJSON/cJSON.c **** 
1346:../../iot_link/cJSON/cJSON.c ****     if (input_buffer->depth >= CJSON_NESTING_LIMIT)
1347:../../iot_link/cJSON/cJSON.c ****     {
1348:../../iot_link/cJSON/cJSON.c ****         return false; /* to deeply nested */
1349:../../iot_link/cJSON/cJSON.c ****     }
1350:../../iot_link/cJSON/cJSON.c ****     input_buffer->depth++;
1351:../../iot_link/cJSON/cJSON.c **** 
1352:../../iot_link/cJSON/cJSON.c ****     if (buffer_at_offset(input_buffer)[0] != '[')
1353:../../iot_link/cJSON/cJSON.c ****     {
1354:../../iot_link/cJSON/cJSON.c ****         /* not an array */
1355:../../iot_link/cJSON/cJSON.c ****         goto fail;
1356:../../iot_link/cJSON/cJSON.c ****     }
1357:../../iot_link/cJSON/cJSON.c **** 
1358:../../iot_link/cJSON/cJSON.c ****     input_buffer->offset++;
1359:../../iot_link/cJSON/cJSON.c ****     buffer_skip_whitespace(input_buffer);
1360:../../iot_link/cJSON/cJSON.c ****     if (can_access_at_index(input_buffer, 0) && (buffer_at_offset(input_buffer)[0] == ']'))
1361:../../iot_link/cJSON/cJSON.c ****     {
1362:../../iot_link/cJSON/cJSON.c ****         /* empty array */
ARM GAS  C:\Users\LuckyE\AppData\Local\Temp\ccgn9LZs.s 			page 36


1363:../../iot_link/cJSON/cJSON.c ****         goto success;
1364:../../iot_link/cJSON/cJSON.c ****     }
1365:../../iot_link/cJSON/cJSON.c **** 
1366:../../iot_link/cJSON/cJSON.c ****     /* check if we skipped to the end of the buffer */
1367:../../iot_link/cJSON/cJSON.c ****     if (cannot_access_at_index(input_buffer, 0))
1368:../../iot_link/cJSON/cJSON.c ****     {
1369:../../iot_link/cJSON/cJSON.c ****         input_buffer->offset--;
1370:../../iot_link/cJSON/cJSON.c ****         goto fail;
1371:../../iot_link/cJSON/cJSON.c ****     }
1372:../../iot_link/cJSON/cJSON.c **** 
1373:../../iot_link/cJSON/cJSON.c ****     /* step back to character in front of the first element */
1374:../../iot_link/cJSON/cJSON.c ****     input_buffer->offset--;
1375:../../iot_link/cJSON/cJSON.c ****     /* loop through the comma separated array elements */
1376:../../iot_link/cJSON/cJSON.c ****     do
1377:../../iot_link/cJSON/cJSON.c ****     {
1378:../../iot_link/cJSON/cJSON.c ****         /* allocate next item */
1379:../../iot_link/cJSON/cJSON.c ****         cJSON *new_item = cJSON_New_Item(&(input_buffer->hooks));
1380:../../iot_link/cJSON/cJSON.c ****         if (new_item == NULL)
1381:../../iot_link/cJSON/cJSON.c ****         {
1382:../../iot_link/cJSON/cJSON.c ****             goto fail; /* allocation failure */
1383:../../iot_link/cJSON/cJSON.c ****         }
1384:../../iot_link/cJSON/cJSON.c **** 
1385:../../iot_link/cJSON/cJSON.c ****         /* attach next item to list */
1386:../../iot_link/cJSON/cJSON.c ****         if (head == NULL)
1387:../../iot_link/cJSON/cJSON.c ****         {
1388:../../iot_link/cJSON/cJSON.c ****             /* start the linked list */
1389:../../iot_link/cJSON/cJSON.c ****             current_item = head = new_item;
1390:../../iot_link/cJSON/cJSON.c ****         }
1391:../../iot_link/cJSON/cJSON.c ****         else
1392:../../iot_link/cJSON/cJSON.c ****         {
1393:../../iot_link/cJSON/cJSON.c ****             /* add to the end and advance */
1394:../../iot_link/cJSON/cJSON.c ****             current_item->next = new_item;
1395:../../iot_link/cJSON/cJSON.c ****             new_item->prev = current_item;
1396:../../iot_link/cJSON/cJSON.c ****             current_item = new_item;
1397:../../iot_link/cJSON/cJSON.c ****         }
1398:../../iot_link/cJSON/cJSON.c **** 
1399:../../iot_link/cJSON/cJSON.c ****         /* parse next value */
1400:../../iot_link/cJSON/cJSON.c ****         input_buffer->offset++;
1401:../../iot_link/cJSON/cJSON.c ****         buffer_skip_whitespace(input_buffer);
1402:../../iot_link/cJSON/cJSON.c ****         if (!parse_value(current_item, input_buffer))
1403:../../iot_link/cJSON/cJSON.c ****         {
1404:../../iot_link/cJSON/cJSON.c ****             goto fail; /* failed to parse value */
1405:../../iot_link/cJSON/cJSON.c ****         }
1406:../../iot_link/cJSON/cJSON.c ****         buffer_skip_whitespace(input_buffer);
1407:../../iot_link/cJSON/cJSON.c ****     }
1408:../../iot_link/cJSON/cJSON.c ****     while (can_access_at_index(input_buffer, 0) && (buffer_at_offset(input_buffer)[0] == ','));
1409:../../iot_link/cJSON/cJSON.c **** 
1410:../../iot_link/cJSON/cJSON.c ****     if (cannot_access_at_index(input_buffer, 0) || buffer_at_offset(input_buffer)[0] != ']')
1411:../../iot_link/cJSON/cJSON.c ****     {
1412:../../iot_link/cJSON/cJSON.c ****         goto fail; /* expected end of array */
1413:../../iot_link/cJSON/cJSON.c ****     }
1414:../../iot_link/cJSON/cJSON.c **** 
1415:../../iot_link/cJSON/cJSON.c **** success:
1416:../../iot_link/cJSON/cJSON.c ****     input_buffer->depth--;
1417:../../iot_link/cJSON/cJSON.c **** 
1418:../../iot_link/cJSON/cJSON.c ****     item->type = cJSON_Array;
1419:../../iot_link/cJSON/cJSON.c ****     item->child = head;
ARM GAS  C:\Users\LuckyE\AppData\Local\Temp\ccgn9LZs.s 			page 37


1420:../../iot_link/cJSON/cJSON.c **** 
1421:../../iot_link/cJSON/cJSON.c ****     input_buffer->offset++;
1422:../../iot_link/cJSON/cJSON.c **** 
1423:../../iot_link/cJSON/cJSON.c ****     return true;
1424:../../iot_link/cJSON/cJSON.c **** 
1425:../../iot_link/cJSON/cJSON.c **** fail:
1426:../../iot_link/cJSON/cJSON.c ****     if (head != NULL)
1427:../../iot_link/cJSON/cJSON.c ****     {
1428:../../iot_link/cJSON/cJSON.c ****         cJSON_Delete(head);
1429:../../iot_link/cJSON/cJSON.c ****     }
1430:../../iot_link/cJSON/cJSON.c **** 
1431:../../iot_link/cJSON/cJSON.c ****     return false;
1432:../../iot_link/cJSON/cJSON.c **** }
1433:../../iot_link/cJSON/cJSON.c **** 
1434:../../iot_link/cJSON/cJSON.c **** /* Render an array to text */
1435:../../iot_link/cJSON/cJSON.c **** static cJSON_bool print_array(const cJSON * const item, printbuffer * const output_buffer)
1436:../../iot_link/cJSON/cJSON.c **** {
1437:../../iot_link/cJSON/cJSON.c ****     unsigned char *output_pointer = NULL;
1438:../../iot_link/cJSON/cJSON.c ****     size_t length = 0;
1439:../../iot_link/cJSON/cJSON.c ****     cJSON *current_element = item->child;
1440:../../iot_link/cJSON/cJSON.c **** 
1441:../../iot_link/cJSON/cJSON.c ****     if (output_buffer == NULL)
1442:../../iot_link/cJSON/cJSON.c ****     {
1443:../../iot_link/cJSON/cJSON.c ****         return false;
1444:../../iot_link/cJSON/cJSON.c ****     }
1445:../../iot_link/cJSON/cJSON.c **** 
1446:../../iot_link/cJSON/cJSON.c ****     /* Compose the output array. */
1447:../../iot_link/cJSON/cJSON.c ****     /* opening square bracket */
1448:../../iot_link/cJSON/cJSON.c ****     output_pointer = ensure(output_buffer, 1);
1449:../../iot_link/cJSON/cJSON.c ****     if (output_pointer == NULL)
1450:../../iot_link/cJSON/cJSON.c ****     {
1451:../../iot_link/cJSON/cJSON.c ****         return false;
1452:../../iot_link/cJSON/cJSON.c ****     }
1453:../../iot_link/cJSON/cJSON.c **** 
1454:../../iot_link/cJSON/cJSON.c ****     *output_pointer = '[';
1455:../../iot_link/cJSON/cJSON.c ****     output_buffer->offset++;
1456:../../iot_link/cJSON/cJSON.c ****     output_buffer->depth++;
1457:../../iot_link/cJSON/cJSON.c **** 
1458:../../iot_link/cJSON/cJSON.c ****     while (current_element != NULL)
1459:../../iot_link/cJSON/cJSON.c ****     {
1460:../../iot_link/cJSON/cJSON.c ****         if (!print_value(current_element, output_buffer))
1461:../../iot_link/cJSON/cJSON.c ****         {
1462:../../iot_link/cJSON/cJSON.c ****             return false;
1463:../../iot_link/cJSON/cJSON.c ****         }
1464:../../iot_link/cJSON/cJSON.c ****         update_offset(output_buffer);
1465:../../iot_link/cJSON/cJSON.c ****         if (current_element->next)
1466:../../iot_link/cJSON/cJSON.c ****         {
1467:../../iot_link/cJSON/cJSON.c ****             length = (size_t) (output_buffer->format ? 2 : 1);
1468:../../iot_link/cJSON/cJSON.c ****             output_pointer = ensure(output_buffer, length + 1);
1469:../../iot_link/cJSON/cJSON.c ****             if (output_pointer == NULL)
1470:../../iot_link/cJSON/cJSON.c ****             {
1471:../../iot_link/cJSON/cJSON.c ****                 return false;
1472:../../iot_link/cJSON/cJSON.c ****             }
1473:../../iot_link/cJSON/cJSON.c ****             *output_pointer++ = ',';
1474:../../iot_link/cJSON/cJSON.c ****             if(output_buffer->format)
1475:../../iot_link/cJSON/cJSON.c ****             {
1476:../../iot_link/cJSON/cJSON.c ****                 *output_pointer++ = ' ';
ARM GAS  C:\Users\LuckyE\AppData\Local\Temp\ccgn9LZs.s 			page 38


1477:../../iot_link/cJSON/cJSON.c ****             }
1478:../../iot_link/cJSON/cJSON.c ****             *output_pointer = '\0';
1479:../../iot_link/cJSON/cJSON.c ****             output_buffer->offset += length;
1480:../../iot_link/cJSON/cJSON.c ****         }
1481:../../iot_link/cJSON/cJSON.c ****         current_element = current_element->next;
1482:../../iot_link/cJSON/cJSON.c ****     }
1483:../../iot_link/cJSON/cJSON.c **** 
1484:../../iot_link/cJSON/cJSON.c ****     output_pointer = ensure(output_buffer, 2);
1485:../../iot_link/cJSON/cJSON.c ****     if (output_pointer == NULL)
1486:../../iot_link/cJSON/cJSON.c ****     {
1487:../../iot_link/cJSON/cJSON.c ****         return false;
1488:../../iot_link/cJSON/cJSON.c ****     }
1489:../../iot_link/cJSON/cJSON.c ****     *output_pointer++ = ']';
1490:../../iot_link/cJSON/cJSON.c ****     *output_pointer = '\0';
1491:../../iot_link/cJSON/cJSON.c ****     output_buffer->depth--;
1492:../../iot_link/cJSON/cJSON.c **** 
1493:../../iot_link/cJSON/cJSON.c ****     return true;
1494:../../iot_link/cJSON/cJSON.c **** }
1495:../../iot_link/cJSON/cJSON.c **** 
1496:../../iot_link/cJSON/cJSON.c **** /* Build an object from the text. */
1497:../../iot_link/cJSON/cJSON.c **** static cJSON_bool parse_object(cJSON * const item, parse_buffer * const input_buffer)
1498:../../iot_link/cJSON/cJSON.c **** {
1499:../../iot_link/cJSON/cJSON.c ****     cJSON *head = NULL; /* linked list head */
1500:../../iot_link/cJSON/cJSON.c ****     cJSON *current_item = NULL;
1501:../../iot_link/cJSON/cJSON.c **** 
1502:../../iot_link/cJSON/cJSON.c ****     if (input_buffer->depth >= CJSON_NESTING_LIMIT)
1503:../../iot_link/cJSON/cJSON.c ****     {
1504:../../iot_link/cJSON/cJSON.c ****         return false; /* to deeply nested */
1505:../../iot_link/cJSON/cJSON.c ****     }
1506:../../iot_link/cJSON/cJSON.c ****     input_buffer->depth++;
1507:../../iot_link/cJSON/cJSON.c **** 
1508:../../iot_link/cJSON/cJSON.c ****     if (cannot_access_at_index(input_buffer, 0) || (buffer_at_offset(input_buffer)[0] != '{'))
1509:../../iot_link/cJSON/cJSON.c ****     {
1510:../../iot_link/cJSON/cJSON.c ****         goto fail; /* not an object */
1511:../../iot_link/cJSON/cJSON.c ****     }
1512:../../iot_link/cJSON/cJSON.c **** 
1513:../../iot_link/cJSON/cJSON.c ****     input_buffer->offset++;
1514:../../iot_link/cJSON/cJSON.c ****     buffer_skip_whitespace(input_buffer);
1515:../../iot_link/cJSON/cJSON.c ****     if (can_access_at_index(input_buffer, 0) && (buffer_at_offset(input_buffer)[0] == '}'))
1516:../../iot_link/cJSON/cJSON.c ****     {
1517:../../iot_link/cJSON/cJSON.c ****         goto success; /* empty object */
1518:../../iot_link/cJSON/cJSON.c ****     }
1519:../../iot_link/cJSON/cJSON.c **** 
1520:../../iot_link/cJSON/cJSON.c ****     /* check if we skipped to the end of the buffer */
1521:../../iot_link/cJSON/cJSON.c ****     if (cannot_access_at_index(input_buffer, 0))
1522:../../iot_link/cJSON/cJSON.c ****     {
1523:../../iot_link/cJSON/cJSON.c ****         input_buffer->offset--;
1524:../../iot_link/cJSON/cJSON.c ****         goto fail;
1525:../../iot_link/cJSON/cJSON.c ****     }
1526:../../iot_link/cJSON/cJSON.c **** 
1527:../../iot_link/cJSON/cJSON.c ****     /* step back to character in front of the first element */
1528:../../iot_link/cJSON/cJSON.c ****     input_buffer->offset--;
1529:../../iot_link/cJSON/cJSON.c ****     /* loop through the comma separated array elements */
1530:../../iot_link/cJSON/cJSON.c ****     do
1531:../../iot_link/cJSON/cJSON.c ****     {
1532:../../iot_link/cJSON/cJSON.c ****         /* allocate next item */
1533:../../iot_link/cJSON/cJSON.c ****         cJSON *new_item = cJSON_New_Item(&(input_buffer->hooks));
ARM GAS  C:\Users\LuckyE\AppData\Local\Temp\ccgn9LZs.s 			page 39


1534:../../iot_link/cJSON/cJSON.c ****         if (new_item == NULL)
1535:../../iot_link/cJSON/cJSON.c ****         {
1536:../../iot_link/cJSON/cJSON.c ****             goto fail; /* allocation failure */
1537:../../iot_link/cJSON/cJSON.c ****         }
1538:../../iot_link/cJSON/cJSON.c **** 
1539:../../iot_link/cJSON/cJSON.c ****         /* attach next item to list */
1540:../../iot_link/cJSON/cJSON.c ****         if (head == NULL)
1541:../../iot_link/cJSON/cJSON.c ****         {
1542:../../iot_link/cJSON/cJSON.c ****             /* start the linked list */
1543:../../iot_link/cJSON/cJSON.c ****             current_item = head = new_item;
1544:../../iot_link/cJSON/cJSON.c ****         }
1545:../../iot_link/cJSON/cJSON.c ****         else
1546:../../iot_link/cJSON/cJSON.c ****         {
1547:../../iot_link/cJSON/cJSON.c ****             /* add to the end and advance */
1548:../../iot_link/cJSON/cJSON.c ****             current_item->next = new_item;
1549:../../iot_link/cJSON/cJSON.c ****             new_item->prev = current_item;
1550:../../iot_link/cJSON/cJSON.c ****             current_item = new_item;
1551:../../iot_link/cJSON/cJSON.c ****         }
1552:../../iot_link/cJSON/cJSON.c **** 
1553:../../iot_link/cJSON/cJSON.c ****         /* parse the name of the child */
1554:../../iot_link/cJSON/cJSON.c ****         input_buffer->offset++;
1555:../../iot_link/cJSON/cJSON.c ****         buffer_skip_whitespace(input_buffer);
1556:../../iot_link/cJSON/cJSON.c ****         if (!parse_string(current_item, input_buffer))
1557:../../iot_link/cJSON/cJSON.c ****         {
1558:../../iot_link/cJSON/cJSON.c ****             goto fail; /* faile to parse name */
1559:../../iot_link/cJSON/cJSON.c ****         }
1560:../../iot_link/cJSON/cJSON.c ****         buffer_skip_whitespace(input_buffer);
1561:../../iot_link/cJSON/cJSON.c **** 
1562:../../iot_link/cJSON/cJSON.c ****         /* swap valuestring and string, because we parsed the name */
1563:../../iot_link/cJSON/cJSON.c ****         current_item->string = current_item->valuestring;
1564:../../iot_link/cJSON/cJSON.c ****         current_item->valuestring = NULL;
1565:../../iot_link/cJSON/cJSON.c **** 
1566:../../iot_link/cJSON/cJSON.c ****         if (cannot_access_at_index(input_buffer, 0) || (buffer_at_offset(input_buffer)[0] != ':'))
1567:../../iot_link/cJSON/cJSON.c ****         {
1568:../../iot_link/cJSON/cJSON.c ****             goto fail; /* invalid object */
1569:../../iot_link/cJSON/cJSON.c ****         }
1570:../../iot_link/cJSON/cJSON.c **** 
1571:../../iot_link/cJSON/cJSON.c ****         /* parse the value */
1572:../../iot_link/cJSON/cJSON.c ****         input_buffer->offset++;
1573:../../iot_link/cJSON/cJSON.c ****         buffer_skip_whitespace(input_buffer);
1574:../../iot_link/cJSON/cJSON.c ****         if (!parse_value(current_item, input_buffer))
1575:../../iot_link/cJSON/cJSON.c ****         {
1576:../../iot_link/cJSON/cJSON.c ****             goto fail; /* failed to parse value */
1577:../../iot_link/cJSON/cJSON.c ****         }
1578:../../iot_link/cJSON/cJSON.c ****         buffer_skip_whitespace(input_buffer);
1579:../../iot_link/cJSON/cJSON.c ****     }
1580:../../iot_link/cJSON/cJSON.c ****     while (can_access_at_index(input_buffer, 0) && (buffer_at_offset(input_buffer)[0] == ','));
1581:../../iot_link/cJSON/cJSON.c **** 
1582:../../iot_link/cJSON/cJSON.c ****     if (cannot_access_at_index(input_buffer, 0) || (buffer_at_offset(input_buffer)[0] != '}'))
1583:../../iot_link/cJSON/cJSON.c ****     {
1584:../../iot_link/cJSON/cJSON.c ****         goto fail; /* expected end of object */
1585:../../iot_link/cJSON/cJSON.c ****     }
1586:../../iot_link/cJSON/cJSON.c **** 
1587:../../iot_link/cJSON/cJSON.c **** success:
1588:../../iot_link/cJSON/cJSON.c ****     input_buffer->depth--;
1589:../../iot_link/cJSON/cJSON.c **** 
1590:../../iot_link/cJSON/cJSON.c ****     item->type = cJSON_Object;
ARM GAS  C:\Users\LuckyE\AppData\Local\Temp\ccgn9LZs.s 			page 40


1591:../../iot_link/cJSON/cJSON.c ****     item->child = head;
1592:../../iot_link/cJSON/cJSON.c **** 
1593:../../iot_link/cJSON/cJSON.c ****     input_buffer->offset++;
1594:../../iot_link/cJSON/cJSON.c ****     return true;
1595:../../iot_link/cJSON/cJSON.c **** 
1596:../../iot_link/cJSON/cJSON.c **** fail:
1597:../../iot_link/cJSON/cJSON.c ****     if (head != NULL)
1598:../../iot_link/cJSON/cJSON.c ****     {
1599:../../iot_link/cJSON/cJSON.c ****         cJSON_Delete(head);
1600:../../iot_link/cJSON/cJSON.c ****     }
1601:../../iot_link/cJSON/cJSON.c **** 
1602:../../iot_link/cJSON/cJSON.c ****     return false;
1603:../../iot_link/cJSON/cJSON.c **** }
1604:../../iot_link/cJSON/cJSON.c **** 
1605:../../iot_link/cJSON/cJSON.c **** /* Render an object to text. */
1606:../../iot_link/cJSON/cJSON.c **** static cJSON_bool print_object(const cJSON * const item, printbuffer * const output_buffer)
1607:../../iot_link/cJSON/cJSON.c **** {
1608:../../iot_link/cJSON/cJSON.c ****     unsigned char *output_pointer = NULL;
1609:../../iot_link/cJSON/cJSON.c ****     size_t length = 0;
1610:../../iot_link/cJSON/cJSON.c ****     cJSON *current_item = item->child;
1611:../../iot_link/cJSON/cJSON.c **** 
1612:../../iot_link/cJSON/cJSON.c ****     if (output_buffer == NULL)
1613:../../iot_link/cJSON/cJSON.c ****     {
1614:../../iot_link/cJSON/cJSON.c ****         return false;
1615:../../iot_link/cJSON/cJSON.c ****     }
1616:../../iot_link/cJSON/cJSON.c **** 
1617:../../iot_link/cJSON/cJSON.c ****     /* Compose the output: */
1618:../../iot_link/cJSON/cJSON.c ****     length = (size_t) (output_buffer->format ? 2 : 1); /* fmt: {\n */
1619:../../iot_link/cJSON/cJSON.c ****     output_pointer = ensure(output_buffer, length + 1);
1620:../../iot_link/cJSON/cJSON.c ****     if (output_pointer == NULL)
1621:../../iot_link/cJSON/cJSON.c ****     {
1622:../../iot_link/cJSON/cJSON.c ****         return false;
1623:../../iot_link/cJSON/cJSON.c ****     }
1624:../../iot_link/cJSON/cJSON.c **** 
1625:../../iot_link/cJSON/cJSON.c ****     *output_pointer++ = '{';
1626:../../iot_link/cJSON/cJSON.c ****     output_buffer->depth++;
1627:../../iot_link/cJSON/cJSON.c ****     if (output_buffer->format)
1628:../../iot_link/cJSON/cJSON.c ****     {
1629:../../iot_link/cJSON/cJSON.c ****         *output_pointer++ = '\n';
1630:../../iot_link/cJSON/cJSON.c ****     }
1631:../../iot_link/cJSON/cJSON.c ****     output_buffer->offset += length;
1632:../../iot_link/cJSON/cJSON.c **** 
1633:../../iot_link/cJSON/cJSON.c ****     while (current_item)
1634:../../iot_link/cJSON/cJSON.c ****     {
1635:../../iot_link/cJSON/cJSON.c ****         if (output_buffer->format)
1636:../../iot_link/cJSON/cJSON.c ****         {
1637:../../iot_link/cJSON/cJSON.c ****             size_t i;
1638:../../iot_link/cJSON/cJSON.c ****             output_pointer = ensure(output_buffer, output_buffer->depth);
1639:../../iot_link/cJSON/cJSON.c ****             if (output_pointer == NULL)
1640:../../iot_link/cJSON/cJSON.c ****             {
1641:../../iot_link/cJSON/cJSON.c ****                 return false;
1642:../../iot_link/cJSON/cJSON.c ****             }
1643:../../iot_link/cJSON/cJSON.c ****             for (i = 0; i < output_buffer->depth; i++)
1644:../../iot_link/cJSON/cJSON.c ****             {
1645:../../iot_link/cJSON/cJSON.c ****                 *output_pointer++ = '\t';
1646:../../iot_link/cJSON/cJSON.c ****             }
1647:../../iot_link/cJSON/cJSON.c ****             output_buffer->offset += output_buffer->depth;
ARM GAS  C:\Users\LuckyE\AppData\Local\Temp\ccgn9LZs.s 			page 41


1648:../../iot_link/cJSON/cJSON.c ****         }
1649:../../iot_link/cJSON/cJSON.c **** 
1650:../../iot_link/cJSON/cJSON.c ****         /* print key */
1651:../../iot_link/cJSON/cJSON.c ****         if (!print_string_ptr((unsigned char*)current_item->string, output_buffer))
1652:../../iot_link/cJSON/cJSON.c ****         {
1653:../../iot_link/cJSON/cJSON.c ****             return false;
1654:../../iot_link/cJSON/cJSON.c ****         }
1655:../../iot_link/cJSON/cJSON.c ****         update_offset(output_buffer);
1656:../../iot_link/cJSON/cJSON.c **** 
1657:../../iot_link/cJSON/cJSON.c ****         length = (size_t) (output_buffer->format ? 2 : 1);
1658:../../iot_link/cJSON/cJSON.c ****         output_pointer = ensure(output_buffer, length);
1659:../../iot_link/cJSON/cJSON.c ****         if (output_pointer == NULL)
1660:../../iot_link/cJSON/cJSON.c ****         {
1661:../../iot_link/cJSON/cJSON.c ****             return false;
1662:../../iot_link/cJSON/cJSON.c ****         }
1663:../../iot_link/cJSON/cJSON.c ****         *output_pointer++ = ':';
1664:../../iot_link/cJSON/cJSON.c ****         if (output_buffer->format)
1665:../../iot_link/cJSON/cJSON.c ****         {
1666:../../iot_link/cJSON/cJSON.c ****             *output_pointer++ = '\t';
1667:../../iot_link/cJSON/cJSON.c ****         }
1668:../../iot_link/cJSON/cJSON.c ****         output_buffer->offset += length;
1669:../../iot_link/cJSON/cJSON.c **** 
1670:../../iot_link/cJSON/cJSON.c ****         /* print value */
1671:../../iot_link/cJSON/cJSON.c ****         if (!print_value(current_item, output_buffer))
1672:../../iot_link/cJSON/cJSON.c ****         {
1673:../../iot_link/cJSON/cJSON.c ****             return false;
1674:../../iot_link/cJSON/cJSON.c ****         }
1675:../../iot_link/cJSON/cJSON.c ****         update_offset(output_buffer);
1676:../../iot_link/cJSON/cJSON.c **** 
1677:../../iot_link/cJSON/cJSON.c ****         /* print comma if not last */
1678:../../iot_link/cJSON/cJSON.c ****         length = (size_t) ((output_buffer->format ? 1 : 0) + (current_item->next ? 1 : 0));
1679:../../iot_link/cJSON/cJSON.c ****         output_pointer = ensure(output_buffer, length + 1);
1680:../../iot_link/cJSON/cJSON.c ****         if (output_pointer == NULL)
1681:../../iot_link/cJSON/cJSON.c ****         {
1682:../../iot_link/cJSON/cJSON.c ****             return false;
1683:../../iot_link/cJSON/cJSON.c ****         }
1684:../../iot_link/cJSON/cJSON.c ****         if (current_item->next)
1685:../../iot_link/cJSON/cJSON.c ****         {
1686:../../iot_link/cJSON/cJSON.c ****             *output_pointer++ = ',';
1687:../../iot_link/cJSON/cJSON.c ****         }
1688:../../iot_link/cJSON/cJSON.c **** 
1689:../../iot_link/cJSON/cJSON.c ****         if (output_buffer->format)
1690:../../iot_link/cJSON/cJSON.c ****         {
1691:../../iot_link/cJSON/cJSON.c ****             *output_pointer++ = '\n';
1692:../../iot_link/cJSON/cJSON.c ****         }
1693:../../iot_link/cJSON/cJSON.c ****         *output_pointer = '\0';
1694:../../iot_link/cJSON/cJSON.c ****         output_buffer->offset += length;
1695:../../iot_link/cJSON/cJSON.c **** 
1696:../../iot_link/cJSON/cJSON.c ****         current_item = current_item->next;
1697:../../iot_link/cJSON/cJSON.c ****     }
1698:../../iot_link/cJSON/cJSON.c **** 
1699:../../iot_link/cJSON/cJSON.c ****     output_pointer = ensure(output_buffer, output_buffer->format ? (output_buffer->depth + 1) : 2);
1700:../../iot_link/cJSON/cJSON.c ****     if (output_pointer == NULL)
1701:../../iot_link/cJSON/cJSON.c ****     {
1702:../../iot_link/cJSON/cJSON.c ****         return false;
1703:../../iot_link/cJSON/cJSON.c ****     }
1704:../../iot_link/cJSON/cJSON.c ****     if (output_buffer->format)
ARM GAS  C:\Users\LuckyE\AppData\Local\Temp\ccgn9LZs.s 			page 42


1705:../../iot_link/cJSON/cJSON.c ****     {
1706:../../iot_link/cJSON/cJSON.c ****         size_t i;
1707:../../iot_link/cJSON/cJSON.c ****         for (i = 0; i < (output_buffer->depth - 1); i++)
1708:../../iot_link/cJSON/cJSON.c ****         {
1709:../../iot_link/cJSON/cJSON.c ****             *output_pointer++ = '\t';
1710:../../iot_link/cJSON/cJSON.c ****         }
1711:../../iot_link/cJSON/cJSON.c ****     }
1712:../../iot_link/cJSON/cJSON.c ****     *output_pointer++ = '}';
1713:../../iot_link/cJSON/cJSON.c ****     *output_pointer = '\0';
1714:../../iot_link/cJSON/cJSON.c ****     output_buffer->depth--;
1715:../../iot_link/cJSON/cJSON.c **** 
1716:../../iot_link/cJSON/cJSON.c ****     return true;
1717:../../iot_link/cJSON/cJSON.c **** }
1718:../../iot_link/cJSON/cJSON.c **** 
1719:../../iot_link/cJSON/cJSON.c **** /* Get Array size/item / object item. */
1720:../../iot_link/cJSON/cJSON.c **** CJSON_PUBLIC(int) cJSON_GetArraySize(const cJSON *array)
1721:../../iot_link/cJSON/cJSON.c **** {
1722:../../iot_link/cJSON/cJSON.c ****     cJSON *child = NULL;
1723:../../iot_link/cJSON/cJSON.c ****     size_t size = 0;
1724:../../iot_link/cJSON/cJSON.c **** 
1725:../../iot_link/cJSON/cJSON.c ****     if (array == NULL)
1726:../../iot_link/cJSON/cJSON.c ****     {
1727:../../iot_link/cJSON/cJSON.c ****         return 0;
1728:../../iot_link/cJSON/cJSON.c ****     }
1729:../../iot_link/cJSON/cJSON.c **** 
1730:../../iot_link/cJSON/cJSON.c ****     child = array->child;
1731:../../iot_link/cJSON/cJSON.c **** 
1732:../../iot_link/cJSON/cJSON.c ****     while(child != NULL)
1733:../../iot_link/cJSON/cJSON.c ****     {
1734:../../iot_link/cJSON/cJSON.c ****         size++;
1735:../../iot_link/cJSON/cJSON.c ****         child = child->next;
1736:../../iot_link/cJSON/cJSON.c ****     }
1737:../../iot_link/cJSON/cJSON.c **** 
1738:../../iot_link/cJSON/cJSON.c ****     /* FIXME: Can overflow here. Cannot be fixed without breaking the API */
1739:../../iot_link/cJSON/cJSON.c **** 
1740:../../iot_link/cJSON/cJSON.c ****     return (int)size;
1741:../../iot_link/cJSON/cJSON.c **** }
1742:../../iot_link/cJSON/cJSON.c **** 
1743:../../iot_link/cJSON/cJSON.c **** static cJSON* get_array_item(const cJSON *array, size_t index)
1744:../../iot_link/cJSON/cJSON.c **** {
 565              		.loc 1 1744 0
 566              		.cfi_startproc
 567              		@ args = 0, pretend = 0, frame = 0
 568              		@ frame_needed = 0, uses_anonymous_args = 0
 569              		@ link register save eliminated.
 570              	.LVL73:
1745:../../iot_link/cJSON/cJSON.c ****     cJSON *current_child = NULL;
1746:../../iot_link/cJSON/cJSON.c **** 
1747:../../iot_link/cJSON/cJSON.c ****     if (array == NULL)
 571              		.loc 1 1747 0
 572 0000 10B1     		cbz	r0, .L73
1748:../../iot_link/cJSON/cJSON.c ****     {
1749:../../iot_link/cJSON/cJSON.c ****         return NULL;
1750:../../iot_link/cJSON/cJSON.c ****     }
1751:../../iot_link/cJSON/cJSON.c **** 
1752:../../iot_link/cJSON/cJSON.c ****     current_child = array->child;
 573              		.loc 1 1752 0
ARM GAS  C:\Users\LuckyE\AppData\Local\Temp\ccgn9LZs.s 			page 43


 574 0002 8068     		ldr	r0, [r0, #8]
 575              	.LVL74:
 576              	.L75:
1753:../../iot_link/cJSON/cJSON.c ****     while ((current_child != NULL) && (index > 0))
 577              		.loc 1 1753 0
 578 0004 00B1     		cbz	r0, .L73
 579              		.loc 1 1753 0 is_stmt 0 discriminator 1
 580 0006 01B9     		cbnz	r1, .L76
 581              	.LVL75:
 582              	.L73:
1754:../../iot_link/cJSON/cJSON.c ****     {
1755:../../iot_link/cJSON/cJSON.c ****         index--;
1756:../../iot_link/cJSON/cJSON.c ****         current_child = current_child->next;
1757:../../iot_link/cJSON/cJSON.c ****     }
1758:../../iot_link/cJSON/cJSON.c **** 
1759:../../iot_link/cJSON/cJSON.c ****     return current_child;
1760:../../iot_link/cJSON/cJSON.c **** }
 583              		.loc 1 1760 0 is_stmt 1
 584 0008 7047     		bx	lr
 585              	.LVL76:
 586              	.L76:
1755:../../iot_link/cJSON/cJSON.c ****         current_child = current_child->next;
 587              		.loc 1 1755 0
 588 000a 0139     		subs	r1, r1, #1
 589              	.LVL77:
1756:../../iot_link/cJSON/cJSON.c ****     }
 590              		.loc 1 1756 0
 591 000c 0068     		ldr	r0, [r0]
 592              	.LVL78:
 593 000e F9E7     		b	.L75
 594              		.cfi_endproc
 595              	.LFE38:
 597              		.section	.text.update_offset,"ax",%progbits
 598              		.align	1
 599              		.syntax unified
 600              		.thumb
 601              		.thumb_func
 602              		.fpu fpv4-sp-d16
 604              	update_offset:
 605              	.LFB15:
 462:../../iot_link/cJSON/cJSON.c ****     const unsigned char *buffer_pointer = NULL;
 606              		.loc 1 462 0
 607              		.cfi_startproc
 608              		@ args = 0, pretend = 0, frame = 0
 609              		@ frame_needed = 0, uses_anonymous_args = 0
 610              	.LVL79:
 611 0000 38B5     		push	{r3, r4, r5, lr}
 612              	.LCFI3:
 613              		.cfi_def_cfa_offset 16
 614              		.cfi_offset 3, -16
 615              		.cfi_offset 4, -12
 616              		.cfi_offset 5, -8
 617              		.cfi_offset 14, -4
 464:../../iot_link/cJSON/cJSON.c ****     {
 618              		.loc 1 464 0
 619 0002 0446     		mov	r4, r0
 620 0004 38B1     		cbz	r0, .L81
ARM GAS  C:\Users\LuckyE\AppData\Local\Temp\ccgn9LZs.s 			page 44


 464:../../iot_link/cJSON/cJSON.c ****     {
 621              		.loc 1 464 0 is_stmt 0 discriminator 1
 622 0006 0068     		ldr	r0, [r0]
 623              	.LVL80:
 624 0008 28B1     		cbz	r0, .L81
 468:../../iot_link/cJSON/cJSON.c **** 
 625              		.loc 1 468 0 is_stmt 1
 626 000a A568     		ldr	r5, [r4, #8]
 627              	.LVL81:
 470:../../iot_link/cJSON/cJSON.c **** }
 628              		.loc 1 470 0
 629 000c 2844     		add	r0, r0, r5
 630              	.LVL82:
 631 000e FFF7FEFF 		bl	strlen
 632              	.LVL83:
 633 0012 2844     		add	r0, r0, r5
 634 0014 A060     		str	r0, [r4, #8]
 635              	.L81:
 471:../../iot_link/cJSON/cJSON.c **** 
 636              		.loc 1 471 0
 637 0016 38BD     		pop	{r3, r4, r5, pc}
 638              		.cfi_endproc
 639              	.LFE15:
 641              		.section	.text.ensure,"ax",%progbits
 642              		.align	1
 643              		.syntax unified
 644              		.thumb
 645              		.thumb_func
 646              		.fpu fpv4-sp-d16
 648              	ensure:
 649              	.LFB14:
 374:../../iot_link/cJSON/cJSON.c ****     unsigned char *newbuffer = NULL;
 650              		.loc 1 374 0
 651              		.cfi_startproc
 652              		@ args = 0, pretend = 0, frame = 0
 653              		@ frame_needed = 0, uses_anonymous_args = 0
 654              	.LVL84:
 655 0000 70B5     		push	{r4, r5, r6, lr}
 656              	.LCFI4:
 657              		.cfi_def_cfa_offset 16
 658              		.cfi_offset 4, -16
 659              		.cfi_offset 5, -12
 660              		.cfi_offset 6, -8
 661              		.cfi_offset 14, -4
 378:../../iot_link/cJSON/cJSON.c ****     {
 662              		.loc 1 378 0
 663 0002 0446     		mov	r4, r0
 664 0004 B8B1     		cbz	r0, .L101
 378:../../iot_link/cJSON/cJSON.c ****     {
 665              		.loc 1 378 0 is_stmt 0 discriminator 1
 666 0006 0568     		ldr	r5, [r0]
 667 0008 65B1     		cbz	r5, .L89
 383:../../iot_link/cJSON/cJSON.c ****     {
 668              		.loc 1 383 0 is_stmt 1
 669 000a 4368     		ldr	r3, [r0, #4]
 670 000c 13B1     		cbz	r3, .L91
 383:../../iot_link/cJSON/cJSON.c ****     {
ARM GAS  C:\Users\LuckyE\AppData\Local\Temp\ccgn9LZs.s 			page 45


 671              		.loc 1 383 0 is_stmt 0 discriminator 1
 672 000e 8268     		ldr	r2, [r0, #8]
 673 0010 9342     		cmp	r3, r2
 674 0012 10D9     		bls	.L101
 675              	.L91:
 389:../../iot_link/cJSON/cJSON.c ****     {
 676              		.loc 1 389 0 is_stmt 1
 677 0014 0029     		cmp	r1, #0
 678 0016 0EDB     		blt	.L101
 395:../../iot_link/cJSON/cJSON.c ****     if (needed <= p->length)
 679              		.loc 1 395 0
 680 0018 A268     		ldr	r2, [r4, #8]
 681 001a 4E1C     		adds	r6, r1, #1
 682 001c 1644     		add	r6, r6, r2
 683              	.LVL85:
 396:../../iot_link/cJSON/cJSON.c ****     {
 684              		.loc 1 396 0
 685 001e B342     		cmp	r3, r6
 686 0020 02D3     		bcc	.L92
 398:../../iot_link/cJSON/cJSON.c ****     }
 687              		.loc 1 398 0
 688 0022 1544     		add	r5, r5, r2
 689              	.LVL86:
 690              	.L89:
 458:../../iot_link/cJSON/cJSON.c **** 
 691              		.loc 1 458 0
 692 0024 2846     		mov	r0, r5
 693 0026 70BD     		pop	{r4, r5, r6, pc}
 694              	.LVL87:
 695              	.L92:
 401:../../iot_link/cJSON/cJSON.c ****         return NULL;
 696              		.loc 1 401 0
 697 0028 2369     		ldr	r3, [r4, #16]
 698 002a 23B9     		cbnz	r3, .L101
 406:../../iot_link/cJSON/cJSON.c ****     {
 699              		.loc 1 406 0
 700 002c B6F1804F 		cmp	r6, #1073741824
 701 0030 03D3     		bcc	.L93
 409:../../iot_link/cJSON/cJSON.c ****         {
 702              		.loc 1 409 0
 703 0032 002E     		cmp	r6, #0
 704 0034 0FDA     		bge	.L102
 705              	.LVL88:
 706              	.L101:
 380:../../iot_link/cJSON/cJSON.c ****     }
 707              		.loc 1 380 0
 708 0036 0025     		movs	r5, #0
 709 0038 F4E7     		b	.L89
 710              	.LVL89:
 711              	.L93:
 420:../../iot_link/cJSON/cJSON.c ****     }
 712              		.loc 1 420 0
 713 003a 7600     		lsls	r6, r6, #1
 714              	.LVL90:
 715              	.L94:
 423:../../iot_link/cJSON/cJSON.c ****     {
 716              		.loc 1 423 0
ARM GAS  C:\Users\LuckyE\AppData\Local\Temp\ccgn9LZs.s 			page 46


 717 003c 236A     		ldr	r3, [r4, #32]
 718 003e 6BB1     		cbz	r3, .L95
 426:../../iot_link/cJSON/cJSON.c ****         if (newbuffer == NULL)
 719              		.loc 1 426 0
 720 0040 2846     		mov	r0, r5
 721              	.LVL91:
 722 0042 3146     		mov	r1, r6
 723              	.LVL92:
 724 0044 9847     		blx	r3
 725              	.LVL93:
 427:../../iot_link/cJSON/cJSON.c ****         {
 726              		.loc 1 427 0
 727 0046 0546     		mov	r5, r0
 728 0048 B0B9     		cbnz	r0, .L96
 729              	.L109:
 442:../../iot_link/cJSON/cJSON.c ****             p->length = 0;
 730              		.loc 1 442 0
 731 004a E369     		ldr	r3, [r4, #28]
 732 004c 2068     		ldr	r0, [r4]
 733              	.LVL94:
 734 004e 9847     		blx	r3
 735              	.LVL95:
 444:../../iot_link/cJSON/cJSON.c **** 
 736              		.loc 1 444 0
 737 0050 C4E90055 		strd	r5, r5, [r4]
 446:../../iot_link/cJSON/cJSON.c ****         }
 738              		.loc 1 446 0
 739 0054 E6E7     		b	.L89
 740              	.LVL96:
 741              	.L102:
 411:../../iot_link/cJSON/cJSON.c ****         }
 742              		.loc 1 411 0
 743 0056 6FF00046 		mvn	r6, #-2147483648
 744              	.LVL97:
 745 005a EFE7     		b	.L94
 746              	.LVL98:
 747              	.L95:
 439:../../iot_link/cJSON/cJSON.c ****         if (!newbuffer)
 748              		.loc 1 439 0
 749 005c A369     		ldr	r3, [r4, #24]
 750 005e 3046     		mov	r0, r6
 751              	.LVL99:
 752 0060 9847     		blx	r3
 753              	.LVL100:
 440:../../iot_link/cJSON/cJSON.c ****         {
 754              		.loc 1 440 0
 755 0062 0546     		mov	r5, r0
 756 0064 0028     		cmp	r0, #0
 757 0066 F0D0     		beq	.L109
 450:../../iot_link/cJSON/cJSON.c ****         }
 758              		.loc 1 450 0
 759 0068 A268     		ldr	r2, [r4, #8]
 760 006a 2168     		ldr	r1, [r4]
 761 006c 0132     		adds	r2, r2, #1
 762 006e FFF7FEFF 		bl	memcpy
 763              	.LVL101:
 452:../../iot_link/cJSON/cJSON.c ****     }
ARM GAS  C:\Users\LuckyE\AppData\Local\Temp\ccgn9LZs.s 			page 47


 764              		.loc 1 452 0
 765 0072 E369     		ldr	r3, [r4, #28]
 766 0074 2068     		ldr	r0, [r4]
 767 0076 9847     		blx	r3
 768              	.LVL102:
 769              	.L96:
 457:../../iot_link/cJSON/cJSON.c **** }
 770              		.loc 1 457 0
 771 0078 A368     		ldr	r3, [r4, #8]
 455:../../iot_link/cJSON/cJSON.c **** 
 772              		.loc 1 455 0
 773 007a C4E90056 		strd	r5, r6, [r4]
 457:../../iot_link/cJSON/cJSON.c **** }
 774              		.loc 1 457 0
 775 007e 1D44     		add	r5, r5, r3
 776              	.LVL103:
 777 0080 D0E7     		b	.L89
 778              		.cfi_endproc
 779              	.LFE14:
 781              		.section	.text.get_object_item,"ax",%progbits
 782              		.align	1
 783              		.syntax unified
 784              		.thumb
 785              		.thumb_func
 786              		.fpu fpv4-sp-d16
 788              	get_object_item:
 789              	.LFB40:
1761:../../iot_link/cJSON/cJSON.c **** 
1762:../../iot_link/cJSON/cJSON.c **** CJSON_PUBLIC(cJSON *) cJSON_GetArrayItem(const cJSON *array, int index)
1763:../../iot_link/cJSON/cJSON.c **** {
1764:../../iot_link/cJSON/cJSON.c ****     if (index < 0)
1765:../../iot_link/cJSON/cJSON.c ****     {
1766:../../iot_link/cJSON/cJSON.c ****         return NULL;
1767:../../iot_link/cJSON/cJSON.c ****     }
1768:../../iot_link/cJSON/cJSON.c **** 
1769:../../iot_link/cJSON/cJSON.c ****     return get_array_item(array, (size_t)index);
1770:../../iot_link/cJSON/cJSON.c **** }
1771:../../iot_link/cJSON/cJSON.c **** 
1772:../../iot_link/cJSON/cJSON.c **** static cJSON *get_object_item(const cJSON * const object, const char * const name, const cJSON_bool
1773:../../iot_link/cJSON/cJSON.c **** {
 790              		.loc 1 1773 0
 791              		.cfi_startproc
 792              		@ args = 0, pretend = 0, frame = 0
 793              		@ frame_needed = 0, uses_anonymous_args = 0
 794              	.LVL104:
 795 0000 2DE9F047 		push	{r4, r5, r6, r7, r8, r9, r10, lr}
 796              	.LCFI5:
 797              		.cfi_def_cfa_offset 32
 798              		.cfi_offset 4, -32
 799              		.cfi_offset 5, -28
 800              		.cfi_offset 6, -24
 801              		.cfi_offset 7, -20
 802              		.cfi_offset 8, -16
 803              		.cfi_offset 9, -12
 804              		.cfi_offset 10, -8
 805              		.cfi_offset 14, -4
 806              		.loc 1 1773 0
ARM GAS  C:\Users\LuckyE\AppData\Local\Temp\ccgn9LZs.s 			page 48


 807 0004 0F46     		mov	r7, r1
1774:../../iot_link/cJSON/cJSON.c ****     cJSON *current_element = NULL;
1775:../../iot_link/cJSON/cJSON.c **** 
1776:../../iot_link/cJSON/cJSON.c ****     if ((object == NULL) || (name == NULL))
 808              		.loc 1 1776 0
 809 0006 18B9     		cbnz	r0, .L111
 810              	.LVL105:
 811              	.L113:
1777:../../iot_link/cJSON/cJSON.c ****     {
1778:../../iot_link/cJSON/cJSON.c ****         return NULL;
 812              		.loc 1 1778 0
 813 0008 0024     		movs	r4, #0
 814              	.L110:
1779:../../iot_link/cJSON/cJSON.c ****     }
1780:../../iot_link/cJSON/cJSON.c **** 
1781:../../iot_link/cJSON/cJSON.c ****     current_element = object->child;
1782:../../iot_link/cJSON/cJSON.c ****     if (case_sensitive)
1783:../../iot_link/cJSON/cJSON.c ****     {
1784:../../iot_link/cJSON/cJSON.c ****         while ((current_element != NULL) && (strcmp(name, current_element->string) != 0))
1785:../../iot_link/cJSON/cJSON.c ****         {
1786:../../iot_link/cJSON/cJSON.c ****             current_element = current_element->next;
1787:../../iot_link/cJSON/cJSON.c ****         }
1788:../../iot_link/cJSON/cJSON.c ****     }
1789:../../iot_link/cJSON/cJSON.c ****     else
1790:../../iot_link/cJSON/cJSON.c ****     {
1791:../../iot_link/cJSON/cJSON.c ****         while ((current_element != NULL) && (case_insensitive_strcmp((const unsigned char*)name, (c
1792:../../iot_link/cJSON/cJSON.c ****         {
1793:../../iot_link/cJSON/cJSON.c ****             current_element = current_element->next;
1794:../../iot_link/cJSON/cJSON.c ****         }
1795:../../iot_link/cJSON/cJSON.c ****     }
1796:../../iot_link/cJSON/cJSON.c **** 
1797:../../iot_link/cJSON/cJSON.c ****     return current_element;
1798:../../iot_link/cJSON/cJSON.c **** }
 815              		.loc 1 1798 0
 816 000a 2046     		mov	r0, r4
 817 000c BDE8F087 		pop	{r4, r5, r6, r7, r8, r9, r10, pc}
 818              	.LVL106:
 819              	.L111:
1776:../../iot_link/cJSON/cJSON.c ****     {
 820              		.loc 1 1776 0 discriminator 1
 821 0010 0029     		cmp	r1, #0
 822 0012 F9D0     		beq	.L113
1781:../../iot_link/cJSON/cJSON.c ****     if (case_sensitive)
 823              		.loc 1 1781 0
 824 0014 8468     		ldr	r4, [r0, #8]
 825              	.LVL107:
1782:../../iot_link/cJSON/cJSON.c ****     {
 826              		.loc 1 1782 0
 827 0016 002A     		cmp	r2, #0
 828 0018 3ED1     		bne	.L114
 829              	.LVL108:
 830              	.L115:
1791:../../iot_link/cJSON/cJSON.c ****         {
 831              		.loc 1 1791 0
 832 001a 002C     		cmp	r4, #0
 833 001c F4D0     		beq	.L113
1791:../../iot_link/cJSON/cJSON.c ****         {
ARM GAS  C:\Users\LuckyE\AppData\Local\Temp\ccgn9LZs.s 			page 49


 834              		.loc 1 1791 0 is_stmt 0 discriminator 1
 835 001e 266A     		ldr	r6, [r4, #32]
 836              	.LVL109:
 837              	.LBB56:
 838              	.LBB57:
  99:../../iot_link/cJSON/cJSON.c ****     {
 839              		.loc 1 99 0 is_stmt 1 discriminator 1
 840 0020 BEB3     		cbz	r6, .L117
 104:../../iot_link/cJSON/cJSON.c ****     {
 841              		.loc 1 104 0
 842 0022 BE42     		cmp	r6, r7
 843 0024 F1D0     		beq	.L110
 844 0026 07F1FF3A 		add	r10, r7, #-1
 845              	.LVL110:
 846              	.L118:
 847              	.LBB58:
 109:../../iot_link/cJSON/cJSON.c ****     {
 848              		.loc 1 109 0
 849 002a 1AF8018F 		ldrb	r8, [r10, #1]!	@ zero_extendqisi2
 850 002e FFF7FEFF 		bl	__locale_ctype_ptr
 851              	.LVL111:
 852 0032 4044     		add	r0, r0, r8
 853 0034 B146     		mov	r9, r6
 854              	.LVL112:
 855 0036 4378     		ldrb	r3, [r0, #1]	@ zero_extendqisi2
 856              	.LBE58:
 857              	.LBB59:
 858 0038 16F8015B 		ldrb	r5, [r6], #1	@ zero_extendqisi2
 859              	.LVL113:
 860              	.LBE59:
 861              	.LBB60:
 862 003c 03F00303 		and	r3, r3, #3
 863 0040 012B     		cmp	r3, #1
 864 0042 08BF     		it	eq
 865 0044 08F12008 		addeq	r8, r8, #32
 866              	.LVL114:
 867              	.LBE60:
 868              	.LBB61:
 869 0048 FFF7FEFF 		bl	__locale_ctype_ptr
 870              	.LVL115:
 871 004c 2844     		add	r0, r0, r5
 872 004e 2B46     		mov	r3, r5
 873 0050 4278     		ldrb	r2, [r0, #1]	@ zero_extendqisi2
 874 0052 9AF80050 		ldrb	r5, [r10]	@ zero_extendqisi2
 875              	.LVL116:
 876 0056 02F00302 		and	r2, r2, #3
 877 005a 012A     		cmp	r2, #1
 878 005c 08BF     		it	eq
 879 005e 2033     		addeq	r3, r3, #32
 880              	.LVL117:
 881              	.LBE61:
 882 0060 9845     		cmp	r8, r3
 883 0062 22D0     		beq	.L121
 884              	.LVL118:
 885              	.LBB62:
 117:../../iot_link/cJSON/cJSON.c **** }
 886              		.loc 1 117 0
ARM GAS  C:\Users\LuckyE\AppData\Local\Temp\ccgn9LZs.s 			page 50


 887 0064 FFF7FEFF 		bl	__locale_ctype_ptr
 888              	.LVL119:
 889 0068 2844     		add	r0, r0, r5
 890              	.LBE62:
 891              	.LBB63:
 892 006a 99F80060 		ldrb	r6, [r9]	@ zero_extendqisi2
 893              	.LVL120:
 894              	.LBE63:
 895              	.LBB64:
 896 006e 4378     		ldrb	r3, [r0, #1]	@ zero_extendqisi2
 897 0070 03F00303 		and	r3, r3, #3
 898 0074 012B     		cmp	r3, #1
 899 0076 08BF     		it	eq
 900 0078 2035     		addeq	r5, r5, #32
 901              	.LBE64:
 902              	.LBB65:
 903 007a FFF7FEFF 		bl	__locale_ctype_ptr
 904              	.LVL121:
 905 007e 3044     		add	r0, r0, r6
 906 0080 3346     		mov	r3, r6
 907 0082 4278     		ldrb	r2, [r0, #1]	@ zero_extendqisi2
 908 0084 02F00302 		and	r2, r2, #3
 909 0088 012A     		cmp	r2, #1
 910 008a 08BF     		it	eq
 911 008c 2033     		addeq	r3, r3, #32
 912              	.LVL122:
 913              	.LBE65:
 914              	.LBE57:
 915              	.LBE56:
1791:../../iot_link/cJSON/cJSON.c ****         {
 916              		.loc 1 1791 0
 917 008e 9D42     		cmp	r5, r3
 918 0090 BBD0     		beq	.L110
 919              	.L117:
1793:../../iot_link/cJSON/cJSON.c ****         }
 920              		.loc 1 1793 0
 921 0092 2468     		ldr	r4, [r4]
 922              	.LVL123:
 923 0094 C1E7     		b	.L115
 924              	.L116:
1786:../../iot_link/cJSON/cJSON.c ****         }
 925              		.loc 1 1786 0
 926 0096 2468     		ldr	r4, [r4]
 927              	.LVL124:
 928              	.L114:
1784:../../iot_link/cJSON/cJSON.c ****         {
 929              		.loc 1 1784 0
 930 0098 002C     		cmp	r4, #0
 931 009a B5D0     		beq	.L113
1784:../../iot_link/cJSON/cJSON.c ****         {
 932              		.loc 1 1784 0 is_stmt 0 discriminator 1
 933 009c 216A     		ldr	r1, [r4, #32]
 934 009e 3846     		mov	r0, r7
 935 00a0 FFF7FEFF 		bl	strcmp
 936              	.LVL125:
 937 00a4 0028     		cmp	r0, #0
 938 00a6 F6D1     		bne	.L116
ARM GAS  C:\Users\LuckyE\AppData\Local\Temp\ccgn9LZs.s 			page 51


 939 00a8 AFE7     		b	.L110
 940              	.LVL126:
 941              	.L121:
 942              	.LBB67:
 943              	.LBB66:
 111:../../iot_link/cJSON/cJSON.c ****         {
 944              		.loc 1 111 0 is_stmt 1
 945 00aa 002D     		cmp	r5, #0
 946 00ac BDD1     		bne	.L118
 947 00ae ACE7     		b	.L110
 948              	.LBE66:
 949              	.LBE67:
 950              		.cfi_endproc
 951              	.LFE40:
 953              		.section	.text.add_item_to_array,"ax",%progbits
 954              		.align	1
 955              		.syntax unified
 956              		.thumb
 957              		.thumb_func
 958              		.fpu fpv4-sp-d16
 960              	add_item_to_array:
 961              	.LFB46:
1799:../../iot_link/cJSON/cJSON.c **** 
1800:../../iot_link/cJSON/cJSON.c **** CJSON_PUBLIC(cJSON *) cJSON_GetObjectItem(const cJSON * const object, const char * const string)
1801:../../iot_link/cJSON/cJSON.c **** {
1802:../../iot_link/cJSON/cJSON.c ****     return get_object_item(object, string, false);
1803:../../iot_link/cJSON/cJSON.c **** }
1804:../../iot_link/cJSON/cJSON.c **** 
1805:../../iot_link/cJSON/cJSON.c **** CJSON_PUBLIC(cJSON *) cJSON_GetObjectItemCaseSensitive(const cJSON * const object, const char * con
1806:../../iot_link/cJSON/cJSON.c **** {
1807:../../iot_link/cJSON/cJSON.c ****     return get_object_item(object, string, true);
1808:../../iot_link/cJSON/cJSON.c **** }
1809:../../iot_link/cJSON/cJSON.c **** 
1810:../../iot_link/cJSON/cJSON.c **** CJSON_PUBLIC(cJSON_bool) cJSON_HasObjectItem(const cJSON *object, const char *string)
1811:../../iot_link/cJSON/cJSON.c **** {
1812:../../iot_link/cJSON/cJSON.c ****     return cJSON_GetObjectItem(object, string) ? 1 : 0;
1813:../../iot_link/cJSON/cJSON.c **** }
1814:../../iot_link/cJSON/cJSON.c **** 
1815:../../iot_link/cJSON/cJSON.c **** /* Utility for array list handling. */
1816:../../iot_link/cJSON/cJSON.c **** static void suffix_object(cJSON *prev, cJSON *item)
1817:../../iot_link/cJSON/cJSON.c **** {
1818:../../iot_link/cJSON/cJSON.c ****     prev->next = item;
1819:../../iot_link/cJSON/cJSON.c ****     item->prev = prev;
1820:../../iot_link/cJSON/cJSON.c **** }
1821:../../iot_link/cJSON/cJSON.c **** 
1822:../../iot_link/cJSON/cJSON.c **** /* Utility for handling references. */
1823:../../iot_link/cJSON/cJSON.c **** static cJSON *create_reference(const cJSON *item, const internal_hooks * const hooks)
1824:../../iot_link/cJSON/cJSON.c **** {
1825:../../iot_link/cJSON/cJSON.c ****     cJSON *reference = NULL;
1826:../../iot_link/cJSON/cJSON.c ****     if (item == NULL)
1827:../../iot_link/cJSON/cJSON.c ****     {
1828:../../iot_link/cJSON/cJSON.c ****         return NULL;
1829:../../iot_link/cJSON/cJSON.c ****     }
1830:../../iot_link/cJSON/cJSON.c **** 
1831:../../iot_link/cJSON/cJSON.c ****     reference = cJSON_New_Item(hooks);
1832:../../iot_link/cJSON/cJSON.c ****     if (reference == NULL)
1833:../../iot_link/cJSON/cJSON.c ****     {
ARM GAS  C:\Users\LuckyE\AppData\Local\Temp\ccgn9LZs.s 			page 52


1834:../../iot_link/cJSON/cJSON.c ****         return NULL;
1835:../../iot_link/cJSON/cJSON.c ****     }
1836:../../iot_link/cJSON/cJSON.c **** 
1837:../../iot_link/cJSON/cJSON.c ****     (void) memcpy(reference, item, sizeof(cJSON));
1838:../../iot_link/cJSON/cJSON.c ****     reference->string = NULL;
1839:../../iot_link/cJSON/cJSON.c ****     reference->type |= cJSON_IsReference;
1840:../../iot_link/cJSON/cJSON.c ****     reference->next = reference->prev = NULL;
1841:../../iot_link/cJSON/cJSON.c ****     return reference;
1842:../../iot_link/cJSON/cJSON.c **** }
1843:../../iot_link/cJSON/cJSON.c **** 
1844:../../iot_link/cJSON/cJSON.c **** static cJSON_bool add_item_to_array(cJSON *array, cJSON *item)
1845:../../iot_link/cJSON/cJSON.c **** {
 962              		.loc 1 1845 0
 963              		.cfi_startproc
 964              		@ args = 0, pretend = 0, frame = 0
 965              		@ frame_needed = 0, uses_anonymous_args = 0
 966              		@ link register save eliminated.
 967              	.LVL127:
1846:../../iot_link/cJSON/cJSON.c ****     cJSON *child = NULL;
1847:../../iot_link/cJSON/cJSON.c **** 
1848:../../iot_link/cJSON/cJSON.c ****     if ((item == NULL) || (array == NULL))
 968              		.loc 1 1848 0
 969 0000 61B1     		cbz	r1, .L143
 970              		.loc 1 1848 0 is_stmt 0 discriminator 1
 971 0002 60B1     		cbz	r0, .L140
 972              	.LVL128:
 973              	.LBB72:
 974              	.LBB73:
1849:../../iot_link/cJSON/cJSON.c ****     {
1850:../../iot_link/cJSON/cJSON.c ****         return false;
1851:../../iot_link/cJSON/cJSON.c ****     }
1852:../../iot_link/cJSON/cJSON.c **** 
1853:../../iot_link/cJSON/cJSON.c ****     child = array->child;
 975              		.loc 1 1853 0 is_stmt 1
 976 0004 8368     		ldr	r3, [r0, #8]
 977              	.LVL129:
1854:../../iot_link/cJSON/cJSON.c **** 
1855:../../iot_link/cJSON/cJSON.c ****     if (child == NULL)
 978              		.loc 1 1855 0
 979 0006 1BB9     		cbnz	r3, .L142
1856:../../iot_link/cJSON/cJSON.c ****     {
1857:../../iot_link/cJSON/cJSON.c ****         /* list is empty, start new one */
1858:../../iot_link/cJSON/cJSON.c ****         array->child = item;
 980              		.loc 1 1858 0
 981 0008 8160     		str	r1, [r0, #8]
 982              	.L147:
 983              	.LBB74:
 984              	.LBB75:
1819:../../iot_link/cJSON/cJSON.c **** }
 985              		.loc 1 1819 0
 986 000a 0120     		movs	r0, #1
 987              	.LVL130:
 988 000c 7047     		bx	lr
 989              	.LVL131:
 990              	.L145:
 991              	.LBE75:
 992              	.LBE74:
ARM GAS  C:\Users\LuckyE\AppData\Local\Temp\ccgn9LZs.s 			page 53


1859:../../iot_link/cJSON/cJSON.c ****     }
1860:../../iot_link/cJSON/cJSON.c ****     else
1861:../../iot_link/cJSON/cJSON.c ****     {
1862:../../iot_link/cJSON/cJSON.c ****         /* append to the end */
1863:../../iot_link/cJSON/cJSON.c ****         while (child->next)
 993              		.loc 1 1863 0
 994 000e 1346     		mov	r3, r2
 995              	.LVL132:
 996              	.L142:
 997 0010 1A68     		ldr	r2, [r3]
 998 0012 002A     		cmp	r2, #0
 999 0014 FBD1     		bne	.L145
 1000              	.LVL133:
 1001              	.LBB77:
 1002              	.LBB76:
1818:../../iot_link/cJSON/cJSON.c ****     item->prev = prev;
 1003              		.loc 1 1818 0
 1004 0016 1960     		str	r1, [r3]
1819:../../iot_link/cJSON/cJSON.c **** }
 1005              		.loc 1 1819 0
 1006 0018 4B60     		str	r3, [r1, #4]
 1007 001a F6E7     		b	.L147
 1008              	.LVL134:
 1009              	.L143:
 1010              	.LBE76:
 1011              	.LBE77:
 1012              	.LBE73:
 1013              	.LBE72:
1850:../../iot_link/cJSON/cJSON.c ****     }
 1014              		.loc 1 1850 0
 1015 001c 0846     		mov	r0, r1
 1016              	.LVL135:
 1017              	.L140:
1864:../../iot_link/cJSON/cJSON.c ****         {
1865:../../iot_link/cJSON/cJSON.c ****             child = child->next;
1866:../../iot_link/cJSON/cJSON.c ****         }
1867:../../iot_link/cJSON/cJSON.c ****         suffix_object(child, item);
1868:../../iot_link/cJSON/cJSON.c ****     }
1869:../../iot_link/cJSON/cJSON.c **** 
1870:../../iot_link/cJSON/cJSON.c ****     return true;
1871:../../iot_link/cJSON/cJSON.c **** }
 1018              		.loc 1 1871 0
 1019 001e 7047     		bx	lr
 1020              		.cfi_endproc
 1021              	.LFE46:
 1023              		.section	.text.cJSON_New_Item.isra.1,"ax",%progbits
 1024              		.align	1
 1025              		.syntax unified
 1026              		.thumb
 1027              		.thumb_func
 1028              		.fpu fpv4-sp-d16
 1030              	cJSON_New_Item.isra.1:
 1031              	.LFB108:
 202:../../iot_link/cJSON/cJSON.c **** {
 1032              		.loc 1 202 0
 1033              		.cfi_startproc
 1034              		@ args = 0, pretend = 0, frame = 0
ARM GAS  C:\Users\LuckyE\AppData\Local\Temp\ccgn9LZs.s 			page 54


 1035              		@ frame_needed = 0, uses_anonymous_args = 0
 1036 0000 10B5     		push	{r4, lr}
 1037              	.LCFI6:
 1038              		.cfi_def_cfa_offset 8
 1039              		.cfi_offset 4, -8
 1040              		.cfi_offset 14, -4
 202:../../iot_link/cJSON/cJSON.c **** {
 1041              		.loc 1 202 0
 1042 0002 0346     		mov	r3, r0
 204:../../iot_link/cJSON/cJSON.c ****     if (node)
 1043              		.loc 1 204 0
 1044 0004 2820     		movs	r0, #40
 1045 0006 9847     		blx	r3
 1046              	.LVL136:
 205:../../iot_link/cJSON/cJSON.c ****     {
 1047              		.loc 1 205 0
 1048 0008 0446     		mov	r4, r0
 1049 000a 18B1     		cbz	r0, .L148
 207:../../iot_link/cJSON/cJSON.c ****     }
 1050              		.loc 1 207 0
 1051 000c 2822     		movs	r2, #40
 1052 000e 0021     		movs	r1, #0
 1053 0010 FFF7FEFF 		bl	memset
 1054              	.LVL137:
 1055              	.L148:
 211:../../iot_link/cJSON/cJSON.c **** 
 1056              		.loc 1 211 0
 1057 0014 2046     		mov	r0, r4
 1058 0016 10BD     		pop	{r4, pc}
 1059              		.cfi_endproc
 1060              	.LFE108:
 1062              		.section	.text.print_string_ptr,"ax",%progbits
 1063              		.align	1
 1064              		.syntax unified
 1065              		.thumb
 1066              		.thumb_func
 1067              		.fpu fpv4-sp-d16
 1069              	print_string_ptr:
 1070              	.LFB20:
 828:../../iot_link/cJSON/cJSON.c ****     const unsigned char *input_pointer = NULL;
 1071              		.loc 1 828 0
 1072              		.cfi_startproc
 1073              		@ args = 0, pretend = 0, frame = 0
 1074              		@ frame_needed = 0, uses_anonymous_args = 0
 1075              	.LVL138:
 1076 0000 2DE9F84F 		push	{r3, r4, r5, r6, r7, r8, r9, r10, fp, lr}
 1077              	.LCFI7:
 1078              		.cfi_def_cfa_offset 40
 1079              		.cfi_offset 3, -40
 1080              		.cfi_offset 4, -36
 1081              		.cfi_offset 5, -32
 1082              		.cfi_offset 6, -28
 1083              		.cfi_offset 7, -24
 1084              		.cfi_offset 8, -20
 1085              		.cfi_offset 9, -16
 1086              		.cfi_offset 10, -12
 1087              		.cfi_offset 11, -8
ARM GAS  C:\Users\LuckyE\AppData\Local\Temp\ccgn9LZs.s 			page 55


 1088              		.cfi_offset 14, -4
 828:../../iot_link/cJSON/cJSON.c ****     const unsigned char *input_pointer = NULL;
 1089              		.loc 1 828 0
 1090 0004 0646     		mov	r6, r0
 836:../../iot_link/cJSON/cJSON.c ****     {
 1091              		.loc 1 836 0
 1092 0006 0846     		mov	r0, r1
 1093              	.LVL139:
 1094 0008 11B9     		cbnz	r1, .L154
 1095              	.LVL140:
 1096              	.L163:
 838:../../iot_link/cJSON/cJSON.c ****     }
 1097              		.loc 1 838 0
 1098 000a 0020     		movs	r0, #0
 1099              	.LVL141:
 1100              	.L153:
 946:../../iot_link/cJSON/cJSON.c **** 
 1101              		.loc 1 946 0
 1102 000c BDE8F88F 		pop	{r3, r4, r5, r6, r7, r8, r9, r10, fp, pc}
 1103              	.LVL142:
 1104              	.L154:
 842:../../iot_link/cJSON/cJSON.c ****     {
 1105              		.loc 1 842 0
 1106 0010 002E     		cmp	r6, #0
 1107 0012 79D0     		beq	.L156
 1108 0014 3546     		mov	r5, r6
 1109              	.LBB80:
 1110              	.LBB81:
 834:../../iot_link/cJSON/cJSON.c **** 
 1111              		.loc 1 834 0
 1112 0016 4FF00008 		mov	r8, #0
 1113              	.L157:
 1114              	.LVL143:
 855:../../iot_link/cJSON/cJSON.c ****     {
 1115              		.loc 1 855 0
 1116 001a 2A46     		mov	r2, r5
 1117 001c 12F8013B 		ldrb	r3, [r2], #1	@ zero_extendqisi2
 1118 0020 F3B9     		cbnz	r3, .L162
 878:../../iot_link/cJSON/cJSON.c **** 
 1119              		.loc 1 878 0
 1120 0022 AD1B     		subs	r5, r5, r6
 1121              	.LVL144:
 1122 0024 4544     		add	r5, r5, r8
 1123              	.LVL145:
 880:../../iot_link/cJSON/cJSON.c ****     if (output == NULL)
 1124              		.loc 1 880 0
 1125 0026 E91C     		adds	r1, r5, #3
 1126 0028 FFF7FEFF 		bl	ensure
 1127              	.LVL146:
 881:../../iot_link/cJSON/cJSON.c ****     {
 1128              		.loc 1 881 0
 1129 002c 0746     		mov	r7, r0
 1130 002e 0028     		cmp	r0, #0
 1131 0030 EBD0     		beq	.L163
 1132 0032 4FF0220B 		mov	fp, #34
 1133 0036 441C     		adds	r4, r0, #1
 1134 0038 05F1010A 		add	r10, r5, #1
ARM GAS  C:\Users\LuckyE\AppData\Local\Temp\ccgn9LZs.s 			page 56


 1135 003c 05F10209 		add	r9, r5, #2
 889:../../iot_link/cJSON/cJSON.c ****         (void) memcpy(output + 1, input, output_length);
 1136              		.loc 1 889 0
 1137 0040 80F800B0 		strb	fp, [r0]
 887:../../iot_link/cJSON/cJSON.c ****     {
 1138              		.loc 1 887 0
 1139 0044 B8F1000F 		cmp	r8, #0
 1140 0048 1FD1     		bne	.L164
 890:../../iot_link/cJSON/cJSON.c ****         output[output_length + 1] = '\"';
 1141              		.loc 1 890 0
 1142 004a 2A46     		mov	r2, r5
 1143 004c 3146     		mov	r1, r6
 1144 004e 2046     		mov	r0, r4
 1145              	.LVL147:
 1146 0050 FFF7FEFF 		bl	memcpy
 1147              	.LVL148:
 891:../../iot_link/cJSON/cJSON.c ****         output[output_length + 2] = '\0';
 1148              		.loc 1 891 0
 1149 0054 07F80AB0 		strb	fp, [r7, r10]
 892:../../iot_link/cJSON/cJSON.c **** 
 1150              		.loc 1 892 0
 1151 0058 07F80980 		strb	r8, [r7, r9]
 1152              	.LVL149:
 1153              	.L197:
 1154              	.LBE81:
 1155              	.LBE80:
 851:../../iot_link/cJSON/cJSON.c ****     }
 1156              		.loc 1 851 0
 1157 005c 0120     		movs	r0, #1
 1158 005e D5E7     		b	.L153
 1159              	.LVL150:
 1160              	.L162:
 1161              	.LBB83:
 1162              	.LBB82:
 857:../../iot_link/cJSON/cJSON.c ****         {
 1163              		.loc 1 857 0
 1164 0060 0D2B     		cmp	r3, #13
 1165 0062 09D8     		bhi	.L159
 1166 0064 0C2B     		cmp	r3, #12
 1167 0066 03D2     		bcs	.L160
 1168 0068 A3F10801 		sub	r1, r3, #8
 1169 006c 0229     		cmp	r1, #2
 1170 006e 07D8     		bhi	.L158
 1171              	.L160:
 867:../../iot_link/cJSON/cJSON.c ****                 break;
 1172              		.loc 1 867 0
 1173 0070 08F10108 		add	r8, r8, #1
 1174              	.LVL151:
 1175              	.L161:
 834:../../iot_link/cJSON/cJSON.c **** 
 1176              		.loc 1 834 0
 1177 0074 1546     		mov	r5, r2
 1178 0076 D0E7     		b	.L157
 1179              	.LVL152:
 1180              	.L159:
 857:../../iot_link/cJSON/cJSON.c ****         {
 1181              		.loc 1 857 0
ARM GAS  C:\Users\LuckyE\AppData\Local\Temp\ccgn9LZs.s 			page 57


 1182 0078 222B     		cmp	r3, #34
 1183 007a F9D0     		beq	.L160
 1184 007c 5C2B     		cmp	r3, #92
 1185 007e F7D0     		beq	.L160
 1186              	.L158:
 870:../../iot_link/cJSON/cJSON.c ****                 {
 1187              		.loc 1 870 0
 1188 0080 1F2B     		cmp	r3, #31
 873:../../iot_link/cJSON/cJSON.c ****                 }
 1189              		.loc 1 873 0
 1190 0082 98BF     		it	ls
 1191 0084 08F10508 		addls	r8, r8, #5
 1192              	.LVL153:
 1193 0088 F4E7     		b	.L161
 1194              	.LVL154:
 1195              	.L164:
 936:../../iot_link/cJSON/cJSON.c ****                     output_pointer += 4;
 1196              		.loc 1 936 0
 1197 008a DFF894B0 		ldr	fp, .L198+4
 1198 008e 013E     		subs	r6, r6, #1
 1199              	.LVL155:
 910:../../iot_link/cJSON/cJSON.c ****             switch (*input_pointer)
 1200              		.loc 1 910 0
 1201 0090 5C25     		movs	r5, #92
 1202              	.LVL156:
 923:../../iot_link/cJSON/cJSON.c ****                     break;
 1203              		.loc 1 923 0
 1204 0092 4FF06608 		mov	r8, #102
 1205              	.LVL157:
 1206              	.L165:
 900:../../iot_link/cJSON/cJSON.c ****     {
 1207              		.loc 1 900 0
 1208 0096 16F8013F 		ldrb	r3, [r6, #1]!	@ zero_extendqisi2
 1209              	.LVL158:
 1210 009a 2BB9     		cbnz	r3, .L177
 942:../../iot_link/cJSON/cJSON.c ****     output[output_length + 2] = '\0';
 1211              		.loc 1 942 0
 1212 009c 2222     		movs	r2, #34
 1213 009e 07F80A20 		strb	r2, [r7, r10]
 943:../../iot_link/cJSON/cJSON.c **** 
 1214              		.loc 1 943 0
 1215 00a2 07F80930 		strb	r3, [r7, r9]
 1216 00a6 D9E7     		b	.L197
 1217              	.L177:
 902:../../iot_link/cJSON/cJSON.c ****         {
 1218              		.loc 1 902 0
 1219 00a8 1F2B     		cmp	r3, #31
 1220 00aa 07D9     		bls	.L166
 1221 00ac 222B     		cmp	r3, #34
 1222 00ae 05D0     		beq	.L166
 1223 00b0 5C2B     		cmp	r3, #92
 1224 00b2 03D0     		beq	.L166
 905:../../iot_link/cJSON/cJSON.c ****         }
 1225              		.loc 1 905 0
 1226 00b4 2370     		strb	r3, [r4]
 1227 00b6 2046     		mov	r0, r4
 1228              	.LVL159:
ARM GAS  C:\Users\LuckyE\AppData\Local\Temp\ccgn9LZs.s 			page 58


 1229              	.L167:
 900:../../iot_link/cJSON/cJSON.c ****     {
 1230              		.loc 1 900 0
 1231 00b8 441C     		adds	r4, r0, #1
 1232              	.LVL160:
 1233 00ba ECE7     		b	.L165
 1234              	.LVL161:
 1235              	.L166:
 910:../../iot_link/cJSON/cJSON.c ****             switch (*input_pointer)
 1236              		.loc 1 910 0
 1237 00bc 2570     		strb	r5, [r4]
 911:../../iot_link/cJSON/cJSON.c ****             {
 1238              		.loc 1 911 0
 1239 00be 3278     		ldrb	r2, [r6]	@ zero_extendqisi2
 1240 00c0 0C2A     		cmp	r2, #12
 910:../../iot_link/cJSON/cJSON.c ****             switch (*input_pointer)
 1241              		.loc 1 910 0
 1242 00c2 04F10100 		add	r0, r4, #1
 1243              	.LVL162:
 911:../../iot_link/cJSON/cJSON.c ****             {
 1244              		.loc 1 911 0
 1245 00c6 13D0     		beq	.L169
 1246 00c8 08D8     		bhi	.L170
 1247 00ca 092A     		cmp	r2, #9
 1248 00cc 15D0     		beq	.L171
 1249 00ce 0A2A     		cmp	r2, #10
 1250 00d0 11D0     		beq	.L172
 1251 00d2 082A     		cmp	r2, #8
 1252 00d4 13D1     		bne	.L168
 920:../../iot_link/cJSON/cJSON.c ****                     break;
 1253              		.loc 1 920 0
 1254 00d6 6223     		movs	r3, #98
 1255              	.L196:
 932:../../iot_link/cJSON/cJSON.c ****                     break;
 1256              		.loc 1 932 0
 1257 00d8 6370     		strb	r3, [r4, #1]
 1258 00da EDE7     		b	.L167
 1259              	.L170:
 911:../../iot_link/cJSON/cJSON.c ****             {
 1260              		.loc 1 911 0
 1261 00dc 222A     		cmp	r2, #34
 1262 00de 05D0     		beq	.L174
 1263 00e0 5C2A     		cmp	r2, #92
 1264 00e2 03D0     		beq	.L174
 1265 00e4 0D2A     		cmp	r2, #13
 1266 00e6 0AD1     		bne	.L168
 929:../../iot_link/cJSON/cJSON.c ****                     break;
 1267              		.loc 1 929 0
 1268 00e8 7223     		movs	r3, #114
 1269 00ea F5E7     		b	.L196
 1270              	.L174:
 917:../../iot_link/cJSON/cJSON.c ****                     break;
 1271              		.loc 1 917 0
 1272 00ec 6270     		strb	r2, [r4, #1]
 1273 00ee E3E7     		b	.L167
 1274              	.L169:
 923:../../iot_link/cJSON/cJSON.c ****                     break;
ARM GAS  C:\Users\LuckyE\AppData\Local\Temp\ccgn9LZs.s 			page 59


 1275              		.loc 1 923 0
 1276 00f0 84F80180 		strb	r8, [r4, #1]
 1277 00f4 E0E7     		b	.L167
 1278              	.L172:
 926:../../iot_link/cJSON/cJSON.c ****                     break;
 1279              		.loc 1 926 0
 1280 00f6 6E23     		movs	r3, #110
 1281 00f8 EEE7     		b	.L196
 1282              	.L171:
 932:../../iot_link/cJSON/cJSON.c ****                     break;
 1283              		.loc 1 932 0
 1284 00fa 7423     		movs	r3, #116
 1285 00fc ECE7     		b	.L196
 1286              	.L168:
 936:../../iot_link/cJSON/cJSON.c ****                     output_pointer += 4;
 1287              		.loc 1 936 0
 1288 00fe 5946     		mov	r1, fp
 1289 0100 FFF7FEFF 		bl	sprintf
 1290              	.LVL163:
 937:../../iot_link/cJSON/cJSON.c ****                     break;
 1291              		.loc 1 937 0
 1292 0104 601D     		adds	r0, r4, #5
 1293              	.LVL164:
 1294 0106 D7E7     		b	.L167
 1295              	.LVL165:
 1296              	.L156:
 1297              	.LBE82:
 1298              	.LBE83:
 844:../../iot_link/cJSON/cJSON.c ****         if (output == NULL)
 1299              		.loc 1 844 0
 1300 0108 0321     		movs	r1, #3
 1301 010a FFF7FEFF 		bl	ensure
 1302              	.LVL166:
 845:../../iot_link/cJSON/cJSON.c ****         {
 1303              		.loc 1 845 0
 1304 010e 0028     		cmp	r0, #0
 1305 0110 3FF47BAF 		beq	.L163
 849:../../iot_link/cJSON/cJSON.c **** 
 1306              		.loc 1 849 0
 1307 0114 0149     		ldr	r1, .L198
 1308 0116 FFF7FEFF 		bl	strcpy
 1309              	.LVL167:
 1310 011a 9FE7     		b	.L197
 1311              	.L199:
 1312              		.align	2
 1313              	.L198:
 1314 011c 06000000 		.word	.LC1
 1315 0120 00000000 		.word	.LC0
 1316              		.cfi_endproc
 1317              	.LFE20:
 1319              		.global	__aeabi_dmul
 1320              		.global	__aeabi_dcmpeq
 1321              		.section	.text.print_value,"ax",%progbits
 1322              		.align	1
 1323              		.syntax unified
 1324              		.thumb
 1325              		.thumb_func
ARM GAS  C:\Users\LuckyE\AppData\Local\Temp\ccgn9LZs.s 			page 60


 1326              		.fpu fpv4-sp-d16
 1328              	print_value:
 1329              	.LFB32:
1268:../../iot_link/cJSON/cJSON.c ****     unsigned char *output = NULL;
 1330              		.loc 1 1268 0
 1331              		.cfi_startproc
 1332              		@ args = 0, pretend = 0, frame = 40
 1333              		@ frame_needed = 0, uses_anonymous_args = 0
 1334              	.LVL168:
 1335 0000 2DE9F043 		push	{r4, r5, r6, r7, r8, r9, lr}
 1336              	.LCFI8:
 1337              		.cfi_def_cfa_offset 28
 1338              		.cfi_offset 4, -28
 1339              		.cfi_offset 5, -24
 1340              		.cfi_offset 6, -20
 1341              		.cfi_offset 7, -16
 1342              		.cfi_offset 8, -12
 1343              		.cfi_offset 9, -8
 1344              		.cfi_offset 14, -4
 1345 0004 0C46     		mov	r4, r1
 1346 0006 8BB0     		sub	sp, sp, #44
 1347              	.LCFI9:
 1348              		.cfi_def_cfa_offset 72
1271:../../iot_link/cJSON/cJSON.c ****     {
 1349              		.loc 1 1271 0
 1350 0008 0646     		mov	r6, r0
 1351 000a 08B9     		cbnz	r0, .L201
 1352              	.LVL169:
 1353              	.L247:
 1354              	.LBB97:
 1355              	.LBB98:
1336:../../iot_link/cJSON/cJSON.c ****     }
 1356              		.loc 1 1336 0
 1357 000c 0020     		movs	r0, #0
 1358 000e 1BE0     		b	.L200
 1359              	.LVL170:
 1360              	.L201:
 1361              	.LBE98:
 1362              	.LBE97:
1271:../../iot_link/cJSON/cJSON.c ****     {
 1363              		.loc 1 1271 0 discriminator 1
 1364 0010 0029     		cmp	r1, #0
 1365 0012 FBD0     		beq	.L247
 1366              	.LVL171:
 1367              	.LBB123:
 1368              	.LBB121:
1276:../../iot_link/cJSON/cJSON.c ****     {
 1369              		.loc 1 1276 0
 1370 0014 057B     		ldrb	r5, [r0, #12]	@ zero_extendqisi2
 1371 0016 082D     		cmp	r5, #8
 1372 0018 42D0     		beq	.L204
 1373 001a 0DDC     		bgt	.L205
 1374 001c 022D     		cmp	r5, #2
 1375 001e 37D0     		beq	.L206
 1376 0020 042D     		cmp	r5, #4
 1377 0022 2AD0     		beq	.L207
 1378 0024 012D     		cmp	r5, #1
ARM GAS  C:\Users\LuckyE\AppData\Local\Temp\ccgn9LZs.s 			page 61


 1379 0026 F1D1     		bne	.L247
1288:../../iot_link/cJSON/cJSON.c ****             if (output == NULL)
 1380              		.loc 1 1288 0
 1381 0028 0621     		movs	r1, #6
 1382              	.LVL172:
 1383 002a 2046     		mov	r0, r4
 1384              	.LVL173:
 1385 002c FFF7FEFF 		bl	ensure
 1386              	.LVL174:
1289:../../iot_link/cJSON/cJSON.c ****             {
 1387              		.loc 1 1289 0
 1388 0030 0028     		cmp	r0, #0
 1389 0032 EBD0     		beq	.L247
1293:../../iot_link/cJSON/cJSON.c ****             return true;
 1390              		.loc 1 1293 0
 1391 0034 AF49     		ldr	r1, .L333
 1392 0036 27E0     		b	.L332
 1393              	.LVL175:
 1394              	.L205:
1276:../../iot_link/cJSON/cJSON.c ****     {
 1395              		.loc 1 1276 0
 1396 0038 202D     		cmp	r5, #32
 1397 003a 77D0     		beq	.L209
 1398 003c 07DC     		bgt	.L210
 1399 003e 102D     		cmp	r5, #16
 1400 0040 E4D1     		bne	.L247
 1401              	.LVL176:
 1402              	.LBB99:
 1403              	.LBB100:
 951:../../iot_link/cJSON/cJSON.c **** }
 1404              		.loc 1 951 0
 1405 0042 0069     		ldr	r0, [r0, #16]
 1406              	.LVL177:
 1407 0044 FFF7FEFF 		bl	print_string_ptr
 1408              	.LVL178:
 1409              	.L200:
 1410              	.LBE100:
 1411              	.LBE99:
 1412              	.LBE121:
 1413              	.LBE123:
1338:../../iot_link/cJSON/cJSON.c **** 
 1414              		.loc 1 1338 0
 1415 0048 0BB0     		add	sp, sp, #44
 1416              	.LCFI10:
 1417              		.cfi_remember_state
 1418              		.cfi_def_cfa_offset 28
 1419              		@ sp needed
 1420 004a BDE8F083 		pop	{r4, r5, r6, r7, r8, r9, pc}
 1421              	.LVL179:
 1422              	.L210:
 1423              	.LCFI11:
 1424              		.cfi_restore_state
 1425              	.LBB124:
 1426              	.LBB122:
1276:../../iot_link/cJSON/cJSON.c ****     {
 1427              		.loc 1 1276 0
 1428 004e 402D     		cmp	r5, #64
ARM GAS  C:\Users\LuckyE\AppData\Local\Temp\ccgn9LZs.s 			page 62


 1429 0050 00F0B780 		beq	.L212
 1430 0054 802D     		cmp	r5, #128
 1431 0056 D9D1     		bne	.L247
 1432              	.LVL180:
 1433              	.LBB101:
1311:../../iot_link/cJSON/cJSON.c ****             {
 1434              		.loc 1 1311 0
 1435 0058 0069     		ldr	r0, [r0, #16]
 1436              	.LVL181:
 1437 005a 0028     		cmp	r0, #0
 1438 005c D6D0     		beq	.L247
1316:../../iot_link/cJSON/cJSON.c ****             output = ensure(output_buffer, raw_length);
 1439              		.loc 1 1316 0
 1440 005e FFF7FEFF 		bl	strlen
 1441              	.LVL182:
 1442 0062 451C     		adds	r5, r0, #1
 1443              	.LVL183:
1317:../../iot_link/cJSON/cJSON.c ****             if (output == NULL)
 1444              		.loc 1 1317 0
 1445 0064 2946     		mov	r1, r5
 1446 0066 2046     		mov	r0, r4
 1447 0068 FFF7FEFF 		bl	ensure
 1448              	.LVL184:
1318:../../iot_link/cJSON/cJSON.c ****             {
 1449              		.loc 1 1318 0
 1450 006c 0028     		cmp	r0, #0
 1451 006e CDD0     		beq	.L247
1322:../../iot_link/cJSON/cJSON.c ****             return true;
 1452              		.loc 1 1322 0
 1453 0070 2A46     		mov	r2, r5
 1454 0072 3169     		ldr	r1, [r6, #16]
 1455 0074 FFF7FEFF 		bl	memcpy
 1456              	.LVL185:
 1457 0078 08E0     		b	.L331
 1458              	.LVL186:
 1459              	.L207:
 1460              	.LBE101:
1279:../../iot_link/cJSON/cJSON.c ****             if (output == NULL)
 1461              		.loc 1 1279 0
 1462 007a 0521     		movs	r1, #5
 1463              	.LVL187:
 1464 007c 2046     		mov	r0, r4
 1465              	.LVL188:
 1466 007e FFF7FEFF 		bl	ensure
 1467              	.LVL189:
1280:../../iot_link/cJSON/cJSON.c ****             {
 1468              		.loc 1 1280 0
 1469 0082 0028     		cmp	r0, #0
 1470 0084 C2D0     		beq	.L247
1284:../../iot_link/cJSON/cJSON.c ****             return true;
 1471              		.loc 1 1284 0
 1472 0086 9C49     		ldr	r1, .L333+4
 1473              	.L332:
1302:../../iot_link/cJSON/cJSON.c ****             return true;
 1474              		.loc 1 1302 0
 1475 0088 FFF7FEFF 		bl	strcpy
 1476              	.LVL190:
ARM GAS  C:\Users\LuckyE\AppData\Local\Temp\ccgn9LZs.s 			page 63


 1477              	.L331:
 1478              	.LBB102:
 1479              	.LBB103:
1716:../../iot_link/cJSON/cJSON.c **** }
 1480              		.loc 1 1716 0
 1481 008c 0120     		movs	r0, #1
 1482 008e DBE7     		b	.L200
 1483              	.LVL191:
 1484              	.L206:
 1485              	.LBE103:
 1486              	.LBE102:
1297:../../iot_link/cJSON/cJSON.c ****             if (output == NULL)
 1487              		.loc 1 1297 0
 1488 0090 0521     		movs	r1, #5
 1489              	.LVL192:
 1490 0092 2046     		mov	r0, r4
 1491              	.LVL193:
 1492 0094 FFF7FEFF 		bl	ensure
 1493              	.LVL194:
1298:../../iot_link/cJSON/cJSON.c ****             {
 1494              		.loc 1 1298 0
 1495 0098 0028     		cmp	r0, #0
 1496 009a B7D0     		beq	.L247
1302:../../iot_link/cJSON/cJSON.c ****             return true;
 1497              		.loc 1 1302 0
 1498 009c 9749     		ldr	r1, .L333+8
 1499 009e F3E7     		b	.L332
 1500              	.LVL195:
 1501              	.L204:
 1502              	.LBB112:
 1503              	.LBB113:
 477:../../iot_link/cJSON/cJSON.c ****     int length = 0;
 1504              		.loc 1 477 0
 1505 00a0 D0E90689 		ldrd	r8, [r0, #24]
 1506              	.LVL196:
 490:../../iot_link/cJSON/cJSON.c ****     {
 1507              		.loc 1 490 0
 1508 00a4 0022     		movs	r2, #0
 1509 00a6 0023     		movs	r3, #0
 1510 00a8 4046     		mov	r0, r8
 1511              	.LVL197:
 1512 00aa 4946     		mov	r1, r9
 1513              	.LVL198:
 1514 00ac FFF7FEFF 		bl	__aeabi_dmul
 1515              	.LVL199:
 1516 00b0 0022     		movs	r2, #0
 1517 00b2 0023     		movs	r3, #0
 1518 00b4 FFF7FEFF 		bl	__aeabi_dcmpeq
 1519              	.LVL200:
 1520 00b8 03AE     		add	r6, sp, #12
 1521              	.LVL201:
 1522 00ba 98B9     		cbnz	r0, .L329
 492:../../iot_link/cJSON/cJSON.c ****     }
 1523              		.loc 1 492 0
 1524 00bc 8E49     		ldr	r1, .L333+4
 1525 00be 3046     		mov	r0, r6
 1526 00c0 FFF7FEFF 		bl	strcpy
ARM GAS  C:\Users\LuckyE\AppData\Local\Temp\ccgn9LZs.s 			page 64


 1527              	.LVL202:
 1528 00c4 0425     		movs	r5, #4
 1529              	.LVL203:
 1530              	.L219:
 514:../../iot_link/cJSON/cJSON.c ****     if (output_pointer == NULL)
 1531              		.loc 1 514 0
 1532 00c6 691C     		adds	r1, r5, #1
 1533 00c8 2046     		mov	r0, r4
 1534 00ca FFF7FEFF 		bl	ensure
 1535              	.LVL204:
 515:../../iot_link/cJSON/cJSON.c ****     {
 1536              		.loc 1 515 0
 1537 00ce 0028     		cmp	r0, #0
 1538 00d0 9CD0     		beq	.L247
 522:../../iot_link/cJSON/cJSON.c ****     {
 1539              		.loc 1 522 0
 1540 00d2 0023     		movs	r3, #0
 1541              	.LVL205:
 1542              	.L222:
 1543 00d4 9D42     		cmp	r5, r3
 1544 00d6 25D1     		bne	.L225
 532:../../iot_link/cJSON/cJSON.c **** 
 1545              		.loc 1 532 0
 1546 00d8 0023     		movs	r3, #0
 1547              	.LVL206:
 1548 00da 4355     		strb	r3, [r0, r5]
 534:../../iot_link/cJSON/cJSON.c **** 
 1549              		.loc 1 534 0
 1550 00dc A368     		ldr	r3, [r4, #8]
 1551 00de 1D44     		add	r5, r5, r3
 1552 00e0 A560     		str	r5, [r4, #8]
 1553 00e2 D3E7     		b	.L331
 1554              	.LVL207:
 1555              	.L329:
 497:../../iot_link/cJSON/cJSON.c **** 
 1556              		.loc 1 497 0
 1557 00e4 4246     		mov	r2, r8
 1558 00e6 4B46     		mov	r3, r9
 1559 00e8 8549     		ldr	r1, .L333+12
 1560 00ea 3046     		mov	r0, r6
 1561 00ec FFF7FEFF 		bl	sprintf
 1562              	.LVL208:
 500:../../iot_link/cJSON/cJSON.c ****         {
 1563              		.loc 1 500 0
 1564 00f0 6A46     		mov	r2, sp
 497:../../iot_link/cJSON/cJSON.c **** 
 1565              		.loc 1 497 0
 1566 00f2 0546     		mov	r5, r0
 1567              	.LVL209:
 500:../../iot_link/cJSON/cJSON.c ****         {
 1568              		.loc 1 500 0
 1569 00f4 8349     		ldr	r1, .L333+16
 1570 00f6 3046     		mov	r0, r6
 1571              	.LVL210:
 1572 00f8 FFF7FEFF 		bl	sscanf
 1573              	.LVL211:
 1574 00fc 0128     		cmp	r0, #1
ARM GAS  C:\Users\LuckyE\AppData\Local\Temp\ccgn9LZs.s 			page 65


 1575 00fe 06D1     		bne	.L217
 1576 0100 DDE90023 		ldrd	r2, [sp]
 1577 0104 4046     		mov	r0, r8
 1578 0106 4946     		mov	r1, r9
 1579 0108 FFF7FEFF 		bl	__aeabi_dcmpeq
 1580              	.LVL212:
 1581 010c 30B9     		cbnz	r0, .L216
 1582              	.L217:
 503:../../iot_link/cJSON/cJSON.c ****         }
 1583              		.loc 1 503 0
 1584 010e 4246     		mov	r2, r8
 1585 0110 4B46     		mov	r3, r9
 1586 0112 7D49     		ldr	r1, .L333+20
 1587 0114 3046     		mov	r0, r6
 1588 0116 FFF7FEFF 		bl	sprintf
 1589              	.LVL213:
 1590 011a 0546     		mov	r5, r0
 1591              	.LVL214:
 1592              	.L216:
 508:../../iot_link/cJSON/cJSON.c ****     {
 1593              		.loc 1 508 0
 1594 011c 192D     		cmp	r5, #25
 1595 011e 3FF675AF 		bhi	.L247
 1596 0122 D0E7     		b	.L219
 1597              	.LVL215:
 1598              	.L225:
 524:../../iot_link/cJSON/cJSON.c ****         {
 1599              		.loc 1 524 0
 1600 0124 F25C     		ldrb	r2, [r6, r3]	@ zero_extendqisi2
 530:../../iot_link/cJSON/cJSON.c ****     }
 1601              		.loc 1 530 0
 1602 0126 C254     		strb	r2, [r0, r3]
 522:../../iot_link/cJSON/cJSON.c ****     {
 1603              		.loc 1 522 0
 1604 0128 0133     		adds	r3, r3, #1
 1605              	.LVL216:
 1606 012a D3E7     		b	.L222
 1607              	.LVL217:
 1608              	.L209:
 1609              	.LBE113:
 1610              	.LBE112:
1330:../../iot_link/cJSON/cJSON.c **** 
 1611              		.loc 1 1330 0
 1612 012c 8668     		ldr	r6, [r0, #8]
 1613              	.LVL218:
 1614              	.LBB114:
 1615              	.LBB115:
1448:../../iot_link/cJSON/cJSON.c ****     if (output_pointer == NULL)
 1616              		.loc 1 1448 0
 1617 012e 0121     		movs	r1, #1
 1618              	.LVL219:
 1619 0130 2046     		mov	r0, r4
 1620              	.LVL220:
 1621 0132 FFF7FEFF 		bl	ensure
 1622              	.LVL221:
1449:../../iot_link/cJSON/cJSON.c ****     {
 1623              		.loc 1 1449 0
ARM GAS  C:\Users\LuckyE\AppData\Local\Temp\ccgn9LZs.s 			page 66


 1624 0136 0028     		cmp	r0, #0
 1625 0138 3FF468AF 		beq	.L247
1454:../../iot_link/cJSON/cJSON.c ****     output_buffer->offset++;
 1626              		.loc 1 1454 0
 1627 013c 5B23     		movs	r3, #91
 1628 013e 0370     		strb	r3, [r0]
1455:../../iot_link/cJSON/cJSON.c ****     output_buffer->depth++;
 1629              		.loc 1 1455 0
 1630 0140 A368     		ldr	r3, [r4, #8]
 1631 0142 0133     		adds	r3, r3, #1
 1632 0144 A360     		str	r3, [r4, #8]
1456:../../iot_link/cJSON/cJSON.c **** 
 1633              		.loc 1 1456 0
 1634 0146 E368     		ldr	r3, [r4, #12]
 1635 0148 0133     		adds	r3, r3, #1
 1636 014a E360     		str	r3, [r4, #12]
1473:../../iot_link/cJSON/cJSON.c ****             if(output_buffer->format)
 1637              		.loc 1 1473 0
 1638 014c 2C27     		movs	r7, #44
1478:../../iot_link/cJSON/cJSON.c ****             output_buffer->offset += length;
 1639              		.loc 1 1478 0
 1640 014e 4FF00008 		mov	r8, #0
 1641              	.LVL222:
 1642              	.L226:
1458:../../iot_link/cJSON/cJSON.c ****     {
 1643              		.loc 1 1458 0
 1644 0152 6EB9     		cbnz	r6, .L231
1484:../../iot_link/cJSON/cJSON.c ****     if (output_pointer == NULL)
 1645              		.loc 1 1484 0
 1646 0154 0221     		movs	r1, #2
 1647 0156 2046     		mov	r0, r4
 1648 0158 FFF7FEFF 		bl	ensure
 1649              	.LVL223:
1485:../../iot_link/cJSON/cJSON.c ****     {
 1650              		.loc 1 1485 0
 1651 015c 0028     		cmp	r0, #0
 1652 015e 3FF455AF 		beq	.L247
 1653              	.LVL224:
1489:../../iot_link/cJSON/cJSON.c ****     *output_pointer = '\0';
 1654              		.loc 1 1489 0
 1655 0162 5D23     		movs	r3, #93
 1656 0164 0370     		strb	r3, [r0]
1490:../../iot_link/cJSON/cJSON.c ****     output_buffer->depth--;
 1657              		.loc 1 1490 0
 1658 0166 4670     		strb	r6, [r0, #1]
 1659              	.LVL225:
 1660              	.L330:
 1661              	.LBE115:
 1662              	.LBE114:
 1663              	.LBB117:
 1664              	.LBB109:
1714:../../iot_link/cJSON/cJSON.c **** 
 1665              		.loc 1 1714 0
 1666 0168 E368     		ldr	r3, [r4, #12]
 1667 016a 013B     		subs	r3, r3, #1
 1668 016c E360     		str	r3, [r4, #12]
 1669 016e 8DE7     		b	.L331
ARM GAS  C:\Users\LuckyE\AppData\Local\Temp\ccgn9LZs.s 			page 67


 1670              	.LVL226:
 1671              	.L231:
 1672              	.LBE109:
 1673              	.LBE117:
 1674              	.LBB118:
 1675              	.LBB116:
1460:../../iot_link/cJSON/cJSON.c ****         {
 1676              		.loc 1 1460 0
 1677 0170 2146     		mov	r1, r4
 1678 0172 3046     		mov	r0, r6
 1679 0174 FFF744FF 		bl	print_value
 1680              	.LVL227:
 1681 0178 0028     		cmp	r0, #0
 1682 017a 3FF447AF 		beq	.L247
1464:../../iot_link/cJSON/cJSON.c ****         if (current_element->next)
 1683              		.loc 1 1464 0
 1684 017e 2046     		mov	r0, r4
 1685 0180 FFF7FEFF 		bl	update_offset
 1686              	.LVL228:
1465:../../iot_link/cJSON/cJSON.c ****         {
 1687              		.loc 1 1465 0
 1688 0184 3368     		ldr	r3, [r6]
 1689 0186 BBB1     		cbz	r3, .L227
1467:../../iot_link/cJSON/cJSON.c ****             output_pointer = ensure(output_buffer, length + 1);
 1690              		.loc 1 1467 0
 1691 0188 6369     		ldr	r3, [r4, #20]
 1692 018a 002B     		cmp	r3, #0
 1693 018c 0CBF     		ite	eq
 1694 018e 4FF00109 		moveq	r9, #1
 1695 0192 4FF00209 		movne	r9, #2
 1696              	.LVL229:
1468:../../iot_link/cJSON/cJSON.c ****             if (output_pointer == NULL)
 1697              		.loc 1 1468 0
 1698 0196 09F10101 		add	r1, r9, #1
 1699 019a 2046     		mov	r0, r4
 1700 019c FFF7FEFF 		bl	ensure
 1701              	.LVL230:
1469:../../iot_link/cJSON/cJSON.c ****             {
 1702              		.loc 1 1469 0
 1703 01a0 0028     		cmp	r0, #0
 1704 01a2 3FF433AF 		beq	.L247
 1705              	.LVL231:
1473:../../iot_link/cJSON/cJSON.c ****             if(output_buffer->format)
 1706              		.loc 1 1473 0
 1707 01a6 0770     		strb	r7, [r0]
1474:../../iot_link/cJSON/cJSON.c ****             {
 1708              		.loc 1 1474 0
 1709 01a8 6369     		ldr	r3, [r4, #20]
 1710 01aa 3BB9     		cbnz	r3, .L229
1473:../../iot_link/cJSON/cJSON.c ****             if(output_buffer->format)
 1711              		.loc 1 1473 0
 1712 01ac 431C     		adds	r3, r0, #1
 1713              	.LVL232:
 1714              	.L230:
1478:../../iot_link/cJSON/cJSON.c ****             output_buffer->offset += length;
 1715              		.loc 1 1478 0
 1716 01ae 83F80080 		strb	r8, [r3]
ARM GAS  C:\Users\LuckyE\AppData\Local\Temp\ccgn9LZs.s 			page 68


1479:../../iot_link/cJSON/cJSON.c ****         }
 1717              		.loc 1 1479 0
 1718 01b2 A368     		ldr	r3, [r4, #8]
 1719              	.LVL233:
 1720 01b4 4B44     		add	r3, r3, r9
 1721 01b6 A360     		str	r3, [r4, #8]
 1722              	.LVL234:
 1723              	.L227:
1481:../../iot_link/cJSON/cJSON.c ****     }
 1724              		.loc 1 1481 0
 1725 01b8 3668     		ldr	r6, [r6]
 1726              	.LVL235:
 1727 01ba CAE7     		b	.L226
 1728              	.LVL236:
 1729              	.L229:
1476:../../iot_link/cJSON/cJSON.c ****             }
 1730              		.loc 1 1476 0
 1731 01bc 831C     		adds	r3, r0, #2
 1732              	.LVL237:
 1733 01be 4570     		strb	r5, [r0, #1]
 1734 01c0 F5E7     		b	.L230
 1735              	.LVL238:
 1736              	.L212:
 1737              	.LBE116:
 1738              	.LBE118:
 1739              	.LBB119:
 1740              	.LBB110:
1618:../../iot_link/cJSON/cJSON.c ****     output_pointer = ensure(output_buffer, length + 1);
 1741              		.loc 1 1618 0
 1742 01c2 4B69     		ldr	r3, [r1, #20]
 1743              	.LBE110:
 1744              	.LBE119:
1333:../../iot_link/cJSON/cJSON.c **** 
 1745              		.loc 1 1333 0
 1746 01c4 8568     		ldr	r5, [r0, #8]
 1747              	.LBB120:
 1748              	.LBB111:
1618:../../iot_link/cJSON/cJSON.c ****     output_pointer = ensure(output_buffer, length + 1);
 1749              		.loc 1 1618 0
 1750 01c6 002B     		cmp	r3, #0
 1751 01c8 0CBF     		ite	eq
 1752 01ca 0127     		moveq	r7, #1
 1753 01cc 0227     		movne	r7, #2
 1754              	.LVL239:
1619:../../iot_link/cJSON/cJSON.c ****     if (output_pointer == NULL)
 1755              		.loc 1 1619 0
 1756 01ce 791C     		adds	r1, r7, #1
 1757              	.LVL240:
 1758 01d0 2046     		mov	r0, r4
 1759              	.LVL241:
 1760 01d2 FFF7FEFF 		bl	ensure
 1761              	.LVL242:
1620:../../iot_link/cJSON/cJSON.c ****     {
 1762              		.loc 1 1620 0
 1763 01d6 0028     		cmp	r0, #0
 1764 01d8 3FF418AF 		beq	.L247
 1765              	.LVL243:
ARM GAS  C:\Users\LuckyE\AppData\Local\Temp\ccgn9LZs.s 			page 69


1625:../../iot_link/cJSON/cJSON.c ****     output_buffer->depth++;
 1766              		.loc 1 1625 0
 1767 01dc 7B23     		movs	r3, #123
 1768 01de 0370     		strb	r3, [r0]
1626:../../iot_link/cJSON/cJSON.c ****     if (output_buffer->format)
 1769              		.loc 1 1626 0
 1770 01e0 E268     		ldr	r2, [r4, #12]
1627:../../iot_link/cJSON/cJSON.c ****     {
 1771              		.loc 1 1627 0
 1772 01e2 6369     		ldr	r3, [r4, #20]
1626:../../iot_link/cJSON/cJSON.c ****     if (output_buffer->format)
 1773              		.loc 1 1626 0
 1774 01e4 0132     		adds	r2, r2, #1
 1775 01e6 E260     		str	r2, [r4, #12]
1627:../../iot_link/cJSON/cJSON.c ****     {
 1776              		.loc 1 1627 0
 1777 01e8 0BB1     		cbz	r3, .L233
 1778              	.LVL244:
1629:../../iot_link/cJSON/cJSON.c ****     }
 1779              		.loc 1 1629 0
 1780 01ea 0A23     		movs	r3, #10
 1781 01ec 4370     		strb	r3, [r0, #1]
 1782              	.LVL245:
 1783              	.L233:
1631:../../iot_link/cJSON/cJSON.c **** 
 1784              		.loc 1 1631 0
 1785 01ee A368     		ldr	r3, [r4, #8]
 1786 01f0 3B44     		add	r3, r3, r7
 1787 01f2 A360     		str	r3, [r4, #8]
 1788              	.LBB104:
1645:../../iot_link/cJSON/cJSON.c ****             }
 1789              		.loc 1 1645 0
 1790 01f4 0927     		movs	r7, #9
 1791              	.LVL246:
 1792              	.LBE104:
1663:../../iot_link/cJSON/cJSON.c ****         if (output_buffer->format)
 1793              		.loc 1 1663 0
 1794 01f6 4FF03A08 		mov	r8, #58
 1795              	.LVL247:
 1796              	.L234:
 1797 01fa 6369     		ldr	r3, [r4, #20]
1633:../../iot_link/cJSON/cJSON.c ****     {
 1798              		.loc 1 1633 0
 1799 01fc 95B9     		cbnz	r5, .L242
1699:../../iot_link/cJSON/cJSON.c ****     if (output_pointer == NULL)
 1800              		.loc 1 1699 0
 1801 01fe 002B     		cmp	r3, #0
 1802 0200 6BD0     		beq	.L251
 1803 0202 E168     		ldr	r1, [r4, #12]
 1804 0204 0131     		adds	r1, r1, #1
 1805              	.L243:
 1806 0206 2046     		mov	r0, r4
 1807 0208 FFF7FEFF 		bl	ensure
 1808              	.LVL248:
1700:../../iot_link/cJSON/cJSON.c ****     {
 1809              		.loc 1 1700 0
 1810 020c 0028     		cmp	r0, #0
ARM GAS  C:\Users\LuckyE\AppData\Local\Temp\ccgn9LZs.s 			page 70


 1811 020e 3FF4FDAE 		beq	.L247
1704:../../iot_link/cJSON/cJSON.c ****     {
 1812              		.loc 1 1704 0
 1813 0212 6369     		ldr	r3, [r4, #20]
 1814 0214 002B     		cmp	r3, #0
 1815 0216 6AD1     		bne	.L252
 1816 0218 0346     		mov	r3, r0
 1817              	.LVL249:
 1818              	.L245:
1712:../../iot_link/cJSON/cJSON.c ****     *output_pointer = '\0';
 1819              		.loc 1 1712 0
 1820 021a 7D22     		movs	r2, #125
 1821 021c 1A70     		strb	r2, [r3]
1713:../../iot_link/cJSON/cJSON.c ****     output_buffer->depth--;
 1822              		.loc 1 1713 0
 1823 021e 0022     		movs	r2, #0
 1824 0220 5A70     		strb	r2, [r3, #1]
 1825 0222 A1E7     		b	.L330
 1826              	.LVL250:
 1827              	.L242:
1635:../../iot_link/cJSON/cJSON.c ****         {
 1828              		.loc 1 1635 0
 1829 0224 73B1     		cbz	r3, .L235
 1830              	.LBB105:
1638:../../iot_link/cJSON/cJSON.c ****             if (output_pointer == NULL)
 1831              		.loc 1 1638 0
 1832 0226 E168     		ldr	r1, [r4, #12]
 1833 0228 2046     		mov	r0, r4
 1834 022a FFF7FEFF 		bl	ensure
 1835              	.LVL251:
1639:../../iot_link/cJSON/cJSON.c ****             {
 1836              		.loc 1 1639 0
 1837 022e 0028     		cmp	r0, #0
 1838 0230 3FF4ECAE 		beq	.L247
 1839 0234 0246     		mov	r2, r0
 1840              	.LVL252:
 1841              	.L236:
1643:../../iot_link/cJSON/cJSON.c ****             {
 1842              		.loc 1 1643 0
 1843 0236 E168     		ldr	r1, [r4, #12]
 1844 0238 131A     		subs	r3, r2, r0
 1845              	.LVL253:
 1846 023a 8B42     		cmp	r3, r1
 1847 023c 4AD3     		bcc	.L237
1647:../../iot_link/cJSON/cJSON.c ****         }
 1848              		.loc 1 1647 0
 1849 023e A368     		ldr	r3, [r4, #8]
 1850              	.LVL254:
 1851 0240 0B44     		add	r3, r3, r1
 1852 0242 A360     		str	r3, [r4, #8]
 1853              	.LVL255:
 1854              	.L235:
 1855              	.LBE105:
1651:../../iot_link/cJSON/cJSON.c ****         {
 1856              		.loc 1 1651 0
 1857 0244 2146     		mov	r1, r4
 1858 0246 286A     		ldr	r0, [r5, #32]
ARM GAS  C:\Users\LuckyE\AppData\Local\Temp\ccgn9LZs.s 			page 71


 1859 0248 FFF7FEFF 		bl	print_string_ptr
 1860              	.LVL256:
 1861 024c 0028     		cmp	r0, #0
 1862 024e 3FF4DDAE 		beq	.L247
1655:../../iot_link/cJSON/cJSON.c **** 
 1863              		.loc 1 1655 0
 1864 0252 2046     		mov	r0, r4
 1865 0254 FFF7FEFF 		bl	update_offset
 1866              	.LVL257:
1657:../../iot_link/cJSON/cJSON.c ****         output_pointer = ensure(output_buffer, length);
 1867              		.loc 1 1657 0
 1868 0258 6369     		ldr	r3, [r4, #20]
 1869 025a 002B     		cmp	r3, #0
 1870 025c 0CBF     		ite	eq
 1871 025e 0126     		moveq	r6, #1
 1872 0260 0226     		movne	r6, #2
 1873              	.LVL258:
1658:../../iot_link/cJSON/cJSON.c ****         if (output_pointer == NULL)
 1874              		.loc 1 1658 0
 1875 0262 3146     		mov	r1, r6
 1876 0264 2046     		mov	r0, r4
 1877 0266 FFF7FEFF 		bl	ensure
 1878              	.LVL259:
1659:../../iot_link/cJSON/cJSON.c ****         {
 1879              		.loc 1 1659 0
 1880 026a 0028     		cmp	r0, #0
 1881 026c 3FF4CEAE 		beq	.L247
 1882              	.LVL260:
1663:../../iot_link/cJSON/cJSON.c ****         if (output_buffer->format)
 1883              		.loc 1 1663 0
 1884 0270 80F80080 		strb	r8, [r0]
1664:../../iot_link/cJSON/cJSON.c ****         {
 1885              		.loc 1 1664 0
 1886 0274 6369     		ldr	r3, [r4, #20]
 1887 0276 03B1     		cbz	r3, .L239
 1888              	.LVL261:
1666:../../iot_link/cJSON/cJSON.c ****         }
 1889              		.loc 1 1666 0
 1890 0278 4770     		strb	r7, [r0, #1]
 1891              	.LVL262:
 1892              	.L239:
1668:../../iot_link/cJSON/cJSON.c **** 
 1893              		.loc 1 1668 0
 1894 027a A168     		ldr	r1, [r4, #8]
 1895 027c 3144     		add	r1, r1, r6
 1896 027e A160     		str	r1, [r4, #8]
1671:../../iot_link/cJSON/cJSON.c ****         {
 1897              		.loc 1 1671 0
 1898 0280 2846     		mov	r0, r5
 1899 0282 2146     		mov	r1, r4
 1900 0284 FFF7BCFE 		bl	print_value
 1901              	.LVL263:
 1902 0288 0028     		cmp	r0, #0
 1903 028a 3FF4BFAE 		beq	.L247
1675:../../iot_link/cJSON/cJSON.c **** 
 1904              		.loc 1 1675 0
 1905 028e 2046     		mov	r0, r4
ARM GAS  C:\Users\LuckyE\AppData\Local\Temp\ccgn9LZs.s 			page 72


 1906 0290 FFF7FEFF 		bl	update_offset
 1907              	.LVL264:
1678:../../iot_link/cJSON/cJSON.c ****         output_pointer = ensure(output_buffer, length + 1);
 1908              		.loc 1 1678 0
 1909 0294 2E68     		ldr	r6, [r5]
 1910              	.LVL265:
 1911 0296 6369     		ldr	r3, [r4, #20]
 1912 0298 0036     		adds	r6, r6, #0
 1913 029a 18BF     		it	ne
 1914 029c 0126     		movne	r6, #1
 1915 029e 002B     		cmp	r3, #0
 1916 02a0 18BF     		it	ne
 1917 02a2 0136     		addne	r6, r6, #1
 1918              	.LVL266:
1679:../../iot_link/cJSON/cJSON.c ****         if (output_pointer == NULL)
 1919              		.loc 1 1679 0
 1920 02a4 711C     		adds	r1, r6, #1
 1921 02a6 2046     		mov	r0, r4
 1922 02a8 FFF7FEFF 		bl	ensure
 1923              	.LVL267:
1680:../../iot_link/cJSON/cJSON.c ****         {
 1924              		.loc 1 1680 0
 1925 02ac 0028     		cmp	r0, #0
 1926 02ae 3FF4ADAE 		beq	.L247
1684:../../iot_link/cJSON/cJSON.c ****         {
 1927              		.loc 1 1684 0
 1928 02b2 2B68     		ldr	r3, [r5]
 1929 02b4 13B1     		cbz	r3, .L240
 1930              	.LVL268:
1686:../../iot_link/cJSON/cJSON.c ****         }
 1931              		.loc 1 1686 0
 1932 02b6 2C23     		movs	r3, #44
 1933 02b8 0370     		strb	r3, [r0]
 1934 02ba 0130     		adds	r0, r0, #1
 1935              	.LVL269:
 1936              	.L240:
1689:../../iot_link/cJSON/cJSON.c ****         {
 1937              		.loc 1 1689 0
 1938 02bc 6369     		ldr	r3, [r4, #20]
 1939 02be 13B1     		cbz	r3, .L241
 1940              	.LVL270:
1691:../../iot_link/cJSON/cJSON.c ****         }
 1941              		.loc 1 1691 0
 1942 02c0 0A23     		movs	r3, #10
 1943 02c2 0370     		strb	r3, [r0]
 1944 02c4 0130     		adds	r0, r0, #1
 1945              	.LVL271:
 1946              	.L241:
1693:../../iot_link/cJSON/cJSON.c ****         output_buffer->offset += length;
 1947              		.loc 1 1693 0
 1948 02c6 0023     		movs	r3, #0
 1949 02c8 0370     		strb	r3, [r0]
1694:../../iot_link/cJSON/cJSON.c **** 
 1950              		.loc 1 1694 0
 1951 02ca A368     		ldr	r3, [r4, #8]
1696:../../iot_link/cJSON/cJSON.c ****     }
 1952              		.loc 1 1696 0
ARM GAS  C:\Users\LuckyE\AppData\Local\Temp\ccgn9LZs.s 			page 73


 1953 02cc 2D68     		ldr	r5, [r5]
 1954              	.LVL272:
1694:../../iot_link/cJSON/cJSON.c **** 
 1955              		.loc 1 1694 0
 1956 02ce 1E44     		add	r6, r6, r3
 1957              	.LVL273:
 1958 02d0 A660     		str	r6, [r4, #8]
 1959 02d2 92E7     		b	.L234
 1960              	.LVL274:
 1961              	.L237:
 1962              	.LBB106:
1645:../../iot_link/cJSON/cJSON.c ****             }
 1963              		.loc 1 1645 0
 1964 02d4 02F8017B 		strb	r7, [r2], #1
 1965              	.LVL275:
 1966 02d8 ADE7     		b	.L236
 1967              	.LVL276:
 1968              	.L251:
 1969              	.LBE106:
1699:../../iot_link/cJSON/cJSON.c ****     if (output_pointer == NULL)
 1970              		.loc 1 1699 0
 1971 02da 0221     		movs	r1, #2
 1972 02dc 93E7     		b	.L243
 1973              	.LVL277:
 1974              	.L246:
 1975              	.LBB107:
1709:../../iot_link/cJSON/cJSON.c ****         }
 1976              		.loc 1 1709 0
 1977 02de 03F8015B 		strb	r5, [r3], #1
 1978              	.LVL278:
 1979              	.L244:
1707:../../iot_link/cJSON/cJSON.c ****         {
 1980              		.loc 1 1707 0
 1981 02e2 E268     		ldr	r2, [r4, #12]
 1982 02e4 191A     		subs	r1, r3, r0
 1983              	.LVL279:
 1984 02e6 013A     		subs	r2, r2, #1
 1985 02e8 9142     		cmp	r1, r2
 1986 02ea F8D3     		bcc	.L246
 1987 02ec 95E7     		b	.L245
 1988              	.LVL280:
 1989              	.L252:
 1990              	.LBE107:
1704:../../iot_link/cJSON/cJSON.c ****     {
 1991              		.loc 1 1704 0
 1992 02ee 0346     		mov	r3, r0
 1993              	.LBB108:
1709:../../iot_link/cJSON/cJSON.c ****         }
 1994              		.loc 1 1709 0
 1995 02f0 0925     		movs	r5, #9
 1996              	.LVL281:
 1997 02f2 F6E7     		b	.L244
 1998              	.L334:
 1999              		.align	2
 2000              	.L333:
 2001 02f4 05000000 		.word	.LC3
 2002 02f8 00000000 		.word	.LC2
ARM GAS  C:\Users\LuckyE\AppData\Local\Temp\ccgn9LZs.s 			page 74


 2003 02fc 0B000000 		.word	.LC4
 2004 0300 10000000 		.word	.LC5
 2005 0304 17000000 		.word	.LC6
 2006 0308 1B000000 		.word	.LC7
 2007              	.LBE108:
 2008              	.LBE111:
 2009              	.LBE120:
 2010              	.LBE122:
 2011              	.LBE124:
 2012              		.cfi_endproc
 2013              	.LFE32:
 2015              		.section	.text.create_reference.constprop.13,"ax",%progbits
 2016              		.align	1
 2017              		.syntax unified
 2018              		.thumb
 2019              		.thumb_func
 2020              		.fpu fpv4-sp-d16
 2022              	create_reference.constprop.13:
 2023              	.LFB120:
1823:../../iot_link/cJSON/cJSON.c **** {
 2024              		.loc 1 1823 0
 2025              		.cfi_startproc
 2026              		@ args = 0, pretend = 0, frame = 0
 2027              		@ frame_needed = 0, uses_anonymous_args = 0
 2028              	.LVL282:
 2029 0000 10B5     		push	{r4, lr}
 2030              	.LCFI12:
 2031              		.cfi_def_cfa_offset 8
 2032              		.cfi_offset 4, -8
 2033              		.cfi_offset 14, -4
1826:../../iot_link/cJSON/cJSON.c ****     {
 2034              		.loc 1 1826 0
 2035 0002 0446     		mov	r4, r0
 2036 0004 B0B1     		cbz	r0, .L335
1831:../../iot_link/cJSON/cJSON.c ****     if (reference == NULL)
 2037              		.loc 1 1831 0
 2038 0006 0C4B     		ldr	r3, .L343
 2039 0008 1868     		ldr	r0, [r3]
 2040              	.LVL283:
 2041 000a FFF7FEFF 		bl	cJSON_New_Item.isra.1
 2042              	.LVL284:
1832:../../iot_link/cJSON/cJSON.c ****     {
 2043              		.loc 1 1832 0
 2044 000e 88B1     		cbz	r0, .L335
1837:../../iot_link/cJSON/cJSON.c ****     reference->string = NULL;
 2045              		.loc 1 1837 0
 2046 0010 2346     		mov	r3, r4
 2047 0012 0246     		mov	r2, r0
 2048 0014 04F12801 		add	r1, r4, #40
 2049              	.LVL285:
 2050              	.L337:
 2051 0018 53F8044B 		ldr	r4, [r3], #4	@ unaligned
 2052 001c 42F8044B 		str	r4, [r2], #4	@ unaligned
 2053 0020 8B42     		cmp	r3, r1
 2054 0022 F9D1     		bne	.L337
1838:../../iot_link/cJSON/cJSON.c ****     reference->type |= cJSON_IsReference;
 2055              		.loc 1 1838 0
ARM GAS  C:\Users\LuckyE\AppData\Local\Temp\ccgn9LZs.s 			page 75


 2056 0024 0023     		movs	r3, #0
1839:../../iot_link/cJSON/cJSON.c ****     reference->next = reference->prev = NULL;
 2057              		.loc 1 1839 0
 2058 0026 C268     		ldr	r2, [r0, #12]
1838:../../iot_link/cJSON/cJSON.c ****     reference->type |= cJSON_IsReference;
 2059              		.loc 1 1838 0
 2060 0028 0362     		str	r3, [r0, #32]
1840:../../iot_link/cJSON/cJSON.c ****     return reference;
 2061              		.loc 1 1840 0
 2062 002a C0E90033 		strd	r3, r3, [r0]
1839:../../iot_link/cJSON/cJSON.c ****     reference->next = reference->prev = NULL;
 2063              		.loc 1 1839 0
 2064 002e 42F48072 		orr	r2, r2, #256
 2065 0032 C260     		str	r2, [r0, #12]
 2066              	.LVL286:
 2067              	.L335:
1842:../../iot_link/cJSON/cJSON.c **** 
 2068              		.loc 1 1842 0
 2069 0034 10BD     		pop	{r4, pc}
 2070              	.L344:
 2071 0036 00BF     		.align	2
 2072              	.L343:
 2073 0038 00000000 		.word	.LANCHOR0
 2074              		.cfi_endproc
 2075              	.LFE120:
 2077              		.section	.text.print.constprop.14,"ax",%progbits
 2078              		.align	1
 2079              		.syntax unified
 2080              		.thumb
 2081              		.thumb_func
 2082              		.fpu fpv4-sp-d16
 2084              	print.constprop.14:
 2085              	.LFB119:
1087:../../iot_link/cJSON/cJSON.c **** {
 2086              		.loc 1 1087 0
 2087              		.cfi_startproc
 2088              		@ args = 0, pretend = 0, frame = 40
 2089              		@ frame_needed = 0, uses_anonymous_args = 0
 2090              	.LVL287:
 2091 0000 F0B5     		push	{r4, r5, r6, r7, lr}
 2092              	.LCFI13:
 2093              		.cfi_def_cfa_offset 20
 2094              		.cfi_offset 4, -20
 2095              		.cfi_offset 5, -16
 2096              		.cfi_offset 6, -12
 2097              		.cfi_offset 7, -8
 2098              		.cfi_offset 14, -4
1096:../../iot_link/cJSON/cJSON.c ****     buffer->length = default_buffer_size;
 2099              		.loc 1 1096 0
 2100 0002 244D     		ldr	r5, .L364
1087:../../iot_link/cJSON/cJSON.c **** {
 2101              		.loc 1 1087 0
 2102 0004 8BB0     		sub	sp, sp, #44
 2103              	.LCFI14:
 2104              		.cfi_def_cfa_offset 64
1087:../../iot_link/cJSON/cJSON.c **** {
 2105              		.loc 1 1087 0
ARM GAS  C:\Users\LuckyE\AppData\Local\Temp\ccgn9LZs.s 			page 76


 2106 0006 0E46     		mov	r6, r1
1093:../../iot_link/cJSON/cJSON.c **** 
 2107              		.loc 1 1093 0
 2108 0008 2422     		movs	r2, #36
 2109 000a 0021     		movs	r1, #0
 2110              	.LVL288:
1087:../../iot_link/cJSON/cJSON.c **** {
 2111              		.loc 1 1087 0
 2112 000c 0446     		mov	r4, r0
1093:../../iot_link/cJSON/cJSON.c **** 
 2113              		.loc 1 1093 0
 2114 000e 01A8     		add	r0, sp, #4
 2115              	.LVL289:
 2116 0010 FFF7FEFF 		bl	memset
 2117              	.LVL290:
1096:../../iot_link/cJSON/cJSON.c ****     buffer->length = default_buffer_size;
 2118              		.loc 1 1096 0
 2119 0014 2B68     		ldr	r3, [r5]
 2120 0016 4FF48070 		mov	r0, #256
 2121 001a 9847     		blx	r3
 2122              	.LVL291:
1097:../../iot_link/cJSON/cJSON.c ****     buffer->format = format;
 2123              		.loc 1 1097 0
 2124 001c 4FF48072 		mov	r2, #256
1096:../../iot_link/cJSON/cJSON.c ****     buffer->length = default_buffer_size;
 2125              		.loc 1 1096 0
 2126 0020 0346     		mov	r3, r0
 2127 0022 0190     		str	r0, [sp, #4]
1097:../../iot_link/cJSON/cJSON.c ****     buffer->format = format;
 2128              		.loc 1 1097 0
 2129 0024 0292     		str	r2, [sp, #8]
1099:../../iot_link/cJSON/cJSON.c ****     if (buffer->buffer == NULL)
 2130              		.loc 1 1099 0
 2131 0026 95E80700 		ldm	r5, {r0, r1, r2}
1098:../../iot_link/cJSON/cJSON.c ****     buffer->hooks = *hooks;
 2132              		.loc 1 1098 0
 2133 002a 0696     		str	r6, [sp, #24]
1099:../../iot_link/cJSON/cJSON.c ****     if (buffer->buffer == NULL)
 2134              		.loc 1 1099 0
 2135 002c 0AAE     		add	r6, sp, #40
 2136              	.LVL292:
 2137 002e 06E90700 		stmdb	r6, {r0, r1, r2}
 2138 0032 2F46     		mov	r7, r5
1100:../../iot_link/cJSON/cJSON.c ****     {
 2139              		.loc 1 1100 0
 2140 0034 7BB1     		cbz	r3, .L346
1106:../../iot_link/cJSON/cJSON.c ****     {
 2141              		.loc 1 1106 0
 2142 0036 01A9     		add	r1, sp, #4
 2143 0038 2046     		mov	r0, r4
 2144 003a FFF7FEFF 		bl	print_value
 2145              	.LVL293:
 2146 003e 50B1     		cbz	r0, .L346
1110:../../iot_link/cJSON/cJSON.c **** 
 2147              		.loc 1 1110 0
 2148 0040 01A8     		add	r0, sp, #4
 2149 0042 FFF7FEFF 		bl	update_offset
ARM GAS  C:\Users\LuckyE\AppData\Local\Temp\ccgn9LZs.s 			page 77


 2150              	.LVL294:
1113:../../iot_link/cJSON/cJSON.c ****     {
 2151              		.loc 1 1113 0
 2152 0046 AE68     		ldr	r6, [r5, #8]
 2153 0048 0399     		ldr	r1, [sp, #12]
 2154 004a 5EB1     		cbz	r6, .L347
1115:../../iot_link/cJSON/cJSON.c ****         if (printed == NULL) {
 2155              		.loc 1 1115 0
 2156 004c 0131     		adds	r1, r1, #1
 2157 004e 0198     		ldr	r0, [sp, #4]
 2158 0050 B047     		blx	r6
 2159              	.LVL295:
1116:../../iot_link/cJSON/cJSON.c ****             goto fail;
 2160              		.loc 1 1116 0
 2161 0052 0446     		mov	r4, r0
 2162              	.LVL296:
 2163 0054 D0B9     		cbnz	r0, .L345
 2164              	.LVL297:
 2165              	.L346:
 2166              	.LDL1:
1138:../../iot_link/cJSON/cJSON.c ****     {
 2167              		.loc 1 1138 0
 2168 0056 019C     		ldr	r4, [sp, #4]
 2169 0058 C4B1     		cbz	r4, .L345
1140:../../iot_link/cJSON/cJSON.c ****     }
 2170              		.loc 1 1140 0
 2171 005a 2046     		mov	r0, r4
 2172 005c 7B68     		ldr	r3, [r7, #4]
 2173 005e 9847     		blx	r3
 2174              	.LVL298:
1148:../../iot_link/cJSON/cJSON.c **** }
 2175              		.loc 1 1148 0
 2176 0060 0024     		movs	r4, #0
 2177 0062 13E0     		b	.L345
 2178              	.LVL299:
 2179              	.L347:
1123:../../iot_link/cJSON/cJSON.c ****         if (printed == NULL)
 2180              		.loc 1 1123 0
 2181 0064 2B68     		ldr	r3, [r5]
 2182 0066 481C     		adds	r0, r1, #1
 2183 0068 9847     		blx	r3
 2184              	.LVL300:
1124:../../iot_link/cJSON/cJSON.c ****         {
 2185              		.loc 1 1124 0
 2186 006a 0446     		mov	r4, r0
 2187              	.LVL301:
 2188 006c 0028     		cmp	r0, #0
 2189 006e F2D0     		beq	.L346
1128:../../iot_link/cJSON/cJSON.c ****         printed[buffer->offset] = '\0'; /* just to be sure */
 2190              		.loc 1 1128 0
 2191 0070 039A     		ldr	r2, [sp, #12]
 2192 0072 029B     		ldr	r3, [sp, #8]
 2193 0074 0199     		ldr	r1, [sp, #4]
 2194 0076 0132     		adds	r2, r2, #1
 2195 0078 9A42     		cmp	r2, r3
 2196 007a 28BF     		it	cs
 2197 007c 1A46     		movcs	r2, r3
ARM GAS  C:\Users\LuckyE\AppData\Local\Temp\ccgn9LZs.s 			page 78


 2198 007e FFF7FEFF 		bl	memcpy
 2199              	.LVL302:
1129:../../iot_link/cJSON/cJSON.c **** 
 2200              		.loc 1 1129 0
 2201 0082 039B     		ldr	r3, [sp, #12]
 2202 0084 E654     		strb	r6, [r4, r3]
1132:../../iot_link/cJSON/cJSON.c ****     }
 2203              		.loc 1 1132 0
 2204 0086 0198     		ldr	r0, [sp, #4]
 2205 0088 6B68     		ldr	r3, [r5, #4]
 2206 008a 9847     		blx	r3
 2207              	.LVL303:
 2208              	.L345:
1149:../../iot_link/cJSON/cJSON.c **** 
 2209              		.loc 1 1149 0
 2210 008c 2046     		mov	r0, r4
 2211 008e 0BB0     		add	sp, sp, #44
 2212              	.LCFI15:
 2213              		.cfi_def_cfa_offset 20
 2214              		@ sp needed
 2215 0090 F0BD     		pop	{r4, r5, r6, r7, pc}
 2216              	.L365:
 2217 0092 00BF     		.align	2
 2218              	.L364:
 2219 0094 00000000 		.word	.LANCHOR0
 2220              		.cfi_endproc
 2221              	.LFE119:
 2223              		.section	.text.cJSON_strdup.isra.2.constprop.15,"ax",%progbits
 2224              		.align	1
 2225              		.syntax unified
 2226              		.thumb
 2227              		.thumb_func
 2228              		.fpu fpv4-sp-d16
 2230              	cJSON_strdup.isra.2.constprop.15:
 2231              	.LFB118:
 149:../../iot_link/cJSON/cJSON.c **** {
 2232              		.loc 1 149 0
 2233              		.cfi_startproc
 2234              		@ args = 0, pretend = 0, frame = 0
 2235              		@ frame_needed = 0, uses_anonymous_args = 0
 2236              	.LVL304:
 2237 0000 70B5     		push	{r4, r5, r6, lr}
 2238              	.LCFI16:
 2239              		.cfi_def_cfa_offset 16
 2240              		.cfi_offset 4, -16
 2241              		.cfi_offset 5, -12
 2242              		.cfi_offset 6, -8
 2243              		.cfi_offset 14, -4
 154:../../iot_link/cJSON/cJSON.c ****     {
 2244              		.loc 1 154 0
 2245 0002 0546     		mov	r5, r0
 2246 0004 70B1     		cbz	r0, .L368
 159:../../iot_link/cJSON/cJSON.c ****     copy = (unsigned char*)hooks->allocate(length);
 2247              		.loc 1 159 0
 2248 0006 FFF7FEFF 		bl	strlen
 2249              	.LVL305:
 160:../../iot_link/cJSON/cJSON.c ****     if (copy == NULL)
ARM GAS  C:\Users\LuckyE\AppData\Local\Temp\ccgn9LZs.s 			page 79


 2250              		.loc 1 160 0
 2251 000a 074B     		ldr	r3, .L372
 159:../../iot_link/cJSON/cJSON.c ****     copy = (unsigned char*)hooks->allocate(length);
 2252              		.loc 1 159 0
 2253 000c 461C     		adds	r6, r0, #1
 2254              	.LVL306:
 160:../../iot_link/cJSON/cJSON.c ****     if (copy == NULL)
 2255              		.loc 1 160 0
 2256 000e 1B68     		ldr	r3, [r3]
 2257 0010 3046     		mov	r0, r6
 2258 0012 9847     		blx	r3
 2259              	.LVL307:
 161:../../iot_link/cJSON/cJSON.c ****     {
 2260              		.loc 1 161 0
 2261 0014 0446     		mov	r4, r0
 2262 0016 18B1     		cbz	r0, .L366
 165:../../iot_link/cJSON/cJSON.c **** 
 2263              		.loc 1 165 0
 2264 0018 3246     		mov	r2, r6
 2265 001a 2946     		mov	r1, r5
 2266 001c FFF7FEFF 		bl	memcpy
 2267              	.LVL308:
 2268              	.L366:
 168:../../iot_link/cJSON/cJSON.c **** 
 2269              		.loc 1 168 0
 2270 0020 2046     		mov	r0, r4
 2271 0022 70BD     		pop	{r4, r5, r6, pc}
 2272              	.LVL309:
 2273              	.L368:
 156:../../iot_link/cJSON/cJSON.c ****     }
 2274              		.loc 1 156 0
 2275 0024 0446     		mov	r4, r0
 2276 0026 FBE7     		b	.L366
 2277              	.L373:
 2278              		.align	2
 2279              	.L372:
 2280 0028 00000000 		.word	.LANCHOR0
 2281              		.cfi_endproc
 2282              	.LFE118:
 2284              		.section	.text.add_item_to_object.constprop.11,"ax",%progbits
 2285              		.align	1
 2286              		.syntax unified
 2287              		.thumb
 2288              		.thumb_func
 2289              		.fpu fpv4-sp-d16
 2291              	add_item_to_object.constprop.11:
 2292              	.LFB122:
1872:../../iot_link/cJSON/cJSON.c **** 
1873:../../iot_link/cJSON/cJSON.c **** /* Add item to array/object. */
1874:../../iot_link/cJSON/cJSON.c **** CJSON_PUBLIC(void) cJSON_AddItemToArray(cJSON *array, cJSON *item)
1875:../../iot_link/cJSON/cJSON.c **** {
1876:../../iot_link/cJSON/cJSON.c ****     add_item_to_array(array, item);
1877:../../iot_link/cJSON/cJSON.c **** }
1878:../../iot_link/cJSON/cJSON.c **** 
1879:../../iot_link/cJSON/cJSON.c **** #if defined(__clang__) || (defined(__GNUC__)  && ((__GNUC__ > 4) || ((__GNUC__ == 4) && (__GNUC_MIN
1880:../../iot_link/cJSON/cJSON.c ****     #pragma GCC diagnostic push
1881:../../iot_link/cJSON/cJSON.c **** #endif
ARM GAS  C:\Users\LuckyE\AppData\Local\Temp\ccgn9LZs.s 			page 80


1882:../../iot_link/cJSON/cJSON.c **** #ifdef __GNUC__
1883:../../iot_link/cJSON/cJSON.c **** #pragma GCC diagnostic ignored "-Wcast-qual"
1884:../../iot_link/cJSON/cJSON.c **** #endif
1885:../../iot_link/cJSON/cJSON.c **** /* helper function to cast away const */
1886:../../iot_link/cJSON/cJSON.c **** static void* cast_away_const(const void* string)
1887:../../iot_link/cJSON/cJSON.c **** {
1888:../../iot_link/cJSON/cJSON.c ****     return (void*)string;
1889:../../iot_link/cJSON/cJSON.c **** }
1890:../../iot_link/cJSON/cJSON.c **** #if defined(__clang__) || (defined(__GNUC__)  && ((__GNUC__ > 4) || ((__GNUC__ == 4) && (__GNUC_MIN
1891:../../iot_link/cJSON/cJSON.c ****     #pragma GCC diagnostic pop
1892:../../iot_link/cJSON/cJSON.c **** #endif
1893:../../iot_link/cJSON/cJSON.c **** 
1894:../../iot_link/cJSON/cJSON.c **** 
1895:../../iot_link/cJSON/cJSON.c **** static cJSON_bool add_item_to_object(cJSON * const object, const char * const string, cJSON * const
 2293              		.loc 1 1895 0
 2294              		.cfi_startproc
 2295              		@ args = 0, pretend = 0, frame = 0
 2296              		@ frame_needed = 0, uses_anonymous_args = 0
 2297              	.LVL310:
 2298 0000 F8B5     		push	{r3, r4, r5, r6, r7, lr}
 2299              	.LCFI17:
 2300              		.cfi_def_cfa_offset 24
 2301              		.cfi_offset 3, -24
 2302              		.cfi_offset 4, -20
 2303              		.cfi_offset 5, -16
 2304              		.cfi_offset 6, -12
 2305              		.cfi_offset 7, -8
 2306              		.cfi_offset 14, -4
 2307              		.loc 1 1895 0
 2308 0002 0E46     		mov	r6, r1
 2309 0004 1446     		mov	r4, r2
1896:../../iot_link/cJSON/cJSON.c **** {
1897:../../iot_link/cJSON/cJSON.c ****     char *new_key = NULL;
1898:../../iot_link/cJSON/cJSON.c ****     int new_type = cJSON_Invalid;
1899:../../iot_link/cJSON/cJSON.c **** 
1900:../../iot_link/cJSON/cJSON.c ****     if ((object == NULL) || (string == NULL) || (item == NULL))
 2310              		.loc 1 1900 0
 2311 0006 0746     		mov	r7, r0
 2312 0008 F0B1     		cbz	r0, .L376
 2313 000a E9B1     		cbz	r1, .L376
 2314 000c E2B1     		cbz	r2, .L376
 2315              	.LVL311:
 2316              	.LBB127:
 2317              	.LBB128:
1901:../../iot_link/cJSON/cJSON.c ****     {
1902:../../iot_link/cJSON/cJSON.c ****         return false;
1903:../../iot_link/cJSON/cJSON.c ****     }
1904:../../iot_link/cJSON/cJSON.c **** 
1905:../../iot_link/cJSON/cJSON.c ****     if (constant_key)
 2318              		.loc 1 1905 0
 2319 000e 93B1     		cbz	r3, .L378
1906:../../iot_link/cJSON/cJSON.c ****     {
1907:../../iot_link/cJSON/cJSON.c ****         new_key = (char*)cast_away_const(string);
1908:../../iot_link/cJSON/cJSON.c ****         new_type = item->type | cJSON_StringIsConst;
 2320              		.loc 1 1908 0
 2321 0010 D568     		ldr	r5, [r2, #12]
 2322 0012 45F40075 		orr	r5, r5, #512
ARM GAS  C:\Users\LuckyE\AppData\Local\Temp\ccgn9LZs.s 			page 81


 2323              	.LVL312:
 2324              	.L379:
1909:../../iot_link/cJSON/cJSON.c ****     }
1910:../../iot_link/cJSON/cJSON.c ****     else
1911:../../iot_link/cJSON/cJSON.c ****     {
1912:../../iot_link/cJSON/cJSON.c ****         new_key = (char*)cJSON_strdup((const unsigned char*)string, hooks);
1913:../../iot_link/cJSON/cJSON.c ****         if (new_key == NULL)
1914:../../iot_link/cJSON/cJSON.c ****         {
1915:../../iot_link/cJSON/cJSON.c ****             return false;
1916:../../iot_link/cJSON/cJSON.c ****         }
1917:../../iot_link/cJSON/cJSON.c **** 
1918:../../iot_link/cJSON/cJSON.c ****         new_type = item->type & ~cJSON_StringIsConst;
1919:../../iot_link/cJSON/cJSON.c ****     }
1920:../../iot_link/cJSON/cJSON.c **** 
1921:../../iot_link/cJSON/cJSON.c ****     if (!(item->type & cJSON_StringIsConst) && (item->string != NULL))
 2325              		.loc 1 1921 0
 2326 0016 E368     		ldr	r3, [r4, #12]
 2327 0018 9B05     		lsls	r3, r3, #22
 2328 001a 04D4     		bmi	.L380
 2329 001c 206A     		ldr	r0, [r4, #32]
 2330 001e 10B1     		cbz	r0, .L380
1922:../../iot_link/cJSON/cJSON.c ****     {
1923:../../iot_link/cJSON/cJSON.c ****         hooks->deallocate(item->string);
 2331              		.loc 1 1923 0
 2332 0020 0A4B     		ldr	r3, .L393
 2333 0022 5B68     		ldr	r3, [r3, #4]
 2334 0024 9847     		blx	r3
 2335              	.LVL313:
 2336              	.L380:
1924:../../iot_link/cJSON/cJSON.c ****     }
1925:../../iot_link/cJSON/cJSON.c **** 
1926:../../iot_link/cJSON/cJSON.c ****     item->string = new_key;
 2337              		.loc 1 1926 0
 2338 0026 2662     		str	r6, [r4, #32]
1927:../../iot_link/cJSON/cJSON.c ****     item->type = new_type;
 2339              		.loc 1 1927 0
 2340 0028 E560     		str	r5, [r4, #12]
1928:../../iot_link/cJSON/cJSON.c **** 
1929:../../iot_link/cJSON/cJSON.c ****     return add_item_to_array(object, item);
 2341              		.loc 1 1929 0
 2342 002a 2146     		mov	r1, r4
 2343 002c 3846     		mov	r0, r7
 2344              	.LBE128:
 2345              	.LBE127:
1930:../../iot_link/cJSON/cJSON.c **** }
 2346              		.loc 1 1930 0
 2347 002e BDE8F840 		pop	{r3, r4, r5, r6, r7, lr}
 2348              	.LCFI18:
 2349              		.cfi_remember_state
 2350              		.cfi_restore 14
 2351              		.cfi_restore 7
 2352              		.cfi_restore 6
 2353              		.cfi_restore 5
 2354              		.cfi_restore 4
 2355              		.cfi_restore 3
 2356              		.cfi_def_cfa_offset 0
 2357              	.LVL314:
ARM GAS  C:\Users\LuckyE\AppData\Local\Temp\ccgn9LZs.s 			page 82


 2358              	.LBB130:
 2359              	.LBB129:
1929:../../iot_link/cJSON/cJSON.c **** }
 2360              		.loc 1 1929 0
 2361 0032 FFF7FEBF 		b	add_item_to_array
 2362              	.LVL315:
 2363              	.L378:
 2364              	.LCFI19:
 2365              		.cfi_restore_state
1912:../../iot_link/cJSON/cJSON.c ****         if (new_key == NULL)
 2366              		.loc 1 1912 0
 2367 0036 0846     		mov	r0, r1
 2368              	.LVL316:
 2369 0038 FFF7FEFF 		bl	cJSON_strdup.isra.2.constprop.15
 2370              	.LVL317:
1913:../../iot_link/cJSON/cJSON.c ****         {
 2371              		.loc 1 1913 0
 2372 003c 0646     		mov	r6, r0
 2373              	.LVL318:
 2374 003e 18B1     		cbz	r0, .L376
1918:../../iot_link/cJSON/cJSON.c ****     }
 2375              		.loc 1 1918 0
 2376 0040 E568     		ldr	r5, [r4, #12]
 2377 0042 25F40075 		bic	r5, r5, #512
 2378              	.LVL319:
 2379 0046 E6E7     		b	.L379
 2380              	.LVL320:
 2381              	.L376:
 2382              	.LBE129:
 2383              	.LBE130:
 2384              		.loc 1 1930 0
 2385 0048 0020     		movs	r0, #0
 2386 004a F8BD     		pop	{r3, r4, r5, r6, r7, pc}
 2387              	.LVL321:
 2388              	.L394:
 2389              		.align	2
 2390              	.L393:
 2391 004c 00000000 		.word	.LANCHOR0
 2392              		.cfi_endproc
 2393              	.LFE122:
 2395              		.section	.text.cJSON_GetErrorPtr,"ax",%progbits
 2396              		.align	1
 2397              		.global	cJSON_GetErrorPtr
 2398              		.syntax unified
 2399              		.thumb
 2400              		.thumb_func
 2401              		.fpu fpv4-sp-d16
 2403              	cJSON_GetErrorPtr:
 2404              	.LFB3:
  71:../../iot_link/cJSON/cJSON.c ****     return (const char*) (global_error.json + global_error.position);
 2405              		.loc 1 71 0
 2406              		.cfi_startproc
 2407              		@ args = 0, pretend = 0, frame = 0
 2408              		@ frame_needed = 0, uses_anonymous_args = 0
 2409              		@ link register save eliminated.
  72:../../iot_link/cJSON/cJSON.c **** }
 2410              		.loc 1 72 0
ARM GAS  C:\Users\LuckyE\AppData\Local\Temp\ccgn9LZs.s 			page 83


 2411 0000 024B     		ldr	r3, .L396
 2412 0002 D3E90003 		ldrd	r0, r3, [r3]
  73:../../iot_link/cJSON/cJSON.c **** 
 2413              		.loc 1 73 0
 2414 0006 1844     		add	r0, r0, r3
 2415 0008 7047     		bx	lr
 2416              	.L397:
 2417 000a 00BF     		.align	2
 2418              	.L396:
 2419 000c 00000000 		.word	.LANCHOR1
 2420              		.cfi_endproc
 2421              	.LFE3:
 2423              		.section	.text.cJSON_Version,"ax",%progbits
 2424              		.align	1
 2425              		.global	cJSON_Version
 2426              		.syntax unified
 2427              		.thumb
 2428              		.thumb_func
 2429              		.fpu fpv4-sp-d16
 2431              	cJSON_Version:
 2432              	.LFB5:
  89:../../iot_link/cJSON/cJSON.c ****     static char version[15];
 2433              		.loc 1 89 0
 2434              		.cfi_startproc
 2435              		@ args = 0, pretend = 0, frame = 0
 2436              		@ frame_needed = 0, uses_anonymous_args = 0
 2437 0000 13B5     		push	{r0, r1, r4, lr}
 2438              	.LCFI20:
 2439              		.cfi_def_cfa_offset 16
 2440              		.cfi_offset 4, -8
 2441              		.cfi_offset 14, -4
  91:../../iot_link/cJSON/cJSON.c **** 
 2442              		.loc 1 91 0
 2443 0002 064C     		ldr	r4, .L399
 2444 0004 0649     		ldr	r1, .L399+4
 2445 0006 0823     		movs	r3, #8
 2446 0008 0093     		str	r3, [sp]
 2447 000a 0122     		movs	r2, #1
 2448 000c 0723     		movs	r3, #7
 2449 000e 2046     		mov	r0, r4
 2450 0010 FFF7FEFF 		bl	sprintf
 2451              	.LVL322:
  94:../../iot_link/cJSON/cJSON.c **** 
 2452              		.loc 1 94 0
 2453 0014 2046     		mov	r0, r4
 2454 0016 02B0     		add	sp, sp, #8
 2455              	.LCFI21:
 2456              		.cfi_def_cfa_offset 8
 2457              		@ sp needed
 2458 0018 10BD     		pop	{r4, pc}
 2459              	.L400:
 2460 001a 00BF     		.align	2
 2461              	.L399:
 2462 001c 00000000 		.word	.LANCHOR2
 2463 0020 00000000 		.word	.LC8
 2464              		.cfi_endproc
 2465              	.LFE5:
ARM GAS  C:\Users\LuckyE\AppData\Local\Temp\ccgn9LZs.s 			page 84


 2467              		.section	.text.cJSON_InitHooks,"ax",%progbits
 2468              		.align	1
 2469              		.global	cJSON_InitHooks
 2470              		.syntax unified
 2471              		.thumb
 2472              		.thumb_func
 2473              		.fpu fpv4-sp-d16
 2475              	cJSON_InitHooks:
 2476              	.LFB8:
 171:../../iot_link/cJSON/cJSON.c ****     if (hooks == NULL)
 2477              		.loc 1 171 0
 2478              		.cfi_startproc
 2479              		@ args = 0, pretend = 0, frame = 0
 2480              		@ frame_needed = 0, uses_anonymous_args = 0
 2481              	.LVL323:
 2482 0000 0C4B     		ldr	r3, .L413
 2483 0002 0D49     		ldr	r1, .L413+4
 2484 0004 0D4A     		ldr	r2, .L413+8
 2485 0006 10B5     		push	{r4, lr}
 2486              	.LCFI22:
 2487              		.cfi_def_cfa_offset 8
 2488              		.cfi_offset 4, -8
 2489              		.cfi_offset 14, -4
 175:../../iot_link/cJSON/cJSON.c ****         global_hooks.deallocate = free;
 2490              		.loc 1 175 0
 2491 0008 1960     		str	r1, [r3]
 172:../../iot_link/cJSON/cJSON.c ****     {
 2492              		.loc 1 172 0
 2493 000a 18B9     		cbnz	r0, .L402
 176:../../iot_link/cJSON/cJSON.c ****         global_hooks.reallocate = realloc;
 2494              		.loc 1 176 0
 2495 000c 5A60     		str	r2, [r3, #4]
 2496              	.LVL324:
 2497              	.L412:
 197:../../iot_link/cJSON/cJSON.c ****     }
 2498              		.loc 1 197 0
 2499 000e 0C4A     		ldr	r2, .L413+12
 2500 0010 9A60     		str	r2, [r3, #8]
 2501 0012 0EE0     		b	.L401
 2502              	.LVL325:
 2503              	.L402:
 182:../../iot_link/cJSON/cJSON.c ****     {
 2504              		.loc 1 182 0
 2505 0014 0468     		ldr	r4, [r0]
 2506 0016 04B1     		cbz	r4, .L404
 184:../../iot_link/cJSON/cJSON.c ****     }
 2507              		.loc 1 184 0
 2508 0018 1C60     		str	r4, [r3]
 2509              	.L404:
 188:../../iot_link/cJSON/cJSON.c ****     {
 2510              		.loc 1 188 0
 2511 001a 4068     		ldr	r0, [r0, #4]
 2512              	.LVL326:
 187:../../iot_link/cJSON/cJSON.c ****     if (hooks->free_fn != NULL)
 2513              		.loc 1 187 0
 2514 001c 5A60     		str	r2, [r3, #4]
 188:../../iot_link/cJSON/cJSON.c ****     {
ARM GAS  C:\Users\LuckyE\AppData\Local\Temp\ccgn9LZs.s 			page 85


 2515              		.loc 1 188 0
 2516 001e 00B1     		cbz	r0, .L405
 190:../../iot_link/cJSON/cJSON.c ****     }
 2517              		.loc 1 190 0
 2518 0020 5860     		str	r0, [r3, #4]
 2519              	.L405:
 194:../../iot_link/cJSON/cJSON.c ****     if ((global_hooks.allocate == malloc) && (global_hooks.deallocate == free))
 2520              		.loc 1 194 0
 2521 0022 0020     		movs	r0, #0
 2522 0024 9860     		str	r0, [r3, #8]
 195:../../iot_link/cJSON/cJSON.c ****     {
 2523              		.loc 1 195 0
 2524 0026 1868     		ldr	r0, [r3]
 2525 0028 8842     		cmp	r0, r1
 2526 002a 02D1     		bne	.L401
 195:../../iot_link/cJSON/cJSON.c ****     {
 2527              		.loc 1 195 0 is_stmt 0 discriminator 1
 2528 002c 5968     		ldr	r1, [r3, #4]
 2529 002e 9142     		cmp	r1, r2
 2530 0030 EDD0     		beq	.L412
 2531              	.L401:
 199:../../iot_link/cJSON/cJSON.c **** 
 2532              		.loc 1 199 0 is_stmt 1
 2533 0032 10BD     		pop	{r4, pc}
 2534              	.L414:
 2535              		.align	2
 2536              	.L413:
 2537 0034 00000000 		.word	.LANCHOR0
 2538 0038 00000000 		.word	malloc
 2539 003c 00000000 		.word	free
 2540 0040 00000000 		.word	realloc
 2541              		.cfi_endproc
 2542              	.LFE8:
 2544              		.section	.text.cJSON_Delete,"ax",%progbits
 2545              		.align	1
 2546              		.global	cJSON_Delete
 2547              		.syntax unified
 2548              		.thumb
 2549              		.thumb_func
 2550              		.fpu fpv4-sp-d16
 2552              	cJSON_Delete:
 2553              	.LFB10:
 215:../../iot_link/cJSON/cJSON.c ****     cJSON *next = NULL;
 2554              		.loc 1 215 0
 2555              		.cfi_startproc
 2556              		@ args = 0, pretend = 0, frame = 0
 2557              		@ frame_needed = 0, uses_anonymous_args = 0
 2558              	.LVL327:
 2559 0000 70B5     		push	{r4, r5, r6, lr}
 2560              	.LCFI23:
 2561              		.cfi_def_cfa_offset 16
 2562              		.cfi_offset 4, -16
 2563              		.cfi_offset 5, -12
 2564              		.cfi_offset 6, -8
 2565              		.cfi_offset 14, -4
 2566 0002 0F4D     		ldr	r5, .L430
 215:../../iot_link/cJSON/cJSON.c ****     cJSON *next = NULL;
ARM GAS  C:\Users\LuckyE\AppData\Local\Temp\ccgn9LZs.s 			page 86


 2567              		.loc 1 215 0
 2568 0004 0446     		mov	r4, r0
 2569              	.LVL328:
 2570              	.L416:
 217:../../iot_link/cJSON/cJSON.c ****     {
 2571              		.loc 1 217 0
 2572 0006 04B9     		cbnz	r4, .L420
 235:../../iot_link/cJSON/cJSON.c **** 
 2573              		.loc 1 235 0
 2574 0008 70BD     		pop	{r4, r5, r6, pc}
 2575              	.LVL329:
 2576              	.L420:
 220:../../iot_link/cJSON/cJSON.c ****         {
 2577              		.loc 1 220 0
 2578 000a E368     		ldr	r3, [r4, #12]
 219:../../iot_link/cJSON/cJSON.c ****         if (!(item->type & cJSON_IsReference) && (item->child != NULL))
 2579              		.loc 1 219 0
 2580 000c 2668     		ldr	r6, [r4]
 2581              	.LVL330:
 220:../../iot_link/cJSON/cJSON.c ****         {
 2582              		.loc 1 220 0
 2583 000e D905     		lsls	r1, r3, #23
 2584 0010 03D4     		bmi	.L417
 220:../../iot_link/cJSON/cJSON.c ****         {
 2585              		.loc 1 220 0 is_stmt 0 discriminator 1
 2586 0012 A068     		ldr	r0, [r4, #8]
 2587 0014 08B1     		cbz	r0, .L417
 222:../../iot_link/cJSON/cJSON.c ****         }
 2588              		.loc 1 222 0 is_stmt 1
 2589 0016 FFF7FEFF 		bl	cJSON_Delete
 2590              	.LVL331:
 2591              	.L417:
 224:../../iot_link/cJSON/cJSON.c ****         {
 2592              		.loc 1 224 0
 2593 001a E368     		ldr	r3, [r4, #12]
 2594 001c DA05     		lsls	r2, r3, #23
 2595 001e 03D4     		bmi	.L418
 224:../../iot_link/cJSON/cJSON.c ****         {
 2596              		.loc 1 224 0 is_stmt 0 discriminator 1
 2597 0020 2069     		ldr	r0, [r4, #16]
 2598 0022 08B1     		cbz	r0, .L418
 226:../../iot_link/cJSON/cJSON.c ****         }
 2599              		.loc 1 226 0 is_stmt 1
 2600 0024 6B68     		ldr	r3, [r5, #4]
 2601 0026 9847     		blx	r3
 2602              	.LVL332:
 2603              	.L418:
 228:../../iot_link/cJSON/cJSON.c ****         {
 2604              		.loc 1 228 0
 2605 0028 E368     		ldr	r3, [r4, #12]
 2606 002a 9B05     		lsls	r3, r3, #22
 2607 002c 03D4     		bmi	.L419
 228:../../iot_link/cJSON/cJSON.c ****         {
 2608              		.loc 1 228 0 is_stmt 0 discriminator 1
 2609 002e 206A     		ldr	r0, [r4, #32]
 2610 0030 08B1     		cbz	r0, .L419
 230:../../iot_link/cJSON/cJSON.c ****         }
ARM GAS  C:\Users\LuckyE\AppData\Local\Temp\ccgn9LZs.s 			page 87


 2611              		.loc 1 230 0 is_stmt 1
 2612 0032 6B68     		ldr	r3, [r5, #4]
 2613 0034 9847     		blx	r3
 2614              	.LVL333:
 2615              	.L419:
 232:../../iot_link/cJSON/cJSON.c ****         item = next;
 2616              		.loc 1 232 0
 2617 0036 2046     		mov	r0, r4
 2618 0038 6B68     		ldr	r3, [r5, #4]
 2619 003a 9847     		blx	r3
 2620              	.LVL334:
 233:../../iot_link/cJSON/cJSON.c ****     }
 2621              		.loc 1 233 0
 2622 003c 3446     		mov	r4, r6
 2623 003e E2E7     		b	.L416
 2624              	.L431:
 2625              		.align	2
 2626              	.L430:
 2627 0040 00000000 		.word	.LANCHOR0
 2628              		.cfi_endproc
 2629              	.LFE10:
 2631              		.global	__aeabi_dcmpge
 2632              		.global	__aeabi_dcmple
 2633              		.global	__aeabi_d2iz
 2634              		.section	.text.parse_value,"ax",%progbits
 2635              		.align	1
 2636              		.syntax unified
 2637              		.thumb
 2638              		.thumb_func
 2639              		.fpu fpv4-sp-d16
 2641              	parse_value:
 2642              	.LFB31:
1213:../../iot_link/cJSON/cJSON.c ****     if ((input_buffer == NULL) || (input_buffer->content == NULL))
 2643              		.loc 1 1213 0
 2644              		.cfi_startproc
 2645              		@ args = 0, pretend = 0, frame = 72
 2646              		@ frame_needed = 0, uses_anonymous_args = 0
 2647              	.LVL335:
 2648 0000 2DE9F047 		push	{r4, r5, r6, r7, r8, r9, r10, lr}
 2649              	.LCFI24:
 2650              		.cfi_def_cfa_offset 32
 2651              		.cfi_offset 4, -32
 2652              		.cfi_offset 5, -28
 2653              		.cfi_offset 6, -24
 2654              		.cfi_offset 7, -20
 2655              		.cfi_offset 8, -16
 2656              		.cfi_offset 9, -12
 2657              		.cfi_offset 10, -8
 2658              		.cfi_offset 14, -4
 2659 0004 0646     		mov	r6, r0
 2660 0006 92B0     		sub	sp, sp, #72
 2661              	.LCFI25:
 2662              		.cfi_def_cfa_offset 104
1214:../../iot_link/cJSON/cJSON.c ****     {
 2663              		.loc 1 1214 0
 2664 0008 0C46     		mov	r4, r1
 2665 000a 09B9     		cbnz	r1, .L433
ARM GAS  C:\Users\LuckyE\AppData\Local\Temp\ccgn9LZs.s 			page 88


 2666              	.LVL336:
 2667              	.L525:
 2668              	.LBB139:
 2669              	.LBB140:
1602:../../iot_link/cJSON/cJSON.c **** }
 2670              		.loc 1 1602 0
 2671 000c 0020     		movs	r0, #0
 2672 000e 23E0     		b	.L432
 2673              	.LVL337:
 2674              	.L433:
 2675              	.LBE140:
 2676              	.LBE139:
1214:../../iot_link/cJSON/cJSON.c ****     {
 2677              		.loc 1 1214 0 discriminator 1
 2678 0010 0F68     		ldr	r7, [r1]
 2679 0012 002F     		cmp	r7, #0
 2680 0014 FAD0     		beq	.L525
1221:../../iot_link/cJSON/cJSON.c ****     {
 2681              		.loc 1 1221 0 discriminator 1
 2682 0016 8D68     		ldr	r5, [r1, #8]
 2683 0018 D1F80480 		ldr	r8, [r1, #4]
 2684 001c 05F10409 		add	r9, r5, #4
 2685 0020 C145     		cmp	r9, r8
 2686 0022 0BD8     		bhi	.L436
1221:../../iot_link/cJSON/cJSON.c ****     {
 2687              		.loc 1 1221 0 is_stmt 0 discriminator 2
 2688 0024 0422     		movs	r2, #4
 2689 0026 AC49     		ldr	r1, .L529+8
 2690              	.LVL338:
 2691 0028 7819     		adds	r0, r7, r5
 2692              	.LVL339:
 2693 002a FFF7FEFF 		bl	strncmp
 2694              	.LVL340:
 2695 002e 28B9     		cbnz	r0, .L436
1223:../../iot_link/cJSON/cJSON.c ****         input_buffer->offset += 4;
 2696              		.loc 1 1223 0 is_stmt 1
 2697 0030 0423     		movs	r3, #4
 2698 0032 F360     		str	r3, [r6, #12]
1224:../../iot_link/cJSON/cJSON.c ****         return true;
 2699              		.loc 1 1224 0
 2700 0034 C4F80890 		str	r9, [r4, #8]
 2701              	.L528:
 2702              	.LBB147:
 2703              	.LBB143:
1594:../../iot_link/cJSON/cJSON.c **** 
 2704              		.loc 1 1594 0
 2705 0038 0120     		movs	r0, #1
 2706 003a 0DE0     		b	.L432
 2707              	.L436:
 2708              	.LBE143:
 2709              	.LBE147:
1228:../../iot_link/cJSON/cJSON.c ****     {
 2710              		.loc 1 1228 0 discriminator 1
 2711 003c 05F1050A 		add	r10, r5, #5
 2712 0040 D045     		cmp	r8, r10
 2713 0042 0CD3     		bcc	.L437
1228:../../iot_link/cJSON/cJSON.c ****     {
ARM GAS  C:\Users\LuckyE\AppData\Local\Temp\ccgn9LZs.s 			page 89


 2714              		.loc 1 1228 0 is_stmt 0 discriminator 2
 2715 0044 0522     		movs	r2, #5
 2716 0046 A549     		ldr	r1, .L529+12
 2717 0048 7819     		adds	r0, r7, r5
 2718 004a FFF7FEFF 		bl	strncmp
 2719              	.LVL341:
 2720 004e 30B9     		cbnz	r0, .L437
1230:../../iot_link/cJSON/cJSON.c ****         input_buffer->offset += 5;
 2721              		.loc 1 1230 0 is_stmt 1
 2722 0050 0120     		movs	r0, #1
 2723 0052 F060     		str	r0, [r6, #12]
1231:../../iot_link/cJSON/cJSON.c ****         return true;
 2724              		.loc 1 1231 0
 2725 0054 C4F808A0 		str	r10, [r4, #8]
 2726              	.L432:
1264:../../iot_link/cJSON/cJSON.c **** 
 2727              		.loc 1 1264 0
 2728 0058 12B0     		add	sp, sp, #72
 2729              	.LCFI26:
 2730              		.cfi_remember_state
 2731              		.cfi_def_cfa_offset 32
 2732              		@ sp needed
 2733 005a BDE8F087 		pop	{r4, r5, r6, r7, r8, r9, r10, pc}
 2734              	.LVL342:
 2735              	.L437:
 2736              	.LCFI27:
 2737              		.cfi_restore_state
1235:../../iot_link/cJSON/cJSON.c ****     {
 2738              		.loc 1 1235 0 discriminator 1
 2739 005e C145     		cmp	r9, r8
 2740 0060 0CD8     		bhi	.L438
1235:../../iot_link/cJSON/cJSON.c ****     {
 2741              		.loc 1 1235 0 is_stmt 0 discriminator 2
 2742 0062 0422     		movs	r2, #4
 2743 0064 9E49     		ldr	r1, .L529+16
 2744 0066 7819     		adds	r0, r7, r5
 2745 0068 FFF7FEFF 		bl	strncmp
 2746              	.LVL343:
 2747 006c 30B9     		cbnz	r0, .L438
1237:../../iot_link/cJSON/cJSON.c ****         item->valueint = 1;
 2748              		.loc 1 1237 0 is_stmt 1
 2749 006e 0223     		movs	r3, #2
1238:../../iot_link/cJSON/cJSON.c ****         input_buffer->offset += 4;
 2750              		.loc 1 1238 0
 2751 0070 0120     		movs	r0, #1
1237:../../iot_link/cJSON/cJSON.c ****         item->valueint = 1;
 2752              		.loc 1 1237 0
 2753 0072 F360     		str	r3, [r6, #12]
1238:../../iot_link/cJSON/cJSON.c ****         input_buffer->offset += 4;
 2754              		.loc 1 1238 0
 2755 0074 7061     		str	r0, [r6, #20]
1239:../../iot_link/cJSON/cJSON.c ****         return true;
 2756              		.loc 1 1239 0
 2757 0076 C4F80890 		str	r9, [r4, #8]
1240:../../iot_link/cJSON/cJSON.c ****     }
 2758              		.loc 1 1240 0
 2759 007a EDE7     		b	.L432
ARM GAS  C:\Users\LuckyE\AppData\Local\Temp\ccgn9LZs.s 			page 90


 2760              	.L438:
1243:../../iot_link/cJSON/cJSON.c ****     {
 2761              		.loc 1 1243 0 discriminator 1
 2762 007c 4545     		cmp	r5, r8
 2763 007e C5D2     		bcs	.L525
1243:../../iot_link/cJSON/cJSON.c ****     {
 2764              		.loc 1 1243 0 is_stmt 0 discriminator 2
 2765 0080 7B5D     		ldrb	r3, [r7, r5]	@ zero_extendqisi2
 2766 0082 222B     		cmp	r3, #34
 2767 0084 07EB0501 		add	r1, r7, r5
 2768 0088 04D1     		bne	.L439
1245:../../iot_link/cJSON/cJSON.c ****     }
 2769              		.loc 1 1245 0 is_stmt 1
 2770 008a 2146     		mov	r1, r4
 2771 008c 3046     		mov	r0, r6
 2772 008e FFF7FEFF 		bl	parse_string
 2773              	.LVL344:
 2774 0092 E1E7     		b	.L432
 2775              	.L439:
1248:../../iot_link/cJSON/cJSON.c ****     {
 2776              		.loc 1 1248 0 discriminator 2
 2777 0094 2D2B     		cmp	r3, #45
 2778 0096 03D0     		beq	.L440
1248:../../iot_link/cJSON/cJSON.c ****     {
 2779              		.loc 1 1248 0 is_stmt 0 discriminator 3
 2780 0098 A3F13002 		sub	r2, r3, #48
 2781 009c 092A     		cmp	r2, #9
 2782 009e 4ED8     		bhi	.L441
 2783              	.L440:
 2784              	.LVL345:
 2785              	.LBB148:
 2786              	.LBB149:
 269:../../iot_link/cJSON/cJSON.c ****     unsigned char number_c_string[64];
 2787              		.loc 1 269 0 is_stmt 1
 2788 00a0 0023     		movs	r3, #0
 2789 00a2 0193     		str	r3, [sp, #4]
 2790              	.LVL346:
 2791 00a4 A8EB0505 		sub	r5, r8, r5
 2792 00a8 02AF     		add	r7, sp, #8
 2793              	.LVL347:
 2794              	.L447:
