ARM GAS  C:\Users\LuckyE\AppData\Local\Temp\cca5DOBs.s 			page 1


   1              		.cpu cortex-m4
   2              		.eabi_attribute 27, 1
   3              		.eabi_attribute 28, 1
   4              		.eabi_attribute 20, 1
   5              		.eabi_attribute 21, 1
   6              		.eabi_attribute 23, 3
   7              		.eabi_attribute 24, 1
   8              		.eabi_attribute 25, 1
   9              		.eabi_attribute 26, 1
  10              		.eabi_attribute 30, 4
  11              		.eabi_attribute 34, 1
  12              		.eabi_attribute 18, 4
  13              		.file	"stm32l4xx_hal_dac.c"
  14              		.text
  15              	.Ltext0:
  16              		.cfi_sections	.debug_frame
  17              		.section	.text.HAL_DAC_MspInit,"ax",%progbits
  18              		.align	1
  19              		.weak	HAL_DAC_MspInit
  20              		.syntax unified
  21              		.thumb
  22              		.thumb_func
  23              		.fpu fpv4-sp-d16
  25              	HAL_DAC_MspInit:
  26              	.LFB282:
  27              		.file 1 "../../drivers/third_party/ST/STM32L4xx_HAL_Driver/Src/stm32l4xx_hal_dac.c"
   1:../../drivers/third_party/ST/STM32L4xx_HAL_Driver/Src/stm32l4xx_hal_dac.c **** /**
   2:../../drivers/third_party/ST/STM32L4xx_HAL_Driver/Src/stm32l4xx_hal_dac.c ****   ******************************************************************************
   3:../../drivers/third_party/ST/STM32L4xx_HAL_Driver/Src/stm32l4xx_hal_dac.c ****   * @file    stm32l4xx_hal_dac.c
   4:../../drivers/third_party/ST/STM32L4xx_HAL_Driver/Src/stm32l4xx_hal_dac.c ****   * @author  MCD Application Team
   5:../../drivers/third_party/ST/STM32L4xx_HAL_Driver/Src/stm32l4xx_hal_dac.c ****   * @brief   DAC HAL module driver.
   6:../../drivers/third_party/ST/STM32L4xx_HAL_Driver/Src/stm32l4xx_hal_dac.c ****   *         This file provides firmware functions to manage the following 
   7:../../drivers/third_party/ST/STM32L4xx_HAL_Driver/Src/stm32l4xx_hal_dac.c ****   *         functionalities of the Digital to Analog Converter (DAC) peripheral:
   8:../../drivers/third_party/ST/STM32L4xx_HAL_Driver/Src/stm32l4xx_hal_dac.c ****   *           + Initialization and de-initialization functions
   9:../../drivers/third_party/ST/STM32L4xx_HAL_Driver/Src/stm32l4xx_hal_dac.c ****   *           + IO operation functions
  10:../../drivers/third_party/ST/STM32L4xx_HAL_Driver/Src/stm32l4xx_hal_dac.c ****   *           + Peripheral Control functions
  11:../../drivers/third_party/ST/STM32L4xx_HAL_Driver/Src/stm32l4xx_hal_dac.c ****   *           + Peripheral State and Errors functions      
  12:../../drivers/third_party/ST/STM32L4xx_HAL_Driver/Src/stm32l4xx_hal_dac.c ****   *     
  13:../../drivers/third_party/ST/STM32L4xx_HAL_Driver/Src/stm32l4xx_hal_dac.c ****   *
  14:../../drivers/third_party/ST/STM32L4xx_HAL_Driver/Src/stm32l4xx_hal_dac.c ****   @verbatim      
  15:../../drivers/third_party/ST/STM32L4xx_HAL_Driver/Src/stm32l4xx_hal_dac.c ****   ==============================================================================
  16:../../drivers/third_party/ST/STM32L4xx_HAL_Driver/Src/stm32l4xx_hal_dac.c ****                       ##### DAC Peripheral features #####
  17:../../drivers/third_party/ST/STM32L4xx_HAL_Driver/Src/stm32l4xx_hal_dac.c ****   ==============================================================================
  18:../../drivers/third_party/ST/STM32L4xx_HAL_Driver/Src/stm32l4xx_hal_dac.c ****     [..]        
  19:../../drivers/third_party/ST/STM32L4xx_HAL_Driver/Src/stm32l4xx_hal_dac.c ****       *** DAC Channels ***
  20:../../drivers/third_party/ST/STM32L4xx_HAL_Driver/Src/stm32l4xx_hal_dac.c ****       ====================  
  21:../../drivers/third_party/ST/STM32L4xx_HAL_Driver/Src/stm32l4xx_hal_dac.c ****     [..]  
  22:../../drivers/third_party/ST/STM32L4xx_HAL_Driver/Src/stm32l4xx_hal_dac.c ****     STM32L4 devices integrate one or two 12-bit Digital Analog Converters 
  23:../../drivers/third_party/ST/STM32L4xx_HAL_Driver/Src/stm32l4xx_hal_dac.c ****     (i.e. one or 2 channel(s))
  24:../../drivers/third_party/ST/STM32L4xx_HAL_Driver/Src/stm32l4xx_hal_dac.c ****     1 channel : STM32L451xx STM32L452xx STM32L462xx
  25:../../drivers/third_party/ST/STM32L4xx_HAL_Driver/Src/stm32l4xx_hal_dac.c ****     2 channels: STM32L431xx STM32L432xx STM32L433xx STM32L442xx STM32L443xx
  26:../../drivers/third_party/ST/STM32L4xx_HAL_Driver/Src/stm32l4xx_hal_dac.c ****                 STM32L471xx STM32L475xx STM32L476xx STM32L485xx STM32L486xx STM32L496xx STM32L4A6xx
  27:../../drivers/third_party/ST/STM32L4xx_HAL_Driver/Src/stm32l4xx_hal_dac.c ****                 STM32L4R5xx STM32L4R7xx STM32L4R9xx STM32L4S5xx STM32L4S7xx STM32L4S9xx 
  28:../../drivers/third_party/ST/STM32L4xx_HAL_Driver/Src/stm32l4xx_hal_dac.c **** 
  29:../../drivers/third_party/ST/STM32L4xx_HAL_Driver/Src/stm32l4xx_hal_dac.c ****     When 2 channels are available, the 2 converters (i.e. channel1 & channel2)
  30:../../drivers/third_party/ST/STM32L4xx_HAL_Driver/Src/stm32l4xx_hal_dac.c ****     can be used independently or simultaneously (dual mode):
  31:../../drivers/third_party/ST/STM32L4xx_HAL_Driver/Src/stm32l4xx_hal_dac.c ****       (#) DAC channel1 with DAC_OUT1 (PA4) as output or connected to on-chip 
ARM GAS  C:\Users\LuckyE\AppData\Local\Temp\cca5DOBs.s 			page 2


  32:../../drivers/third_party/ST/STM32L4xx_HAL_Driver/Src/stm32l4xx_hal_dac.c ****           peripherals (ex. OPAMPs, comparators).
  33:../../drivers/third_party/ST/STM32L4xx_HAL_Driver/Src/stm32l4xx_hal_dac.c ****       (#) Whenever present, DAC channel2 with DAC_OUT2 (PA5) as output 
  34:../../drivers/third_party/ST/STM32L4xx_HAL_Driver/Src/stm32l4xx_hal_dac.c ****           or connected to on-chip peripherals (ex. OPAMPs, comparators).
  35:../../drivers/third_party/ST/STM32L4xx_HAL_Driver/Src/stm32l4xx_hal_dac.c ****       
  36:../../drivers/third_party/ST/STM32L4xx_HAL_Driver/Src/stm32l4xx_hal_dac.c ****       *** DAC Triggers ***
  37:../../drivers/third_party/ST/STM32L4xx_HAL_Driver/Src/stm32l4xx_hal_dac.c ****       ====================
  38:../../drivers/third_party/ST/STM32L4xx_HAL_Driver/Src/stm32l4xx_hal_dac.c ****     [..]
  39:../../drivers/third_party/ST/STM32L4xx_HAL_Driver/Src/stm32l4xx_hal_dac.c ****     Digital to Analog conversion can be non-triggered using DAC_TRIGGER_NONE
  40:../../drivers/third_party/ST/STM32L4xx_HAL_Driver/Src/stm32l4xx_hal_dac.c ****     and DAC_OUT1/DAC_OUT2 is available once writing to DHRx register. 
  41:../../drivers/third_party/ST/STM32L4xx_HAL_Driver/Src/stm32l4xx_hal_dac.c ****     [..] 
  42:../../drivers/third_party/ST/STM32L4xx_HAL_Driver/Src/stm32l4xx_hal_dac.c ****     Digital to Analog conversion can be triggered by:
  43:../../drivers/third_party/ST/STM32L4xx_HAL_Driver/Src/stm32l4xx_hal_dac.c ****       (#) External event: EXTI Line 9 (any GPIOx_PIN_9) using DAC_TRIGGER_EXT_IT9.
  44:../../drivers/third_party/ST/STM32L4xx_HAL_Driver/Src/stm32l4xx_hal_dac.c ****           The used pin (GPIOx_PIN_9) must be configured in input mode.
  45:../../drivers/third_party/ST/STM32L4xx_HAL_Driver/Src/stm32l4xx_hal_dac.c ****   
  46:../../drivers/third_party/ST/STM32L4xx_HAL_Driver/Src/stm32l4xx_hal_dac.c ****       (#) Timers TRGO: TIM2, TIM3, TIM4, TIM5, TIM6 and TIM7 
  47:../../drivers/third_party/ST/STM32L4xx_HAL_Driver/Src/stm32l4xx_hal_dac.c ****           (DAC_TRIGGER_T2_TRGO, DAC_TRIGGER_T3_TRGO...)
  48:../../drivers/third_party/ST/STM32L4xx_HAL_Driver/Src/stm32l4xx_hal_dac.c ****   
  49:../../drivers/third_party/ST/STM32L4xx_HAL_Driver/Src/stm32l4xx_hal_dac.c ****       (#) Software using DAC_TRIGGER_SOFTWARE
  50:../../drivers/third_party/ST/STM32L4xx_HAL_Driver/Src/stm32l4xx_hal_dac.c ****   
  51:../../drivers/third_party/ST/STM32L4xx_HAL_Driver/Src/stm32l4xx_hal_dac.c ****       *** DAC Buffer mode feature ***
  52:../../drivers/third_party/ST/STM32L4xx_HAL_Driver/Src/stm32l4xx_hal_dac.c ****       =============================== 
  53:../../drivers/third_party/ST/STM32L4xx_HAL_Driver/Src/stm32l4xx_hal_dac.c ****       [..] 
  54:../../drivers/third_party/ST/STM32L4xx_HAL_Driver/Src/stm32l4xx_hal_dac.c ****       Each DAC channel integrates an output buffer that can be used to 
  55:../../drivers/third_party/ST/STM32L4xx_HAL_Driver/Src/stm32l4xx_hal_dac.c ****       reduce the output impedance, and to drive external loads directly
  56:../../drivers/third_party/ST/STM32L4xx_HAL_Driver/Src/stm32l4xx_hal_dac.c ****       without having to add an external operational amplifier.
  57:../../drivers/third_party/ST/STM32L4xx_HAL_Driver/Src/stm32l4xx_hal_dac.c ****       To enable, the output buffer use  
  58:../../drivers/third_party/ST/STM32L4xx_HAL_Driver/Src/stm32l4xx_hal_dac.c ****       sConfig.DAC_OutputBuffer = DAC_OUTPUTBUFFER_ENABLE;
  59:../../drivers/third_party/ST/STM32L4xx_HAL_Driver/Src/stm32l4xx_hal_dac.c ****       [..]           
  60:../../drivers/third_party/ST/STM32L4xx_HAL_Driver/Src/stm32l4xx_hal_dac.c ****       (@) Refer to the device datasheet for more details about output 
  61:../../drivers/third_party/ST/STM32L4xx_HAL_Driver/Src/stm32l4xx_hal_dac.c ****           impedance value with and without output buffer.
  62:../../drivers/third_party/ST/STM32L4xx_HAL_Driver/Src/stm32l4xx_hal_dac.c **** 
  63:../../drivers/third_party/ST/STM32L4xx_HAL_Driver/Src/stm32l4xx_hal_dac.c ****       *** DAC connect feature ***
  64:../../drivers/third_party/ST/STM32L4xx_HAL_Driver/Src/stm32l4xx_hal_dac.c ****       =============================== 
  65:../../drivers/third_party/ST/STM32L4xx_HAL_Driver/Src/stm32l4xx_hal_dac.c ****       [..] 
  66:../../drivers/third_party/ST/STM32L4xx_HAL_Driver/Src/stm32l4xx_hal_dac.c ****       Each DAC channel can be connected internally. 
  67:../../drivers/third_party/ST/STM32L4xx_HAL_Driver/Src/stm32l4xx_hal_dac.c ****       To connect, use
  68:../../drivers/third_party/ST/STM32L4xx_HAL_Driver/Src/stm32l4xx_hal_dac.c ****       sConfig.DAC_ConnectOnChipPeripheral = DAC_CHIPCONNECT_ENABLE;
  69:../../drivers/third_party/ST/STM32L4xx_HAL_Driver/Src/stm32l4xx_hal_dac.c ****                                                
  70:../../drivers/third_party/ST/STM32L4xx_HAL_Driver/Src/stm32l4xx_hal_dac.c ****       *** GPIO configurations guidelines ***
  71:../../drivers/third_party/ST/STM32L4xx_HAL_Driver/Src/stm32l4xx_hal_dac.c ****       =====================
  72:../../drivers/third_party/ST/STM32L4xx_HAL_Driver/Src/stm32l4xx_hal_dac.c ****       [..] 
  73:../../drivers/third_party/ST/STM32L4xx_HAL_Driver/Src/stm32l4xx_hal_dac.c ****       When a DAC channel is used (ex channel1 on PA4) and the other is not 
  74:../../drivers/third_party/ST/STM32L4xx_HAL_Driver/Src/stm32l4xx_hal_dac.c ****       (ex channel2 on PA5 is configured in Analog and disabled).
  75:../../drivers/third_party/ST/STM32L4xx_HAL_Driver/Src/stm32l4xx_hal_dac.c ****       Channel1 may disturb channel2 as coupling effect.
  76:../../drivers/third_party/ST/STM32L4xx_HAL_Driver/Src/stm32l4xx_hal_dac.c ****       Note that there is no coupling on channel2 as soon as channel2 is turned on.
  77:../../drivers/third_party/ST/STM32L4xx_HAL_Driver/Src/stm32l4xx_hal_dac.c ****       Coupling on adjacent channel could be avoided as follows:
  78:../../drivers/third_party/ST/STM32L4xx_HAL_Driver/Src/stm32l4xx_hal_dac.c ****       when unused PA5 is configured as INPUT PULL-UP or DOWN. 
  79:../../drivers/third_party/ST/STM32L4xx_HAL_Driver/Src/stm32l4xx_hal_dac.c ****       PA5 is configured in ANALOG just before it is turned on.     
  80:../../drivers/third_party/ST/STM32L4xx_HAL_Driver/Src/stm32l4xx_hal_dac.c ****                                                
  81:../../drivers/third_party/ST/STM32L4xx_HAL_Driver/Src/stm32l4xx_hal_dac.c ****       *** DAC Sample and Hold feature ***
  82:../../drivers/third_party/ST/STM32L4xx_HAL_Driver/Src/stm32l4xx_hal_dac.c ****       ========================
  83:../../drivers/third_party/ST/STM32L4xx_HAL_Driver/Src/stm32l4xx_hal_dac.c ****       [..] 
  84:../../drivers/third_party/ST/STM32L4xx_HAL_Driver/Src/stm32l4xx_hal_dac.c ****       For each converter, 2 modes are supported: normal mode and 
  85:../../drivers/third_party/ST/STM32L4xx_HAL_Driver/Src/stm32l4xx_hal_dac.c ****       "sample and hold" mode (i.e. low power mode).
  86:../../drivers/third_party/ST/STM32L4xx_HAL_Driver/Src/stm32l4xx_hal_dac.c ****       In the sample and hold mode, the DAC core converts data, then holds the 
  87:../../drivers/third_party/ST/STM32L4xx_HAL_Driver/Src/stm32l4xx_hal_dac.c ****       converted voltage on a capacitor. When not converting, the DAC cores and 
  88:../../drivers/third_party/ST/STM32L4xx_HAL_Driver/Src/stm32l4xx_hal_dac.c ****       buffer are completely turned  off between samples and the DAC output is 
ARM GAS  C:\Users\LuckyE\AppData\Local\Temp\cca5DOBs.s 			page 3


  89:../../drivers/third_party/ST/STM32L4xx_HAL_Driver/Src/stm32l4xx_hal_dac.c ****       tri-stated, therefore  reducing the overall power consumption. A new 
  90:../../drivers/third_party/ST/STM32L4xx_HAL_Driver/Src/stm32l4xx_hal_dac.c ****       stabilization period is needed before each new conversion.
  91:../../drivers/third_party/ST/STM32L4xx_HAL_Driver/Src/stm32l4xx_hal_dac.c **** 
  92:../../drivers/third_party/ST/STM32L4xx_HAL_Driver/Src/stm32l4xx_hal_dac.c ****       The sample and hold allow setting internal or external voltage @
  93:../../drivers/third_party/ST/STM32L4xx_HAL_Driver/Src/stm32l4xx_hal_dac.c ****       low power consumption cost (output value can be at any given rate either 
  94:../../drivers/third_party/ST/STM32L4xx_HAL_Driver/Src/stm32l4xx_hal_dac.c ****       by CPU or DMA).
  95:../../drivers/third_party/ST/STM32L4xx_HAL_Driver/Src/stm32l4xx_hal_dac.c **** 
  96:../../drivers/third_party/ST/STM32L4xx_HAL_Driver/Src/stm32l4xx_hal_dac.c ****       The Sample and hold block and registers uses either LSI & run in 
  97:../../drivers/third_party/ST/STM32L4xx_HAL_Driver/Src/stm32l4xx_hal_dac.c ****       several power modes: run mode, sleep mode, low power run, low power sleep 
  98:../../drivers/third_party/ST/STM32L4xx_HAL_Driver/Src/stm32l4xx_hal_dac.c ****       mode & stop1 mode.
  99:../../drivers/third_party/ST/STM32L4xx_HAL_Driver/Src/stm32l4xx_hal_dac.c ****           
 100:../../drivers/third_party/ST/STM32L4xx_HAL_Driver/Src/stm32l4xx_hal_dac.c ****       Low power stop1 mode allows only static conversion.
 101:../../drivers/third_party/ST/STM32L4xx_HAL_Driver/Src/stm32l4xx_hal_dac.c ****           
 102:../../drivers/third_party/ST/STM32L4xx_HAL_Driver/Src/stm32l4xx_hal_dac.c ****       To enable Sample and Hold mode 
 103:../../drivers/third_party/ST/STM32L4xx_HAL_Driver/Src/stm32l4xx_hal_dac.c ****       Enable LSI using HAL_RCC_OscConfig with RCC_OSCILLATORTYPE_LSI &
 104:../../drivers/third_party/ST/STM32L4xx_HAL_Driver/Src/stm32l4xx_hal_dac.c ****       RCC_LSI_ON parameters.
 105:../../drivers/third_party/ST/STM32L4xx_HAL_Driver/Src/stm32l4xx_hal_dac.c **** 
 106:../../drivers/third_party/ST/STM32L4xx_HAL_Driver/Src/stm32l4xx_hal_dac.c ****       Use DAC_InitStructure.DAC_SampleAndHold = DAC_SAMPLEANDHOLD_ENABLE;
 107:../../drivers/third_party/ST/STM32L4xx_HAL_Driver/Src/stm32l4xx_hal_dac.c ****          & DAC_ChannelConfTypeDef.DAC_SampleAndHoldConfig.DAC_SampleTime,
 108:../../drivers/third_party/ST/STM32L4xx_HAL_Driver/Src/stm32l4xx_hal_dac.c ****            DAC_HoldTime & DAC_RefreshTime;
 109:../../drivers/third_party/ST/STM32L4xx_HAL_Driver/Src/stm32l4xx_hal_dac.c ****     
 110:../../drivers/third_party/ST/STM32L4xx_HAL_Driver/Src/stm32l4xx_hal_dac.c **** 
 111:../../drivers/third_party/ST/STM32L4xx_HAL_Driver/Src/stm32l4xx_hal_dac.c **** 
 112:../../drivers/third_party/ST/STM32L4xx_HAL_Driver/Src/stm32l4xx_hal_dac.c ****        *** DAC calibration feature ***
 113:../../drivers/third_party/ST/STM32L4xx_HAL_Driver/Src/stm32l4xx_hal_dac.c ****        =================================== 
 114:../../drivers/third_party/ST/STM32L4xx_HAL_Driver/Src/stm32l4xx_hal_dac.c ****       [..] 
 115:../../drivers/third_party/ST/STM32L4xx_HAL_Driver/Src/stm32l4xx_hal_dac.c ****        (#)  The 2 converters (channel1 & channel2) provide calibration capabilities.  
 116:../../drivers/third_party/ST/STM32L4xx_HAL_Driver/Src/stm32l4xx_hal_dac.c ****        (++) Calibration aims at correcting some offset of output buffer.
 117:../../drivers/third_party/ST/STM32L4xx_HAL_Driver/Src/stm32l4xx_hal_dac.c ****        (++) The DAC uses either factory calibration settings OR user defined 
 118:../../drivers/third_party/ST/STM32L4xx_HAL_Driver/Src/stm32l4xx_hal_dac.c ****            calibration (trimming) settings (i.e. trimming mode).
 119:../../drivers/third_party/ST/STM32L4xx_HAL_Driver/Src/stm32l4xx_hal_dac.c ****        (++) The user defined settings can be figured out using self calibration 
 120:../../drivers/third_party/ST/STM32L4xx_HAL_Driver/Src/stm32l4xx_hal_dac.c ****            handled by HAL_DACEx_SelfCalibrate.
 121:../../drivers/third_party/ST/STM32L4xx_HAL_Driver/Src/stm32l4xx_hal_dac.c ****        (++) HAL_DACEx_SelfCalibrate:
 122:../../drivers/third_party/ST/STM32L4xx_HAL_Driver/Src/stm32l4xx_hal_dac.c ****        (+++) Runs automatically the calibration.
 123:../../drivers/third_party/ST/STM32L4xx_HAL_Driver/Src/stm32l4xx_hal_dac.c ****        (+++) Enables the user trimming mode
 124:../../drivers/third_party/ST/STM32L4xx_HAL_Driver/Src/stm32l4xx_hal_dac.c ****        (+++) Updates a structure with trimming values with fresh calibration 
 125:../../drivers/third_party/ST/STM32L4xx_HAL_Driver/Src/stm32l4xx_hal_dac.c ****             results. 
 126:../../drivers/third_party/ST/STM32L4xx_HAL_Driver/Src/stm32l4xx_hal_dac.c ****             The user may store the calibration results for larger 
 127:../../drivers/third_party/ST/STM32L4xx_HAL_Driver/Src/stm32l4xx_hal_dac.c ****             (ex monitoring the trimming as a function of temperature 
 128:../../drivers/third_party/ST/STM32L4xx_HAL_Driver/Src/stm32l4xx_hal_dac.c ****             for instance)
 129:../../drivers/third_party/ST/STM32L4xx_HAL_Driver/Src/stm32l4xx_hal_dac.c **** 
 130:../../drivers/third_party/ST/STM32L4xx_HAL_Driver/Src/stm32l4xx_hal_dac.c ****        *** DAC wave generation feature ***
 131:../../drivers/third_party/ST/STM32L4xx_HAL_Driver/Src/stm32l4xx_hal_dac.c ****        =================================== 
 132:../../drivers/third_party/ST/STM32L4xx_HAL_Driver/Src/stm32l4xx_hal_dac.c ****        [..]     
 133:../../drivers/third_party/ST/STM32L4xx_HAL_Driver/Src/stm32l4xx_hal_dac.c ****        Both DAC channels can be used to generate
 134:../../drivers/third_party/ST/STM32L4xx_HAL_Driver/Src/stm32l4xx_hal_dac.c ****          (#) Noise wave 
 135:../../drivers/third_party/ST/STM32L4xx_HAL_Driver/Src/stm32l4xx_hal_dac.c ****          (#) Triangle wave
 136:../../drivers/third_party/ST/STM32L4xx_HAL_Driver/Src/stm32l4xx_hal_dac.c ****             
 137:../../drivers/third_party/ST/STM32L4xx_HAL_Driver/Src/stm32l4xx_hal_dac.c ****        *** DAC data format ***
 138:../../drivers/third_party/ST/STM32L4xx_HAL_Driver/Src/stm32l4xx_hal_dac.c ****        =======================
 139:../../drivers/third_party/ST/STM32L4xx_HAL_Driver/Src/stm32l4xx_hal_dac.c ****        [..]   
 140:../../drivers/third_party/ST/STM32L4xx_HAL_Driver/Src/stm32l4xx_hal_dac.c ****        The DAC data format can be:
 141:../../drivers/third_party/ST/STM32L4xx_HAL_Driver/Src/stm32l4xx_hal_dac.c ****          (#) 8-bit right alignment using DAC_ALIGN_8B_R
 142:../../drivers/third_party/ST/STM32L4xx_HAL_Driver/Src/stm32l4xx_hal_dac.c ****          (#) 12-bit left alignment using DAC_ALIGN_12B_L
 143:../../drivers/third_party/ST/STM32L4xx_HAL_Driver/Src/stm32l4xx_hal_dac.c ****          (#) 12-bit right alignment using DAC_ALIGN_12B_R
 144:../../drivers/third_party/ST/STM32L4xx_HAL_Driver/Src/stm32l4xx_hal_dac.c ****   
 145:../../drivers/third_party/ST/STM32L4xx_HAL_Driver/Src/stm32l4xx_hal_dac.c ****        *** DAC data value to voltage correspondence ***  
ARM GAS  C:\Users\LuckyE\AppData\Local\Temp\cca5DOBs.s 			page 4


 146:../../drivers/third_party/ST/STM32L4xx_HAL_Driver/Src/stm32l4xx_hal_dac.c ****        ================================================ 
 147:../../drivers/third_party/ST/STM32L4xx_HAL_Driver/Src/stm32l4xx_hal_dac.c ****        [..] 
 148:../../drivers/third_party/ST/STM32L4xx_HAL_Driver/Src/stm32l4xx_hal_dac.c ****        The analog output voltage on each DAC channel pin is determined
 149:../../drivers/third_party/ST/STM32L4xx_HAL_Driver/Src/stm32l4xx_hal_dac.c ****        by the following equation:
 150:../../drivers/third_party/ST/STM32L4xx_HAL_Driver/Src/stm32l4xx_hal_dac.c ****        [..]
 151:../../drivers/third_party/ST/STM32L4xx_HAL_Driver/Src/stm32l4xx_hal_dac.c ****        DAC_OUTx = VREF+ * DOR / 4095
 152:../../drivers/third_party/ST/STM32L4xx_HAL_Driver/Src/stm32l4xx_hal_dac.c ****        (+) with  DOR is the Data Output Register
 153:../../drivers/third_party/ST/STM32L4xx_HAL_Driver/Src/stm32l4xx_hal_dac.c ****        [..]
 154:../../drivers/third_party/ST/STM32L4xx_HAL_Driver/Src/stm32l4xx_hal_dac.c ****           VEF+ is the input voltage reference (refer to the device datasheet)
 155:../../drivers/third_party/ST/STM32L4xx_HAL_Driver/Src/stm32l4xx_hal_dac.c ****        [..]
 156:../../drivers/third_party/ST/STM32L4xx_HAL_Driver/Src/stm32l4xx_hal_dac.c ****         e.g. To set DAC_OUT1 to 0.7V, use
 157:../../drivers/third_party/ST/STM32L4xx_HAL_Driver/Src/stm32l4xx_hal_dac.c ****        (+) Assuming that VREF+ = 3.3V, DAC_OUT1 = (3.3 * 868) / 4095 = 0.7V
 158:../../drivers/third_party/ST/STM32L4xx_HAL_Driver/Src/stm32l4xx_hal_dac.c ****   
 159:../../drivers/third_party/ST/STM32L4xx_HAL_Driver/Src/stm32l4xx_hal_dac.c ****        *** DMA requests ***
 160:../../drivers/third_party/ST/STM32L4xx_HAL_Driver/Src/stm32l4xx_hal_dac.c ****        =====================
 161:../../drivers/third_party/ST/STM32L4xx_HAL_Driver/Src/stm32l4xx_hal_dac.c ****        [..]
 162:../../drivers/third_party/ST/STM32L4xx_HAL_Driver/Src/stm32l4xx_hal_dac.c ****        A DMA1 request can be generated when an external trigger (but not a software trigger) 
 163:../../drivers/third_party/ST/STM32L4xx_HAL_Driver/Src/stm32l4xx_hal_dac.c ****        occurs if DMA1 requests are enabled using HAL_DAC_Start_DMA(). 
 164:../../drivers/third_party/ST/STM32L4xx_HAL_Driver/Src/stm32l4xx_hal_dac.c ****        DMA requests are mapped as following:          
 165:../../drivers/third_party/ST/STM32L4xx_HAL_Driver/Src/stm32l4xx_hal_dac.c ****       (#) DAC channel1: mapped either on
 166:../../drivers/third_party/ST/STM32L4xx_HAL_Driver/Src/stm32l4xx_hal_dac.c ****       (++) DMA1 request 6 channel3 
 167:../../drivers/third_party/ST/STM32L4xx_HAL_Driver/Src/stm32l4xx_hal_dac.c ****       (++) or DMA2 request channel4 which must be already configured
 168:../../drivers/third_party/ST/STM32L4xx_HAL_Driver/Src/stm32l4xx_hal_dac.c ****       (#) DAC channel2 (whenever present): mapped either on
 169:../../drivers/third_party/ST/STM32L4xx_HAL_Driver/Src/stm32l4xx_hal_dac.c ****       (++) DMA1 request 5 channel4 
 170:../../drivers/third_party/ST/STM32L4xx_HAL_Driver/Src/stm32l4xx_hal_dac.c ****       (++) or DMA2 request 3 channel5 which must be already configured 
 171:../../drivers/third_party/ST/STM32L4xx_HAL_Driver/Src/stm32l4xx_hal_dac.c ****      [..]
 172:../../drivers/third_party/ST/STM32L4xx_HAL_Driver/Src/stm32l4xx_hal_dac.c ****     (@) For Dual mode and specific signal (Triangle and noise) generation please 
 173:../../drivers/third_party/ST/STM32L4xx_HAL_Driver/Src/stm32l4xx_hal_dac.c ****         refer to Extended Features Driver description        
 174:../../drivers/third_party/ST/STM32L4xx_HAL_Driver/Src/stm32l4xx_hal_dac.c ****       
 175:../../drivers/third_party/ST/STM32L4xx_HAL_Driver/Src/stm32l4xx_hal_dac.c ****                       ##### How to use this driver #####
 176:../../drivers/third_party/ST/STM32L4xx_HAL_Driver/Src/stm32l4xx_hal_dac.c ****   ==============================================================================
 177:../../drivers/third_party/ST/STM32L4xx_HAL_Driver/Src/stm32l4xx_hal_dac.c ****     [..]          
 178:../../drivers/third_party/ST/STM32L4xx_HAL_Driver/Src/stm32l4xx_hal_dac.c ****       (+) DAC APB clock must be enabled to get write access to DAC
 179:../../drivers/third_party/ST/STM32L4xx_HAL_Driver/Src/stm32l4xx_hal_dac.c ****           registers using HAL_DAC_Init()
 180:../../drivers/third_party/ST/STM32L4xx_HAL_Driver/Src/stm32l4xx_hal_dac.c ****       (+) Configure DAC_OUTx (DAC_OUT1: PA4, DAC_OUT2: PA5) in analog mode.
 181:../../drivers/third_party/ST/STM32L4xx_HAL_Driver/Src/stm32l4xx_hal_dac.c ****       (+) Configure the DAC channel using HAL_DAC_ConfigChannel() function.
 182:../../drivers/third_party/ST/STM32L4xx_HAL_Driver/Src/stm32l4xx_hal_dac.c ****       (+) Enable the DAC channel using HAL_DAC_Start() or HAL_DAC_Start_DMA() functions.
 183:../../drivers/third_party/ST/STM32L4xx_HAL_Driver/Src/stm32l4xx_hal_dac.c **** 
 184:../../drivers/third_party/ST/STM32L4xx_HAL_Driver/Src/stm32l4xx_hal_dac.c ****      *** Calibration mode IO operation ***
 185:../../drivers/third_party/ST/STM32L4xx_HAL_Driver/Src/stm32l4xx_hal_dac.c ****      ======================================
 186:../../drivers/third_party/ST/STM32L4xx_HAL_Driver/Src/stm32l4xx_hal_dac.c ****      [..]    
 187:../../drivers/third_party/ST/STM32L4xx_HAL_Driver/Src/stm32l4xx_hal_dac.c ****        (+) Retrieve the factory trimming (calibration settings) using HAL_DACEx_GetTrimOffset()
 188:../../drivers/third_party/ST/STM32L4xx_HAL_Driver/Src/stm32l4xx_hal_dac.c ****        (+) Run the calibration using HAL_DACEx_SelfCalibrate() 
 189:../../drivers/third_party/ST/STM32L4xx_HAL_Driver/Src/stm32l4xx_hal_dac.c ****        (+) Update the trimming while DAC running using HAL_DACEx_SetUserTrimming()
 190:../../drivers/third_party/ST/STM32L4xx_HAL_Driver/Src/stm32l4xx_hal_dac.c **** 
 191:../../drivers/third_party/ST/STM32L4xx_HAL_Driver/Src/stm32l4xx_hal_dac.c ****      *** Polling mode IO operation ***
 192:../../drivers/third_party/ST/STM32L4xx_HAL_Driver/Src/stm32l4xx_hal_dac.c ****      =================================
 193:../../drivers/third_party/ST/STM32L4xx_HAL_Driver/Src/stm32l4xx_hal_dac.c ****      [..]    
 194:../../drivers/third_party/ST/STM32L4xx_HAL_Driver/Src/stm32l4xx_hal_dac.c ****        (+) Start the DAC peripheral using HAL_DAC_Start() 
 195:../../drivers/third_party/ST/STM32L4xx_HAL_Driver/Src/stm32l4xx_hal_dac.c ****        (+) To read the DAC last data output value, use the HAL_DAC_GetValue() function.
 196:../../drivers/third_party/ST/STM32L4xx_HAL_Driver/Src/stm32l4xx_hal_dac.c ****        (+) Stop the DAC peripheral using HAL_DAC_Stop()
 197:../../drivers/third_party/ST/STM32L4xx_HAL_Driver/Src/stm32l4xx_hal_dac.c ****        
 198:../../drivers/third_party/ST/STM32L4xx_HAL_Driver/Src/stm32l4xx_hal_dac.c ****      *** DMA mode IO operation ***    
 199:../../drivers/third_party/ST/STM32L4xx_HAL_Driver/Src/stm32l4xx_hal_dac.c ****      ==============================
 200:../../drivers/third_party/ST/STM32L4xx_HAL_Driver/Src/stm32l4xx_hal_dac.c ****      [..]    
 201:../../drivers/third_party/ST/STM32L4xx_HAL_Driver/Src/stm32l4xx_hal_dac.c ****        (+) Start the DAC peripheral using HAL_DAC_Start_DMA(), at this stage the user specify the l
 202:../../drivers/third_party/ST/STM32L4xx_HAL_Driver/Src/stm32l4xx_hal_dac.c ****            of data to be transferred at each end of conversion
ARM GAS  C:\Users\LuckyE\AppData\Local\Temp\cca5DOBs.s 			page 5


 203:../../drivers/third_party/ST/STM32L4xx_HAL_Driver/Src/stm32l4xx_hal_dac.c ****        (+) At the middle of data transfer HAL_DAC_ConvHalfCpltCallbackCh1() or HAL_DACEx_ConvHalfCp
 204:../../drivers/third_party/ST/STM32L4xx_HAL_Driver/Src/stm32l4xx_hal_dac.c ****            function is executed and user can add his own code by customization of function pointer 
 205:../../drivers/third_party/ST/STM32L4xx_HAL_Driver/Src/stm32l4xx_hal_dac.c ****            HAL_DAC_ConvHalfCpltCallbackCh1() or HAL_DACEx_ConvHalfCpltCallbackCh2()
 206:../../drivers/third_party/ST/STM32L4xx_HAL_Driver/Src/stm32l4xx_hal_dac.c ****        (+) At The end of data transfer HAL_DAC_ConvCpltCallbackCh1() or HAL_DACEx_ConvHalfCpltCallb
 207:../../drivers/third_party/ST/STM32L4xx_HAL_Driver/Src/stm32l4xx_hal_dac.c ****            function is executed and user can add his own code by customization of function pointer 
 208:../../drivers/third_party/ST/STM32L4xx_HAL_Driver/Src/stm32l4xx_hal_dac.c ****            HAL_DAC_ConvCpltCallbackCh1() or HAL_DACEx_ConvHalfCpltCallbackCh2()
 209:../../drivers/third_party/ST/STM32L4xx_HAL_Driver/Src/stm32l4xx_hal_dac.c ****        (+) In case of transfer Error, HAL_DAC_ErrorCallbackCh1() function is executed and user can 
 210:../../drivers/third_party/ST/STM32L4xx_HAL_Driver/Src/stm32l4xx_hal_dac.c ****             add his own code by customization of function pointer HAL_DAC_ErrorCallbackCh1
 211:../../drivers/third_party/ST/STM32L4xx_HAL_Driver/Src/stm32l4xx_hal_dac.c ****        (+) In case of DMA underrun, DAC interruption triggers and execute internal function HAL_DAC
 212:../../drivers/third_party/ST/STM32L4xx_HAL_Driver/Src/stm32l4xx_hal_dac.c ****            HAL_DAC_DMAUnderrunCallbackCh1() or HAL_DACEx_DMAUnderrunCallbackCh2()  
 213:../../drivers/third_party/ST/STM32L4xx_HAL_Driver/Src/stm32l4xx_hal_dac.c ****            function is executed and user can add his own code by customization of function pointer 
 214:../../drivers/third_party/ST/STM32L4xx_HAL_Driver/Src/stm32l4xx_hal_dac.c ****            HAL_DAC_DMAUnderrunCallbackCh1() or HAL_DACEx_DMAUnderrunCallbackCh2() and
 215:../../drivers/third_party/ST/STM32L4xx_HAL_Driver/Src/stm32l4xx_hal_dac.c ****            add his own code by customization of function pointer HAL_DAC_ErrorCallbackCh1()
 216:../../drivers/third_party/ST/STM32L4xx_HAL_Driver/Src/stm32l4xx_hal_dac.c ****        (+) Stop the DAC peripheral using HAL_DAC_Stop_DMA()
 217:../../drivers/third_party/ST/STM32L4xx_HAL_Driver/Src/stm32l4xx_hal_dac.c ****                     
 218:../../drivers/third_party/ST/STM32L4xx_HAL_Driver/Src/stm32l4xx_hal_dac.c ****      *** DAC HAL driver macros list ***
 219:../../drivers/third_party/ST/STM32L4xx_HAL_Driver/Src/stm32l4xx_hal_dac.c ****      ============================================= 
 220:../../drivers/third_party/ST/STM32L4xx_HAL_Driver/Src/stm32l4xx_hal_dac.c ****      [..]
 221:../../drivers/third_party/ST/STM32L4xx_HAL_Driver/Src/stm32l4xx_hal_dac.c ****        Below the list of most used macros in DAC HAL driver.
 222:../../drivers/third_party/ST/STM32L4xx_HAL_Driver/Src/stm32l4xx_hal_dac.c ****        
 223:../../drivers/third_party/ST/STM32L4xx_HAL_Driver/Src/stm32l4xx_hal_dac.c ****       (+) __HAL_DAC_ENABLE : Enable the DAC peripheral
 224:../../drivers/third_party/ST/STM32L4xx_HAL_Driver/Src/stm32l4xx_hal_dac.c ****       (+) __HAL_DAC_DISABLE : Disable the DAC peripheral
 225:../../drivers/third_party/ST/STM32L4xx_HAL_Driver/Src/stm32l4xx_hal_dac.c ****       (+) __HAL_DAC_CLEAR_FLAG: Clear the DAC's pending flags
 226:../../drivers/third_party/ST/STM32L4xx_HAL_Driver/Src/stm32l4xx_hal_dac.c ****       (+) __HAL_DAC_GET_FLAG: Get the selected DAC's flag status
 227:../../drivers/third_party/ST/STM32L4xx_HAL_Driver/Src/stm32l4xx_hal_dac.c ****       
 228:../../drivers/third_party/ST/STM32L4xx_HAL_Driver/Src/stm32l4xx_hal_dac.c ****      [..]
 229:../../drivers/third_party/ST/STM32L4xx_HAL_Driver/Src/stm32l4xx_hal_dac.c ****       (@) You can refer to the DAC HAL driver header file for more useful macros  
 230:../../drivers/third_party/ST/STM32L4xx_HAL_Driver/Src/stm32l4xx_hal_dac.c ****    
 231:../../drivers/third_party/ST/STM32L4xx_HAL_Driver/Src/stm32l4xx_hal_dac.c ****  @endverbatim    
 232:../../drivers/third_party/ST/STM32L4xx_HAL_Driver/Src/stm32l4xx_hal_dac.c ****   ******************************************************************************
 233:../../drivers/third_party/ST/STM32L4xx_HAL_Driver/Src/stm32l4xx_hal_dac.c ****   * @attention
 234:../../drivers/third_party/ST/STM32L4xx_HAL_Driver/Src/stm32l4xx_hal_dac.c ****   *
 235:../../drivers/third_party/ST/STM32L4xx_HAL_Driver/Src/stm32l4xx_hal_dac.c ****   * <h2><center>&copy; COPYRIGHT(c) 2017 STMicroelectronics</center></h2>
 236:../../drivers/third_party/ST/STM32L4xx_HAL_Driver/Src/stm32l4xx_hal_dac.c ****   *
 237:../../drivers/third_party/ST/STM32L4xx_HAL_Driver/Src/stm32l4xx_hal_dac.c ****   * Redistribution and use in source and binary forms, with or without modification,
 238:../../drivers/third_party/ST/STM32L4xx_HAL_Driver/Src/stm32l4xx_hal_dac.c ****   * are permitted provided that the following conditions are met:
 239:../../drivers/third_party/ST/STM32L4xx_HAL_Driver/Src/stm32l4xx_hal_dac.c ****   *   1. Redistributions of source code must retain the above copyright notice,
 240:../../drivers/third_party/ST/STM32L4xx_HAL_Driver/Src/stm32l4xx_hal_dac.c ****   *      this list of conditions and the following disclaimer.
 241:../../drivers/third_party/ST/STM32L4xx_HAL_Driver/Src/stm32l4xx_hal_dac.c ****   *   2. Redistributions in binary form must reproduce the above copyright notice,
 242:../../drivers/third_party/ST/STM32L4xx_HAL_Driver/Src/stm32l4xx_hal_dac.c ****   *      this list of conditions and the following disclaimer in the documentation
 243:../../drivers/third_party/ST/STM32L4xx_HAL_Driver/Src/stm32l4xx_hal_dac.c ****   *      and/or other materials provided with the distribution.
 244:../../drivers/third_party/ST/STM32L4xx_HAL_Driver/Src/stm32l4xx_hal_dac.c ****   *   3. Neither the name of STMicroelectronics nor the names of its contributors
 245:../../drivers/third_party/ST/STM32L4xx_HAL_Driver/Src/stm32l4xx_hal_dac.c ****   *      may be used to endorse or promote products derived from this software
 246:../../drivers/third_party/ST/STM32L4xx_HAL_Driver/Src/stm32l4xx_hal_dac.c ****   *      without specific prior written permission.
 247:../../drivers/third_party/ST/STM32L4xx_HAL_Driver/Src/stm32l4xx_hal_dac.c ****   *
 248:../../drivers/third_party/ST/STM32L4xx_HAL_Driver/Src/stm32l4xx_hal_dac.c ****   * THIS SOFTWARE IS PROVIDED BY THE COPYRIGHT HOLDERS AND CONTRIBUTORS "AS IS"
 249:../../drivers/third_party/ST/STM32L4xx_HAL_Driver/Src/stm32l4xx_hal_dac.c ****   * AND ANY EXPRESS OR IMPLIED WARRANTIES, INCLUDING, BUT NOT LIMITED TO, THE
 250:../../drivers/third_party/ST/STM32L4xx_HAL_Driver/Src/stm32l4xx_hal_dac.c ****   * IMPLIED WARRANTIES OF MERCHANTABILITY AND FITNESS FOR A PARTICULAR PURPOSE ARE
 251:../../drivers/third_party/ST/STM32L4xx_HAL_Driver/Src/stm32l4xx_hal_dac.c ****   * DISCLAIMED. IN NO EVENT SHALL THE COPYRIGHT HOLDER OR CONTRIBUTORS BE LIABLE
 252:../../drivers/third_party/ST/STM32L4xx_HAL_Driver/Src/stm32l4xx_hal_dac.c ****   * FOR ANY DIRECT, INDIRECT, INCIDENTAL, SPECIAL, EXEMPLARY, OR CONSEQUENTIAL
 253:../../drivers/third_party/ST/STM32L4xx_HAL_Driver/Src/stm32l4xx_hal_dac.c ****   * DAMAGES (INCLUDING, BUT NOT LIMITED TO, PROCUREMENT OF SUBSTITUTE GOODS OR
 254:../../drivers/third_party/ST/STM32L4xx_HAL_Driver/Src/stm32l4xx_hal_dac.c ****   * SERVICES; LOSS OF USE, DATA, OR PROFITS; OR BUSINESS INTERRUPTION) HOWEVER
 255:../../drivers/third_party/ST/STM32L4xx_HAL_Driver/Src/stm32l4xx_hal_dac.c ****   * CAUSED AND ON ANY THEORY OF LIABILITY, WHETHER IN CONTRACT, STRICT LIABILITY,
 256:../../drivers/third_party/ST/STM32L4xx_HAL_Driver/Src/stm32l4xx_hal_dac.c ****   * OR TORT (INCLUDING NEGLIGENCE OR OTHERWISE) ARISING IN ANY WAY OUT OF THE USE
 257:../../drivers/third_party/ST/STM32L4xx_HAL_Driver/Src/stm32l4xx_hal_dac.c ****   * OF THIS SOFTWARE, EVEN IF ADVISED OF THE POSSIBILITY OF SUCH DAMAGE.
 258:../../drivers/third_party/ST/STM32L4xx_HAL_Driver/Src/stm32l4xx_hal_dac.c ****   *
 259:../../drivers/third_party/ST/STM32L4xx_HAL_Driver/Src/stm32l4xx_hal_dac.c ****   ******************************************************************************
ARM GAS  C:\Users\LuckyE\AppData\Local\Temp\cca5DOBs.s 			page 6


 260:../../drivers/third_party/ST/STM32L4xx_HAL_Driver/Src/stm32l4xx_hal_dac.c ****   */ 
 261:../../drivers/third_party/ST/STM32L4xx_HAL_Driver/Src/stm32l4xx_hal_dac.c **** 
 262:../../drivers/third_party/ST/STM32L4xx_HAL_Driver/Src/stm32l4xx_hal_dac.c **** 
 263:../../drivers/third_party/ST/STM32L4xx_HAL_Driver/Src/stm32l4xx_hal_dac.c **** /* Includes ------------------------------------------------------------------*/
 264:../../drivers/third_party/ST/STM32L4xx_HAL_Driver/Src/stm32l4xx_hal_dac.c **** #include "stm32l4xx_hal.h"
 265:../../drivers/third_party/ST/STM32L4xx_HAL_Driver/Src/stm32l4xx_hal_dac.c **** 
 266:../../drivers/third_party/ST/STM32L4xx_HAL_Driver/Src/stm32l4xx_hal_dac.c **** /** @addtogroup STM32L4xx_HAL_Driver
 267:../../drivers/third_party/ST/STM32L4xx_HAL_Driver/Src/stm32l4xx_hal_dac.c ****   * @{
 268:../../drivers/third_party/ST/STM32L4xx_HAL_Driver/Src/stm32l4xx_hal_dac.c ****   */
 269:../../drivers/third_party/ST/STM32L4xx_HAL_Driver/Src/stm32l4xx_hal_dac.c **** 
 270:../../drivers/third_party/ST/STM32L4xx_HAL_Driver/Src/stm32l4xx_hal_dac.c ****   /** @defgroup DAC DAC
 271:../../drivers/third_party/ST/STM32L4xx_HAL_Driver/Src/stm32l4xx_hal_dac.c ****   * @brief DAC driver modules  
 272:../../drivers/third_party/ST/STM32L4xx_HAL_Driver/Src/stm32l4xx_hal_dac.c ****   * @{
 273:../../drivers/third_party/ST/STM32L4xx_HAL_Driver/Src/stm32l4xx_hal_dac.c ****   */ 
 274:../../drivers/third_party/ST/STM32L4xx_HAL_Driver/Src/stm32l4xx_hal_dac.c **** 
 275:../../drivers/third_party/ST/STM32L4xx_HAL_Driver/Src/stm32l4xx_hal_dac.c **** #ifdef HAL_DAC_MODULE_ENABLED
 276:../../drivers/third_party/ST/STM32L4xx_HAL_Driver/Src/stm32l4xx_hal_dac.c **** 
 277:../../drivers/third_party/ST/STM32L4xx_HAL_Driver/Src/stm32l4xx_hal_dac.c **** /* Private typedef -----------------------------------------------------------*/
 278:../../drivers/third_party/ST/STM32L4xx_HAL_Driver/Src/stm32l4xx_hal_dac.c **** /* Private define ------------------------------------------------------------*/
 279:../../drivers/third_party/ST/STM32L4xx_HAL_Driver/Src/stm32l4xx_hal_dac.c **** /* Private constants ---------------------------------------------------------*/
 280:../../drivers/third_party/ST/STM32L4xx_HAL_Driver/Src/stm32l4xx_hal_dac.c **** /** @addtogroup DAC_Private_Constants DAC Private Constants
 281:../../drivers/third_party/ST/STM32L4xx_HAL_Driver/Src/stm32l4xx_hal_dac.c ****   * @{
 282:../../drivers/third_party/ST/STM32L4xx_HAL_Driver/Src/stm32l4xx_hal_dac.c ****   */
 283:../../drivers/third_party/ST/STM32L4xx_HAL_Driver/Src/stm32l4xx_hal_dac.c **** #define TIMEOUT_DAC_CALIBCONFIG        ((uint32_t)1)         /* 1   ms        */
 284:../../drivers/third_party/ST/STM32L4xx_HAL_Driver/Src/stm32l4xx_hal_dac.c **** #define HFSEL_ENABLE_THRESHOLD_80MHZ   ((uint32_t)80000000)  /* 80 mHz        */
 285:../../drivers/third_party/ST/STM32L4xx_HAL_Driver/Src/stm32l4xx_hal_dac.c **** /**
 286:../../drivers/third_party/ST/STM32L4xx_HAL_Driver/Src/stm32l4xx_hal_dac.c ****   * @}
 287:../../drivers/third_party/ST/STM32L4xx_HAL_Driver/Src/stm32l4xx_hal_dac.c ****   */ 
 288:../../drivers/third_party/ST/STM32L4xx_HAL_Driver/Src/stm32l4xx_hal_dac.c **** 
 289:../../drivers/third_party/ST/STM32L4xx_HAL_Driver/Src/stm32l4xx_hal_dac.c **** /* Private macro -------------------------------------------------------------*/
 290:../../drivers/third_party/ST/STM32L4xx_HAL_Driver/Src/stm32l4xx_hal_dac.c **** /* Private macro -------------------------------------------------------------*/
 291:../../drivers/third_party/ST/STM32L4xx_HAL_Driver/Src/stm32l4xx_hal_dac.c **** /* Private variables ---------------------------------------------------------*/
 292:../../drivers/third_party/ST/STM32L4xx_HAL_Driver/Src/stm32l4xx_hal_dac.c **** /* Private function prototypes -----------------------------------------------*/
 293:../../drivers/third_party/ST/STM32L4xx_HAL_Driver/Src/stm32l4xx_hal_dac.c **** /** @defgroup DAC_Private_Functions DAC Private Functions
 294:../../drivers/third_party/ST/STM32L4xx_HAL_Driver/Src/stm32l4xx_hal_dac.c ****   * @{
 295:../../drivers/third_party/ST/STM32L4xx_HAL_Driver/Src/stm32l4xx_hal_dac.c ****   */
 296:../../drivers/third_party/ST/STM32L4xx_HAL_Driver/Src/stm32l4xx_hal_dac.c **** static void DAC_DMAConvCpltCh1(DMA_HandleTypeDef *hdma);
 297:../../drivers/third_party/ST/STM32L4xx_HAL_Driver/Src/stm32l4xx_hal_dac.c **** static void DAC_DMAErrorCh1(DMA_HandleTypeDef *hdma);
 298:../../drivers/third_party/ST/STM32L4xx_HAL_Driver/Src/stm32l4xx_hal_dac.c **** static void DAC_DMAHalfConvCpltCh1(DMA_HandleTypeDef *hdma); 
 299:../../drivers/third_party/ST/STM32L4xx_HAL_Driver/Src/stm32l4xx_hal_dac.c **** /**
 300:../../drivers/third_party/ST/STM32L4xx_HAL_Driver/Src/stm32l4xx_hal_dac.c ****   * @}
 301:../../drivers/third_party/ST/STM32L4xx_HAL_Driver/Src/stm32l4xx_hal_dac.c ****   */
 302:../../drivers/third_party/ST/STM32L4xx_HAL_Driver/Src/stm32l4xx_hal_dac.c **** /* Exported functions -------------------------------------------------------*/
 303:../../drivers/third_party/ST/STM32L4xx_HAL_Driver/Src/stm32l4xx_hal_dac.c **** 
 304:../../drivers/third_party/ST/STM32L4xx_HAL_Driver/Src/stm32l4xx_hal_dac.c **** /** @defgroup DAC_Exported_Functions DAC Exported Functions
 305:../../drivers/third_party/ST/STM32L4xx_HAL_Driver/Src/stm32l4xx_hal_dac.c ****   * @{
 306:../../drivers/third_party/ST/STM32L4xx_HAL_Driver/Src/stm32l4xx_hal_dac.c ****   */
 307:../../drivers/third_party/ST/STM32L4xx_HAL_Driver/Src/stm32l4xx_hal_dac.c **** 
 308:../../drivers/third_party/ST/STM32L4xx_HAL_Driver/Src/stm32l4xx_hal_dac.c **** /** @defgroup DAC_Exported_Functions_Group1 Initialization and de-initialization functions 
 309:../../drivers/third_party/ST/STM32L4xx_HAL_Driver/Src/stm32l4xx_hal_dac.c ****  *  @brief    Initialization and Configuration functions 
 310:../../drivers/third_party/ST/STM32L4xx_HAL_Driver/Src/stm32l4xx_hal_dac.c ****  *
 311:../../drivers/third_party/ST/STM32L4xx_HAL_Driver/Src/stm32l4xx_hal_dac.c **** @verbatim    
 312:../../drivers/third_party/ST/STM32L4xx_HAL_Driver/Src/stm32l4xx_hal_dac.c ****   ==============================================================================
 313:../../drivers/third_party/ST/STM32L4xx_HAL_Driver/Src/stm32l4xx_hal_dac.c ****               ##### Initialization and de-initialization functions #####
 314:../../drivers/third_party/ST/STM32L4xx_HAL_Driver/Src/stm32l4xx_hal_dac.c ****   ==============================================================================
 315:../../drivers/third_party/ST/STM32L4xx_HAL_Driver/Src/stm32l4xx_hal_dac.c ****     [..]  This section provides functions allowing to:
 316:../../drivers/third_party/ST/STM32L4xx_HAL_Driver/Src/stm32l4xx_hal_dac.c ****       (+) Initialize and configure the DAC. 
ARM GAS  C:\Users\LuckyE\AppData\Local\Temp\cca5DOBs.s 			page 7


 317:../../drivers/third_party/ST/STM32L4xx_HAL_Driver/Src/stm32l4xx_hal_dac.c ****       (+) De-initialize the DAC. 
 318:../../drivers/third_party/ST/STM32L4xx_HAL_Driver/Src/stm32l4xx_hal_dac.c ****          
 319:../../drivers/third_party/ST/STM32L4xx_HAL_Driver/Src/stm32l4xx_hal_dac.c **** @endverbatim
 320:../../drivers/third_party/ST/STM32L4xx_HAL_Driver/Src/stm32l4xx_hal_dac.c ****   * @{
 321:../../drivers/third_party/ST/STM32L4xx_HAL_Driver/Src/stm32l4xx_hal_dac.c ****   */
 322:../../drivers/third_party/ST/STM32L4xx_HAL_Driver/Src/stm32l4xx_hal_dac.c **** 
 323:../../drivers/third_party/ST/STM32L4xx_HAL_Driver/Src/stm32l4xx_hal_dac.c **** /**
 324:../../drivers/third_party/ST/STM32L4xx_HAL_Driver/Src/stm32l4xx_hal_dac.c ****   * @brief  Initialize the DAC peripheral according to the specified parameters
 325:../../drivers/third_party/ST/STM32L4xx_HAL_Driver/Src/stm32l4xx_hal_dac.c ****   *         in the DAC_InitStruct and initialize the associated handle.
 326:../../drivers/third_party/ST/STM32L4xx_HAL_Driver/Src/stm32l4xx_hal_dac.c ****   * @param  hdac: pointer to a DAC_HandleTypeDef structure that contains
 327:../../drivers/third_party/ST/STM32L4xx_HAL_Driver/Src/stm32l4xx_hal_dac.c ****   *         the configuration information for the specified DAC.
 328:../../drivers/third_party/ST/STM32L4xx_HAL_Driver/Src/stm32l4xx_hal_dac.c ****   * @retval HAL status
 329:../../drivers/third_party/ST/STM32L4xx_HAL_Driver/Src/stm32l4xx_hal_dac.c ****   */
 330:../../drivers/third_party/ST/STM32L4xx_HAL_Driver/Src/stm32l4xx_hal_dac.c **** HAL_StatusTypeDef HAL_DAC_Init(DAC_HandleTypeDef* hdac)
 331:../../drivers/third_party/ST/STM32L4xx_HAL_Driver/Src/stm32l4xx_hal_dac.c **** { 
 332:../../drivers/third_party/ST/STM32L4xx_HAL_Driver/Src/stm32l4xx_hal_dac.c ****   /* Check DAC handle */
 333:../../drivers/third_party/ST/STM32L4xx_HAL_Driver/Src/stm32l4xx_hal_dac.c ****   if(hdac == NULL)
 334:../../drivers/third_party/ST/STM32L4xx_HAL_Driver/Src/stm32l4xx_hal_dac.c ****   {
 335:../../drivers/third_party/ST/STM32L4xx_HAL_Driver/Src/stm32l4xx_hal_dac.c ****      return HAL_ERROR;
 336:../../drivers/third_party/ST/STM32L4xx_HAL_Driver/Src/stm32l4xx_hal_dac.c ****   }
 337:../../drivers/third_party/ST/STM32L4xx_HAL_Driver/Src/stm32l4xx_hal_dac.c ****   /* Check the parameters */
 338:../../drivers/third_party/ST/STM32L4xx_HAL_Driver/Src/stm32l4xx_hal_dac.c ****   assert_param(IS_DAC_ALL_INSTANCE(hdac->Instance));
 339:../../drivers/third_party/ST/STM32L4xx_HAL_Driver/Src/stm32l4xx_hal_dac.c ****   
 340:../../drivers/third_party/ST/STM32L4xx_HAL_Driver/Src/stm32l4xx_hal_dac.c ****   if(hdac->State == HAL_DAC_STATE_RESET)
 341:../../drivers/third_party/ST/STM32L4xx_HAL_Driver/Src/stm32l4xx_hal_dac.c ****   {  
 342:../../drivers/third_party/ST/STM32L4xx_HAL_Driver/Src/stm32l4xx_hal_dac.c ****     /* Allocate lock resource and initialize it */
 343:../../drivers/third_party/ST/STM32L4xx_HAL_Driver/Src/stm32l4xx_hal_dac.c ****     hdac->Lock = HAL_UNLOCKED;
 344:../../drivers/third_party/ST/STM32L4xx_HAL_Driver/Src/stm32l4xx_hal_dac.c **** 
 345:../../drivers/third_party/ST/STM32L4xx_HAL_Driver/Src/stm32l4xx_hal_dac.c ****     /* Init the low level hardware */
 346:../../drivers/third_party/ST/STM32L4xx_HAL_Driver/Src/stm32l4xx_hal_dac.c ****     HAL_DAC_MspInit(hdac);
 347:../../drivers/third_party/ST/STM32L4xx_HAL_Driver/Src/stm32l4xx_hal_dac.c ****   }
 348:../../drivers/third_party/ST/STM32L4xx_HAL_Driver/Src/stm32l4xx_hal_dac.c ****   
 349:../../drivers/third_party/ST/STM32L4xx_HAL_Driver/Src/stm32l4xx_hal_dac.c ****   /* Initialize the DAC state*/
 350:../../drivers/third_party/ST/STM32L4xx_HAL_Driver/Src/stm32l4xx_hal_dac.c ****   hdac->State = HAL_DAC_STATE_BUSY;
 351:../../drivers/third_party/ST/STM32L4xx_HAL_Driver/Src/stm32l4xx_hal_dac.c ****   
 352:../../drivers/third_party/ST/STM32L4xx_HAL_Driver/Src/stm32l4xx_hal_dac.c ****   /* Set DAC error code to none */
 353:../../drivers/third_party/ST/STM32L4xx_HAL_Driver/Src/stm32l4xx_hal_dac.c ****   hdac->ErrorCode = HAL_DAC_ERROR_NONE;
 354:../../drivers/third_party/ST/STM32L4xx_HAL_Driver/Src/stm32l4xx_hal_dac.c ****   
 355:../../drivers/third_party/ST/STM32L4xx_HAL_Driver/Src/stm32l4xx_hal_dac.c ****   /* Initialize the DAC state*/
 356:../../drivers/third_party/ST/STM32L4xx_HAL_Driver/Src/stm32l4xx_hal_dac.c ****   hdac->State = HAL_DAC_STATE_READY;
 357:../../drivers/third_party/ST/STM32L4xx_HAL_Driver/Src/stm32l4xx_hal_dac.c ****   
 358:../../drivers/third_party/ST/STM32L4xx_HAL_Driver/Src/stm32l4xx_hal_dac.c ****   /* Return function status */
 359:../../drivers/third_party/ST/STM32L4xx_HAL_Driver/Src/stm32l4xx_hal_dac.c ****   return HAL_OK;
 360:../../drivers/third_party/ST/STM32L4xx_HAL_Driver/Src/stm32l4xx_hal_dac.c **** }
 361:../../drivers/third_party/ST/STM32L4xx_HAL_Driver/Src/stm32l4xx_hal_dac.c **** 
 362:../../drivers/third_party/ST/STM32L4xx_HAL_Driver/Src/stm32l4xx_hal_dac.c **** /**
 363:../../drivers/third_party/ST/STM32L4xx_HAL_Driver/Src/stm32l4xx_hal_dac.c ****   * @brief  Deinitialize the DAC peripheral registers to their default reset values.
 364:../../drivers/third_party/ST/STM32L4xx_HAL_Driver/Src/stm32l4xx_hal_dac.c ****   * @param  hdac: pointer to a DAC_HandleTypeDef structure that contains
 365:../../drivers/third_party/ST/STM32L4xx_HAL_Driver/Src/stm32l4xx_hal_dac.c ****   *         the configuration information for the specified DAC.
 366:../../drivers/third_party/ST/STM32L4xx_HAL_Driver/Src/stm32l4xx_hal_dac.c ****   * @retval HAL status
 367:../../drivers/third_party/ST/STM32L4xx_HAL_Driver/Src/stm32l4xx_hal_dac.c ****   */
 368:../../drivers/third_party/ST/STM32L4xx_HAL_Driver/Src/stm32l4xx_hal_dac.c **** HAL_StatusTypeDef HAL_DAC_DeInit(DAC_HandleTypeDef* hdac)
 369:../../drivers/third_party/ST/STM32L4xx_HAL_Driver/Src/stm32l4xx_hal_dac.c **** {
 370:../../drivers/third_party/ST/STM32L4xx_HAL_Driver/Src/stm32l4xx_hal_dac.c ****   /* Check DAC handle */
 371:../../drivers/third_party/ST/STM32L4xx_HAL_Driver/Src/stm32l4xx_hal_dac.c ****   if(hdac == NULL)
 372:../../drivers/third_party/ST/STM32L4xx_HAL_Driver/Src/stm32l4xx_hal_dac.c ****   {
 373:../../drivers/third_party/ST/STM32L4xx_HAL_Driver/Src/stm32l4xx_hal_dac.c ****      return HAL_ERROR;
ARM GAS  C:\Users\LuckyE\AppData\Local\Temp\cca5DOBs.s 			page 8


 374:../../drivers/third_party/ST/STM32L4xx_HAL_Driver/Src/stm32l4xx_hal_dac.c ****   }
 375:../../drivers/third_party/ST/STM32L4xx_HAL_Driver/Src/stm32l4xx_hal_dac.c **** 
 376:../../drivers/third_party/ST/STM32L4xx_HAL_Driver/Src/stm32l4xx_hal_dac.c ****   /* Check the parameters */
 377:../../drivers/third_party/ST/STM32L4xx_HAL_Driver/Src/stm32l4xx_hal_dac.c ****   assert_param(IS_DAC_ALL_INSTANCE(hdac->Instance));
 378:../../drivers/third_party/ST/STM32L4xx_HAL_Driver/Src/stm32l4xx_hal_dac.c **** 
 379:../../drivers/third_party/ST/STM32L4xx_HAL_Driver/Src/stm32l4xx_hal_dac.c ****   /* Change DAC state */
 380:../../drivers/third_party/ST/STM32L4xx_HAL_Driver/Src/stm32l4xx_hal_dac.c ****   hdac->State = HAL_DAC_STATE_BUSY;
 381:../../drivers/third_party/ST/STM32L4xx_HAL_Driver/Src/stm32l4xx_hal_dac.c **** 
 382:../../drivers/third_party/ST/STM32L4xx_HAL_Driver/Src/stm32l4xx_hal_dac.c ****   /* DeInit the low level hardware */
 383:../../drivers/third_party/ST/STM32L4xx_HAL_Driver/Src/stm32l4xx_hal_dac.c ****   HAL_DAC_MspDeInit(hdac);
 384:../../drivers/third_party/ST/STM32L4xx_HAL_Driver/Src/stm32l4xx_hal_dac.c **** 
 385:../../drivers/third_party/ST/STM32L4xx_HAL_Driver/Src/stm32l4xx_hal_dac.c ****   /* Set DAC error code to none */
 386:../../drivers/third_party/ST/STM32L4xx_HAL_Driver/Src/stm32l4xx_hal_dac.c ****   hdac->ErrorCode = HAL_DAC_ERROR_NONE;
 387:../../drivers/third_party/ST/STM32L4xx_HAL_Driver/Src/stm32l4xx_hal_dac.c **** 
 388:../../drivers/third_party/ST/STM32L4xx_HAL_Driver/Src/stm32l4xx_hal_dac.c ****   /* Change DAC state */
 389:../../drivers/third_party/ST/STM32L4xx_HAL_Driver/Src/stm32l4xx_hal_dac.c ****   hdac->State = HAL_DAC_STATE_RESET;
 390:../../drivers/third_party/ST/STM32L4xx_HAL_Driver/Src/stm32l4xx_hal_dac.c **** 
 391:../../drivers/third_party/ST/STM32L4xx_HAL_Driver/Src/stm32l4xx_hal_dac.c ****   /* Release Lock */
 392:../../drivers/third_party/ST/STM32L4xx_HAL_Driver/Src/stm32l4xx_hal_dac.c ****   __HAL_UNLOCK(hdac);
 393:../../drivers/third_party/ST/STM32L4xx_HAL_Driver/Src/stm32l4xx_hal_dac.c **** 
 394:../../drivers/third_party/ST/STM32L4xx_HAL_Driver/Src/stm32l4xx_hal_dac.c ****   /* Return function status */
 395:../../drivers/third_party/ST/STM32L4xx_HAL_Driver/Src/stm32l4xx_hal_dac.c ****   return HAL_OK;
 396:../../drivers/third_party/ST/STM32L4xx_HAL_Driver/Src/stm32l4xx_hal_dac.c **** }
 397:../../drivers/third_party/ST/STM32L4xx_HAL_Driver/Src/stm32l4xx_hal_dac.c **** 
 398:../../drivers/third_party/ST/STM32L4xx_HAL_Driver/Src/stm32l4xx_hal_dac.c **** /**
 399:../../drivers/third_party/ST/STM32L4xx_HAL_Driver/Src/stm32l4xx_hal_dac.c ****   * @brief  Initialize the DAC MSP.
 400:../../drivers/third_party/ST/STM32L4xx_HAL_Driver/Src/stm32l4xx_hal_dac.c ****   * @param  hdac: pointer to a DAC_HandleTypeDef structure that contains
 401:../../drivers/third_party/ST/STM32L4xx_HAL_Driver/Src/stm32l4xx_hal_dac.c ****   *         the configuration information for the specified DAC.
 402:../../drivers/third_party/ST/STM32L4xx_HAL_Driver/Src/stm32l4xx_hal_dac.c ****   * @retval None
 403:../../drivers/third_party/ST/STM32L4xx_HAL_Driver/Src/stm32l4xx_hal_dac.c ****   */
 404:../../drivers/third_party/ST/STM32L4xx_HAL_Driver/Src/stm32l4xx_hal_dac.c **** __weak void HAL_DAC_MspInit(DAC_HandleTypeDef* hdac)
 405:../../drivers/third_party/ST/STM32L4xx_HAL_Driver/Src/stm32l4xx_hal_dac.c **** { 
  28              		.loc 1 405 0
  29              		.cfi_startproc
  30              		@ args = 0, pretend = 0, frame = 0
  31              		@ frame_needed = 0, uses_anonymous_args = 0
  32              		@ link register save eliminated.
  33              	.LVL0:
 406:../../drivers/third_party/ST/STM32L4xx_HAL_Driver/Src/stm32l4xx_hal_dac.c ****   /* Prevent unused argument(s) compilation warning */
 407:../../drivers/third_party/ST/STM32L4xx_HAL_Driver/Src/stm32l4xx_hal_dac.c ****   UNUSED(hdac);
 408:../../drivers/third_party/ST/STM32L4xx_HAL_Driver/Src/stm32l4xx_hal_dac.c **** 
 409:../../drivers/third_party/ST/STM32L4xx_HAL_Driver/Src/stm32l4xx_hal_dac.c ****   /* NOTE : This function should not be modified, when the callback is needed,
 410:../../drivers/third_party/ST/STM32L4xx_HAL_Driver/Src/stm32l4xx_hal_dac.c ****             the HAL_DAC_MspInit could be implemented in the user file
 411:../../drivers/third_party/ST/STM32L4xx_HAL_Driver/Src/stm32l4xx_hal_dac.c ****    */ 
 412:../../drivers/third_party/ST/STM32L4xx_HAL_Driver/Src/stm32l4xx_hal_dac.c **** }
  34              		.loc 1 412 0
  35 0000 7047     		bx	lr
  36              		.cfi_endproc
  37              	.LFE282:
  39              		.section	.text.HAL_DAC_Init,"ax",%progbits
  40              		.align	1
  41              		.global	HAL_DAC_Init
  42              		.syntax unified
  43              		.thumb
  44              		.thumb_func
  45              		.fpu fpv4-sp-d16
  47              	HAL_DAC_Init:
ARM GAS  C:\Users\LuckyE\AppData\Local\Temp\cca5DOBs.s 			page 9


  48              	.LFB280:
 331:../../drivers/third_party/ST/STM32L4xx_HAL_Driver/Src/stm32l4xx_hal_dac.c ****   /* Check DAC handle */
  49              		.loc 1 331 0
  50              		.cfi_startproc
  51              		@ args = 0, pretend = 0, frame = 0
  52              		@ frame_needed = 0, uses_anonymous_args = 0
  53              	.LVL1:
  54 0000 10B5     		push	{r4, lr}
  55              	.LCFI0:
  56              		.cfi_def_cfa_offset 8
  57              		.cfi_offset 4, -8
  58              		.cfi_offset 14, -4
 333:../../drivers/third_party/ST/STM32L4xx_HAL_Driver/Src/stm32l4xx_hal_dac.c ****   {
  59              		.loc 1 333 0
  60 0002 0446     		mov	r4, r0
  61 0004 68B1     		cbz	r0, .L5
 340:../../drivers/third_party/ST/STM32L4xx_HAL_Driver/Src/stm32l4xx_hal_dac.c ****   {  
  62              		.loc 1 340 0
  63 0006 0379     		ldrb	r3, [r0, #4]	@ zero_extendqisi2
  64 0008 03F0FF02 		and	r2, r3, #255
  65 000c 13B9     		cbnz	r3, .L4
 343:../../drivers/third_party/ST/STM32L4xx_HAL_Driver/Src/stm32l4xx_hal_dac.c **** 
  66              		.loc 1 343 0
  67 000e 4271     		strb	r2, [r0, #5]
 346:../../drivers/third_party/ST/STM32L4xx_HAL_Driver/Src/stm32l4xx_hal_dac.c ****   }
  68              		.loc 1 346 0
  69 0010 FFF7FEFF 		bl	HAL_DAC_MspInit
  70              	.LVL2:
  71              	.L4:
 350:../../drivers/third_party/ST/STM32L4xx_HAL_Driver/Src/stm32l4xx_hal_dac.c ****   
  72              		.loc 1 350 0
  73 0014 0223     		movs	r3, #2
  74 0016 2371     		strb	r3, [r4, #4]
 353:../../drivers/third_party/ST/STM32L4xx_HAL_Driver/Src/stm32l4xx_hal_dac.c ****   
  75              		.loc 1 353 0
  76 0018 0020     		movs	r0, #0
 356:../../drivers/third_party/ST/STM32L4xx_HAL_Driver/Src/stm32l4xx_hal_dac.c ****   
  77              		.loc 1 356 0
  78 001a 0123     		movs	r3, #1
 353:../../drivers/third_party/ST/STM32L4xx_HAL_Driver/Src/stm32l4xx_hal_dac.c ****   
  79              		.loc 1 353 0
  80 001c 2061     		str	r0, [r4, #16]
 356:../../drivers/third_party/ST/STM32L4xx_HAL_Driver/Src/stm32l4xx_hal_dac.c ****   
  81              		.loc 1 356 0
  82 001e 2371     		strb	r3, [r4, #4]
  83              	.L3:
 360:../../drivers/third_party/ST/STM32L4xx_HAL_Driver/Src/stm32l4xx_hal_dac.c **** 
  84              		.loc 1 360 0
  85 0020 10BD     		pop	{r4, pc}
  86              	.LVL3:
  87              	.L5:
 335:../../drivers/third_party/ST/STM32L4xx_HAL_Driver/Src/stm32l4xx_hal_dac.c ****   }
  88              		.loc 1 335 0
  89 0022 0120     		movs	r0, #1
  90              	.LVL4:
  91 0024 FCE7     		b	.L3
  92              		.cfi_endproc
ARM GAS  C:\Users\LuckyE\AppData\Local\Temp\cca5DOBs.s 			page 10


  93              	.LFE280:
  95              		.section	.text.HAL_DAC_MspDeInit,"ax",%progbits
  96              		.align	1
  97              		.weak	HAL_DAC_MspDeInit
  98              		.syntax unified
  99              		.thumb
 100              		.thumb_func
 101              		.fpu fpv4-sp-d16
 103              	HAL_DAC_MspDeInit:
 104              	.LFB302:
 105              		.cfi_startproc
 106              		@ args = 0, pretend = 0, frame = 0
 107              		@ frame_needed = 0, uses_anonymous_args = 0
 108              		@ link register save eliminated.
 109 0000 7047     		bx	lr
 110              		.cfi_endproc
 111              	.LFE302:
 113              		.section	.text.HAL_DAC_DeInit,"ax",%progbits
 114              		.align	1
 115              		.global	HAL_DAC_DeInit
 116              		.syntax unified
 117              		.thumb
 118              		.thumb_func
 119              		.fpu fpv4-sp-d16
 121              	HAL_DAC_DeInit:
 122              	.LFB281:
 369:../../drivers/third_party/ST/STM32L4xx_HAL_Driver/Src/stm32l4xx_hal_dac.c ****   /* Check DAC handle */
 123              		.loc 1 369 0
 124              		.cfi_startproc
 125              		@ args = 0, pretend = 0, frame = 0
 126              		@ frame_needed = 0, uses_anonymous_args = 0
 127              	.LVL5:
 369:../../drivers/third_party/ST/STM32L4xx_HAL_Driver/Src/stm32l4xx_hal_dac.c ****   /* Check DAC handle */
 128              		.loc 1 369 0
 129 0000 10B5     		push	{r4, lr}
 130              	.LCFI1:
 131              		.cfi_def_cfa_offset 8
 132              		.cfi_offset 4, -8
 133              		.cfi_offset 14, -4
 371:../../drivers/third_party/ST/STM32L4xx_HAL_Driver/Src/stm32l4xx_hal_dac.c ****   {
 134              		.loc 1 371 0
 135 0002 0446     		mov	r4, r0
 136 0004 40B1     		cbz	r0, .L9
 380:../../drivers/third_party/ST/STM32L4xx_HAL_Driver/Src/stm32l4xx_hal_dac.c **** 
 137              		.loc 1 380 0
 138 0006 0223     		movs	r3, #2
 139 0008 0371     		strb	r3, [r0, #4]
 383:../../drivers/third_party/ST/STM32L4xx_HAL_Driver/Src/stm32l4xx_hal_dac.c **** 
 140              		.loc 1 383 0
 141 000a FFF7FEFF 		bl	HAL_DAC_MspDeInit
 142              	.LVL6:
 386:../../drivers/third_party/ST/STM32L4xx_HAL_Driver/Src/stm32l4xx_hal_dac.c **** 
 143              		.loc 1 386 0
 144 000e 0020     		movs	r0, #0
 145 0010 2061     		str	r0, [r4, #16]
 392:../../drivers/third_party/ST/STM32L4xx_HAL_Driver/Src/stm32l4xx_hal_dac.c **** 
 146              		.loc 1 392 0
ARM GAS  C:\Users\LuckyE\AppData\Local\Temp\cca5DOBs.s 			page 11


 147 0012 6071     		strb	r0, [r4, #5]
 389:../../drivers/third_party/ST/STM32L4xx_HAL_Driver/Src/stm32l4xx_hal_dac.c **** 
 148              		.loc 1 389 0
 149 0014 2071     		strb	r0, [r4, #4]
 150              	.L8:
 396:../../drivers/third_party/ST/STM32L4xx_HAL_Driver/Src/stm32l4xx_hal_dac.c **** 
 151              		.loc 1 396 0
 152 0016 10BD     		pop	{r4, pc}
 153              	.LVL7:
 154              	.L9:
 373:../../drivers/third_party/ST/STM32L4xx_HAL_Driver/Src/stm32l4xx_hal_dac.c ****   }
 155              		.loc 1 373 0
 156 0018 0120     		movs	r0, #1
 157              	.LVL8:
 158 001a FCE7     		b	.L8
 159              		.cfi_endproc
 160              	.LFE281:
 162              		.section	.text.HAL_DAC_Start,"ax",%progbits
 163              		.align	1
 164              		.global	HAL_DAC_Start
 165              		.syntax unified
 166              		.thumb
 167              		.thumb_func
 168              		.fpu fpv4-sp-d16
 170              	HAL_DAC_Start:
 171              	.LFB284:
 413:../../drivers/third_party/ST/STM32L4xx_HAL_Driver/Src/stm32l4xx_hal_dac.c **** 
 414:../../drivers/third_party/ST/STM32L4xx_HAL_Driver/Src/stm32l4xx_hal_dac.c **** /**
 415:../../drivers/third_party/ST/STM32L4xx_HAL_Driver/Src/stm32l4xx_hal_dac.c ****   * @brief  DeInitialize the DAC MSP.
 416:../../drivers/third_party/ST/STM32L4xx_HAL_Driver/Src/stm32l4xx_hal_dac.c ****   * @param  hdac: pointer to a DAC_HandleTypeDef structure that contains
 417:../../drivers/third_party/ST/STM32L4xx_HAL_Driver/Src/stm32l4xx_hal_dac.c ****   *         the configuration information for the specified DAC.  
 418:../../drivers/third_party/ST/STM32L4xx_HAL_Driver/Src/stm32l4xx_hal_dac.c ****   * @retval None
 419:../../drivers/third_party/ST/STM32L4xx_HAL_Driver/Src/stm32l4xx_hal_dac.c ****   */
 420:../../drivers/third_party/ST/STM32L4xx_HAL_Driver/Src/stm32l4xx_hal_dac.c **** __weak void HAL_DAC_MspDeInit(DAC_HandleTypeDef* hdac)
 421:../../drivers/third_party/ST/STM32L4xx_HAL_Driver/Src/stm32l4xx_hal_dac.c **** {
 422:../../drivers/third_party/ST/STM32L4xx_HAL_Driver/Src/stm32l4xx_hal_dac.c ****   /* Prevent unused argument(s) compilation warning */
 423:../../drivers/third_party/ST/STM32L4xx_HAL_Driver/Src/stm32l4xx_hal_dac.c ****   UNUSED(hdac);
 424:../../drivers/third_party/ST/STM32L4xx_HAL_Driver/Src/stm32l4xx_hal_dac.c **** 
 425:../../drivers/third_party/ST/STM32L4xx_HAL_Driver/Src/stm32l4xx_hal_dac.c ****   /* NOTE : This function should not be modified, when the callback is needed,
 426:../../drivers/third_party/ST/STM32L4xx_HAL_Driver/Src/stm32l4xx_hal_dac.c ****             the HAL_DAC_MspDeInit could be implemented in the user file
 427:../../drivers/third_party/ST/STM32L4xx_HAL_Driver/Src/stm32l4xx_hal_dac.c ****    */ 
 428:../../drivers/third_party/ST/STM32L4xx_HAL_Driver/Src/stm32l4xx_hal_dac.c **** }
 429:../../drivers/third_party/ST/STM32L4xx_HAL_Driver/Src/stm32l4xx_hal_dac.c **** 
 430:../../drivers/third_party/ST/STM32L4xx_HAL_Driver/Src/stm32l4xx_hal_dac.c **** /**
 431:../../drivers/third_party/ST/STM32L4xx_HAL_Driver/Src/stm32l4xx_hal_dac.c ****   * @}
 432:../../drivers/third_party/ST/STM32L4xx_HAL_Driver/Src/stm32l4xx_hal_dac.c ****   */
 433:../../drivers/third_party/ST/STM32L4xx_HAL_Driver/Src/stm32l4xx_hal_dac.c **** 
 434:../../drivers/third_party/ST/STM32L4xx_HAL_Driver/Src/stm32l4xx_hal_dac.c **** /** @defgroup DAC_Exported_Functions_Group2 IO operation functions
 435:../../drivers/third_party/ST/STM32L4xx_HAL_Driver/Src/stm32l4xx_hal_dac.c ****  *  @brief    IO operation functions 
 436:../../drivers/third_party/ST/STM32L4xx_HAL_Driver/Src/stm32l4xx_hal_dac.c ****  *
 437:../../drivers/third_party/ST/STM32L4xx_HAL_Driver/Src/stm32l4xx_hal_dac.c **** @verbatim   
 438:../../drivers/third_party/ST/STM32L4xx_HAL_Driver/Src/stm32l4xx_hal_dac.c ****   ==============================================================================
 439:../../drivers/third_party/ST/STM32L4xx_HAL_Driver/Src/stm32l4xx_hal_dac.c ****              ##### IO operation functions #####
 440:../../drivers/third_party/ST/STM32L4xx_HAL_Driver/Src/stm32l4xx_hal_dac.c ****   ==============================================================================  
 441:../../drivers/third_party/ST/STM32L4xx_HAL_Driver/Src/stm32l4xx_hal_dac.c ****     [..]  This section provides functions allowing to:
 442:../../drivers/third_party/ST/STM32L4xx_HAL_Driver/Src/stm32l4xx_hal_dac.c ****       (+) Start conversion.
 443:../../drivers/third_party/ST/STM32L4xx_HAL_Driver/Src/stm32l4xx_hal_dac.c ****       (+) Stop conversion.
ARM GAS  C:\Users\LuckyE\AppData\Local\Temp\cca5DOBs.s 			page 12


 444:../../drivers/third_party/ST/STM32L4xx_HAL_Driver/Src/stm32l4xx_hal_dac.c ****       (+) Start conversion and enable DMA transfer.
 445:../../drivers/third_party/ST/STM32L4xx_HAL_Driver/Src/stm32l4xx_hal_dac.c ****       (+) Stop conversion and disable DMA transfer.
 446:../../drivers/third_party/ST/STM32L4xx_HAL_Driver/Src/stm32l4xx_hal_dac.c ****       (+) Get result of conversion.
 447:../../drivers/third_party/ST/STM32L4xx_HAL_Driver/Src/stm32l4xx_hal_dac.c ****                      
 448:../../drivers/third_party/ST/STM32L4xx_HAL_Driver/Src/stm32l4xx_hal_dac.c **** @endverbatim
 449:../../drivers/third_party/ST/STM32L4xx_HAL_Driver/Src/stm32l4xx_hal_dac.c ****   * @{
 450:../../drivers/third_party/ST/STM32L4xx_HAL_Driver/Src/stm32l4xx_hal_dac.c ****   */
 451:../../drivers/third_party/ST/STM32L4xx_HAL_Driver/Src/stm32l4xx_hal_dac.c **** 
 452:../../drivers/third_party/ST/STM32L4xx_HAL_Driver/Src/stm32l4xx_hal_dac.c **** /**
 453:../../drivers/third_party/ST/STM32L4xx_HAL_Driver/Src/stm32l4xx_hal_dac.c ****   * @brief  Enables DAC and starts conversion of channel.
 454:../../drivers/third_party/ST/STM32L4xx_HAL_Driver/Src/stm32l4xx_hal_dac.c ****   * @param  hdac: pointer to a DAC_HandleTypeDef structure that contains
 455:../../drivers/third_party/ST/STM32L4xx_HAL_Driver/Src/stm32l4xx_hal_dac.c ****   *         the configuration information for the specified DAC.
 456:../../drivers/third_party/ST/STM32L4xx_HAL_Driver/Src/stm32l4xx_hal_dac.c ****   * @param  Channel: The selected DAC channel. 
 457:../../drivers/third_party/ST/STM32L4xx_HAL_Driver/Src/stm32l4xx_hal_dac.c ****   *          This parameter can be one of the following values:
 458:../../drivers/third_party/ST/STM32L4xx_HAL_Driver/Src/stm32l4xx_hal_dac.c ****   *            @arg DAC_CHANNEL_1: DAC Channel1 selected
 459:../../drivers/third_party/ST/STM32L4xx_HAL_Driver/Src/stm32l4xx_hal_dac.c ****   *            @arg DAC_CHANNEL_2: DAC Channel2 selected (when supported)
 460:../../drivers/third_party/ST/STM32L4xx_HAL_Driver/Src/stm32l4xx_hal_dac.c ****   * @retval HAL status
 461:../../drivers/third_party/ST/STM32L4xx_HAL_Driver/Src/stm32l4xx_hal_dac.c ****   */
 462:../../drivers/third_party/ST/STM32L4xx_HAL_Driver/Src/stm32l4xx_hal_dac.c **** HAL_StatusTypeDef HAL_DAC_Start(DAC_HandleTypeDef* hdac, uint32_t Channel)
 463:../../drivers/third_party/ST/STM32L4xx_HAL_Driver/Src/stm32l4xx_hal_dac.c **** {
 172              		.loc 1 463 0
 173              		.cfi_startproc
 174              		@ args = 0, pretend = 0, frame = 0
 175              		@ frame_needed = 0, uses_anonymous_args = 0
 176              	.LVL9:
 464:../../drivers/third_party/ST/STM32L4xx_HAL_Driver/Src/stm32l4xx_hal_dac.c ****   /* Check the parameters */
 465:../../drivers/third_party/ST/STM32L4xx_HAL_Driver/Src/stm32l4xx_hal_dac.c ****   assert_param(IS_DAC_CHANNEL(Channel));
 466:../../drivers/third_party/ST/STM32L4xx_HAL_Driver/Src/stm32l4xx_hal_dac.c ****   
 467:../../drivers/third_party/ST/STM32L4xx_HAL_Driver/Src/stm32l4xx_hal_dac.c ****   /* Process locked */
 468:../../drivers/third_party/ST/STM32L4xx_HAL_Driver/Src/stm32l4xx_hal_dac.c ****   __HAL_LOCK(hdac);
 177              		.loc 1 468 0
 178 0000 4379     		ldrb	r3, [r0, #5]	@ zero_extendqisi2
 179 0002 012B     		cmp	r3, #1
 463:../../drivers/third_party/ST/STM32L4xx_HAL_Driver/Src/stm32l4xx_hal_dac.c ****   /* Check the parameters */
 180              		.loc 1 463 0
 181 0004 10B5     		push	{r4, lr}
 182              	.LCFI2:
 183              		.cfi_def_cfa_offset 8
 184              		.cfi_offset 4, -8
 185              		.cfi_offset 14, -4
 186 0006 4FF00203 		mov	r3, #2
 187              		.loc 1 468 0
 188 000a 15D0     		beq	.L14
 469:../../drivers/third_party/ST/STM32L4xx_HAL_Driver/Src/stm32l4xx_hal_dac.c ****   
 470:../../drivers/third_party/ST/STM32L4xx_HAL_Driver/Src/stm32l4xx_hal_dac.c ****   /* Change DAC state */
 471:../../drivers/third_party/ST/STM32L4xx_HAL_Driver/Src/stm32l4xx_hal_dac.c ****   hdac->State = HAL_DAC_STATE_BUSY;
 189              		.loc 1 471 0 discriminator 2
 190 000c 0371     		strb	r3, [r0, #4]
 472:../../drivers/third_party/ST/STM32L4xx_HAL_Driver/Src/stm32l4xx_hal_dac.c ****   
 473:../../drivers/third_party/ST/STM32L4xx_HAL_Driver/Src/stm32l4xx_hal_dac.c ****   /* Enable the Peripheral */
 474:../../drivers/third_party/ST/STM32L4xx_HAL_Driver/Src/stm32l4xx_hal_dac.c ****   __HAL_DAC_ENABLE(hdac, Channel);
 191              		.loc 1 474 0 discriminator 2
 192 000e 0368     		ldr	r3, [r0]
 468:../../drivers/third_party/ST/STM32L4xx_HAL_Driver/Src/stm32l4xx_hal_dac.c ****   
 193              		.loc 1 468 0 discriminator 2
 194 0010 0122     		movs	r2, #1
 195              		.loc 1 474 0 discriminator 2
ARM GAS  C:\Users\LuckyE\AppData\Local\Temp\cca5DOBs.s 			page 13


 196 0012 1C68     		ldr	r4, [r3]
 468:../../drivers/third_party/ST/STM32L4xx_HAL_Driver/Src/stm32l4xx_hal_dac.c ****   
 197              		.loc 1 468 0 discriminator 2
 198 0014 4271     		strb	r2, [r0, #5]
 199              		.loc 1 474 0 discriminator 2
 200 0016 8A40     		lsls	r2, r2, r1
 201 0018 2243     		orrs	r2, r2, r4
 202 001a 1A60     		str	r2, [r3]
 475:../../drivers/third_party/ST/STM32L4xx_HAL_Driver/Src/stm32l4xx_hal_dac.c **** 
 476:../../drivers/third_party/ST/STM32L4xx_HAL_Driver/Src/stm32l4xx_hal_dac.c **** #if defined (STM32L4R5xx) || defined (STM32L4R7xx) || defined (STM32L4R9xx) || defined (STM32L4S5xx
 477:../../drivers/third_party/ST/STM32L4xx_HAL_Driver/Src/stm32l4xx_hal_dac.c ****   if(Channel == DAC_CHANNEL_1)
 478:../../drivers/third_party/ST/STM32L4xx_HAL_Driver/Src/stm32l4xx_hal_dac.c ****   {
 479:../../drivers/third_party/ST/STM32L4xx_HAL_Driver/Src/stm32l4xx_hal_dac.c ****     /* Check if software trigger enabled */
 480:../../drivers/third_party/ST/STM32L4xx_HAL_Driver/Src/stm32l4xx_hal_dac.c ****     if(((DAC_CR_TEN1 & ~(DAC_CR_TSEL1)) == (hdac->Instance->CR & (DAC_CR_TEN1 | DAC_CR_TSEL1))))
 481:../../drivers/third_party/ST/STM32L4xx_HAL_Driver/Src/stm32l4xx_hal_dac.c ****     {
 482:../../drivers/third_party/ST/STM32L4xx_HAL_Driver/Src/stm32l4xx_hal_dac.c ****       /* Enable the selected DAC software conversion */
 483:../../drivers/third_party/ST/STM32L4xx_HAL_Driver/Src/stm32l4xx_hal_dac.c ****       SET_BIT(hdac->Instance->SWTRIGR, DAC_SWTRIGR_SWTRIG1);
 484:../../drivers/third_party/ST/STM32L4xx_HAL_Driver/Src/stm32l4xx_hal_dac.c ****     }
 485:../../drivers/third_party/ST/STM32L4xx_HAL_Driver/Src/stm32l4xx_hal_dac.c ****   }
 486:../../drivers/third_party/ST/STM32L4xx_HAL_Driver/Src/stm32l4xx_hal_dac.c ****   else
 487:../../drivers/third_party/ST/STM32L4xx_HAL_Driver/Src/stm32l4xx_hal_dac.c ****   {
 488:../../drivers/third_party/ST/STM32L4xx_HAL_Driver/Src/stm32l4xx_hal_dac.c ****     /* Check if software trigger enabled */
 489:../../drivers/third_party/ST/STM32L4xx_HAL_Driver/Src/stm32l4xx_hal_dac.c ****     if(((DAC_CR_TEN2 & ~(DAC_CR_TSEL2)) == (hdac->Instance->CR & (DAC_CR_TEN2 | DAC_CR_TSEL2))))
 490:../../drivers/third_party/ST/STM32L4xx_HAL_Driver/Src/stm32l4xx_hal_dac.c ****     {
 491:../../drivers/third_party/ST/STM32L4xx_HAL_Driver/Src/stm32l4xx_hal_dac.c ****       /* Enable the selected DAC software conversion*/
 492:../../drivers/third_party/ST/STM32L4xx_HAL_Driver/Src/stm32l4xx_hal_dac.c ****       SET_BIT(hdac->Instance->SWTRIGR, DAC_SWTRIGR_SWTRIG2);
 493:../../drivers/third_party/ST/STM32L4xx_HAL_Driver/Src/stm32l4xx_hal_dac.c ****     }
 494:../../drivers/third_party/ST/STM32L4xx_HAL_Driver/Src/stm32l4xx_hal_dac.c ****   }
 495:../../drivers/third_party/ST/STM32L4xx_HAL_Driver/Src/stm32l4xx_hal_dac.c **** 
 496:../../drivers/third_party/ST/STM32L4xx_HAL_Driver/Src/stm32l4xx_hal_dac.c **** #endif /* STM32L4R5xx STM32L4R7xx STM32L4R9xx STM32L4S5xx STM32L4S7xx STM32L4S9xx                  
 497:../../drivers/third_party/ST/STM32L4xx_HAL_Driver/Src/stm32l4xx_hal_dac.c **** 
 498:../../drivers/third_party/ST/STM32L4xx_HAL_Driver/Src/stm32l4xx_hal_dac.c **** #if defined (STM32L431xx) || defined (STM32L432xx) || defined (STM32L433xx) || defined (STM32L442xx
 499:../../drivers/third_party/ST/STM32L4xx_HAL_Driver/Src/stm32l4xx_hal_dac.c ****     defined (STM32L471xx) || defined (STM32L475xx) || defined (STM32L476xx) || defined (STM32L485xx
 500:../../drivers/third_party/ST/STM32L4xx_HAL_Driver/Src/stm32l4xx_hal_dac.c ****   if(Channel == DAC_CHANNEL_1)
 501:../../drivers/third_party/ST/STM32L4xx_HAL_Driver/Src/stm32l4xx_hal_dac.c ****   {
 502:../../drivers/third_party/ST/STM32L4xx_HAL_Driver/Src/stm32l4xx_hal_dac.c ****     /* Check if software trigger enabled */
 503:../../drivers/third_party/ST/STM32L4xx_HAL_Driver/Src/stm32l4xx_hal_dac.c ****     if((hdac->Instance->CR & (DAC_CR_TEN1 | DAC_CR_TSEL1)) == (DAC_CR_TEN1 | DAC_CR_TSEL1))
 203              		.loc 1 503 0 discriminator 2
 204 001c 1A68     		ldr	r2, [r3]
 500:../../drivers/third_party/ST/STM32L4xx_HAL_Driver/Src/stm32l4xx_hal_dac.c ****   {
 205              		.loc 1 500 0 discriminator 2
 206 001e 69B9     		cbnz	r1, .L12
 207              		.loc 1 503 0
 208 0020 02F03C02 		and	r2, r2, #60
 209 0024 3C2A     		cmp	r2, #60
 210 0026 03D1     		bne	.L13
 504:../../drivers/third_party/ST/STM32L4xx_HAL_Driver/Src/stm32l4xx_hal_dac.c ****     {
 505:../../drivers/third_party/ST/STM32L4xx_HAL_Driver/Src/stm32l4xx_hal_dac.c ****       /* Enable the selected DAC software conversion */
 506:../../drivers/third_party/ST/STM32L4xx_HAL_Driver/Src/stm32l4xx_hal_dac.c ****       SET_BIT(hdac->Instance->SWTRIGR, DAC_SWTRIGR_SWTRIG1);
 211              		.loc 1 506 0
 212 0028 5A68     		ldr	r2, [r3, #4]
 213 002a 42F00102 		orr	r2, r2, #1
 214              	.L15:
 507:../../drivers/third_party/ST/STM32L4xx_HAL_Driver/Src/stm32l4xx_hal_dac.c ****     }
 508:../../drivers/third_party/ST/STM32L4xx_HAL_Driver/Src/stm32l4xx_hal_dac.c ****   }
 509:../../drivers/third_party/ST/STM32L4xx_HAL_Driver/Src/stm32l4xx_hal_dac.c ****   else
 510:../../drivers/third_party/ST/STM32L4xx_HAL_Driver/Src/stm32l4xx_hal_dac.c ****   {
ARM GAS  C:\Users\LuckyE\AppData\Local\Temp\cca5DOBs.s 			page 14


 511:../../drivers/third_party/ST/STM32L4xx_HAL_Driver/Src/stm32l4xx_hal_dac.c ****     /* Check if software trigger enabled */
 512:../../drivers/third_party/ST/STM32L4xx_HAL_Driver/Src/stm32l4xx_hal_dac.c ****     if((hdac->Instance->CR & (DAC_CR_TEN2 | DAC_CR_TSEL2)) == (DAC_CR_TEN2 | DAC_CR_TSEL2))
 513:../../drivers/third_party/ST/STM32L4xx_HAL_Driver/Src/stm32l4xx_hal_dac.c ****     {
 514:../../drivers/third_party/ST/STM32L4xx_HAL_Driver/Src/stm32l4xx_hal_dac.c ****       /* Enable the selected DAC software conversion*/
 515:../../drivers/third_party/ST/STM32L4xx_HAL_Driver/Src/stm32l4xx_hal_dac.c ****       SET_BIT(hdac->Instance->SWTRIGR, DAC_SWTRIGR_SWTRIG2);
 215              		.loc 1 515 0
 216 002e 5A60     		str	r2, [r3, #4]
 217              	.L13:
 516:../../drivers/third_party/ST/STM32L4xx_HAL_Driver/Src/stm32l4xx_hal_dac.c ****     }
 517:../../drivers/third_party/ST/STM32L4xx_HAL_Driver/Src/stm32l4xx_hal_dac.c ****   }
 518:../../drivers/third_party/ST/STM32L4xx_HAL_Driver/Src/stm32l4xx_hal_dac.c **** #endif  /* STM32L431xx STM32L432xx STM32L433xx STM32L442xx STM32L443xx                         */  
 519:../../drivers/third_party/ST/STM32L4xx_HAL_Driver/Src/stm32l4xx_hal_dac.c ****         /* STM32L471xx STM32L475xx STM32L476xx STM32L485xx STM32L486xx STM32L496xx STM32L4A6xx */ 
 520:../../drivers/third_party/ST/STM32L4xx_HAL_Driver/Src/stm32l4xx_hal_dac.c ****         
 521:../../drivers/third_party/ST/STM32L4xx_HAL_Driver/Src/stm32l4xx_hal_dac.c **** 
 522:../../drivers/third_party/ST/STM32L4xx_HAL_Driver/Src/stm32l4xx_hal_dac.c **** #if defined (STM32L451xx) || defined (STM32L452xx) || defined (STM32L462xx)
 523:../../drivers/third_party/ST/STM32L4xx_HAL_Driver/Src/stm32l4xx_hal_dac.c ****   /* Check if software trigger enabled */
 524:../../drivers/third_party/ST/STM32L4xx_HAL_Driver/Src/stm32l4xx_hal_dac.c ****   if((hdac->Instance->CR & (DAC_CR_TEN1 | DAC_CR_TSEL1)) == (DAC_CR_TEN1 | DAC_CR_TSEL1))
 525:../../drivers/third_party/ST/STM32L4xx_HAL_Driver/Src/stm32l4xx_hal_dac.c ****   {
 526:../../drivers/third_party/ST/STM32L4xx_HAL_Driver/Src/stm32l4xx_hal_dac.c ****     /* Enable the selected DAC software conversion */
 527:../../drivers/third_party/ST/STM32L4xx_HAL_Driver/Src/stm32l4xx_hal_dac.c ****     SET_BIT(hdac->Instance->SWTRIGR, DAC_SWTRIGR_SWTRIG1);
 528:../../drivers/third_party/ST/STM32L4xx_HAL_Driver/Src/stm32l4xx_hal_dac.c ****   }
 529:../../drivers/third_party/ST/STM32L4xx_HAL_Driver/Src/stm32l4xx_hal_dac.c **** #endif /* STM32L451xx STM32L452xx STM32L462xx */
 530:../../drivers/third_party/ST/STM32L4xx_HAL_Driver/Src/stm32l4xx_hal_dac.c ****   /* Change DAC state */
 531:../../drivers/third_party/ST/STM32L4xx_HAL_Driver/Src/stm32l4xx_hal_dac.c ****   hdac->State = HAL_DAC_STATE_READY;
 218              		.loc 1 531 0
 219 0030 0123     		movs	r3, #1
 220 0032 0371     		strb	r3, [r0, #4]
 532:../../drivers/third_party/ST/STM32L4xx_HAL_Driver/Src/stm32l4xx_hal_dac.c ****   
 533:../../drivers/third_party/ST/STM32L4xx_HAL_Driver/Src/stm32l4xx_hal_dac.c ****   /* Process unlocked */
 534:../../drivers/third_party/ST/STM32L4xx_HAL_Driver/Src/stm32l4xx_hal_dac.c ****   __HAL_UNLOCK(hdac);
 221              		.loc 1 534 0
 222 0034 0023     		movs	r3, #0
 223 0036 4371     		strb	r3, [r0, #5]
 224              	.L14:
 468:../../drivers/third_party/ST/STM32L4xx_HAL_Driver/Src/stm32l4xx_hal_dac.c ****   
 225              		.loc 1 468 0
 226 0038 1846     		mov	r0, r3
 227              	.LVL10:
 535:../../drivers/third_party/ST/STM32L4xx_HAL_Driver/Src/stm32l4xx_hal_dac.c ****     
 536:../../drivers/third_party/ST/STM32L4xx_HAL_Driver/Src/stm32l4xx_hal_dac.c ****   /* Return function status */
 537:../../drivers/third_party/ST/STM32L4xx_HAL_Driver/Src/stm32l4xx_hal_dac.c ****   return HAL_OK;
 538:../../drivers/third_party/ST/STM32L4xx_HAL_Driver/Src/stm32l4xx_hal_dac.c **** }
 228              		.loc 1 538 0
 229 003a 10BD     		pop	{r4, pc}
 230              	.LVL11:
 231              	.L12:
 512:../../drivers/third_party/ST/STM32L4xx_HAL_Driver/Src/stm32l4xx_hal_dac.c ****     {
 232              		.loc 1 512 0
 233 003c 02F47012 		and	r2, r2, #3932160
 234 0040 B2F5701F 		cmp	r2, #3932160
 235 0044 F4D1     		bne	.L13
 515:../../drivers/third_party/ST/STM32L4xx_HAL_Driver/Src/stm32l4xx_hal_dac.c ****     }
 236              		.loc 1 515 0
 237 0046 5A68     		ldr	r2, [r3, #4]
 238 0048 42F00202 		orr	r2, r2, #2
 239 004c EFE7     		b	.L15
 240              		.cfi_endproc
ARM GAS  C:\Users\LuckyE\AppData\Local\Temp\cca5DOBs.s 			page 15


 241              	.LFE284:
 243              		.section	.text.HAL_DAC_Stop,"ax",%progbits
 244              		.align	1
 245              		.global	HAL_DAC_Stop
 246              		.syntax unified
 247              		.thumb
 248              		.thumb_func
 249              		.fpu fpv4-sp-d16
 251              	HAL_DAC_Stop:
 252              	.LFB285:
 539:../../drivers/third_party/ST/STM32L4xx_HAL_Driver/Src/stm32l4xx_hal_dac.c ****   
 540:../../drivers/third_party/ST/STM32L4xx_HAL_Driver/Src/stm32l4xx_hal_dac.c **** /**
 541:../../drivers/third_party/ST/STM32L4xx_HAL_Driver/Src/stm32l4xx_hal_dac.c ****   * @brief  Disables DAC and stop conversion of channel.
 542:../../drivers/third_party/ST/STM32L4xx_HAL_Driver/Src/stm32l4xx_hal_dac.c ****   * @param  hdac: pointer to a DAC_HandleTypeDef structure that contains
 543:../../drivers/third_party/ST/STM32L4xx_HAL_Driver/Src/stm32l4xx_hal_dac.c ****   *         the configuration information for the specified DAC.
 544:../../drivers/third_party/ST/STM32L4xx_HAL_Driver/Src/stm32l4xx_hal_dac.c ****   * @param  Channel: The selected DAC channel. 
 545:../../drivers/third_party/ST/STM32L4xx_HAL_Driver/Src/stm32l4xx_hal_dac.c ****   *          This parameter can be one of the following values:
 546:../../drivers/third_party/ST/STM32L4xx_HAL_Driver/Src/stm32l4xx_hal_dac.c ****   *            @arg DAC_CHANNEL_1: DAC Channel1 selected
 547:../../drivers/third_party/ST/STM32L4xx_HAL_Driver/Src/stm32l4xx_hal_dac.c ****   *            @arg DAC_CHANNEL_2: DAC Channel2 selected  
 548:../../drivers/third_party/ST/STM32L4xx_HAL_Driver/Src/stm32l4xx_hal_dac.c ****   * @retval HAL status
 549:../../drivers/third_party/ST/STM32L4xx_HAL_Driver/Src/stm32l4xx_hal_dac.c ****   */
 550:../../drivers/third_party/ST/STM32L4xx_HAL_Driver/Src/stm32l4xx_hal_dac.c **** HAL_StatusTypeDef HAL_DAC_Stop(DAC_HandleTypeDef* hdac, uint32_t Channel)
 551:../../drivers/third_party/ST/STM32L4xx_HAL_Driver/Src/stm32l4xx_hal_dac.c **** {
 253              		.loc 1 551 0
 254              		.cfi_startproc
 255              		@ args = 0, pretend = 0, frame = 0
 256              		@ frame_needed = 0, uses_anonymous_args = 0
 257              	.LVL12:
 258 0000 10B5     		push	{r4, lr}
 259              	.LCFI3:
 260              		.cfi_def_cfa_offset 8
 261              		.cfi_offset 4, -8
 262              		.cfi_offset 14, -4
 552:../../drivers/third_party/ST/STM32L4xx_HAL_Driver/Src/stm32l4xx_hal_dac.c ****   /* Check the parameters */
 553:../../drivers/third_party/ST/STM32L4xx_HAL_Driver/Src/stm32l4xx_hal_dac.c ****   assert_param(IS_DAC_CHANNEL(Channel));
 554:../../drivers/third_party/ST/STM32L4xx_HAL_Driver/Src/stm32l4xx_hal_dac.c ****   
 555:../../drivers/third_party/ST/STM32L4xx_HAL_Driver/Src/stm32l4xx_hal_dac.c ****   /* Disable the Peripheral */
 556:../../drivers/third_party/ST/STM32L4xx_HAL_Driver/Src/stm32l4xx_hal_dac.c ****   __HAL_DAC_DISABLE(hdac, Channel);
 263              		.loc 1 556 0
 264 0002 0468     		ldr	r4, [r0]
 265 0004 0122     		movs	r2, #1
 266 0006 2368     		ldr	r3, [r4]
 267 0008 02FA01F1 		lsl	r1, r2, r1
 268              	.LVL13:
 269 000c 23EA0103 		bic	r3, r3, r1
 270 0010 2360     		str	r3, [r4]
 557:../../drivers/third_party/ST/STM32L4xx_HAL_Driver/Src/stm32l4xx_hal_dac.c ****   
 558:../../drivers/third_party/ST/STM32L4xx_HAL_Driver/Src/stm32l4xx_hal_dac.c ****   /* Change DAC state */
 559:../../drivers/third_party/ST/STM32L4xx_HAL_Driver/Src/stm32l4xx_hal_dac.c ****   hdac->State = HAL_DAC_STATE_READY;
 271              		.loc 1 559 0
 272 0012 0271     		strb	r2, [r0, #4]
 560:../../drivers/third_party/ST/STM32L4xx_HAL_Driver/Src/stm32l4xx_hal_dac.c ****   
 561:../../drivers/third_party/ST/STM32L4xx_HAL_Driver/Src/stm32l4xx_hal_dac.c ****   /* Return function status */
 562:../../drivers/third_party/ST/STM32L4xx_HAL_Driver/Src/stm32l4xx_hal_dac.c ****   return HAL_OK;
 563:../../drivers/third_party/ST/STM32L4xx_HAL_Driver/Src/stm32l4xx_hal_dac.c **** }
 273              		.loc 1 563 0
 274 0014 0020     		movs	r0, #0
ARM GAS  C:\Users\LuckyE\AppData\Local\Temp\cca5DOBs.s 			page 16


 275              	.LVL14:
 276 0016 10BD     		pop	{r4, pc}
 277              		.cfi_endproc
 278              	.LFE285:
 280              		.section	.text.HAL_DAC_Start_DMA,"ax",%progbits
 281              		.align	1
 282              		.global	HAL_DAC_Start_DMA
 283              		.syntax unified
 284              		.thumb
 285              		.thumb_func
 286              		.fpu fpv4-sp-d16
 288              	HAL_DAC_Start_DMA:
 289              	.LFB286:
 564:../../drivers/third_party/ST/STM32L4xx_HAL_Driver/Src/stm32l4xx_hal_dac.c **** 
 565:../../drivers/third_party/ST/STM32L4xx_HAL_Driver/Src/stm32l4xx_hal_dac.c **** #if defined (STM32L451xx) || defined (STM32L452xx) || defined (STM32L462xx) 
 566:../../drivers/third_party/ST/STM32L4xx_HAL_Driver/Src/stm32l4xx_hal_dac.c **** /**
 567:../../drivers/third_party/ST/STM32L4xx_HAL_Driver/Src/stm32l4xx_hal_dac.c ****   * @brief  Enables DAC and starts conversion of channel.
 568:../../drivers/third_party/ST/STM32L4xx_HAL_Driver/Src/stm32l4xx_hal_dac.c ****   * @param  hdac: pointer to a DAC_HandleTypeDef structure that contains
 569:../../drivers/third_party/ST/STM32L4xx_HAL_Driver/Src/stm32l4xx_hal_dac.c ****   *         the configuration information for the specified DAC.
 570:../../drivers/third_party/ST/STM32L4xx_HAL_Driver/Src/stm32l4xx_hal_dac.c ****   * @param  Channel: The selected DAC channel. 
 571:../../drivers/third_party/ST/STM32L4xx_HAL_Driver/Src/stm32l4xx_hal_dac.c ****   *          This parameter can be one of the following values:
 572:../../drivers/third_party/ST/STM32L4xx_HAL_Driver/Src/stm32l4xx_hal_dac.c ****   *            @arg DAC_CHANNEL_1: DAC Channel1 selected
 573:../../drivers/third_party/ST/STM32L4xx_HAL_Driver/Src/stm32l4xx_hal_dac.c ****   * @param  pData: The destination peripheral Buffer address.
 574:../../drivers/third_party/ST/STM32L4xx_HAL_Driver/Src/stm32l4xx_hal_dac.c ****   * @param  Length: The length of data to be transferred from memory to DAC peripheral
 575:../../drivers/third_party/ST/STM32L4xx_HAL_Driver/Src/stm32l4xx_hal_dac.c ****   * @param  Alignment: Specifies the data alignment for DAC channel.
 576:../../drivers/third_party/ST/STM32L4xx_HAL_Driver/Src/stm32l4xx_hal_dac.c ****   *          This parameter can be one of the following values:
 577:../../drivers/third_party/ST/STM32L4xx_HAL_Driver/Src/stm32l4xx_hal_dac.c ****   *            @arg DAC_ALIGN_8B_R: 8bit right data alignment selected
 578:../../drivers/third_party/ST/STM32L4xx_HAL_Driver/Src/stm32l4xx_hal_dac.c ****   *            @arg DAC_ALIGN_12B_L: 12bit left data alignment selected
 579:../../drivers/third_party/ST/STM32L4xx_HAL_Driver/Src/stm32l4xx_hal_dac.c ****   *            @arg DAC_ALIGN_12B_R: 12bit right data alignment selected
 580:../../drivers/third_party/ST/STM32L4xx_HAL_Driver/Src/stm32l4xx_hal_dac.c ****   * @retval HAL status
 581:../../drivers/third_party/ST/STM32L4xx_HAL_Driver/Src/stm32l4xx_hal_dac.c ****   */
 582:../../drivers/third_party/ST/STM32L4xx_HAL_Driver/Src/stm32l4xx_hal_dac.c **** HAL_StatusTypeDef HAL_DAC_Start_DMA(DAC_HandleTypeDef* hdac, uint32_t Channel, uint32_t* pData, uin
 583:../../drivers/third_party/ST/STM32L4xx_HAL_Driver/Src/stm32l4xx_hal_dac.c **** {
 584:../../drivers/third_party/ST/STM32L4xx_HAL_Driver/Src/stm32l4xx_hal_dac.c ****   uint32_t tmpreg = 0;
 585:../../drivers/third_party/ST/STM32L4xx_HAL_Driver/Src/stm32l4xx_hal_dac.c ****     
 586:../../drivers/third_party/ST/STM32L4xx_HAL_Driver/Src/stm32l4xx_hal_dac.c ****   /* Check the parameters */
 587:../../drivers/third_party/ST/STM32L4xx_HAL_Driver/Src/stm32l4xx_hal_dac.c ****   assert_param(IS_DAC_CHANNEL(Channel));
 588:../../drivers/third_party/ST/STM32L4xx_HAL_Driver/Src/stm32l4xx_hal_dac.c ****   assert_param(IS_DAC_ALIGN(Alignment));
 589:../../drivers/third_party/ST/STM32L4xx_HAL_Driver/Src/stm32l4xx_hal_dac.c ****   
 590:../../drivers/third_party/ST/STM32L4xx_HAL_Driver/Src/stm32l4xx_hal_dac.c ****   /* Process locked */
 591:../../drivers/third_party/ST/STM32L4xx_HAL_Driver/Src/stm32l4xx_hal_dac.c ****   __HAL_LOCK(hdac);
 592:../../drivers/third_party/ST/STM32L4xx_HAL_Driver/Src/stm32l4xx_hal_dac.c ****   
 593:../../drivers/third_party/ST/STM32L4xx_HAL_Driver/Src/stm32l4xx_hal_dac.c ****   /* Change DAC state */
 594:../../drivers/third_party/ST/STM32L4xx_HAL_Driver/Src/stm32l4xx_hal_dac.c ****   hdac->State = HAL_DAC_STATE_BUSY;
 595:../../drivers/third_party/ST/STM32L4xx_HAL_Driver/Src/stm32l4xx_hal_dac.c ****   
 596:../../drivers/third_party/ST/STM32L4xx_HAL_Driver/Src/stm32l4xx_hal_dac.c ****   /* Set the DMA transfer complete callback for channel1 */
 597:../../drivers/third_party/ST/STM32L4xx_HAL_Driver/Src/stm32l4xx_hal_dac.c ****   hdac->DMA_Handle1->XferCpltCallback = DAC_DMAConvCpltCh1;
 598:../../drivers/third_party/ST/STM32L4xx_HAL_Driver/Src/stm32l4xx_hal_dac.c ****   
 599:../../drivers/third_party/ST/STM32L4xx_HAL_Driver/Src/stm32l4xx_hal_dac.c ****   /* Set the DMA half transfer complete callback for channel1 */
 600:../../drivers/third_party/ST/STM32L4xx_HAL_Driver/Src/stm32l4xx_hal_dac.c ****   hdac->DMA_Handle1->XferHalfCpltCallback = DAC_DMAHalfConvCpltCh1;
 601:../../drivers/third_party/ST/STM32L4xx_HAL_Driver/Src/stm32l4xx_hal_dac.c ****      
 602:../../drivers/third_party/ST/STM32L4xx_HAL_Driver/Src/stm32l4xx_hal_dac.c ****   /* Set the DMA error callback for channel1 */
 603:../../drivers/third_party/ST/STM32L4xx_HAL_Driver/Src/stm32l4xx_hal_dac.c ****   hdac->DMA_Handle1->XferErrorCallback = DAC_DMAErrorCh1;
 604:../../drivers/third_party/ST/STM32L4xx_HAL_Driver/Src/stm32l4xx_hal_dac.c ****   
 605:../../drivers/third_party/ST/STM32L4xx_HAL_Driver/Src/stm32l4xx_hal_dac.c ****   /* Enable the selected DAC channel1 DMA request */
 606:../../drivers/third_party/ST/STM32L4xx_HAL_Driver/Src/stm32l4xx_hal_dac.c ****   SET_BIT(hdac->Instance->CR, DAC_CR_DMAEN1);
 607:../../drivers/third_party/ST/STM32L4xx_HAL_Driver/Src/stm32l4xx_hal_dac.c ****   
ARM GAS  C:\Users\LuckyE\AppData\Local\Temp\cca5DOBs.s 			page 17


 608:../../drivers/third_party/ST/STM32L4xx_HAL_Driver/Src/stm32l4xx_hal_dac.c ****   /* Case of use of channel 1 */
 609:../../drivers/third_party/ST/STM32L4xx_HAL_Driver/Src/stm32l4xx_hal_dac.c ****   switch(Alignment)
 610:../../drivers/third_party/ST/STM32L4xx_HAL_Driver/Src/stm32l4xx_hal_dac.c ****   {
 611:../../drivers/third_party/ST/STM32L4xx_HAL_Driver/Src/stm32l4xx_hal_dac.c ****     case DAC_ALIGN_12B_R:
 612:../../drivers/third_party/ST/STM32L4xx_HAL_Driver/Src/stm32l4xx_hal_dac.c ****       /* Get DHR12R1 address */
 613:../../drivers/third_party/ST/STM32L4xx_HAL_Driver/Src/stm32l4xx_hal_dac.c ****       tmpreg = (uint32_t)&hdac->Instance->DHR12R1;
 614:../../drivers/third_party/ST/STM32L4xx_HAL_Driver/Src/stm32l4xx_hal_dac.c ****       break;
 615:../../drivers/third_party/ST/STM32L4xx_HAL_Driver/Src/stm32l4xx_hal_dac.c ****     case DAC_ALIGN_12B_L:
 616:../../drivers/third_party/ST/STM32L4xx_HAL_Driver/Src/stm32l4xx_hal_dac.c ****       /* Get DHR12L1 address */
 617:../../drivers/third_party/ST/STM32L4xx_HAL_Driver/Src/stm32l4xx_hal_dac.c ****       tmpreg = (uint32_t)&hdac->Instance->DHR12L1;
 618:../../drivers/third_party/ST/STM32L4xx_HAL_Driver/Src/stm32l4xx_hal_dac.c ****       break;
 619:../../drivers/third_party/ST/STM32L4xx_HAL_Driver/Src/stm32l4xx_hal_dac.c ****     case DAC_ALIGN_8B_R:
 620:../../drivers/third_party/ST/STM32L4xx_HAL_Driver/Src/stm32l4xx_hal_dac.c ****       /* Get DHR8R1 address */
 621:../../drivers/third_party/ST/STM32L4xx_HAL_Driver/Src/stm32l4xx_hal_dac.c ****       tmpreg = (uint32_t)&hdac->Instance->DHR8R1;
 622:../../drivers/third_party/ST/STM32L4xx_HAL_Driver/Src/stm32l4xx_hal_dac.c ****       break;
 623:../../drivers/third_party/ST/STM32L4xx_HAL_Driver/Src/stm32l4xx_hal_dac.c ****     default:
 624:../../drivers/third_party/ST/STM32L4xx_HAL_Driver/Src/stm32l4xx_hal_dac.c ****       break;
 625:../../drivers/third_party/ST/STM32L4xx_HAL_Driver/Src/stm32l4xx_hal_dac.c ****   }  
 626:../../drivers/third_party/ST/STM32L4xx_HAL_Driver/Src/stm32l4xx_hal_dac.c ****   
 627:../../drivers/third_party/ST/STM32L4xx_HAL_Driver/Src/stm32l4xx_hal_dac.c ****   /* Enable the DMA channel */
 628:../../drivers/third_party/ST/STM32L4xx_HAL_Driver/Src/stm32l4xx_hal_dac.c ****   /* Enable the DAC DMA underrun interrupt */
 629:../../drivers/third_party/ST/STM32L4xx_HAL_Driver/Src/stm32l4xx_hal_dac.c ****   __HAL_DAC_ENABLE_IT(hdac, DAC_IT_DMAUDR1);
 630:../../drivers/third_party/ST/STM32L4xx_HAL_Driver/Src/stm32l4xx_hal_dac.c ****     
 631:../../drivers/third_party/ST/STM32L4xx_HAL_Driver/Src/stm32l4xx_hal_dac.c ****   /* Enable the DMA channel */
 632:../../drivers/third_party/ST/STM32L4xx_HAL_Driver/Src/stm32l4xx_hal_dac.c ****   HAL_DMA_Start_IT(hdac->DMA_Handle1, (uint32_t)pData, tmpreg, Length);
 633:../../drivers/third_party/ST/STM32L4xx_HAL_Driver/Src/stm32l4xx_hal_dac.c ****   
 634:../../drivers/third_party/ST/STM32L4xx_HAL_Driver/Src/stm32l4xx_hal_dac.c ****   /* Process Unlocked */
 635:../../drivers/third_party/ST/STM32L4xx_HAL_Driver/Src/stm32l4xx_hal_dac.c ****   __HAL_UNLOCK(hdac);
 636:../../drivers/third_party/ST/STM32L4xx_HAL_Driver/Src/stm32l4xx_hal_dac.c **** 
 637:../../drivers/third_party/ST/STM32L4xx_HAL_Driver/Src/stm32l4xx_hal_dac.c ****   /* Enable the Peripheral */
 638:../../drivers/third_party/ST/STM32L4xx_HAL_Driver/Src/stm32l4xx_hal_dac.c ****   __HAL_DAC_ENABLE(hdac, Channel);
 639:../../drivers/third_party/ST/STM32L4xx_HAL_Driver/Src/stm32l4xx_hal_dac.c ****   
 640:../../drivers/third_party/ST/STM32L4xx_HAL_Driver/Src/stm32l4xx_hal_dac.c ****   /* Return function status */
 641:../../drivers/third_party/ST/STM32L4xx_HAL_Driver/Src/stm32l4xx_hal_dac.c ****   return HAL_OK;
 642:../../drivers/third_party/ST/STM32L4xx_HAL_Driver/Src/stm32l4xx_hal_dac.c **** }
 643:../../drivers/third_party/ST/STM32L4xx_HAL_Driver/Src/stm32l4xx_hal_dac.c **** #endif /* STM32L451xx STM32L452xx STM32L462xx */   
 644:../../drivers/third_party/ST/STM32L4xx_HAL_Driver/Src/stm32l4xx_hal_dac.c **** 
 645:../../drivers/third_party/ST/STM32L4xx_HAL_Driver/Src/stm32l4xx_hal_dac.c **** #if defined (STM32L431xx) || defined (STM32L432xx) || defined (STM32L433xx) || defined (STM32L442xx
 646:../../drivers/third_party/ST/STM32L4xx_HAL_Driver/Src/stm32l4xx_hal_dac.c ****     defined (STM32L471xx) || defined (STM32L475xx) || defined (STM32L476xx) || defined (STM32L485xx
 647:../../drivers/third_party/ST/STM32L4xx_HAL_Driver/Src/stm32l4xx_hal_dac.c ****     defined (STM32L4R5xx) || defined (STM32L4R7xx) || defined (STM32L4R9xx) || defined (STM32L4S5xx
 648:../../drivers/third_party/ST/STM32L4xx_HAL_Driver/Src/stm32l4xx_hal_dac.c ****       
 649:../../drivers/third_party/ST/STM32L4xx_HAL_Driver/Src/stm32l4xx_hal_dac.c **** /**
 650:../../drivers/third_party/ST/STM32L4xx_HAL_Driver/Src/stm32l4xx_hal_dac.c ****   * @brief  Enables DAC and starts conversion of channel.
 651:../../drivers/third_party/ST/STM32L4xx_HAL_Driver/Src/stm32l4xx_hal_dac.c ****   * @param  hdac: pointer to a DAC_HandleTypeDef structure that contains
 652:../../drivers/third_party/ST/STM32L4xx_HAL_Driver/Src/stm32l4xx_hal_dac.c ****   *         the configuration information for the specified DAC.
 653:../../drivers/third_party/ST/STM32L4xx_HAL_Driver/Src/stm32l4xx_hal_dac.c ****   * @param  Channel: The selected DAC channel. 
 654:../../drivers/third_party/ST/STM32L4xx_HAL_Driver/Src/stm32l4xx_hal_dac.c ****   *          This parameter can be one of the following values:
 655:../../drivers/third_party/ST/STM32L4xx_HAL_Driver/Src/stm32l4xx_hal_dac.c ****   *            @arg DAC_CHANNEL_1: DAC Channel1 selected
 656:../../drivers/third_party/ST/STM32L4xx_HAL_Driver/Src/stm32l4xx_hal_dac.c ****   *            @arg DAC_CHANNEL_2: DAC Channel2 selected
 657:../../drivers/third_party/ST/STM32L4xx_HAL_Driver/Src/stm32l4xx_hal_dac.c ****   * @param  pData: The destination peripheral Buffer address.
 658:../../drivers/third_party/ST/STM32L4xx_HAL_Driver/Src/stm32l4xx_hal_dac.c ****   * @param  Length: The length of data to be transferred from memory to DAC peripheral
 659:../../drivers/third_party/ST/STM32L4xx_HAL_Driver/Src/stm32l4xx_hal_dac.c ****   * @param  Alignment: Specifies the data alignment for DAC channel.
 660:../../drivers/third_party/ST/STM32L4xx_HAL_Driver/Src/stm32l4xx_hal_dac.c ****   *          This parameter can be one of the following values:
 661:../../drivers/third_party/ST/STM32L4xx_HAL_Driver/Src/stm32l4xx_hal_dac.c ****   *            @arg DAC_ALIGN_8B_R: 8bit right data alignment selected
 662:../../drivers/third_party/ST/STM32L4xx_HAL_Driver/Src/stm32l4xx_hal_dac.c ****   *            @arg DAC_ALIGN_12B_L: 12bit left data alignment selected
 663:../../drivers/third_party/ST/STM32L4xx_HAL_Driver/Src/stm32l4xx_hal_dac.c ****   *            @arg DAC_ALIGN_12B_R: 12bit right data alignment selected
 664:../../drivers/third_party/ST/STM32L4xx_HAL_Driver/Src/stm32l4xx_hal_dac.c ****   * @retval HAL status
ARM GAS  C:\Users\LuckyE\AppData\Local\Temp\cca5DOBs.s 			page 18


 665:../../drivers/third_party/ST/STM32L4xx_HAL_Driver/Src/stm32l4xx_hal_dac.c ****   */
 666:../../drivers/third_party/ST/STM32L4xx_HAL_Driver/Src/stm32l4xx_hal_dac.c **** HAL_StatusTypeDef HAL_DAC_Start_DMA(DAC_HandleTypeDef* hdac, uint32_t Channel, uint32_t* pData, uin
 667:../../drivers/third_party/ST/STM32L4xx_HAL_Driver/Src/stm32l4xx_hal_dac.c **** {
 290              		.loc 1 667 0
 291              		.cfi_startproc
 292              		@ args = 4, pretend = 0, frame = 0
 293              		@ frame_needed = 0, uses_anonymous_args = 0
 294              	.LVL15:
 295 0000 F8B5     		push	{r3, r4, r5, r6, r7, lr}
 296              	.LCFI4:
 297              		.cfi_def_cfa_offset 24
 298              		.cfi_offset 3, -24
 299              		.cfi_offset 4, -20
 300              		.cfi_offset 5, -16
 301              		.cfi_offset 6, -12
 302              		.cfi_offset 7, -8
 303              		.cfi_offset 14, -4
 304              		.loc 1 667 0
 305 0002 0446     		mov	r4, r0
 668:../../drivers/third_party/ST/STM32L4xx_HAL_Driver/Src/stm32l4xx_hal_dac.c ****   uint32_t tmpreg = 0;
 669:../../drivers/third_party/ST/STM32L4xx_HAL_Driver/Src/stm32l4xx_hal_dac.c ****     
 670:../../drivers/third_party/ST/STM32L4xx_HAL_Driver/Src/stm32l4xx_hal_dac.c ****   /* Check the parameters */
 671:../../drivers/third_party/ST/STM32L4xx_HAL_Driver/Src/stm32l4xx_hal_dac.c ****   assert_param(IS_DAC_CHANNEL(Channel));
 672:../../drivers/third_party/ST/STM32L4xx_HAL_Driver/Src/stm32l4xx_hal_dac.c ****   assert_param(IS_DAC_ALIGN(Alignment));
 673:../../drivers/third_party/ST/STM32L4xx_HAL_Driver/Src/stm32l4xx_hal_dac.c ****   
 674:../../drivers/third_party/ST/STM32L4xx_HAL_Driver/Src/stm32l4xx_hal_dac.c ****   /* Process locked */
 675:../../drivers/third_party/ST/STM32L4xx_HAL_Driver/Src/stm32l4xx_hal_dac.c ****   __HAL_LOCK(hdac);
 306              		.loc 1 675 0
 307 0004 4079     		ldrb	r0, [r0, #5]	@ zero_extendqisi2
 308              	.LVL16:
 309 0006 0128     		cmp	r0, #1
 667:../../drivers/third_party/ST/STM32L4xx_HAL_Driver/Src/stm32l4xx_hal_dac.c ****   uint32_t tmpreg = 0;
 310              		.loc 1 667 0
 311 0008 0D46     		mov	r5, r1
 312 000a 4FF00200 		mov	r0, #2
 313 000e 1146     		mov	r1, r2
 314              	.LVL17:
 315 0010 069A     		ldr	r2, [sp, #24]
 316              	.LVL18:
 317              		.loc 1 675 0
 318 0012 26D0     		beq	.L18
 319              		.loc 1 675 0 is_stmt 0 discriminator 2
 320 0014 0126     		movs	r6, #1
 676:../../drivers/third_party/ST/STM32L4xx_HAL_Driver/Src/stm32l4xx_hal_dac.c ****   
 677:../../drivers/third_party/ST/STM32L4xx_HAL_Driver/Src/stm32l4xx_hal_dac.c ****   /* Change DAC state */
 678:../../drivers/third_party/ST/STM32L4xx_HAL_Driver/Src/stm32l4xx_hal_dac.c ****   hdac->State = HAL_DAC_STATE_BUSY;
 321              		.loc 1 678 0 is_stmt 1 discriminator 2
 322 0016 2071     		strb	r0, [r4, #4]
 675:../../drivers/third_party/ST/STM32L4xx_HAL_Driver/Src/stm32l4xx_hal_dac.c ****   
 323              		.loc 1 675 0 discriminator 2
 324 0018 6671     		strb	r6, [r4, #5]
 325 001a 2068     		ldr	r0, [r4]
 679:../../drivers/third_party/ST/STM32L4xx_HAL_Driver/Src/stm32l4xx_hal_dac.c ****   
 680:../../drivers/third_party/ST/STM32L4xx_HAL_Driver/Src/stm32l4xx_hal_dac.c ****   if(Channel == DAC_CHANNEL_1)
 326              		.loc 1 680 0 discriminator 2
 327 001c 45BB     		cbnz	r5, .L19
 681:../../drivers/third_party/ST/STM32L4xx_HAL_Driver/Src/stm32l4xx_hal_dac.c ****   {
ARM GAS  C:\Users\LuckyE\AppData\Local\Temp\cca5DOBs.s 			page 19


 682:../../drivers/third_party/ST/STM32L4xx_HAL_Driver/Src/stm32l4xx_hal_dac.c ****     /* Set the DMA transfer complete callback for channel1 */
 683:../../drivers/third_party/ST/STM32L4xx_HAL_Driver/Src/stm32l4xx_hal_dac.c ****     hdac->DMA_Handle1->XferCpltCallback = DAC_DMAConvCpltCh1;
 328              		.loc 1 683 0
 329 001e A668     		ldr	r6, [r4, #8]
 330 0020 244F     		ldr	r7, .L35
 331 0022 F762     		str	r7, [r6, #44]
 684:../../drivers/third_party/ST/STM32L4xx_HAL_Driver/Src/stm32l4xx_hal_dac.c ****     
 685:../../drivers/third_party/ST/STM32L4xx_HAL_Driver/Src/stm32l4xx_hal_dac.c ****     /* Set the DMA half transfer complete callback for channel1 */
 686:../../drivers/third_party/ST/STM32L4xx_HAL_Driver/Src/stm32l4xx_hal_dac.c ****     hdac->DMA_Handle1->XferHalfCpltCallback = DAC_DMAHalfConvCpltCh1;
 332              		.loc 1 686 0
 333 0024 244F     		ldr	r7, .L35+4
 334 0026 3763     		str	r7, [r6, #48]
 687:../../drivers/third_party/ST/STM32L4xx_HAL_Driver/Src/stm32l4xx_hal_dac.c ****        
 688:../../drivers/third_party/ST/STM32L4xx_HAL_Driver/Src/stm32l4xx_hal_dac.c ****     /* Set the DMA error callback for channel1 */
 689:../../drivers/third_party/ST/STM32L4xx_HAL_Driver/Src/stm32l4xx_hal_dac.c ****     hdac->DMA_Handle1->XferErrorCallback = DAC_DMAErrorCh1;
 335              		.loc 1 689 0
 336 0028 244F     		ldr	r7, .L35+8
 337 002a 7763     		str	r7, [r6, #52]
 690:../../drivers/third_party/ST/STM32L4xx_HAL_Driver/Src/stm32l4xx_hal_dac.c ****     
 691:../../drivers/third_party/ST/STM32L4xx_HAL_Driver/Src/stm32l4xx_hal_dac.c ****     /* Enable the selected DAC channel1 DMA request */
 692:../../drivers/third_party/ST/STM32L4xx_HAL_Driver/Src/stm32l4xx_hal_dac.c ****     SET_BIT(hdac->Instance->CR, DAC_CR_DMAEN1);
 338              		.loc 1 692 0
 339 002c 0668     		ldr	r6, [r0]
 693:../../drivers/third_party/ST/STM32L4xx_HAL_Driver/Src/stm32l4xx_hal_dac.c ****     
 694:../../drivers/third_party/ST/STM32L4xx_HAL_Driver/Src/stm32l4xx_hal_dac.c ****     /* Case of use of channel 1 */
 695:../../drivers/third_party/ST/STM32L4xx_HAL_Driver/Src/stm32l4xx_hal_dac.c ****     switch(Alignment)
 340              		.loc 1 695 0
 341 002e 042A     		cmp	r2, #4
 692:../../drivers/third_party/ST/STM32L4xx_HAL_Driver/Src/stm32l4xx_hal_dac.c ****     
 342              		.loc 1 692 0
 343 0030 46F48056 		orr	r6, r6, #4096
 344 0034 0660     		str	r6, [r0]
 345              		.loc 1 695 0
 346 0036 15D0     		beq	.L21
 347 0038 082A     		cmp	r2, #8
 348 003a 16D0     		beq	.L22
 349 003c 002A     		cmp	r2, #0
 350 003e 37D1     		bne	.L32
 696:../../drivers/third_party/ST/STM32L4xx_HAL_Driver/Src/stm32l4xx_hal_dac.c ****     {
 697:../../drivers/third_party/ST/STM32L4xx_HAL_Driver/Src/stm32l4xx_hal_dac.c ****       case DAC_ALIGN_12B_R:
 698:../../drivers/third_party/ST/STM32L4xx_HAL_Driver/Src/stm32l4xx_hal_dac.c ****         /* Get DHR12R1 address */
 699:../../drivers/third_party/ST/STM32L4xx_HAL_Driver/Src/stm32l4xx_hal_dac.c ****         tmpreg = (uint32_t)&hdac->Instance->DHR12R1;
 351              		.loc 1 699 0
 352 0040 00F10802 		add	r2, r0, #8
 353              	.LVL19:
 354              	.L24:
 700:../../drivers/third_party/ST/STM32L4xx_HAL_Driver/Src/stm32l4xx_hal_dac.c ****         break;
 701:../../drivers/third_party/ST/STM32L4xx_HAL_Driver/Src/stm32l4xx_hal_dac.c ****       case DAC_ALIGN_12B_L:
 702:../../drivers/third_party/ST/STM32L4xx_HAL_Driver/Src/stm32l4xx_hal_dac.c ****         /* Get DHR12L1 address */
 703:../../drivers/third_party/ST/STM32L4xx_HAL_Driver/Src/stm32l4xx_hal_dac.c ****         tmpreg = (uint32_t)&hdac->Instance->DHR12L1;
 704:../../drivers/third_party/ST/STM32L4xx_HAL_Driver/Src/stm32l4xx_hal_dac.c ****         break;
 705:../../drivers/third_party/ST/STM32L4xx_HAL_Driver/Src/stm32l4xx_hal_dac.c ****       case DAC_ALIGN_8B_R:
 706:../../drivers/third_party/ST/STM32L4xx_HAL_Driver/Src/stm32l4xx_hal_dac.c ****         /* Get DHR8R1 address */
 707:../../drivers/third_party/ST/STM32L4xx_HAL_Driver/Src/stm32l4xx_hal_dac.c ****         tmpreg = (uint32_t)&hdac->Instance->DHR8R1;
 708:../../drivers/third_party/ST/STM32L4xx_HAL_Driver/Src/stm32l4xx_hal_dac.c ****         break;
 709:../../drivers/third_party/ST/STM32L4xx_HAL_Driver/Src/stm32l4xx_hal_dac.c ****       default:
 710:../../drivers/third_party/ST/STM32L4xx_HAL_Driver/Src/stm32l4xx_hal_dac.c ****         break;
ARM GAS  C:\Users\LuckyE\AppData\Local\Temp\cca5DOBs.s 			page 20


 711:../../drivers/third_party/ST/STM32L4xx_HAL_Driver/Src/stm32l4xx_hal_dac.c ****     }
 712:../../drivers/third_party/ST/STM32L4xx_HAL_Driver/Src/stm32l4xx_hal_dac.c ****   }
 713:../../drivers/third_party/ST/STM32L4xx_HAL_Driver/Src/stm32l4xx_hal_dac.c ****   else
 714:../../drivers/third_party/ST/STM32L4xx_HAL_Driver/Src/stm32l4xx_hal_dac.c ****   {
 715:../../drivers/third_party/ST/STM32L4xx_HAL_Driver/Src/stm32l4xx_hal_dac.c ****     /* Set the DMA transfer complete callback for channel2 */
 716:../../drivers/third_party/ST/STM32L4xx_HAL_Driver/Src/stm32l4xx_hal_dac.c ****     hdac->DMA_Handle2->XferCpltCallback = DAC_DMAConvCpltCh2;
 717:../../drivers/third_party/ST/STM32L4xx_HAL_Driver/Src/stm32l4xx_hal_dac.c ****     
 718:../../drivers/third_party/ST/STM32L4xx_HAL_Driver/Src/stm32l4xx_hal_dac.c ****     /* Set the DMA half transfer complete callback for channel2 */
 719:../../drivers/third_party/ST/STM32L4xx_HAL_Driver/Src/stm32l4xx_hal_dac.c ****     hdac->DMA_Handle2->XferHalfCpltCallback = DAC_DMAHalfConvCpltCh2;
 720:../../drivers/third_party/ST/STM32L4xx_HAL_Driver/Src/stm32l4xx_hal_dac.c ****        
 721:../../drivers/third_party/ST/STM32L4xx_HAL_Driver/Src/stm32l4xx_hal_dac.c ****     /* Set the DMA error callback for channel2 */
 722:../../drivers/third_party/ST/STM32L4xx_HAL_Driver/Src/stm32l4xx_hal_dac.c ****     hdac->DMA_Handle2->XferErrorCallback = DAC_DMAErrorCh2;
 723:../../drivers/third_party/ST/STM32L4xx_HAL_Driver/Src/stm32l4xx_hal_dac.c ****     
 724:../../drivers/third_party/ST/STM32L4xx_HAL_Driver/Src/stm32l4xx_hal_dac.c ****     /* Enable the selected DAC channel2 DMA request */
 725:../../drivers/third_party/ST/STM32L4xx_HAL_Driver/Src/stm32l4xx_hal_dac.c ****     SET_BIT(hdac->Instance->CR, DAC_CR_DMAEN2);
 726:../../drivers/third_party/ST/STM32L4xx_HAL_Driver/Src/stm32l4xx_hal_dac.c ****     
 727:../../drivers/third_party/ST/STM32L4xx_HAL_Driver/Src/stm32l4xx_hal_dac.c ****     /* Case of use of channel 2 */
 728:../../drivers/third_party/ST/STM32L4xx_HAL_Driver/Src/stm32l4xx_hal_dac.c ****     switch(Alignment)
 729:../../drivers/third_party/ST/STM32L4xx_HAL_Driver/Src/stm32l4xx_hal_dac.c ****     {
 730:../../drivers/third_party/ST/STM32L4xx_HAL_Driver/Src/stm32l4xx_hal_dac.c ****       case DAC_ALIGN_12B_R:
 731:../../drivers/third_party/ST/STM32L4xx_HAL_Driver/Src/stm32l4xx_hal_dac.c ****         /* Get DHR12R2 address */
 732:../../drivers/third_party/ST/STM32L4xx_HAL_Driver/Src/stm32l4xx_hal_dac.c ****         tmpreg = (uint32_t)&hdac->Instance->DHR12R2;
 733:../../drivers/third_party/ST/STM32L4xx_HAL_Driver/Src/stm32l4xx_hal_dac.c ****         break;
 734:../../drivers/third_party/ST/STM32L4xx_HAL_Driver/Src/stm32l4xx_hal_dac.c ****       case DAC_ALIGN_12B_L:
 735:../../drivers/third_party/ST/STM32L4xx_HAL_Driver/Src/stm32l4xx_hal_dac.c ****         /* Get DHR12L2 address */
 736:../../drivers/third_party/ST/STM32L4xx_HAL_Driver/Src/stm32l4xx_hal_dac.c ****         tmpreg = (uint32_t)&hdac->Instance->DHR12L2;
 737:../../drivers/third_party/ST/STM32L4xx_HAL_Driver/Src/stm32l4xx_hal_dac.c ****         break;
 738:../../drivers/third_party/ST/STM32L4xx_HAL_Driver/Src/stm32l4xx_hal_dac.c ****       case DAC_ALIGN_8B_R:
 739:../../drivers/third_party/ST/STM32L4xx_HAL_Driver/Src/stm32l4xx_hal_dac.c ****         /* Get DHR8R2 address */
 740:../../drivers/third_party/ST/STM32L4xx_HAL_Driver/Src/stm32l4xx_hal_dac.c ****         tmpreg = (uint32_t)&hdac->Instance->DHR8R2;
 741:../../drivers/third_party/ST/STM32L4xx_HAL_Driver/Src/stm32l4xx_hal_dac.c ****         break;
 742:../../drivers/third_party/ST/STM32L4xx_HAL_Driver/Src/stm32l4xx_hal_dac.c ****       default:
 743:../../drivers/third_party/ST/STM32L4xx_HAL_Driver/Src/stm32l4xx_hal_dac.c ****         break;
 744:../../drivers/third_party/ST/STM32L4xx_HAL_Driver/Src/stm32l4xx_hal_dac.c ****     }
 745:../../drivers/third_party/ST/STM32L4xx_HAL_Driver/Src/stm32l4xx_hal_dac.c ****   }
 746:../../drivers/third_party/ST/STM32L4xx_HAL_Driver/Src/stm32l4xx_hal_dac.c ****   
 747:../../drivers/third_party/ST/STM32L4xx_HAL_Driver/Src/stm32l4xx_hal_dac.c ****   /* Enable the DMA channel */
 748:../../drivers/third_party/ST/STM32L4xx_HAL_Driver/Src/stm32l4xx_hal_dac.c ****   if(Channel == DAC_CHANNEL_1)
 749:../../drivers/third_party/ST/STM32L4xx_HAL_Driver/Src/stm32l4xx_hal_dac.c ****   {
 750:../../drivers/third_party/ST/STM32L4xx_HAL_Driver/Src/stm32l4xx_hal_dac.c ****     /* Enable the DAC DMA underrun interrupt */
 751:../../drivers/third_party/ST/STM32L4xx_HAL_Driver/Src/stm32l4xx_hal_dac.c ****     __HAL_DAC_ENABLE_IT(hdac, DAC_IT_DMAUDR1);
 355              		.loc 1 751 0
 356 0044 0668     		ldr	r6, [r0]
 357 0046 46F40056 		orr	r6, r6, #8192
 358 004a 0660     		str	r6, [r0]
 752:../../drivers/third_party/ST/STM32L4xx_HAL_Driver/Src/stm32l4xx_hal_dac.c ****     
 753:../../drivers/third_party/ST/STM32L4xx_HAL_Driver/Src/stm32l4xx_hal_dac.c ****     /* Enable the DMA channel */
 754:../../drivers/third_party/ST/STM32L4xx_HAL_Driver/Src/stm32l4xx_hal_dac.c ****     HAL_DMA_Start_IT(hdac->DMA_Handle1, (uint32_t)pData, tmpreg, Length);
 359              		.loc 1 754 0
 360 004c A068     		ldr	r0, [r4, #8]
 361              	.L34:
 755:../../drivers/third_party/ST/STM32L4xx_HAL_Driver/Src/stm32l4xx_hal_dac.c ****   } 
 756:../../drivers/third_party/ST/STM32L4xx_HAL_Driver/Src/stm32l4xx_hal_dac.c ****   else
 757:../../drivers/third_party/ST/STM32L4xx_HAL_Driver/Src/stm32l4xx_hal_dac.c ****   {
 758:../../drivers/third_party/ST/STM32L4xx_HAL_Driver/Src/stm32l4xx_hal_dac.c ****     /* Enable the DAC DMA underrun interrupt */
 759:../../drivers/third_party/ST/STM32L4xx_HAL_Driver/Src/stm32l4xx_hal_dac.c ****     __HAL_DAC_ENABLE_IT(hdac, DAC_IT_DMAUDR2);
 760:../../drivers/third_party/ST/STM32L4xx_HAL_Driver/Src/stm32l4xx_hal_dac.c ****     
ARM GAS  C:\Users\LuckyE\AppData\Local\Temp\cca5DOBs.s 			page 21


 761:../../drivers/third_party/ST/STM32L4xx_HAL_Driver/Src/stm32l4xx_hal_dac.c ****     /* Enable the DMA channel */
 762:../../drivers/third_party/ST/STM32L4xx_HAL_Driver/Src/stm32l4xx_hal_dac.c ****     HAL_DMA_Start_IT(hdac->DMA_Handle2, (uint32_t)pData, tmpreg, Length);
 362              		.loc 1 762 0
 363 004e FFF7FEFF 		bl	HAL_DMA_Start_IT
 364              	.LVL20:
 763:../../drivers/third_party/ST/STM32L4xx_HAL_Driver/Src/stm32l4xx_hal_dac.c ****   }
 764:../../drivers/third_party/ST/STM32L4xx_HAL_Driver/Src/stm32l4xx_hal_dac.c ****   
 765:../../drivers/third_party/ST/STM32L4xx_HAL_Driver/Src/stm32l4xx_hal_dac.c ****   /* Process Unlocked */
 766:../../drivers/third_party/ST/STM32L4xx_HAL_Driver/Src/stm32l4xx_hal_dac.c ****   __HAL_UNLOCK(hdac);
 767:../../drivers/third_party/ST/STM32L4xx_HAL_Driver/Src/stm32l4xx_hal_dac.c **** 
 768:../../drivers/third_party/ST/STM32L4xx_HAL_Driver/Src/stm32l4xx_hal_dac.c ****   /* Enable the Peripheral */
 769:../../drivers/third_party/ST/STM32L4xx_HAL_Driver/Src/stm32l4xx_hal_dac.c ****   __HAL_DAC_ENABLE(hdac, Channel);
 365              		.loc 1 769 0
 366 0052 2368     		ldr	r3, [r4]
 367 0054 0121     		movs	r1, #1
 368 0056 1A68     		ldr	r2, [r3]
 369 0058 A940     		lsls	r1, r1, r5
 766:../../drivers/third_party/ST/STM32L4xx_HAL_Driver/Src/stm32l4xx_hal_dac.c **** 
 370              		.loc 1 766 0
 371 005a 0020     		movs	r0, #0
 372              		.loc 1 769 0
 373 005c 1143     		orrs	r1, r1, r2
 766:../../drivers/third_party/ST/STM32L4xx_HAL_Driver/Src/stm32l4xx_hal_dac.c **** 
 374              		.loc 1 766 0
 375 005e 6071     		strb	r0, [r4, #5]
 376              		.loc 1 769 0
 377 0060 1960     		str	r1, [r3]
 378              	.L18:
 770:../../drivers/third_party/ST/STM32L4xx_HAL_Driver/Src/stm32l4xx_hal_dac.c ****   
 771:../../drivers/third_party/ST/STM32L4xx_HAL_Driver/Src/stm32l4xx_hal_dac.c ****   /* Return function status */
 772:../../drivers/third_party/ST/STM32L4xx_HAL_Driver/Src/stm32l4xx_hal_dac.c ****   return HAL_OK;
 773:../../drivers/third_party/ST/STM32L4xx_HAL_Driver/Src/stm32l4xx_hal_dac.c **** }
 379              		.loc 1 773 0
 380 0062 F8BD     		pop	{r3, r4, r5, r6, r7, pc}
 381              	.LVL21:
 382              	.L21:
 703:../../drivers/third_party/ST/STM32L4xx_HAL_Driver/Src/stm32l4xx_hal_dac.c ****         break;
 383              		.loc 1 703 0
 384 0064 00F10C02 		add	r2, r0, #12
 385              	.LVL22:
 704:../../drivers/third_party/ST/STM32L4xx_HAL_Driver/Src/stm32l4xx_hal_dac.c ****       case DAC_ALIGN_8B_R:
 386              		.loc 1 704 0
 387 0068 ECE7     		b	.L24
 388              	.LVL23:
 389              	.L22:
 707:../../drivers/third_party/ST/STM32L4xx_HAL_Driver/Src/stm32l4xx_hal_dac.c ****         break;
 390              		.loc 1 707 0
 391 006a 00F11002 		add	r2, r0, #16
 392              	.LVL24:
 708:../../drivers/third_party/ST/STM32L4xx_HAL_Driver/Src/stm32l4xx_hal_dac.c ****       default:
 393              		.loc 1 708 0
 394 006e E9E7     		b	.L24
 395              	.LVL25:
 396              	.L19:
 716:../../drivers/third_party/ST/STM32L4xx_HAL_Driver/Src/stm32l4xx_hal_dac.c ****     
 397              		.loc 1 716 0
 398 0070 E668     		ldr	r6, [r4, #12]
ARM GAS  C:\Users\LuckyE\AppData\Local\Temp\cca5DOBs.s 			page 22


 399 0072 134F     		ldr	r7, .L35+12
 400 0074 F762     		str	r7, [r6, #44]
 719:../../drivers/third_party/ST/STM32L4xx_HAL_Driver/Src/stm32l4xx_hal_dac.c ****        
 401              		.loc 1 719 0
 402 0076 134F     		ldr	r7, .L35+16
 403 0078 3763     		str	r7, [r6, #48]
 722:../../drivers/third_party/ST/STM32L4xx_HAL_Driver/Src/stm32l4xx_hal_dac.c ****     
 404              		.loc 1 722 0
 405 007a 134F     		ldr	r7, .L35+20
 406 007c 7763     		str	r7, [r6, #52]
 725:../../drivers/third_party/ST/STM32L4xx_HAL_Driver/Src/stm32l4xx_hal_dac.c ****     
 407              		.loc 1 725 0
 408 007e 0668     		ldr	r6, [r0]
 728:../../drivers/third_party/ST/STM32L4xx_HAL_Driver/Src/stm32l4xx_hal_dac.c ****     {
 409              		.loc 1 728 0
 410 0080 042A     		cmp	r2, #4
 725:../../drivers/third_party/ST/STM32L4xx_HAL_Driver/Src/stm32l4xx_hal_dac.c ****     
 411              		.loc 1 725 0
 412 0082 46F08056 		orr	r6, r6, #268435456
 413 0086 0660     		str	r6, [r0]
 728:../../drivers/third_party/ST/STM32L4xx_HAL_Driver/Src/stm32l4xx_hal_dac.c ****     {
 414              		.loc 1 728 0
 415 0088 0AD0     		beq	.L25
 416 008a 082A     		cmp	r2, #8
 417 008c 0BD0     		beq	.L26
 418 008e 6AB9     		cbnz	r2, .L33
 732:../../drivers/third_party/ST/STM32L4xx_HAL_Driver/Src/stm32l4xx_hal_dac.c ****         break;
 419              		.loc 1 732 0
 420 0090 00F11402 		add	r2, r0, #20
 421              	.LVL26:
 422              	.L28:
 759:../../drivers/third_party/ST/STM32L4xx_HAL_Driver/Src/stm32l4xx_hal_dac.c ****     
 423              		.loc 1 759 0
 424 0094 0668     		ldr	r6, [r0]
 425 0096 46F00056 		orr	r6, r6, #536870912
 426 009a 0660     		str	r6, [r0]
 762:../../drivers/third_party/ST/STM32L4xx_HAL_Driver/Src/stm32l4xx_hal_dac.c ****   }
 427              		.loc 1 762 0
 428 009c E068     		ldr	r0, [r4, #12]
 429 009e D6E7     		b	.L34
 430              	.LVL27:
 431              	.L25:
 736:../../drivers/third_party/ST/STM32L4xx_HAL_Driver/Src/stm32l4xx_hal_dac.c ****         break;
 432              		.loc 1 736 0
 433 00a0 00F11802 		add	r2, r0, #24
 434              	.LVL28:
 737:../../drivers/third_party/ST/STM32L4xx_HAL_Driver/Src/stm32l4xx_hal_dac.c ****       case DAC_ALIGN_8B_R:
 435              		.loc 1 737 0
 436 00a4 F6E7     		b	.L28
 437              	.LVL29:
 438              	.L26:
 740:../../drivers/third_party/ST/STM32L4xx_HAL_Driver/Src/stm32l4xx_hal_dac.c ****         break;
 439              		.loc 1 740 0
 440 00a6 00F11C02 		add	r2, r0, #28
 741:../../drivers/third_party/ST/STM32L4xx_HAL_Driver/Src/stm32l4xx_hal_dac.c ****       default:
 441              		.loc 1 741 0
 442 00aa F3E7     		b	.L28
ARM GAS  C:\Users\LuckyE\AppData\Local\Temp\cca5DOBs.s 			page 23


 443              	.L33:
 444 00ac 0022     		movs	r2, #0
 445 00ae F1E7     		b	.L28
 446              	.L32:
 447 00b0 2A46     		mov	r2, r5
 448 00b2 C7E7     		b	.L24
 449              	.L36:
 450              		.align	2
 451              	.L35:
 452 00b4 00000000 		.word	DAC_DMAConvCpltCh1
 453 00b8 00000000 		.word	DAC_DMAHalfConvCpltCh1
 454 00bc 00000000 		.word	DAC_DMAErrorCh1
 455 00c0 00000000 		.word	DAC_DMAConvCpltCh2
 456 00c4 00000000 		.word	DAC_DMAHalfConvCpltCh2
 457 00c8 00000000 		.word	DAC_DMAErrorCh2
 458              		.cfi_endproc
 459              	.LFE286:
 461              		.section	.text.HAL_DAC_Stop_DMA,"ax",%progbits
 462              		.align	1
 463              		.global	HAL_DAC_Stop_DMA
 464              		.syntax unified
 465              		.thumb
 466              		.thumb_func
 467              		.fpu fpv4-sp-d16
 469              	HAL_DAC_Stop_DMA:
 470              	.LFB287:
 774:../../drivers/third_party/ST/STM32L4xx_HAL_Driver/Src/stm32l4xx_hal_dac.c **** #endif  /* STM32L431xx STM32L432xx STM32L433xx STM32L442xx STM32L443xx                         */
 775:../../drivers/third_party/ST/STM32L4xx_HAL_Driver/Src/stm32l4xx_hal_dac.c ****         /* STM32L471xx STM32L475xx STM32L476xx STM32L485xx STM32L486xx STM32L496xx STM32L4A6xx */
 776:../../drivers/third_party/ST/STM32L4xx_HAL_Driver/Src/stm32l4xx_hal_dac.c ****         /* STM32L4R5xx STM32L4R7xx STM32L4R9xx STM32L4S5xx STM32L4S7xx STM32L4S9xx             */
 777:../../drivers/third_party/ST/STM32L4xx_HAL_Driver/Src/stm32l4xx_hal_dac.c **** 
 778:../../drivers/third_party/ST/STM32L4xx_HAL_Driver/Src/stm32l4xx_hal_dac.c **** /**
 779:../../drivers/third_party/ST/STM32L4xx_HAL_Driver/Src/stm32l4xx_hal_dac.c ****   * @brief  Disables DAC and stop conversion of channel.
 780:../../drivers/third_party/ST/STM32L4xx_HAL_Driver/Src/stm32l4xx_hal_dac.c ****   * @param  hdac: pointer to a DAC_HandleTypeDef structure that contains
 781:../../drivers/third_party/ST/STM32L4xx_HAL_Driver/Src/stm32l4xx_hal_dac.c ****   *         the configuration information for the specified DAC.
 782:../../drivers/third_party/ST/STM32L4xx_HAL_Driver/Src/stm32l4xx_hal_dac.c ****   * @param  Channel: The selected DAC channel. 
 783:../../drivers/third_party/ST/STM32L4xx_HAL_Driver/Src/stm32l4xx_hal_dac.c ****   *          This parameter can be one of the following values:
 784:../../drivers/third_party/ST/STM32L4xx_HAL_Driver/Src/stm32l4xx_hal_dac.c ****   *            @arg DAC_CHANNEL_1: DAC Channel1 selected
 785:../../drivers/third_party/ST/STM32L4xx_HAL_Driver/Src/stm32l4xx_hal_dac.c ****   *            @arg DAC_CHANNEL_2: DAC Channel2 selected   
 786:../../drivers/third_party/ST/STM32L4xx_HAL_Driver/Src/stm32l4xx_hal_dac.c ****   * @retval HAL status
 787:../../drivers/third_party/ST/STM32L4xx_HAL_Driver/Src/stm32l4xx_hal_dac.c ****   */
 788:../../drivers/third_party/ST/STM32L4xx_HAL_Driver/Src/stm32l4xx_hal_dac.c **** HAL_StatusTypeDef HAL_DAC_Stop_DMA(DAC_HandleTypeDef* hdac, uint32_t Channel)
 789:../../drivers/third_party/ST/STM32L4xx_HAL_Driver/Src/stm32l4xx_hal_dac.c **** {
 471              		.loc 1 789 0
 472              		.cfi_startproc
 473              		@ args = 0, pretend = 0, frame = 0
 474              		@ frame_needed = 0, uses_anonymous_args = 0
 475              	.LVL30:
 790:../../drivers/third_party/ST/STM32L4xx_HAL_Driver/Src/stm32l4xx_hal_dac.c ****    HAL_StatusTypeDef status = HAL_OK;
 791:../../drivers/third_party/ST/STM32L4xx_HAL_Driver/Src/stm32l4xx_hal_dac.c ****     
 792:../../drivers/third_party/ST/STM32L4xx_HAL_Driver/Src/stm32l4xx_hal_dac.c ****   /* Check the parameters */
 793:../../drivers/third_party/ST/STM32L4xx_HAL_Driver/Src/stm32l4xx_hal_dac.c ****   assert_param(IS_DAC_CHANNEL(Channel));
 794:../../drivers/third_party/ST/STM32L4xx_HAL_Driver/Src/stm32l4xx_hal_dac.c ****   
 795:../../drivers/third_party/ST/STM32L4xx_HAL_Driver/Src/stm32l4xx_hal_dac.c ****   /* Disable the selected DAC channel DMA request */
 796:../../drivers/third_party/ST/STM32L4xx_HAL_Driver/Src/stm32l4xx_hal_dac.c ****     hdac->Instance->CR &= ~(DAC_CR_DMAEN1 << Channel);
 476              		.loc 1 796 0
 477 0000 0368     		ldr	r3, [r0]
 789:../../drivers/third_party/ST/STM32L4xx_HAL_Driver/Src/stm32l4xx_hal_dac.c ****    HAL_StatusTypeDef status = HAL_OK;
ARM GAS  C:\Users\LuckyE\AppData\Local\Temp\cca5DOBs.s 			page 24


 478              		.loc 1 789 0
 479 0002 10B5     		push	{r4, lr}
 480              	.LCFI5:
 481              		.cfi_def_cfa_offset 8
 482              		.cfi_offset 4, -8
 483              		.cfi_offset 14, -4
 484              		.loc 1 796 0
 485 0004 1A68     		ldr	r2, [r3]
 789:../../drivers/third_party/ST/STM32L4xx_HAL_Driver/Src/stm32l4xx_hal_dac.c ****    HAL_StatusTypeDef status = HAL_OK;
 486              		.loc 1 789 0
 487 0006 0446     		mov	r4, r0
 488              		.loc 1 796 0
 489 0008 4FF48050 		mov	r0, #4096
 490              	.LVL31:
 491 000c 8840     		lsls	r0, r0, r1
 492 000e 22EA0002 		bic	r2, r2, r0
 493 0012 1A60     		str	r2, [r3]
 797:../../drivers/third_party/ST/STM32L4xx_HAL_Driver/Src/stm32l4xx_hal_dac.c ****     
 798:../../drivers/third_party/ST/STM32L4xx_HAL_Driver/Src/stm32l4xx_hal_dac.c ****   /* Disable the Peripheral */
 799:../../drivers/third_party/ST/STM32L4xx_HAL_Driver/Src/stm32l4xx_hal_dac.c ****   __HAL_DAC_DISABLE(hdac, Channel);
 494              		.loc 1 799 0
 495 0014 1A68     		ldr	r2, [r3]
 496 0016 0120     		movs	r0, #1
 497 0018 8840     		lsls	r0, r0, r1
 498 001a 22EA0002 		bic	r2, r2, r0
 499 001e 1A60     		str	r2, [r3]
 800:../../drivers/third_party/ST/STM32L4xx_HAL_Driver/Src/stm32l4xx_hal_dac.c ****   
 801:../../drivers/third_party/ST/STM32L4xx_HAL_Driver/Src/stm32l4xx_hal_dac.c ****   /* Disable the DMA channel */
 802:../../drivers/third_party/ST/STM32L4xx_HAL_Driver/Src/stm32l4xx_hal_dac.c **** #if defined (STM32L431xx) || defined (STM32L432xx) || defined (STM32L433xx) || defined (STM32L442xx
 803:../../drivers/third_party/ST/STM32L4xx_HAL_Driver/Src/stm32l4xx_hal_dac.c ****     defined (STM32L471xx) || defined (STM32L475xx) || defined (STM32L476xx) || defined (STM32L485xx
 804:../../drivers/third_party/ST/STM32L4xx_HAL_Driver/Src/stm32l4xx_hal_dac.c ****     defined (STM32L4R5xx) || defined (STM32L4R7xx) || defined (STM32L4R9xx) || defined (STM32L4S5xx
 805:../../drivers/third_party/ST/STM32L4xx_HAL_Driver/Src/stm32l4xx_hal_dac.c ****   /* Channel1 is used */
 806:../../drivers/third_party/ST/STM32L4xx_HAL_Driver/Src/stm32l4xx_hal_dac.c ****   if (Channel == DAC_CHANNEL_1)
 500              		.loc 1 806 0
 501 0020 59B9     		cbnz	r1, .L38
 807:../../drivers/third_party/ST/STM32L4xx_HAL_Driver/Src/stm32l4xx_hal_dac.c ****   {
 808:../../drivers/third_party/ST/STM32L4xx_HAL_Driver/Src/stm32l4xx_hal_dac.c ****     /* Disable the DMA channel */
 809:../../drivers/third_party/ST/STM32L4xx_HAL_Driver/Src/stm32l4xx_hal_dac.c ****     status = HAL_DMA_Abort(hdac->DMA_Handle1);
 502              		.loc 1 809 0
 503 0022 A068     		ldr	r0, [r4, #8]
 504 0024 FFF7FEFF 		bl	HAL_DMA_Abort
 505              	.LVL32:
 810:../../drivers/third_party/ST/STM32L4xx_HAL_Driver/Src/stm32l4xx_hal_dac.c ****     
 811:../../drivers/third_party/ST/STM32L4xx_HAL_Driver/Src/stm32l4xx_hal_dac.c ****     /* Disable the DAC DMA underrun interrupt */
 812:../../drivers/third_party/ST/STM32L4xx_HAL_Driver/Src/stm32l4xx_hal_dac.c ****     __HAL_DAC_DISABLE_IT(hdac, DAC_IT_DMAUDR1);
 506              		.loc 1 812 0
 507 0028 2268     		ldr	r2, [r4]
 508 002a 1368     		ldr	r3, [r2]
 509 002c 23F40053 		bic	r3, r3, #8192
 510              	.L42:
 813:../../drivers/third_party/ST/STM32L4xx_HAL_Driver/Src/stm32l4xx_hal_dac.c ****   }
 814:../../drivers/third_party/ST/STM32L4xx_HAL_Driver/Src/stm32l4xx_hal_dac.c ****   else /* Channel2 is used for */
 815:../../drivers/third_party/ST/STM32L4xx_HAL_Driver/Src/stm32l4xx_hal_dac.c ****   {
 816:../../drivers/third_party/ST/STM32L4xx_HAL_Driver/Src/stm32l4xx_hal_dac.c ****     /* Disable the DMA channel */
 817:../../drivers/third_party/ST/STM32L4xx_HAL_Driver/Src/stm32l4xx_hal_dac.c ****     status = HAL_DMA_Abort(hdac->DMA_Handle2);
 818:../../drivers/third_party/ST/STM32L4xx_HAL_Driver/Src/stm32l4xx_hal_dac.c ****     
 819:../../drivers/third_party/ST/STM32L4xx_HAL_Driver/Src/stm32l4xx_hal_dac.c ****     /* Disable the DAC DMA underrun interrupt */
ARM GAS  C:\Users\LuckyE\AppData\Local\Temp\cca5DOBs.s 			page 25


 820:../../drivers/third_party/ST/STM32L4xx_HAL_Driver/Src/stm32l4xx_hal_dac.c ****     __HAL_DAC_DISABLE_IT(hdac, DAC_IT_DMAUDR2);
 511              		.loc 1 820 0
 512 0030 1360     		str	r3, [r2]
 821:../../drivers/third_party/ST/STM32L4xx_HAL_Driver/Src/stm32l4xx_hal_dac.c ****   }
 822:../../drivers/third_party/ST/STM32L4xx_HAL_Driver/Src/stm32l4xx_hal_dac.c **** #endif  /* STM32L431xx STM32L432xx STM32L433xx STM32L442xx STM32L443xx                         */
 823:../../drivers/third_party/ST/STM32L4xx_HAL_Driver/Src/stm32l4xx_hal_dac.c ****         /* STM32L471xx STM32L475xx STM32L476xx STM32L485xx STM32L486xx STM32L496xx STM32L4A6xx */
 824:../../drivers/third_party/ST/STM32L4xx_HAL_Driver/Src/stm32l4xx_hal_dac.c ****         /* STM32L4R5xx STM32L4R7xx STM32L4R9xx STM32L4S5xx STM32L4S7xx STM32L4S9xx             */
 825:../../drivers/third_party/ST/STM32L4xx_HAL_Driver/Src/stm32l4xx_hal_dac.c **** 
 826:../../drivers/third_party/ST/STM32L4xx_HAL_Driver/Src/stm32l4xx_hal_dac.c **** #if defined (STM32L451xx) || defined (STM32L452xx) || defined (STM32L462xx)
 827:../../drivers/third_party/ST/STM32L4xx_HAL_Driver/Src/stm32l4xx_hal_dac.c ****   /* Disable the DMA channel */
 828:../../drivers/third_party/ST/STM32L4xx_HAL_Driver/Src/stm32l4xx_hal_dac.c ****   status = HAL_DMA_Abort(hdac->DMA_Handle1);
 829:../../drivers/third_party/ST/STM32L4xx_HAL_Driver/Src/stm32l4xx_hal_dac.c ****     
 830:../../drivers/third_party/ST/STM32L4xx_HAL_Driver/Src/stm32l4xx_hal_dac.c ****   /* Disable the DAC DMA underrun interrupt */
 831:../../drivers/third_party/ST/STM32L4xx_HAL_Driver/Src/stm32l4xx_hal_dac.c ****   __HAL_DAC_DISABLE_IT(hdac, DAC_IT_DMAUDR1);
 832:../../drivers/third_party/ST/STM32L4xx_HAL_Driver/Src/stm32l4xx_hal_dac.c **** #endif /* STM32L451xx STM32L452xx STM32L462xx */  
 833:../../drivers/third_party/ST/STM32L4xx_HAL_Driver/Src/stm32l4xx_hal_dac.c ****   
 834:../../drivers/third_party/ST/STM32L4xx_HAL_Driver/Src/stm32l4xx_hal_dac.c ****   /* Check if DMA Channel effectively disabled */
 835:../../drivers/third_party/ST/STM32L4xx_HAL_Driver/Src/stm32l4xx_hal_dac.c ****   if (status != HAL_OK)
 513              		.loc 1 835 0
 514 0032 50B1     		cbz	r0, .L40
 836:../../drivers/third_party/ST/STM32L4xx_HAL_Driver/Src/stm32l4xx_hal_dac.c ****   {
 837:../../drivers/third_party/ST/STM32L4xx_HAL_Driver/Src/stm32l4xx_hal_dac.c ****     /* Update DAC state machine to error */
 838:../../drivers/third_party/ST/STM32L4xx_HAL_Driver/Src/stm32l4xx_hal_dac.c ****     hdac->State = HAL_DAC_STATE_ERROR;
 515              		.loc 1 838 0
 516 0034 0423     		movs	r3, #4
 517              	.L43:
 839:../../drivers/third_party/ST/STM32L4xx_HAL_Driver/Src/stm32l4xx_hal_dac.c ****   }
 840:../../drivers/third_party/ST/STM32L4xx_HAL_Driver/Src/stm32l4xx_hal_dac.c ****   else
 841:../../drivers/third_party/ST/STM32L4xx_HAL_Driver/Src/stm32l4xx_hal_dac.c ****   {
 842:../../drivers/third_party/ST/STM32L4xx_HAL_Driver/Src/stm32l4xx_hal_dac.c ****     /* Change DAC state */
 843:../../drivers/third_party/ST/STM32L4xx_HAL_Driver/Src/stm32l4xx_hal_dac.c ****     hdac->State = HAL_DAC_STATE_READY;
 518              		.loc 1 843 0
 519 0036 2371     		strb	r3, [r4, #4]
 844:../../drivers/third_party/ST/STM32L4xx_HAL_Driver/Src/stm32l4xx_hal_dac.c ****   }
 845:../../drivers/third_party/ST/STM32L4xx_HAL_Driver/Src/stm32l4xx_hal_dac.c ****   
 846:../../drivers/third_party/ST/STM32L4xx_HAL_Driver/Src/stm32l4xx_hal_dac.c ****   /* Return function status */
 847:../../drivers/third_party/ST/STM32L4xx_HAL_Driver/Src/stm32l4xx_hal_dac.c ****   return status;
 848:../../drivers/third_party/ST/STM32L4xx_HAL_Driver/Src/stm32l4xx_hal_dac.c **** }
 520              		.loc 1 848 0
 521 0038 10BD     		pop	{r4, pc}
 522              	.LVL33:
 523              	.L38:
 817:../../drivers/third_party/ST/STM32L4xx_HAL_Driver/Src/stm32l4xx_hal_dac.c ****     
 524              		.loc 1 817 0
 525 003a E068     		ldr	r0, [r4, #12]
 526 003c FFF7FEFF 		bl	HAL_DMA_Abort
 527              	.LVL34:
 820:../../drivers/third_party/ST/STM32L4xx_HAL_Driver/Src/stm32l4xx_hal_dac.c ****   }
 528              		.loc 1 820 0
 529 0040 2268     		ldr	r2, [r4]
 530 0042 1368     		ldr	r3, [r2]
 531 0044 23F00053 		bic	r3, r3, #536870912
 532 0048 F2E7     		b	.L42
 533              	.L40:
 843:../../drivers/third_party/ST/STM32L4xx_HAL_Driver/Src/stm32l4xx_hal_dac.c ****   }
 534              		.loc 1 843 0
 535 004a 0123     		movs	r3, #1
ARM GAS  C:\Users\LuckyE\AppData\Local\Temp\cca5DOBs.s 			page 26


 536 004c F3E7     		b	.L43
 537              		.cfi_endproc
 538              	.LFE287:
 540              		.section	.text.HAL_DAC_SetValue,"ax",%progbits
 541              		.align	1
 542              		.global	HAL_DAC_SetValue
 543              		.syntax unified
 544              		.thumb
 545              		.thumb_func
 546              		.fpu fpv4-sp-d16
 548              	HAL_DAC_SetValue:
 549              	.LFB289:
 849:../../drivers/third_party/ST/STM32L4xx_HAL_Driver/Src/stm32l4xx_hal_dac.c **** 
 850:../../drivers/third_party/ST/STM32L4xx_HAL_Driver/Src/stm32l4xx_hal_dac.c **** /* DAC channel 2 is available on top of DAC channel 1 in */
 851:../../drivers/third_party/ST/STM32L4xx_HAL_Driver/Src/stm32l4xx_hal_dac.c **** /* STM32L431xx STM32L432xx STM32L433xx STM32L442xx STM32L443xx                         */
 852:../../drivers/third_party/ST/STM32L4xx_HAL_Driver/Src/stm32l4xx_hal_dac.c **** /* STM32L471xx STM32L475xx STM32L476xx STM32L485xx STM32L486xx STM32L496xx STM32L4A6xx */
 853:../../drivers/third_party/ST/STM32L4xx_HAL_Driver/Src/stm32l4xx_hal_dac.c **** 
 854:../../drivers/third_party/ST/STM32L4xx_HAL_Driver/Src/stm32l4xx_hal_dac.c **** /**
 855:../../drivers/third_party/ST/STM32L4xx_HAL_Driver/Src/stm32l4xx_hal_dac.c ****   * @brief  Handles DAC interrupt request
 856:../../drivers/third_party/ST/STM32L4xx_HAL_Driver/Src/stm32l4xx_hal_dac.c ****   *         This function uses the interruption of DMA
 857:../../drivers/third_party/ST/STM32L4xx_HAL_Driver/Src/stm32l4xx_hal_dac.c ****   *         underrun.  
 858:../../drivers/third_party/ST/STM32L4xx_HAL_Driver/Src/stm32l4xx_hal_dac.c ****   * @param  hdac: pointer to a DAC_HandleTypeDef structure that contains
 859:../../drivers/third_party/ST/STM32L4xx_HAL_Driver/Src/stm32l4xx_hal_dac.c ****   *         the configuration information for the specified DAC.
 860:../../drivers/third_party/ST/STM32L4xx_HAL_Driver/Src/stm32l4xx_hal_dac.c ****   * @retval None
 861:../../drivers/third_party/ST/STM32L4xx_HAL_Driver/Src/stm32l4xx_hal_dac.c ****   */
 862:../../drivers/third_party/ST/STM32L4xx_HAL_Driver/Src/stm32l4xx_hal_dac.c **** void HAL_DAC_IRQHandler(DAC_HandleTypeDef* hdac)
 863:../../drivers/third_party/ST/STM32L4xx_HAL_Driver/Src/stm32l4xx_hal_dac.c **** {
 864:../../drivers/third_party/ST/STM32L4xx_HAL_Driver/Src/stm32l4xx_hal_dac.c ****   if(__HAL_DAC_GET_IT_SOURCE(hdac, DAC_IT_DMAUDR1))
 865:../../drivers/third_party/ST/STM32L4xx_HAL_Driver/Src/stm32l4xx_hal_dac.c ****   { 
 866:../../drivers/third_party/ST/STM32L4xx_HAL_Driver/Src/stm32l4xx_hal_dac.c ****     /* Check underrun flag of DAC channel 1 */
 867:../../drivers/third_party/ST/STM32L4xx_HAL_Driver/Src/stm32l4xx_hal_dac.c ****     if(__HAL_DAC_GET_FLAG(hdac, DAC_FLAG_DMAUDR1))
 868:../../drivers/third_party/ST/STM32L4xx_HAL_Driver/Src/stm32l4xx_hal_dac.c ****     {
 869:../../drivers/third_party/ST/STM32L4xx_HAL_Driver/Src/stm32l4xx_hal_dac.c ****       /* Change DAC state to error state */
 870:../../drivers/third_party/ST/STM32L4xx_HAL_Driver/Src/stm32l4xx_hal_dac.c ****       hdac->State = HAL_DAC_STATE_ERROR;
 871:../../drivers/third_party/ST/STM32L4xx_HAL_Driver/Src/stm32l4xx_hal_dac.c ****       
 872:../../drivers/third_party/ST/STM32L4xx_HAL_Driver/Src/stm32l4xx_hal_dac.c ****       /* Set DAC error code to chanel1 DMA underrun error */
 873:../../drivers/third_party/ST/STM32L4xx_HAL_Driver/Src/stm32l4xx_hal_dac.c ****       SET_BIT(hdac->ErrorCode, HAL_DAC_ERROR_DMAUNDERRUNCH1);
 874:../../drivers/third_party/ST/STM32L4xx_HAL_Driver/Src/stm32l4xx_hal_dac.c ****       
 875:../../drivers/third_party/ST/STM32L4xx_HAL_Driver/Src/stm32l4xx_hal_dac.c ****       /* Clear the underrun flag */
 876:../../drivers/third_party/ST/STM32L4xx_HAL_Driver/Src/stm32l4xx_hal_dac.c ****       __HAL_DAC_CLEAR_FLAG(hdac,DAC_FLAG_DMAUDR1);
 877:../../drivers/third_party/ST/STM32L4xx_HAL_Driver/Src/stm32l4xx_hal_dac.c ****       
 878:../../drivers/third_party/ST/STM32L4xx_HAL_Driver/Src/stm32l4xx_hal_dac.c ****       /* Disable the selected DAC channel1 DMA request */
 879:../../drivers/third_party/ST/STM32L4xx_HAL_Driver/Src/stm32l4xx_hal_dac.c ****       CLEAR_BIT(hdac->Instance->CR, DAC_CR_DMAEN1);
 880:../../drivers/third_party/ST/STM32L4xx_HAL_Driver/Src/stm32l4xx_hal_dac.c ****       
 881:../../drivers/third_party/ST/STM32L4xx_HAL_Driver/Src/stm32l4xx_hal_dac.c ****       /* Error callback */ 
 882:../../drivers/third_party/ST/STM32L4xx_HAL_Driver/Src/stm32l4xx_hal_dac.c ****       HAL_DAC_DMAUnderrunCallbackCh1(hdac);
 883:../../drivers/third_party/ST/STM32L4xx_HAL_Driver/Src/stm32l4xx_hal_dac.c ****     }
 884:../../drivers/third_party/ST/STM32L4xx_HAL_Driver/Src/stm32l4xx_hal_dac.c ****   }
 885:../../drivers/third_party/ST/STM32L4xx_HAL_Driver/Src/stm32l4xx_hal_dac.c **** #if defined (STM32L431xx) || defined (STM32L432xx) || defined (STM32L433xx) || defined (STM32L442xx
 886:../../drivers/third_party/ST/STM32L4xx_HAL_Driver/Src/stm32l4xx_hal_dac.c ****     defined (STM32L471xx) || defined (STM32L475xx) || defined (STM32L476xx) || defined (STM32L485xx
 887:../../drivers/third_party/ST/STM32L4xx_HAL_Driver/Src/stm32l4xx_hal_dac.c ****     defined (STM32L4R5xx) || defined (STM32L4R7xx) || defined (STM32L4R9xx) || defined (STM32L4S5xx
 888:../../drivers/third_party/ST/STM32L4xx_HAL_Driver/Src/stm32l4xx_hal_dac.c ****   if(__HAL_DAC_GET_IT_SOURCE(hdac, DAC_IT_DMAUDR2))
 889:../../drivers/third_party/ST/STM32L4xx_HAL_Driver/Src/stm32l4xx_hal_dac.c ****   {
 890:../../drivers/third_party/ST/STM32L4xx_HAL_Driver/Src/stm32l4xx_hal_dac.c ****     /* Check underrun flag of DAC channel 1 */
 891:../../drivers/third_party/ST/STM32L4xx_HAL_Driver/Src/stm32l4xx_hal_dac.c ****     if(__HAL_DAC_GET_FLAG(hdac, DAC_FLAG_DMAUDR2))
 892:../../drivers/third_party/ST/STM32L4xx_HAL_Driver/Src/stm32l4xx_hal_dac.c ****     {
 893:../../drivers/third_party/ST/STM32L4xx_HAL_Driver/Src/stm32l4xx_hal_dac.c ****       /* Change DAC state to error state */
ARM GAS  C:\Users\LuckyE\AppData\Local\Temp\cca5DOBs.s 			page 27


 894:../../drivers/third_party/ST/STM32L4xx_HAL_Driver/Src/stm32l4xx_hal_dac.c ****       hdac->State = HAL_DAC_STATE_ERROR;
 895:../../drivers/third_party/ST/STM32L4xx_HAL_Driver/Src/stm32l4xx_hal_dac.c ****       
 896:../../drivers/third_party/ST/STM32L4xx_HAL_Driver/Src/stm32l4xx_hal_dac.c ****       /* Set DAC error code to channel2 DMA underrun error */
 897:../../drivers/third_party/ST/STM32L4xx_HAL_Driver/Src/stm32l4xx_hal_dac.c ****       SET_BIT(hdac->ErrorCode, HAL_DAC_ERROR_DMAUNDERRUNCH2);
 898:../../drivers/third_party/ST/STM32L4xx_HAL_Driver/Src/stm32l4xx_hal_dac.c ****       
 899:../../drivers/third_party/ST/STM32L4xx_HAL_Driver/Src/stm32l4xx_hal_dac.c ****       /* Clear the underrun flag */
 900:../../drivers/third_party/ST/STM32L4xx_HAL_Driver/Src/stm32l4xx_hal_dac.c ****       __HAL_DAC_CLEAR_FLAG(hdac,DAC_FLAG_DMAUDR2);
 901:../../drivers/third_party/ST/STM32L4xx_HAL_Driver/Src/stm32l4xx_hal_dac.c ****       
 902:../../drivers/third_party/ST/STM32L4xx_HAL_Driver/Src/stm32l4xx_hal_dac.c ****       /* Disable the selected DAC channel1 DMA request */
 903:../../drivers/third_party/ST/STM32L4xx_HAL_Driver/Src/stm32l4xx_hal_dac.c ****       CLEAR_BIT(hdac->Instance->CR, DAC_CR_DMAEN2);
 904:../../drivers/third_party/ST/STM32L4xx_HAL_Driver/Src/stm32l4xx_hal_dac.c ****       
 905:../../drivers/third_party/ST/STM32L4xx_HAL_Driver/Src/stm32l4xx_hal_dac.c ****       /* Error callback */ 
 906:../../drivers/third_party/ST/STM32L4xx_HAL_Driver/Src/stm32l4xx_hal_dac.c ****       HAL_DACEx_DMAUnderrunCallbackCh2(hdac);
 907:../../drivers/third_party/ST/STM32L4xx_HAL_Driver/Src/stm32l4xx_hal_dac.c ****     }
 908:../../drivers/third_party/ST/STM32L4xx_HAL_Driver/Src/stm32l4xx_hal_dac.c ****   }
 909:../../drivers/third_party/ST/STM32L4xx_HAL_Driver/Src/stm32l4xx_hal_dac.c **** #endif  /* STM32L431xx STM32L432xx STM32L433xx STM32L442xx STM32L443xx                         */
 910:../../drivers/third_party/ST/STM32L4xx_HAL_Driver/Src/stm32l4xx_hal_dac.c ****         /* STM32L471xx STM32L475xx STM32L476xx STM32L485xx STM32L486xx STM32L496xx STM32L4A6xx */
 911:../../drivers/third_party/ST/STM32L4xx_HAL_Driver/Src/stm32l4xx_hal_dac.c ****         /* STM32L4R5xx STM32L4R7xx STM32L4R9xx STM32L4S5xx STM32L4S7xx STM32L4S9xx             */
 912:../../drivers/third_party/ST/STM32L4xx_HAL_Driver/Src/stm32l4xx_hal_dac.c **** }
 913:../../drivers/third_party/ST/STM32L4xx_HAL_Driver/Src/stm32l4xx_hal_dac.c **** 
 914:../../drivers/third_party/ST/STM32L4xx_HAL_Driver/Src/stm32l4xx_hal_dac.c **** /**
 915:../../drivers/third_party/ST/STM32L4xx_HAL_Driver/Src/stm32l4xx_hal_dac.c ****   * @brief  Set the specified data holding register value for DAC channel.
 916:../../drivers/third_party/ST/STM32L4xx_HAL_Driver/Src/stm32l4xx_hal_dac.c ****   * @param  hdac: pointer to a DAC_HandleTypeDef structure that contains
 917:../../drivers/third_party/ST/STM32L4xx_HAL_Driver/Src/stm32l4xx_hal_dac.c ****   *         the configuration information for the specified DAC.
 918:../../drivers/third_party/ST/STM32L4xx_HAL_Driver/Src/stm32l4xx_hal_dac.c ****   * @param  Channel: The selected DAC channel. 
 919:../../drivers/third_party/ST/STM32L4xx_HAL_Driver/Src/stm32l4xx_hal_dac.c ****   *          This parameter can be one of the following values:
 920:../../drivers/third_party/ST/STM32L4xx_HAL_Driver/Src/stm32l4xx_hal_dac.c ****   *            @arg DAC_CHANNEL_1: DAC Channel1 selected
 921:../../drivers/third_party/ST/STM32L4xx_HAL_Driver/Src/stm32l4xx_hal_dac.c ****   *            @arg DAC_CHANNEL_2: DAC Channel2 selected  
 922:../../drivers/third_party/ST/STM32L4xx_HAL_Driver/Src/stm32l4xx_hal_dac.c ****   * @param  Alignment: Specifies the data alignment.
 923:../../drivers/third_party/ST/STM32L4xx_HAL_Driver/Src/stm32l4xx_hal_dac.c ****   *          This parameter can be one of the following values:
 924:../../drivers/third_party/ST/STM32L4xx_HAL_Driver/Src/stm32l4xx_hal_dac.c ****   *            @arg DAC_ALIGN_8B_R: 8bit right data alignment selected
 925:../../drivers/third_party/ST/STM32L4xx_HAL_Driver/Src/stm32l4xx_hal_dac.c ****   *            @arg DAC_ALIGN_12B_L: 12bit left data alignment selected
 926:../../drivers/third_party/ST/STM32L4xx_HAL_Driver/Src/stm32l4xx_hal_dac.c ****   *            @arg DAC_ALIGN_12B_R: 12bit right data alignment selected
 927:../../drivers/third_party/ST/STM32L4xx_HAL_Driver/Src/stm32l4xx_hal_dac.c ****   * @param  Data: Data to be loaded in the selected data holding register.
 928:../../drivers/third_party/ST/STM32L4xx_HAL_Driver/Src/stm32l4xx_hal_dac.c ****   * @retval HAL status
 929:../../drivers/third_party/ST/STM32L4xx_HAL_Driver/Src/stm32l4xx_hal_dac.c ****   */
 930:../../drivers/third_party/ST/STM32L4xx_HAL_Driver/Src/stm32l4xx_hal_dac.c **** HAL_StatusTypeDef HAL_DAC_SetValue(DAC_HandleTypeDef* hdac, uint32_t Channel, uint32_t Alignment, u
 931:../../drivers/third_party/ST/STM32L4xx_HAL_Driver/Src/stm32l4xx_hal_dac.c **** {  
 550              		.loc 1 931 0
 551              		.cfi_startproc
 552              		@ args = 0, pretend = 0, frame = 8
 553              		@ frame_needed = 0, uses_anonymous_args = 0
 554              	.LVL35:
 555 0000 13B5     		push	{r0, r1, r4, lr}
 556              	.LCFI6:
 557              		.cfi_def_cfa_offset 16
 558              		.cfi_offset 4, -8
 559              		.cfi_offset 14, -4
 932:../../drivers/third_party/ST/STM32L4xx_HAL_Driver/Src/stm32l4xx_hal_dac.c ****   __IO uint32_t tmp = 0;
 560              		.loc 1 932 0
 561 0002 0024     		movs	r4, #0
 933:../../drivers/third_party/ST/STM32L4xx_HAL_Driver/Src/stm32l4xx_hal_dac.c ****   
 934:../../drivers/third_party/ST/STM32L4xx_HAL_Driver/Src/stm32l4xx_hal_dac.c ****   /* Check the parameters */
 935:../../drivers/third_party/ST/STM32L4xx_HAL_Driver/Src/stm32l4xx_hal_dac.c ****   assert_param(IS_DAC_CHANNEL(Channel));
 936:../../drivers/third_party/ST/STM32L4xx_HAL_Driver/Src/stm32l4xx_hal_dac.c ****   assert_param(IS_DAC_ALIGN(Alignment));
 937:../../drivers/third_party/ST/STM32L4xx_HAL_Driver/Src/stm32l4xx_hal_dac.c ****   assert_param(IS_DAC_DATA(Data));
 938:../../drivers/third_party/ST/STM32L4xx_HAL_Driver/Src/stm32l4xx_hal_dac.c ****   
ARM GAS  C:\Users\LuckyE\AppData\Local\Temp\cca5DOBs.s 			page 28


 939:../../drivers/third_party/ST/STM32L4xx_HAL_Driver/Src/stm32l4xx_hal_dac.c ****   tmp = (uint32_t)hdac->Instance; 
 562              		.loc 1 939 0
 563 0004 0068     		ldr	r0, [r0]
 564              	.LVL36:
 932:../../drivers/third_party/ST/STM32L4xx_HAL_Driver/Src/stm32l4xx_hal_dac.c ****   __IO uint32_t tmp = 0;
 565              		.loc 1 932 0
 566 0006 0194     		str	r4, [sp, #4]
 567              		.loc 1 939 0
 568 0008 0190     		str	r0, [sp, #4]
 940:../../drivers/third_party/ST/STM32L4xx_HAL_Driver/Src/stm32l4xx_hal_dac.c ****   if(Channel == DAC_CHANNEL_1)
 569              		.loc 1 940 0
 570 000a 41B9     		cbnz	r1, .L45
 941:../../drivers/third_party/ST/STM32L4xx_HAL_Driver/Src/stm32l4xx_hal_dac.c ****   {
 942:../../drivers/third_party/ST/STM32L4xx_HAL_Driver/Src/stm32l4xx_hal_dac.c ****     tmp += DAC_DHR12R1_ALIGNMENT(Alignment);
 571              		.loc 1 942 0
 572 000c 0199     		ldr	r1, [sp, #4]
 573              	.LVL37:
 574 000e 0831     		adds	r1, r1, #8
 575              	.L47:
 943:../../drivers/third_party/ST/STM32L4xx_HAL_Driver/Src/stm32l4xx_hal_dac.c ****   }
 944:../../drivers/third_party/ST/STM32L4xx_HAL_Driver/Src/stm32l4xx_hal_dac.c ****   else
 945:../../drivers/third_party/ST/STM32L4xx_HAL_Driver/Src/stm32l4xx_hal_dac.c ****   {
 946:../../drivers/third_party/ST/STM32L4xx_HAL_Driver/Src/stm32l4xx_hal_dac.c ****     tmp += DAC_DHR12R2_ALIGNMENT(Alignment);
 576              		.loc 1 946 0
 577 0010 0A44     		add	r2, r2, r1
 578              	.LVL38:
 579 0012 0192     		str	r2, [sp, #4]
 947:../../drivers/third_party/ST/STM32L4xx_HAL_Driver/Src/stm32l4xx_hal_dac.c ****   }
 948:../../drivers/third_party/ST/STM32L4xx_HAL_Driver/Src/stm32l4xx_hal_dac.c **** 
 949:../../drivers/third_party/ST/STM32L4xx_HAL_Driver/Src/stm32l4xx_hal_dac.c ****   /* Set the DAC channel selected data holding register */
 950:../../drivers/third_party/ST/STM32L4xx_HAL_Driver/Src/stm32l4xx_hal_dac.c ****   *(__IO uint32_t *) tmp = Data;
 580              		.loc 1 950 0
 581 0014 019A     		ldr	r2, [sp, #4]
 951:../../drivers/third_party/ST/STM32L4xx_HAL_Driver/Src/stm32l4xx_hal_dac.c ****   
 952:../../drivers/third_party/ST/STM32L4xx_HAL_Driver/Src/stm32l4xx_hal_dac.c ****   /* Return function status */
 953:../../drivers/third_party/ST/STM32L4xx_HAL_Driver/Src/stm32l4xx_hal_dac.c ****   return HAL_OK;
 954:../../drivers/third_party/ST/STM32L4xx_HAL_Driver/Src/stm32l4xx_hal_dac.c **** }
 582              		.loc 1 954 0
 583 0016 0020     		movs	r0, #0
 950:../../drivers/third_party/ST/STM32L4xx_HAL_Driver/Src/stm32l4xx_hal_dac.c ****   
 584              		.loc 1 950 0
 585 0018 1360     		str	r3, [r2]
 586              		.loc 1 954 0
 587 001a 02B0     		add	sp, sp, #8
 588              	.LCFI7:
 589              		.cfi_remember_state
 590              		.cfi_def_cfa_offset 8
 591              		@ sp needed
 592 001c 10BD     		pop	{r4, pc}
 593              	.LVL39:
 594              	.L45:
 595              	.LCFI8:
 596              		.cfi_restore_state
 946:../../drivers/third_party/ST/STM32L4xx_HAL_Driver/Src/stm32l4xx_hal_dac.c ****   }
 597              		.loc 1 946 0
 598 001e 0199     		ldr	r1, [sp, #4]
 599              	.LVL40:
ARM GAS  C:\Users\LuckyE\AppData\Local\Temp\cca5DOBs.s 			page 29


 600 0020 1431     		adds	r1, r1, #20
 601 0022 F5E7     		b	.L47
 602              		.cfi_endproc
 603              	.LFE289:
 605              		.section	.text.HAL_DAC_ConvCpltCallbackCh1,"ax",%progbits
 606              		.align	1
 607              		.weak	HAL_DAC_ConvCpltCallbackCh1
 608              		.syntax unified
 609              		.thumb
 610              		.thumb_func
 611              		.fpu fpv4-sp-d16
 613              	HAL_DAC_ConvCpltCallbackCh1:
 614              	.LFB304:
 615              		.cfi_startproc
 616              		@ args = 0, pretend = 0, frame = 0
 617              		@ frame_needed = 0, uses_anonymous_args = 0
 618              		@ link register save eliminated.
 619 0000 7047     		bx	lr
 620              		.cfi_endproc
 621              	.LFE304:
 623              		.section	.text.DAC_DMAConvCpltCh1,"ax",%progbits
 624              		.align	1
 625              		.syntax unified
 626              		.thumb
 627              		.thumb_func
 628              		.fpu fpv4-sp-d16
 630              	DAC_DMAConvCpltCh1:
 631              	.LFB298:
 955:../../drivers/third_party/ST/STM32L4xx_HAL_Driver/Src/stm32l4xx_hal_dac.c **** 
 956:../../drivers/third_party/ST/STM32L4xx_HAL_Driver/Src/stm32l4xx_hal_dac.c **** /**
 957:../../drivers/third_party/ST/STM32L4xx_HAL_Driver/Src/stm32l4xx_hal_dac.c ****   * @brief  Conversion complete callback in non-blocking mode for Channel1 
 958:../../drivers/third_party/ST/STM32L4xx_HAL_Driver/Src/stm32l4xx_hal_dac.c ****   * @param  hdac: pointer to a DAC_HandleTypeDef structure that contains
 959:../../drivers/third_party/ST/STM32L4xx_HAL_Driver/Src/stm32l4xx_hal_dac.c ****   *         the configuration information for the specified DAC.
 960:../../drivers/third_party/ST/STM32L4xx_HAL_Driver/Src/stm32l4xx_hal_dac.c ****   * @retval None
 961:../../drivers/third_party/ST/STM32L4xx_HAL_Driver/Src/stm32l4xx_hal_dac.c ****   */
 962:../../drivers/third_party/ST/STM32L4xx_HAL_Driver/Src/stm32l4xx_hal_dac.c **** __weak void HAL_DAC_ConvCpltCallbackCh1(DAC_HandleTypeDef* hdac)
 963:../../drivers/third_party/ST/STM32L4xx_HAL_Driver/Src/stm32l4xx_hal_dac.c **** {
 964:../../drivers/third_party/ST/STM32L4xx_HAL_Driver/Src/stm32l4xx_hal_dac.c ****   /* Prevent unused argument(s) compilation warning */
 965:../../drivers/third_party/ST/STM32L4xx_HAL_Driver/Src/stm32l4xx_hal_dac.c ****   UNUSED(hdac);
 966:../../drivers/third_party/ST/STM32L4xx_HAL_Driver/Src/stm32l4xx_hal_dac.c **** 
 967:../../drivers/third_party/ST/STM32L4xx_HAL_Driver/Src/stm32l4xx_hal_dac.c ****   /* NOTE : This function should not be modified, when the callback is needed,
 968:../../drivers/third_party/ST/STM32L4xx_HAL_Driver/Src/stm32l4xx_hal_dac.c ****             the HAL_DAC_ConvCpltCallbackCh1 could be implemented in the user file
 969:../../drivers/third_party/ST/STM32L4xx_HAL_Driver/Src/stm32l4xx_hal_dac.c ****    */
 970:../../drivers/third_party/ST/STM32L4xx_HAL_Driver/Src/stm32l4xx_hal_dac.c **** }
 971:../../drivers/third_party/ST/STM32L4xx_HAL_Driver/Src/stm32l4xx_hal_dac.c **** 
 972:../../drivers/third_party/ST/STM32L4xx_HAL_Driver/Src/stm32l4xx_hal_dac.c **** /**
 973:../../drivers/third_party/ST/STM32L4xx_HAL_Driver/Src/stm32l4xx_hal_dac.c ****   * @brief  Conversion half DMA transfer callback in non-blocking mode for Channel1 
 974:../../drivers/third_party/ST/STM32L4xx_HAL_Driver/Src/stm32l4xx_hal_dac.c ****   * @param  hdac: pointer to a DAC_HandleTypeDef structure that contains
 975:../../drivers/third_party/ST/STM32L4xx_HAL_Driver/Src/stm32l4xx_hal_dac.c ****   *         the configuration information for the specified DAC.
 976:../../drivers/third_party/ST/STM32L4xx_HAL_Driver/Src/stm32l4xx_hal_dac.c ****   * @retval None
 977:../../drivers/third_party/ST/STM32L4xx_HAL_Driver/Src/stm32l4xx_hal_dac.c ****   */
 978:../../drivers/third_party/ST/STM32L4xx_HAL_Driver/Src/stm32l4xx_hal_dac.c **** __weak void HAL_DAC_ConvHalfCpltCallbackCh1(DAC_HandleTypeDef* hdac)
 979:../../drivers/third_party/ST/STM32L4xx_HAL_Driver/Src/stm32l4xx_hal_dac.c **** {
 980:../../drivers/third_party/ST/STM32L4xx_HAL_Driver/Src/stm32l4xx_hal_dac.c ****   /* Prevent unused argument(s) compilation warning */
 981:../../drivers/third_party/ST/STM32L4xx_HAL_Driver/Src/stm32l4xx_hal_dac.c ****   UNUSED(hdac);
 982:../../drivers/third_party/ST/STM32L4xx_HAL_Driver/Src/stm32l4xx_hal_dac.c **** 
 983:../../drivers/third_party/ST/STM32L4xx_HAL_Driver/Src/stm32l4xx_hal_dac.c ****   /* NOTE : This function should not be modified, when the callback is needed,
ARM GAS  C:\Users\LuckyE\AppData\Local\Temp\cca5DOBs.s 			page 30


 984:../../drivers/third_party/ST/STM32L4xx_HAL_Driver/Src/stm32l4xx_hal_dac.c ****             the HAL_DAC_ConvHalfCpltCallbackCh1 could be implemented in the user file
 985:../../drivers/third_party/ST/STM32L4xx_HAL_Driver/Src/stm32l4xx_hal_dac.c ****    */
 986:../../drivers/third_party/ST/STM32L4xx_HAL_Driver/Src/stm32l4xx_hal_dac.c **** }
 987:../../drivers/third_party/ST/STM32L4xx_HAL_Driver/Src/stm32l4xx_hal_dac.c **** 
 988:../../drivers/third_party/ST/STM32L4xx_HAL_Driver/Src/stm32l4xx_hal_dac.c **** /**
 989:../../drivers/third_party/ST/STM32L4xx_HAL_Driver/Src/stm32l4xx_hal_dac.c ****   * @brief  Error DAC callback for Channel1.
 990:../../drivers/third_party/ST/STM32L4xx_HAL_Driver/Src/stm32l4xx_hal_dac.c ****   * @param  hdac: pointer to a DAC_HandleTypeDef structure that contains
 991:../../drivers/third_party/ST/STM32L4xx_HAL_Driver/Src/stm32l4xx_hal_dac.c ****   *         the configuration information for the specified DAC.
 992:../../drivers/third_party/ST/STM32L4xx_HAL_Driver/Src/stm32l4xx_hal_dac.c ****   * @retval None
 993:../../drivers/third_party/ST/STM32L4xx_HAL_Driver/Src/stm32l4xx_hal_dac.c ****   */
 994:../../drivers/third_party/ST/STM32L4xx_HAL_Driver/Src/stm32l4xx_hal_dac.c **** __weak void HAL_DAC_ErrorCallbackCh1(DAC_HandleTypeDef *hdac)
 995:../../drivers/third_party/ST/STM32L4xx_HAL_Driver/Src/stm32l4xx_hal_dac.c **** {
 996:../../drivers/third_party/ST/STM32L4xx_HAL_Driver/Src/stm32l4xx_hal_dac.c ****   /* Prevent unused argument(s) compilation warning */
 997:../../drivers/third_party/ST/STM32L4xx_HAL_Driver/Src/stm32l4xx_hal_dac.c ****   UNUSED(hdac);
 998:../../drivers/third_party/ST/STM32L4xx_HAL_Driver/Src/stm32l4xx_hal_dac.c **** 
 999:../../drivers/third_party/ST/STM32L4xx_HAL_Driver/Src/stm32l4xx_hal_dac.c ****   /* NOTE : This function should not be modified, when the callback is needed,
1000:../../drivers/third_party/ST/STM32L4xx_HAL_Driver/Src/stm32l4xx_hal_dac.c ****             the HAL_DAC_ErrorCallbackCh1 could be implemented in the user file
1001:../../drivers/third_party/ST/STM32L4xx_HAL_Driver/Src/stm32l4xx_hal_dac.c ****    */
1002:../../drivers/third_party/ST/STM32L4xx_HAL_Driver/Src/stm32l4xx_hal_dac.c **** }
1003:../../drivers/third_party/ST/STM32L4xx_HAL_Driver/Src/stm32l4xx_hal_dac.c **** 
1004:../../drivers/third_party/ST/STM32L4xx_HAL_Driver/Src/stm32l4xx_hal_dac.c **** /**
1005:../../drivers/third_party/ST/STM32L4xx_HAL_Driver/Src/stm32l4xx_hal_dac.c ****   * @brief  DMA underrun DAC callback for channel1.
1006:../../drivers/third_party/ST/STM32L4xx_HAL_Driver/Src/stm32l4xx_hal_dac.c ****   * @param  hdac: pointer to a DAC_HandleTypeDef structure that contains
1007:../../drivers/third_party/ST/STM32L4xx_HAL_Driver/Src/stm32l4xx_hal_dac.c ****   *         the configuration information for the specified DAC.
1008:../../drivers/third_party/ST/STM32L4xx_HAL_Driver/Src/stm32l4xx_hal_dac.c ****   * @retval None
1009:../../drivers/third_party/ST/STM32L4xx_HAL_Driver/Src/stm32l4xx_hal_dac.c ****   */
1010:../../drivers/third_party/ST/STM32L4xx_HAL_Driver/Src/stm32l4xx_hal_dac.c **** __weak void HAL_DAC_DMAUnderrunCallbackCh1(DAC_HandleTypeDef *hdac)
1011:../../drivers/third_party/ST/STM32L4xx_HAL_Driver/Src/stm32l4xx_hal_dac.c **** {
1012:../../drivers/third_party/ST/STM32L4xx_HAL_Driver/Src/stm32l4xx_hal_dac.c ****   /* Prevent unused argument(s) compilation warning */
1013:../../drivers/third_party/ST/STM32L4xx_HAL_Driver/Src/stm32l4xx_hal_dac.c ****   UNUSED(hdac);
1014:../../drivers/third_party/ST/STM32L4xx_HAL_Driver/Src/stm32l4xx_hal_dac.c **** 
1015:../../drivers/third_party/ST/STM32L4xx_HAL_Driver/Src/stm32l4xx_hal_dac.c ****   /* NOTE : This function should not be modified, when the callback is needed,
1016:../../drivers/third_party/ST/STM32L4xx_HAL_Driver/Src/stm32l4xx_hal_dac.c ****             the HAL_DAC_DMAUnderrunCallbackCh1 could be implemented in the user file
1017:../../drivers/third_party/ST/STM32L4xx_HAL_Driver/Src/stm32l4xx_hal_dac.c ****    */
1018:../../drivers/third_party/ST/STM32L4xx_HAL_Driver/Src/stm32l4xx_hal_dac.c **** }
1019:../../drivers/third_party/ST/STM32L4xx_HAL_Driver/Src/stm32l4xx_hal_dac.c **** 
1020:../../drivers/third_party/ST/STM32L4xx_HAL_Driver/Src/stm32l4xx_hal_dac.c **** /**
1021:../../drivers/third_party/ST/STM32L4xx_HAL_Driver/Src/stm32l4xx_hal_dac.c ****   * @}
1022:../../drivers/third_party/ST/STM32L4xx_HAL_Driver/Src/stm32l4xx_hal_dac.c ****   */
1023:../../drivers/third_party/ST/STM32L4xx_HAL_Driver/Src/stm32l4xx_hal_dac.c ****   
1024:../../drivers/third_party/ST/STM32L4xx_HAL_Driver/Src/stm32l4xx_hal_dac.c **** /** @defgroup DAC_Exported_Functions_Group3 Peripheral Control functions
1025:../../drivers/third_party/ST/STM32L4xx_HAL_Driver/Src/stm32l4xx_hal_dac.c ****  *  @brief    Peripheral Control functions 
1026:../../drivers/third_party/ST/STM32L4xx_HAL_Driver/Src/stm32l4xx_hal_dac.c ****  *
1027:../../drivers/third_party/ST/STM32L4xx_HAL_Driver/Src/stm32l4xx_hal_dac.c **** @verbatim   
1028:../../drivers/third_party/ST/STM32L4xx_HAL_Driver/Src/stm32l4xx_hal_dac.c ****   ==============================================================================
1029:../../drivers/third_party/ST/STM32L4xx_HAL_Driver/Src/stm32l4xx_hal_dac.c ****              ##### Peripheral Control functions #####
1030:../../drivers/third_party/ST/STM32L4xx_HAL_Driver/Src/stm32l4xx_hal_dac.c ****   ==============================================================================  
1031:../../drivers/third_party/ST/STM32L4xx_HAL_Driver/Src/stm32l4xx_hal_dac.c ****     [..]  This section provides functions allowing to:
1032:../../drivers/third_party/ST/STM32L4xx_HAL_Driver/Src/stm32l4xx_hal_dac.c ****       (+) Configure channels. 
1033:../../drivers/third_party/ST/STM32L4xx_HAL_Driver/Src/stm32l4xx_hal_dac.c ****       (+) Set the specified data holding register value for DAC channel.
1034:../../drivers/third_party/ST/STM32L4xx_HAL_Driver/Src/stm32l4xx_hal_dac.c ****       
1035:../../drivers/third_party/ST/STM32L4xx_HAL_Driver/Src/stm32l4xx_hal_dac.c **** @endverbatim
1036:../../drivers/third_party/ST/STM32L4xx_HAL_Driver/Src/stm32l4xx_hal_dac.c ****   * @{
1037:../../drivers/third_party/ST/STM32L4xx_HAL_Driver/Src/stm32l4xx_hal_dac.c ****   */
1038:../../drivers/third_party/ST/STM32L4xx_HAL_Driver/Src/stm32l4xx_hal_dac.c **** 
1039:../../drivers/third_party/ST/STM32L4xx_HAL_Driver/Src/stm32l4xx_hal_dac.c **** /**
1040:../../drivers/third_party/ST/STM32L4xx_HAL_Driver/Src/stm32l4xx_hal_dac.c ****   * @brief  Returns the last data output value of the selected DAC channel.
ARM GAS  C:\Users\LuckyE\AppData\Local\Temp\cca5DOBs.s 			page 31


1041:../../drivers/third_party/ST/STM32L4xx_HAL_Driver/Src/stm32l4xx_hal_dac.c ****   * @param  hdac: pointer to a DAC_HandleTypeDef structure that contains
1042:../../drivers/third_party/ST/STM32L4xx_HAL_Driver/Src/stm32l4xx_hal_dac.c ****   *         the configuration information for the specified DAC.
1043:../../drivers/third_party/ST/STM32L4xx_HAL_Driver/Src/stm32l4xx_hal_dac.c ****   * @param  Channel: The selected DAC channel. 
1044:../../drivers/third_party/ST/STM32L4xx_HAL_Driver/Src/stm32l4xx_hal_dac.c ****   *          This parameter can be one of the following values:
1045:../../drivers/third_party/ST/STM32L4xx_HAL_Driver/Src/stm32l4xx_hal_dac.c ****   *            @arg DAC_CHANNEL_1: DAC Channel1 selected
1046:../../drivers/third_party/ST/STM32L4xx_HAL_Driver/Src/stm32l4xx_hal_dac.c ****   *            @arg DAC_CHANNEL_2: DAC Channel2 selected
1047:../../drivers/third_party/ST/STM32L4xx_HAL_Driver/Src/stm32l4xx_hal_dac.c ****   * @retval The selected DAC channel data output value.
1048:../../drivers/third_party/ST/STM32L4xx_HAL_Driver/Src/stm32l4xx_hal_dac.c ****   */
1049:../../drivers/third_party/ST/STM32L4xx_HAL_Driver/Src/stm32l4xx_hal_dac.c **** uint32_t HAL_DAC_GetValue(DAC_HandleTypeDef* hdac, uint32_t Channel)
1050:../../drivers/third_party/ST/STM32L4xx_HAL_Driver/Src/stm32l4xx_hal_dac.c **** {
1051:../../drivers/third_party/ST/STM32L4xx_HAL_Driver/Src/stm32l4xx_hal_dac.c ****   /* Check the parameters */
1052:../../drivers/third_party/ST/STM32L4xx_HAL_Driver/Src/stm32l4xx_hal_dac.c ****   assert_param(IS_DAC_CHANNEL(Channel));
1053:../../drivers/third_party/ST/STM32L4xx_HAL_Driver/Src/stm32l4xx_hal_dac.c ****   
1054:../../drivers/third_party/ST/STM32L4xx_HAL_Driver/Src/stm32l4xx_hal_dac.c ****   /* Returns the DAC channel data output register value */
1055:../../drivers/third_party/ST/STM32L4xx_HAL_Driver/Src/stm32l4xx_hal_dac.c **** #if defined (STM32L451xx) || defined (STM32L452xx) || defined (STM32L462xx)
1056:../../drivers/third_party/ST/STM32L4xx_HAL_Driver/Src/stm32l4xx_hal_dac.c ****   return hdac->Instance->DOR1;
1057:../../drivers/third_party/ST/STM32L4xx_HAL_Driver/Src/stm32l4xx_hal_dac.c **** #endif /* STM32L451xx STM32L452xx STM32L462xx */   
1058:../../drivers/third_party/ST/STM32L4xx_HAL_Driver/Src/stm32l4xx_hal_dac.c **** 
1059:../../drivers/third_party/ST/STM32L4xx_HAL_Driver/Src/stm32l4xx_hal_dac.c **** #if defined (STM32L431xx) || defined (STM32L432xx) || defined (STM32L433xx) || defined (STM32L442xx
1060:../../drivers/third_party/ST/STM32L4xx_HAL_Driver/Src/stm32l4xx_hal_dac.c ****     defined (STM32L471xx) || defined (STM32L475xx) || defined (STM32L476xx) || defined (STM32L485xx
1061:../../drivers/third_party/ST/STM32L4xx_HAL_Driver/Src/stm32l4xx_hal_dac.c ****     defined (STM32L4R5xx) || defined (STM32L4R7xx) || defined (STM32L4R9xx) || defined (STM32L4S5xx
1062:../../drivers/third_party/ST/STM32L4xx_HAL_Driver/Src/stm32l4xx_hal_dac.c ****   if(Channel == DAC_CHANNEL_1)
1063:../../drivers/third_party/ST/STM32L4xx_HAL_Driver/Src/stm32l4xx_hal_dac.c ****   {
1064:../../drivers/third_party/ST/STM32L4xx_HAL_Driver/Src/stm32l4xx_hal_dac.c ****     return hdac->Instance->DOR1;
1065:../../drivers/third_party/ST/STM32L4xx_HAL_Driver/Src/stm32l4xx_hal_dac.c ****   }
1066:../../drivers/third_party/ST/STM32L4xx_HAL_Driver/Src/stm32l4xx_hal_dac.c ****   else
1067:../../drivers/third_party/ST/STM32L4xx_HAL_Driver/Src/stm32l4xx_hal_dac.c ****   {
1068:../../drivers/third_party/ST/STM32L4xx_HAL_Driver/Src/stm32l4xx_hal_dac.c ****     return hdac->Instance->DOR2;
1069:../../drivers/third_party/ST/STM32L4xx_HAL_Driver/Src/stm32l4xx_hal_dac.c ****   }
1070:../../drivers/third_party/ST/STM32L4xx_HAL_Driver/Src/stm32l4xx_hal_dac.c **** #endif  /* STM32L431xx STM32L432xx STM32L433xx STM32L442xx STM32L443xx                         */
1071:../../drivers/third_party/ST/STM32L4xx_HAL_Driver/Src/stm32l4xx_hal_dac.c ****         /* STM32L471xx STM32L475xx STM32L476xx STM32L485xx STM32L486xx STM32L496xx STM32L4A6xx */
1072:../../drivers/third_party/ST/STM32L4xx_HAL_Driver/Src/stm32l4xx_hal_dac.c ****         /* STM32L4R5xx STM32L4R7xx STM32L4R9xx STM32L4S5xx STM32L4S7xx STM32L4S9xx             */
1073:../../drivers/third_party/ST/STM32L4xx_HAL_Driver/Src/stm32l4xx_hal_dac.c **** }
1074:../../drivers/third_party/ST/STM32L4xx_HAL_Driver/Src/stm32l4xx_hal_dac.c **** 
1075:../../drivers/third_party/ST/STM32L4xx_HAL_Driver/Src/stm32l4xx_hal_dac.c **** /**
1076:../../drivers/third_party/ST/STM32L4xx_HAL_Driver/Src/stm32l4xx_hal_dac.c ****   * @brief  Configures the selected DAC channel.
1077:../../drivers/third_party/ST/STM32L4xx_HAL_Driver/Src/stm32l4xx_hal_dac.c ****   * @param  hdac: pointer to a DAC_HandleTypeDef structure that contains
1078:../../drivers/third_party/ST/STM32L4xx_HAL_Driver/Src/stm32l4xx_hal_dac.c ****   *         the configuration information for the specified DAC.
1079:../../drivers/third_party/ST/STM32L4xx_HAL_Driver/Src/stm32l4xx_hal_dac.c ****   * @param  sConfig: DAC configuration structure.
1080:../../drivers/third_party/ST/STM32L4xx_HAL_Driver/Src/stm32l4xx_hal_dac.c ****   * @param  Channel: The selected DAC channel. 
1081:../../drivers/third_party/ST/STM32L4xx_HAL_Driver/Src/stm32l4xx_hal_dac.c ****   *          This parameter can be one of the following values:
1082:../../drivers/third_party/ST/STM32L4xx_HAL_Driver/Src/stm32l4xx_hal_dac.c ****   *            @arg DAC_CHANNEL_1: DAC Channel1 selected
1083:../../drivers/third_party/ST/STM32L4xx_HAL_Driver/Src/stm32l4xx_hal_dac.c ****   *            @arg DAC_CHANNEL_2: DAC Channel2 selected (Whenever present)
1084:../../drivers/third_party/ST/STM32L4xx_HAL_Driver/Src/stm32l4xx_hal_dac.c ****   * @retval HAL status
1085:../../drivers/third_party/ST/STM32L4xx_HAL_Driver/Src/stm32l4xx_hal_dac.c ****   */
1086:../../drivers/third_party/ST/STM32L4xx_HAL_Driver/Src/stm32l4xx_hal_dac.c **** HAL_StatusTypeDef HAL_DAC_ConfigChannel(DAC_HandleTypeDef* hdac, DAC_ChannelConfTypeDef* sConfig, u
1087:../../drivers/third_party/ST/STM32L4xx_HAL_Driver/Src/stm32l4xx_hal_dac.c **** {
1088:../../drivers/third_party/ST/STM32L4xx_HAL_Driver/Src/stm32l4xx_hal_dac.c ****   uint32_t tmpreg1 = 0, tmpreg2 = 0;
1089:../../drivers/third_party/ST/STM32L4xx_HAL_Driver/Src/stm32l4xx_hal_dac.c ****   uint32_t tickstart = 0;
1090:../../drivers/third_party/ST/STM32L4xx_HAL_Driver/Src/stm32l4xx_hal_dac.c **** #if defined (STM32L4R5xx) || defined (STM32L4R7xx) || defined (STM32L4R9xx) || defined (STM32L4S5xx
1091:../../drivers/third_party/ST/STM32L4xx_HAL_Driver/Src/stm32l4xx_hal_dac.c ****   uint32_t hclkfreq = 0;
1092:../../drivers/third_party/ST/STM32L4xx_HAL_Driver/Src/stm32l4xx_hal_dac.c **** #endif /* STM32L4R5xx STM32L4R7xx STM32L4R9xx STM32L4S5xx STM32L4S7xx STM32L4S9xx */ 
1093:../../drivers/third_party/ST/STM32L4xx_HAL_Driver/Src/stm32l4xx_hal_dac.c ****   
1094:../../drivers/third_party/ST/STM32L4xx_HAL_Driver/Src/stm32l4xx_hal_dac.c ****   /* Check the DAC parameters */ 
1095:../../drivers/third_party/ST/STM32L4xx_HAL_Driver/Src/stm32l4xx_hal_dac.c **** #if defined (STM32L4R5xx) || defined (STM32L4R7xx) || defined (STM32L4R9xx) || defined (STM32L4S5xx
1096:../../drivers/third_party/ST/STM32L4xx_HAL_Driver/Src/stm32l4xx_hal_dac.c ****   assert_param(IS_DAC_HIGH_FREQUENCY_MODE(sConfig->DAC_HighFrequency)); 
1097:../../drivers/third_party/ST/STM32L4xx_HAL_Driver/Src/stm32l4xx_hal_dac.c **** #endif /* STM32L4R5xx STM32L4R7xx STM32L4R9xx STM32L4S5xx STM32L4S7xx STM32L4S9xx */
ARM GAS  C:\Users\LuckyE\AppData\Local\Temp\cca5DOBs.s 			page 32


1098:../../drivers/third_party/ST/STM32L4xx_HAL_Driver/Src/stm32l4xx_hal_dac.c ****   assert_param(IS_DAC_TRIGGER(sConfig->DAC_Trigger));
1099:../../drivers/third_party/ST/STM32L4xx_HAL_Driver/Src/stm32l4xx_hal_dac.c ****   assert_param(IS_DAC_OUTPUT_BUFFER_STATE(sConfig->DAC_OutputBuffer));
1100:../../drivers/third_party/ST/STM32L4xx_HAL_Driver/Src/stm32l4xx_hal_dac.c ****   assert_param(IS_DAC_CHIP_CONNECTION(sConfig->DAC_ConnectOnChipPeripheral));
1101:../../drivers/third_party/ST/STM32L4xx_HAL_Driver/Src/stm32l4xx_hal_dac.c ****   assert_param(IS_DAC_TRIMMING(sConfig->DAC_UserTrimming));
1102:../../drivers/third_party/ST/STM32L4xx_HAL_Driver/Src/stm32l4xx_hal_dac.c ****   if ((sConfig->DAC_UserTrimming) == DAC_TRIMMING_USER)
1103:../../drivers/third_party/ST/STM32L4xx_HAL_Driver/Src/stm32l4xx_hal_dac.c ****   {
1104:../../drivers/third_party/ST/STM32L4xx_HAL_Driver/Src/stm32l4xx_hal_dac.c ****     assert_param(IS_DAC_TRIMMINGVALUE(sConfig->DAC_TrimmingValue));               
1105:../../drivers/third_party/ST/STM32L4xx_HAL_Driver/Src/stm32l4xx_hal_dac.c ****   }
1106:../../drivers/third_party/ST/STM32L4xx_HAL_Driver/Src/stm32l4xx_hal_dac.c ****   assert_param(IS_DAC_SAMPLEANDHOLD(sConfig->DAC_SampleAndHold));
1107:../../drivers/third_party/ST/STM32L4xx_HAL_Driver/Src/stm32l4xx_hal_dac.c ****   if ((sConfig->DAC_SampleAndHold) == DAC_SAMPLEANDHOLD_ENABLE)
1108:../../drivers/third_party/ST/STM32L4xx_HAL_Driver/Src/stm32l4xx_hal_dac.c ****   {
1109:../../drivers/third_party/ST/STM32L4xx_HAL_Driver/Src/stm32l4xx_hal_dac.c ****     assert_param(IS_DAC_SAMPLETIME(sConfig->DAC_SampleAndHoldConfig.DAC_SampleTime));
1110:../../drivers/third_party/ST/STM32L4xx_HAL_Driver/Src/stm32l4xx_hal_dac.c ****     assert_param(IS_DAC_HOLDTIME(sConfig->DAC_SampleAndHoldConfig.DAC_HoldTime));
1111:../../drivers/third_party/ST/STM32L4xx_HAL_Driver/Src/stm32l4xx_hal_dac.c ****     assert_param(IS_DAC_REFRESHTIME(sConfig->DAC_SampleAndHoldConfig.DAC_RefreshTime)); 
1112:../../drivers/third_party/ST/STM32L4xx_HAL_Driver/Src/stm32l4xx_hal_dac.c ****   }
1113:../../drivers/third_party/ST/STM32L4xx_HAL_Driver/Src/stm32l4xx_hal_dac.c ****   assert_param(IS_DAC_CHANNEL(Channel));
1114:../../drivers/third_party/ST/STM32L4xx_HAL_Driver/Src/stm32l4xx_hal_dac.c ****  
1115:../../drivers/third_party/ST/STM32L4xx_HAL_Driver/Src/stm32l4xx_hal_dac.c ****   /* Process locked */
1116:../../drivers/third_party/ST/STM32L4xx_HAL_Driver/Src/stm32l4xx_hal_dac.c ****   __HAL_LOCK(hdac);
1117:../../drivers/third_party/ST/STM32L4xx_HAL_Driver/Src/stm32l4xx_hal_dac.c ****   
1118:../../drivers/third_party/ST/STM32L4xx_HAL_Driver/Src/stm32l4xx_hal_dac.c ****   /* Change DAC state */
1119:../../drivers/third_party/ST/STM32L4xx_HAL_Driver/Src/stm32l4xx_hal_dac.c ****   hdac->State = HAL_DAC_STATE_BUSY;
1120:../../drivers/third_party/ST/STM32L4xx_HAL_Driver/Src/stm32l4xx_hal_dac.c ****   
1121:../../drivers/third_party/ST/STM32L4xx_HAL_Driver/Src/stm32l4xx_hal_dac.c ****   if(sConfig->DAC_SampleAndHold == DAC_SAMPLEANDHOLD_ENABLE)
1122:../../drivers/third_party/ST/STM32L4xx_HAL_Driver/Src/stm32l4xx_hal_dac.c ****   /* Sample on old configuration */ 
1123:../../drivers/third_party/ST/STM32L4xx_HAL_Driver/Src/stm32l4xx_hal_dac.c ****   {
1124:../../drivers/third_party/ST/STM32L4xx_HAL_Driver/Src/stm32l4xx_hal_dac.c ****     /* SampleTime */
1125:../../drivers/third_party/ST/STM32L4xx_HAL_Driver/Src/stm32l4xx_hal_dac.c ****     if (Channel == DAC_CHANNEL_1)
1126:../../drivers/third_party/ST/STM32L4xx_HAL_Driver/Src/stm32l4xx_hal_dac.c ****     {
1127:../../drivers/third_party/ST/STM32L4xx_HAL_Driver/Src/stm32l4xx_hal_dac.c ****       /* Get timeout */
1128:../../drivers/third_party/ST/STM32L4xx_HAL_Driver/Src/stm32l4xx_hal_dac.c ****       tickstart = HAL_GetTick();
1129:../../drivers/third_party/ST/STM32L4xx_HAL_Driver/Src/stm32l4xx_hal_dac.c ****       
1130:../../drivers/third_party/ST/STM32L4xx_HAL_Driver/Src/stm32l4xx_hal_dac.c ****       /* SHSR1 can be written when BWST1  equals RESET */
1131:../../drivers/third_party/ST/STM32L4xx_HAL_Driver/Src/stm32l4xx_hal_dac.c ****       while (((hdac->Instance->SR) & DAC_SR_BWST1)!= RESET)
1132:../../drivers/third_party/ST/STM32L4xx_HAL_Driver/Src/stm32l4xx_hal_dac.c ****       {
1133:../../drivers/third_party/ST/STM32L4xx_HAL_Driver/Src/stm32l4xx_hal_dac.c ****         /* Check for the Timeout */
1134:../../drivers/third_party/ST/STM32L4xx_HAL_Driver/Src/stm32l4xx_hal_dac.c ****         if((HAL_GetTick() - tickstart) > TIMEOUT_DAC_CALIBCONFIG)
1135:../../drivers/third_party/ST/STM32L4xx_HAL_Driver/Src/stm32l4xx_hal_dac.c ****         {
1136:../../drivers/third_party/ST/STM32L4xx_HAL_Driver/Src/stm32l4xx_hal_dac.c ****           /* Update error code */
1137:../../drivers/third_party/ST/STM32L4xx_HAL_Driver/Src/stm32l4xx_hal_dac.c ****           SET_BIT(hdac->ErrorCode, HAL_DAC_ERROR_TIMEOUT);
1138:../../drivers/third_party/ST/STM32L4xx_HAL_Driver/Src/stm32l4xx_hal_dac.c **** 
1139:../../drivers/third_party/ST/STM32L4xx_HAL_Driver/Src/stm32l4xx_hal_dac.c ****           /* Change the DMA state */
1140:../../drivers/third_party/ST/STM32L4xx_HAL_Driver/Src/stm32l4xx_hal_dac.c ****           hdac->State = HAL_DAC_STATE_TIMEOUT;
1141:../../drivers/third_party/ST/STM32L4xx_HAL_Driver/Src/stm32l4xx_hal_dac.c **** 
1142:../../drivers/third_party/ST/STM32L4xx_HAL_Driver/Src/stm32l4xx_hal_dac.c ****           return HAL_TIMEOUT;
1143:../../drivers/third_party/ST/STM32L4xx_HAL_Driver/Src/stm32l4xx_hal_dac.c ****         }
1144:../../drivers/third_party/ST/STM32L4xx_HAL_Driver/Src/stm32l4xx_hal_dac.c ****       }
1145:../../drivers/third_party/ST/STM32L4xx_HAL_Driver/Src/stm32l4xx_hal_dac.c ****       HAL_Delay(1);
1146:../../drivers/third_party/ST/STM32L4xx_HAL_Driver/Src/stm32l4xx_hal_dac.c ****       hdac->Instance->SHSR1 = sConfig->DAC_SampleAndHoldConfig.DAC_SampleTime;
1147:../../drivers/third_party/ST/STM32L4xx_HAL_Driver/Src/stm32l4xx_hal_dac.c ****     }
1148:../../drivers/third_party/ST/STM32L4xx_HAL_Driver/Src/stm32l4xx_hal_dac.c **** #if !defined (STM32L451xx) & !defined (STM32L452xx) & !defined (STM32L462xx) 
1149:../../drivers/third_party/ST/STM32L4xx_HAL_Driver/Src/stm32l4xx_hal_dac.c ****     else /* Channel 2 */
1150:../../drivers/third_party/ST/STM32L4xx_HAL_Driver/Src/stm32l4xx_hal_dac.c ****     {
1151:../../drivers/third_party/ST/STM32L4xx_HAL_Driver/Src/stm32l4xx_hal_dac.c ****       /* SHSR2 can be written when BWST2 equals RESET */
1152:../../drivers/third_party/ST/STM32L4xx_HAL_Driver/Src/stm32l4xx_hal_dac.c **** 
1153:../../drivers/third_party/ST/STM32L4xx_HAL_Driver/Src/stm32l4xx_hal_dac.c ****       while (((hdac->Instance->SR) & DAC_SR_BWST2)!= RESET)
1154:../../drivers/third_party/ST/STM32L4xx_HAL_Driver/Src/stm32l4xx_hal_dac.c ****       {
ARM GAS  C:\Users\LuckyE\AppData\Local\Temp\cca5DOBs.s 			page 33


1155:../../drivers/third_party/ST/STM32L4xx_HAL_Driver/Src/stm32l4xx_hal_dac.c ****         /* Check for the Timeout */
1156:../../drivers/third_party/ST/STM32L4xx_HAL_Driver/Src/stm32l4xx_hal_dac.c ****         if((HAL_GetTick() - tickstart) > TIMEOUT_DAC_CALIBCONFIG)
1157:../../drivers/third_party/ST/STM32L4xx_HAL_Driver/Src/stm32l4xx_hal_dac.c ****         {
1158:../../drivers/third_party/ST/STM32L4xx_HAL_Driver/Src/stm32l4xx_hal_dac.c ****           /* Update error code */
1159:../../drivers/third_party/ST/STM32L4xx_HAL_Driver/Src/stm32l4xx_hal_dac.c ****           SET_BIT(hdac->ErrorCode, HAL_DAC_ERROR_TIMEOUT);
1160:../../drivers/third_party/ST/STM32L4xx_HAL_Driver/Src/stm32l4xx_hal_dac.c **** 
1161:../../drivers/third_party/ST/STM32L4xx_HAL_Driver/Src/stm32l4xx_hal_dac.c ****           /* Change the DMA state */
1162:../../drivers/third_party/ST/STM32L4xx_HAL_Driver/Src/stm32l4xx_hal_dac.c ****           hdac->State = HAL_DAC_STATE_TIMEOUT;
1163:../../drivers/third_party/ST/STM32L4xx_HAL_Driver/Src/stm32l4xx_hal_dac.c **** 
1164:../../drivers/third_party/ST/STM32L4xx_HAL_Driver/Src/stm32l4xx_hal_dac.c ****           return HAL_TIMEOUT;
1165:../../drivers/third_party/ST/STM32L4xx_HAL_Driver/Src/stm32l4xx_hal_dac.c ****         }
1166:../../drivers/third_party/ST/STM32L4xx_HAL_Driver/Src/stm32l4xx_hal_dac.c ****       }
1167:../../drivers/third_party/ST/STM32L4xx_HAL_Driver/Src/stm32l4xx_hal_dac.c ****       HAL_Delay(1);
1168:../../drivers/third_party/ST/STM32L4xx_HAL_Driver/Src/stm32l4xx_hal_dac.c ****       hdac->Instance->SHSR2 = sConfig->DAC_SampleAndHoldConfig.DAC_SampleTime;
1169:../../drivers/third_party/ST/STM32L4xx_HAL_Driver/Src/stm32l4xx_hal_dac.c ****     }
1170:../../drivers/third_party/ST/STM32L4xx_HAL_Driver/Src/stm32l4xx_hal_dac.c **** #endif /* STM32L451xx STM32L452xx STM32L462xx */   
1171:../../drivers/third_party/ST/STM32L4xx_HAL_Driver/Src/stm32l4xx_hal_dac.c ****     
1172:../../drivers/third_party/ST/STM32L4xx_HAL_Driver/Src/stm32l4xx_hal_dac.c ****     /* HoldTime */
1173:../../drivers/third_party/ST/STM32L4xx_HAL_Driver/Src/stm32l4xx_hal_dac.c ****     MODIFY_REG (hdac->Instance->SHHR, DAC_SHHR_THOLD1<<Channel, (sConfig->DAC_SampleAndHoldConfig.D
1174:../../drivers/third_party/ST/STM32L4xx_HAL_Driver/Src/stm32l4xx_hal_dac.c ****     /* RefreshTime */
1175:../../drivers/third_party/ST/STM32L4xx_HAL_Driver/Src/stm32l4xx_hal_dac.c ****     MODIFY_REG (hdac->Instance->SHRR, DAC_SHRR_TREFRESH1<<Channel, (sConfig->DAC_SampleAndHoldConfi
1176:../../drivers/third_party/ST/STM32L4xx_HAL_Driver/Src/stm32l4xx_hal_dac.c ****   }
1177:../../drivers/third_party/ST/STM32L4xx_HAL_Driver/Src/stm32l4xx_hal_dac.c ****     
1178:../../drivers/third_party/ST/STM32L4xx_HAL_Driver/Src/stm32l4xx_hal_dac.c ****   if(sConfig->DAC_UserTrimming == DAC_TRIMMING_USER)
1179:../../drivers/third_party/ST/STM32L4xx_HAL_Driver/Src/stm32l4xx_hal_dac.c ****   /* USER TRIMMING */
1180:../../drivers/third_party/ST/STM32L4xx_HAL_Driver/Src/stm32l4xx_hal_dac.c ****   {
1181:../../drivers/third_party/ST/STM32L4xx_HAL_Driver/Src/stm32l4xx_hal_dac.c ****   /* Get the DAC CCR value */
1182:../../drivers/third_party/ST/STM32L4xx_HAL_Driver/Src/stm32l4xx_hal_dac.c ****   tmpreg1 = hdac->Instance->CCR;
1183:../../drivers/third_party/ST/STM32L4xx_HAL_Driver/Src/stm32l4xx_hal_dac.c ****   /* Clear trimming value */
1184:../../drivers/third_party/ST/STM32L4xx_HAL_Driver/Src/stm32l4xx_hal_dac.c ****   tmpreg1 &= ~(((uint32_t)(DAC_CCR_OTRIM1)) << Channel);
1185:../../drivers/third_party/ST/STM32L4xx_HAL_Driver/Src/stm32l4xx_hal_dac.c ****   /* Configure for the selected trimming offset */
1186:../../drivers/third_party/ST/STM32L4xx_HAL_Driver/Src/stm32l4xx_hal_dac.c ****   tmpreg2 = sConfig->DAC_TrimmingValue;
1187:../../drivers/third_party/ST/STM32L4xx_HAL_Driver/Src/stm32l4xx_hal_dac.c ****   /* Calculate CCR register value depending on DAC_Channel */
1188:../../drivers/third_party/ST/STM32L4xx_HAL_Driver/Src/stm32l4xx_hal_dac.c ****   tmpreg1 |= tmpreg2 << Channel;
1189:../../drivers/third_party/ST/STM32L4xx_HAL_Driver/Src/stm32l4xx_hal_dac.c ****   /* Write to DAC CCR */
1190:../../drivers/third_party/ST/STM32L4xx_HAL_Driver/Src/stm32l4xx_hal_dac.c ****   hdac->Instance->CCR = tmpreg1;
1191:../../drivers/third_party/ST/STM32L4xx_HAL_Driver/Src/stm32l4xx_hal_dac.c ****   }
1192:../../drivers/third_party/ST/STM32L4xx_HAL_Driver/Src/stm32l4xx_hal_dac.c ****   /* else factory trimming is used (factory setting are available at reset)*/
1193:../../drivers/third_party/ST/STM32L4xx_HAL_Driver/Src/stm32l4xx_hal_dac.c ****   /* SW Nothing has nothing to do */
1194:../../drivers/third_party/ST/STM32L4xx_HAL_Driver/Src/stm32l4xx_hal_dac.c ****   
1195:../../drivers/third_party/ST/STM32L4xx_HAL_Driver/Src/stm32l4xx_hal_dac.c ****   /* Get the DAC MCR value */
1196:../../drivers/third_party/ST/STM32L4xx_HAL_Driver/Src/stm32l4xx_hal_dac.c ****   tmpreg1 = hdac->Instance->MCR;
1197:../../drivers/third_party/ST/STM32L4xx_HAL_Driver/Src/stm32l4xx_hal_dac.c ****   /* Clear DAC_MCR_MODE2_0, DAC_MCR_MODE2_1 and DAC_MCR_MODE2_2 bits */
1198:../../drivers/third_party/ST/STM32L4xx_HAL_Driver/Src/stm32l4xx_hal_dac.c ****   tmpreg1 &= ~(((uint32_t)(DAC_MCR_MODE1)) << Channel); 
1199:../../drivers/third_party/ST/STM32L4xx_HAL_Driver/Src/stm32l4xx_hal_dac.c ****   /* Configure for the selected DAC channel: mode, buffer output & on chip peripheral connect */
1200:../../drivers/third_party/ST/STM32L4xx_HAL_Driver/Src/stm32l4xx_hal_dac.c ****   tmpreg2 = (sConfig->DAC_SampleAndHold | sConfig->DAC_OutputBuffer | sConfig->DAC_ConnectOnChipPer
1201:../../drivers/third_party/ST/STM32L4xx_HAL_Driver/Src/stm32l4xx_hal_dac.c ****   /* Calculate MCR register value depending on DAC_Channel */
1202:../../drivers/third_party/ST/STM32L4xx_HAL_Driver/Src/stm32l4xx_hal_dac.c ****   tmpreg1 |= tmpreg2 << Channel;
1203:../../drivers/third_party/ST/STM32L4xx_HAL_Driver/Src/stm32l4xx_hal_dac.c ****   /* Write to DAC MCR */
1204:../../drivers/third_party/ST/STM32L4xx_HAL_Driver/Src/stm32l4xx_hal_dac.c ****   hdac->Instance->MCR = tmpreg1;
1205:../../drivers/third_party/ST/STM32L4xx_HAL_Driver/Src/stm32l4xx_hal_dac.c ****   
1206:../../drivers/third_party/ST/STM32L4xx_HAL_Driver/Src/stm32l4xx_hal_dac.c ****   /* DAC in normal operating mode hence clear DAC_CR_CENx bit */
1207:../../drivers/third_party/ST/STM32L4xx_HAL_Driver/Src/stm32l4xx_hal_dac.c ****   CLEAR_BIT (hdac->Instance->CR, DAC_CR_CEN1 << Channel);
1208:../../drivers/third_party/ST/STM32L4xx_HAL_Driver/Src/stm32l4xx_hal_dac.c ****   
1209:../../drivers/third_party/ST/STM32L4xx_HAL_Driver/Src/stm32l4xx_hal_dac.c ****   /* Get the DAC CR value */
1210:../../drivers/third_party/ST/STM32L4xx_HAL_Driver/Src/stm32l4xx_hal_dac.c ****   tmpreg1 = hdac->Instance->CR;
1211:../../drivers/third_party/ST/STM32L4xx_HAL_Driver/Src/stm32l4xx_hal_dac.c ****   /* Clear TENx, TSELx, WAVEx and MAMPx bits */
ARM GAS  C:\Users\LuckyE\AppData\Local\Temp\cca5DOBs.s 			page 34


1212:../../drivers/third_party/ST/STM32L4xx_HAL_Driver/Src/stm32l4xx_hal_dac.c ****   tmpreg1 &= ~(((uint32_t)(DAC_CR_MAMP1 | DAC_CR_WAVE1 | DAC_CR_TSEL1 | DAC_CR_TEN1)) << Channel); 
1213:../../drivers/third_party/ST/STM32L4xx_HAL_Driver/Src/stm32l4xx_hal_dac.c ****   /* Configure for the selected DAC channel: trigger */
1214:../../drivers/third_party/ST/STM32L4xx_HAL_Driver/Src/stm32l4xx_hal_dac.c ****   /* Set TSELx and TENx bits according to DAC_Trigger value */
1215:../../drivers/third_party/ST/STM32L4xx_HAL_Driver/Src/stm32l4xx_hal_dac.c ****   tmpreg2 = (sConfig->DAC_Trigger);
1216:../../drivers/third_party/ST/STM32L4xx_HAL_Driver/Src/stm32l4xx_hal_dac.c ****   /* Calculate CR register value depending on DAC_Channel */
1217:../../drivers/third_party/ST/STM32L4xx_HAL_Driver/Src/stm32l4xx_hal_dac.c ****   tmpreg1 |= tmpreg2 << Channel;
1218:../../drivers/third_party/ST/STM32L4xx_HAL_Driver/Src/stm32l4xx_hal_dac.c **** #if defined (STM32L4R5xx) || defined (STM32L4R7xx) || defined (STM32L4R9xx) || defined (STM32L4S5xx
1219:../../drivers/third_party/ST/STM32L4xx_HAL_Driver/Src/stm32l4xx_hal_dac.c ****   if(DAC_HIGH_FREQUENCY_INTERFACE_MODE_ABOVE_80MHZ == sConfig->DAC_HighFrequency)
1220:../../drivers/third_party/ST/STM32L4xx_HAL_Driver/Src/stm32l4xx_hal_dac.c ****   {
1221:../../drivers/third_party/ST/STM32L4xx_HAL_Driver/Src/stm32l4xx_hal_dac.c ****     tmpreg1 |= DAC_CR_HFSEL;
1222:../../drivers/third_party/ST/STM32L4xx_HAL_Driver/Src/stm32l4xx_hal_dac.c ****   }
1223:../../drivers/third_party/ST/STM32L4xx_HAL_Driver/Src/stm32l4xx_hal_dac.c ****   else 
1224:../../drivers/third_party/ST/STM32L4xx_HAL_Driver/Src/stm32l4xx_hal_dac.c ****   {
1225:../../drivers/third_party/ST/STM32L4xx_HAL_Driver/Src/stm32l4xx_hal_dac.c ****     if (DAC_HIGH_FREQUENCY_INTERFACE_MODE_DISABLE == sConfig->DAC_HighFrequency)
1226:../../drivers/third_party/ST/STM32L4xx_HAL_Driver/Src/stm32l4xx_hal_dac.c ****     {
1227:../../drivers/third_party/ST/STM32L4xx_HAL_Driver/Src/stm32l4xx_hal_dac.c ****       tmpreg1 &= ~(DAC_CR_HFSEL);
1228:../../drivers/third_party/ST/STM32L4xx_HAL_Driver/Src/stm32l4xx_hal_dac.c ****     }
1229:../../drivers/third_party/ST/STM32L4xx_HAL_Driver/Src/stm32l4xx_hal_dac.c ****     else /* Automatic selection */
1230:../../drivers/third_party/ST/STM32L4xx_HAL_Driver/Src/stm32l4xx_hal_dac.c ****     {
1231:../../drivers/third_party/ST/STM32L4xx_HAL_Driver/Src/stm32l4xx_hal_dac.c ****       hclkfreq = HAL_RCC_GetHCLKFreq();
1232:../../drivers/third_party/ST/STM32L4xx_HAL_Driver/Src/stm32l4xx_hal_dac.c ****       if (hclkfreq > HFSEL_ENABLE_THRESHOLD_80MHZ) 
1233:../../drivers/third_party/ST/STM32L4xx_HAL_Driver/Src/stm32l4xx_hal_dac.c ****       {  
1234:../../drivers/third_party/ST/STM32L4xx_HAL_Driver/Src/stm32l4xx_hal_dac.c ****         /* High frequency enable when HCLK frequency higher than 80   */
1235:../../drivers/third_party/ST/STM32L4xx_HAL_Driver/Src/stm32l4xx_hal_dac.c ****          tmpreg1 |= DAC_CR_HFSEL;
1236:../../drivers/third_party/ST/STM32L4xx_HAL_Driver/Src/stm32l4xx_hal_dac.c ****       }
1237:../../drivers/third_party/ST/STM32L4xx_HAL_Driver/Src/stm32l4xx_hal_dac.c ****       else
1238:../../drivers/third_party/ST/STM32L4xx_HAL_Driver/Src/stm32l4xx_hal_dac.c ****       {
1239:../../drivers/third_party/ST/STM32L4xx_HAL_Driver/Src/stm32l4xx_hal_dac.c ****         /* High frequency disable when HCLK frequency higher than 80  */
1240:../../drivers/third_party/ST/STM32L4xx_HAL_Driver/Src/stm32l4xx_hal_dac.c ****         tmpreg1 &= ~(DAC_CR_HFSEL);
1241:../../drivers/third_party/ST/STM32L4xx_HAL_Driver/Src/stm32l4xx_hal_dac.c ****       }
1242:../../drivers/third_party/ST/STM32L4xx_HAL_Driver/Src/stm32l4xx_hal_dac.c ****     }
1243:../../drivers/third_party/ST/STM32L4xx_HAL_Driver/Src/stm32l4xx_hal_dac.c ****   }
1244:../../drivers/third_party/ST/STM32L4xx_HAL_Driver/Src/stm32l4xx_hal_dac.c ****   
1245:../../drivers/third_party/ST/STM32L4xx_HAL_Driver/Src/stm32l4xx_hal_dac.c **** #endif /* STM32L4R5xx STM32L4R7xx STM32L4R9xx STM32L4S5xx STM32L4S7xx STM32L4S9xx */  
1246:../../drivers/third_party/ST/STM32L4xx_HAL_Driver/Src/stm32l4xx_hal_dac.c **** 
1247:../../drivers/third_party/ST/STM32L4xx_HAL_Driver/Src/stm32l4xx_hal_dac.c ****   /* Write to DAC CR */
1248:../../drivers/third_party/ST/STM32L4xx_HAL_Driver/Src/stm32l4xx_hal_dac.c ****   hdac->Instance->CR = tmpreg1;
1249:../../drivers/third_party/ST/STM32L4xx_HAL_Driver/Src/stm32l4xx_hal_dac.c ****       
1250:../../drivers/third_party/ST/STM32L4xx_HAL_Driver/Src/stm32l4xx_hal_dac.c ****   /* Disable wave generation */
1251:../../drivers/third_party/ST/STM32L4xx_HAL_Driver/Src/stm32l4xx_hal_dac.c ****   hdac->Instance->CR &= ~(DAC_CR_WAVE1 << Channel);
1252:../../drivers/third_party/ST/STM32L4xx_HAL_Driver/Src/stm32l4xx_hal_dac.c ****   
1253:../../drivers/third_party/ST/STM32L4xx_HAL_Driver/Src/stm32l4xx_hal_dac.c ****   /* Change DAC state */
1254:../../drivers/third_party/ST/STM32L4xx_HAL_Driver/Src/stm32l4xx_hal_dac.c ****   hdac->State = HAL_DAC_STATE_READY;
1255:../../drivers/third_party/ST/STM32L4xx_HAL_Driver/Src/stm32l4xx_hal_dac.c ****   
1256:../../drivers/third_party/ST/STM32L4xx_HAL_Driver/Src/stm32l4xx_hal_dac.c ****   /* Process unlocked */
1257:../../drivers/third_party/ST/STM32L4xx_HAL_Driver/Src/stm32l4xx_hal_dac.c ****   __HAL_UNLOCK(hdac);
1258:../../drivers/third_party/ST/STM32L4xx_HAL_Driver/Src/stm32l4xx_hal_dac.c ****   
1259:../../drivers/third_party/ST/STM32L4xx_HAL_Driver/Src/stm32l4xx_hal_dac.c ****   /* Return function status */
1260:../../drivers/third_party/ST/STM32L4xx_HAL_Driver/Src/stm32l4xx_hal_dac.c ****   return HAL_OK;
1261:../../drivers/third_party/ST/STM32L4xx_HAL_Driver/Src/stm32l4xx_hal_dac.c **** }
1262:../../drivers/third_party/ST/STM32L4xx_HAL_Driver/Src/stm32l4xx_hal_dac.c **** 
1263:../../drivers/third_party/ST/STM32L4xx_HAL_Driver/Src/stm32l4xx_hal_dac.c **** /**
1264:../../drivers/third_party/ST/STM32L4xx_HAL_Driver/Src/stm32l4xx_hal_dac.c ****   * @}
1265:../../drivers/third_party/ST/STM32L4xx_HAL_Driver/Src/stm32l4xx_hal_dac.c ****   */
1266:../../drivers/third_party/ST/STM32L4xx_HAL_Driver/Src/stm32l4xx_hal_dac.c **** 
1267:../../drivers/third_party/ST/STM32L4xx_HAL_Driver/Src/stm32l4xx_hal_dac.c **** /** @defgroup DAC_Exported_Functions_Group4 Peripheral State and Errors functions
1268:../../drivers/third_party/ST/STM32L4xx_HAL_Driver/Src/stm32l4xx_hal_dac.c ****  *  @brief   Peripheral State and Errors functions 
ARM GAS  C:\Users\LuckyE\AppData\Local\Temp\cca5DOBs.s 			page 35


1269:../../drivers/third_party/ST/STM32L4xx_HAL_Driver/Src/stm32l4xx_hal_dac.c ****  *
1270:../../drivers/third_party/ST/STM32L4xx_HAL_Driver/Src/stm32l4xx_hal_dac.c **** @verbatim   
1271:../../drivers/third_party/ST/STM32L4xx_HAL_Driver/Src/stm32l4xx_hal_dac.c ****   ==============================================================================
1272:../../drivers/third_party/ST/STM32L4xx_HAL_Driver/Src/stm32l4xx_hal_dac.c ****             ##### Peripheral State and Errors functions #####
1273:../../drivers/third_party/ST/STM32L4xx_HAL_Driver/Src/stm32l4xx_hal_dac.c ****   ==============================================================================  
1274:../../drivers/third_party/ST/STM32L4xx_HAL_Driver/Src/stm32l4xx_hal_dac.c ****     [..]
1275:../../drivers/third_party/ST/STM32L4xx_HAL_Driver/Src/stm32l4xx_hal_dac.c ****     This subsection provides functions allowing to
1276:../../drivers/third_party/ST/STM32L4xx_HAL_Driver/Src/stm32l4xx_hal_dac.c ****       (+) Check the DAC state.
1277:../../drivers/third_party/ST/STM32L4xx_HAL_Driver/Src/stm32l4xx_hal_dac.c ****       (+) Check the DAC Errors.
1278:../../drivers/third_party/ST/STM32L4xx_HAL_Driver/Src/stm32l4xx_hal_dac.c ****         
1279:../../drivers/third_party/ST/STM32L4xx_HAL_Driver/Src/stm32l4xx_hal_dac.c **** @endverbatim
1280:../../drivers/third_party/ST/STM32L4xx_HAL_Driver/Src/stm32l4xx_hal_dac.c ****   * @{
1281:../../drivers/third_party/ST/STM32L4xx_HAL_Driver/Src/stm32l4xx_hal_dac.c ****   */
1282:../../drivers/third_party/ST/STM32L4xx_HAL_Driver/Src/stm32l4xx_hal_dac.c **** 
1283:../../drivers/third_party/ST/STM32L4xx_HAL_Driver/Src/stm32l4xx_hal_dac.c **** /**
1284:../../drivers/third_party/ST/STM32L4xx_HAL_Driver/Src/stm32l4xx_hal_dac.c ****   * @brief  return the DAC handle state
1285:../../drivers/third_party/ST/STM32L4xx_HAL_Driver/Src/stm32l4xx_hal_dac.c ****   * @param  hdac: pointer to a DAC_HandleTypeDef structure that contains
1286:../../drivers/third_party/ST/STM32L4xx_HAL_Driver/Src/stm32l4xx_hal_dac.c ****   *         the configuration information for the specified DAC.
1287:../../drivers/third_party/ST/STM32L4xx_HAL_Driver/Src/stm32l4xx_hal_dac.c ****   * @retval HAL state
1288:../../drivers/third_party/ST/STM32L4xx_HAL_Driver/Src/stm32l4xx_hal_dac.c ****   */
1289:../../drivers/third_party/ST/STM32L4xx_HAL_Driver/Src/stm32l4xx_hal_dac.c **** HAL_DAC_StateTypeDef HAL_DAC_GetState(DAC_HandleTypeDef* hdac)
1290:../../drivers/third_party/ST/STM32L4xx_HAL_Driver/Src/stm32l4xx_hal_dac.c **** {
1291:../../drivers/third_party/ST/STM32L4xx_HAL_Driver/Src/stm32l4xx_hal_dac.c ****   /* Return DAC handle state */
1292:../../drivers/third_party/ST/STM32L4xx_HAL_Driver/Src/stm32l4xx_hal_dac.c ****   return hdac->State;
1293:../../drivers/third_party/ST/STM32L4xx_HAL_Driver/Src/stm32l4xx_hal_dac.c **** }
1294:../../drivers/third_party/ST/STM32L4xx_HAL_Driver/Src/stm32l4xx_hal_dac.c **** 
1295:../../drivers/third_party/ST/STM32L4xx_HAL_Driver/Src/stm32l4xx_hal_dac.c **** 
1296:../../drivers/third_party/ST/STM32L4xx_HAL_Driver/Src/stm32l4xx_hal_dac.c **** /**
1297:../../drivers/third_party/ST/STM32L4xx_HAL_Driver/Src/stm32l4xx_hal_dac.c ****   * @brief  Return the DAC error code
1298:../../drivers/third_party/ST/STM32L4xx_HAL_Driver/Src/stm32l4xx_hal_dac.c ****   * @param  hdac: pointer to a DAC_HandleTypeDef structure that contains
1299:../../drivers/third_party/ST/STM32L4xx_HAL_Driver/Src/stm32l4xx_hal_dac.c ****   *         the configuration information for the specified DAC.
1300:../../drivers/third_party/ST/STM32L4xx_HAL_Driver/Src/stm32l4xx_hal_dac.c ****   * @retval DAC Error Code
1301:../../drivers/third_party/ST/STM32L4xx_HAL_Driver/Src/stm32l4xx_hal_dac.c ****   */
1302:../../drivers/third_party/ST/STM32L4xx_HAL_Driver/Src/stm32l4xx_hal_dac.c **** uint32_t HAL_DAC_GetError(DAC_HandleTypeDef *hdac)
1303:../../drivers/third_party/ST/STM32L4xx_HAL_Driver/Src/stm32l4xx_hal_dac.c **** {
1304:../../drivers/third_party/ST/STM32L4xx_HAL_Driver/Src/stm32l4xx_hal_dac.c ****   return hdac->ErrorCode;
1305:../../drivers/third_party/ST/STM32L4xx_HAL_Driver/Src/stm32l4xx_hal_dac.c **** }
1306:../../drivers/third_party/ST/STM32L4xx_HAL_Driver/Src/stm32l4xx_hal_dac.c **** 
1307:../../drivers/third_party/ST/STM32L4xx_HAL_Driver/Src/stm32l4xx_hal_dac.c **** /**
1308:../../drivers/third_party/ST/STM32L4xx_HAL_Driver/Src/stm32l4xx_hal_dac.c ****   * @}
1309:../../drivers/third_party/ST/STM32L4xx_HAL_Driver/Src/stm32l4xx_hal_dac.c ****   */
1310:../../drivers/third_party/ST/STM32L4xx_HAL_Driver/Src/stm32l4xx_hal_dac.c **** 
1311:../../drivers/third_party/ST/STM32L4xx_HAL_Driver/Src/stm32l4xx_hal_dac.c **** /**
1312:../../drivers/third_party/ST/STM32L4xx_HAL_Driver/Src/stm32l4xx_hal_dac.c ****   * @}
1313:../../drivers/third_party/ST/STM32L4xx_HAL_Driver/Src/stm32l4xx_hal_dac.c ****   */
1314:../../drivers/third_party/ST/STM32L4xx_HAL_Driver/Src/stm32l4xx_hal_dac.c **** 
1315:../../drivers/third_party/ST/STM32L4xx_HAL_Driver/Src/stm32l4xx_hal_dac.c **** /** @addtogroup DAC_Private_Functions
1316:../../drivers/third_party/ST/STM32L4xx_HAL_Driver/Src/stm32l4xx_hal_dac.c ****   * @{
1317:../../drivers/third_party/ST/STM32L4xx_HAL_Driver/Src/stm32l4xx_hal_dac.c ****   */
1318:../../drivers/third_party/ST/STM32L4xx_HAL_Driver/Src/stm32l4xx_hal_dac.c **** 
1319:../../drivers/third_party/ST/STM32L4xx_HAL_Driver/Src/stm32l4xx_hal_dac.c **** /**
1320:../../drivers/third_party/ST/STM32L4xx_HAL_Driver/Src/stm32l4xx_hal_dac.c ****   * @brief  DMA conversion complete callback. 
1321:../../drivers/third_party/ST/STM32L4xx_HAL_Driver/Src/stm32l4xx_hal_dac.c ****   * @param  hdma: pointer to a DMA_HandleTypeDef structure that contains
1322:../../drivers/third_party/ST/STM32L4xx_HAL_Driver/Src/stm32l4xx_hal_dac.c ****   *                the configuration information for the specified DMA module.
1323:../../drivers/third_party/ST/STM32L4xx_HAL_Driver/Src/stm32l4xx_hal_dac.c ****   * @retval None
1324:../../drivers/third_party/ST/STM32L4xx_HAL_Driver/Src/stm32l4xx_hal_dac.c ****   */
1325:../../drivers/third_party/ST/STM32L4xx_HAL_Driver/Src/stm32l4xx_hal_dac.c **** static void DAC_DMAConvCpltCh1(DMA_HandleTypeDef *hdma)   
ARM GAS  C:\Users\LuckyE\AppData\Local\Temp\cca5DOBs.s 			page 36


1326:../../drivers/third_party/ST/STM32L4xx_HAL_Driver/Src/stm32l4xx_hal_dac.c **** {
 632              		.loc 1 1326 0
 633              		.cfi_startproc
 634              		@ args = 0, pretend = 0, frame = 0
 635              		@ frame_needed = 0, uses_anonymous_args = 0
 636              	.LVL41:
 637              		.loc 1 1326 0
 638 0000 10B5     		push	{r4, lr}
 639              	.LCFI9:
 640              		.cfi_def_cfa_offset 8
 641              		.cfi_offset 4, -8
 642              		.cfi_offset 14, -4
1327:../../drivers/third_party/ST/STM32L4xx_HAL_Driver/Src/stm32l4xx_hal_dac.c ****   DAC_HandleTypeDef* hdac = ( DAC_HandleTypeDef* )((DMA_HandleTypeDef* )hdma)->Parent;
 643              		.loc 1 1327 0
 644 0002 846A     		ldr	r4, [r0, #40]
 645              	.LVL42:
1328:../../drivers/third_party/ST/STM32L4xx_HAL_Driver/Src/stm32l4xx_hal_dac.c ****   
1329:../../drivers/third_party/ST/STM32L4xx_HAL_Driver/Src/stm32l4xx_hal_dac.c ****   HAL_DAC_ConvCpltCallbackCh1(hdac); 
 646              		.loc 1 1329 0
 647 0004 2046     		mov	r0, r4
 648              	.LVL43:
 649 0006 FFF7FEFF 		bl	HAL_DAC_ConvCpltCallbackCh1
 650              	.LVL44:
1330:../../drivers/third_party/ST/STM32L4xx_HAL_Driver/Src/stm32l4xx_hal_dac.c ****   
1331:../../drivers/third_party/ST/STM32L4xx_HAL_Driver/Src/stm32l4xx_hal_dac.c ****   hdac->State= HAL_DAC_STATE_READY;
 651              		.loc 1 1331 0
 652 000a 0123     		movs	r3, #1
 653 000c 2371     		strb	r3, [r4, #4]
1332:../../drivers/third_party/ST/STM32L4xx_HAL_Driver/Src/stm32l4xx_hal_dac.c **** }
 654              		.loc 1 1332 0
 655 000e 10BD     		pop	{r4, pc}
 656              		.cfi_endproc
 657              	.LFE298:
 659              		.section	.text.HAL_DAC_ConvHalfCpltCallbackCh1,"ax",%progbits
 660              		.align	1
 661              		.weak	HAL_DAC_ConvHalfCpltCallbackCh1
 662              		.syntax unified
 663              		.thumb
 664              		.thumb_func
 665              		.fpu fpv4-sp-d16
 667              	HAL_DAC_ConvHalfCpltCallbackCh1:
 668              	.LFB306:
 669              		.cfi_startproc
 670              		@ args = 0, pretend = 0, frame = 0
 671              		@ frame_needed = 0, uses_anonymous_args = 0
 672              		@ link register save eliminated.
 673 0000 7047     		bx	lr
 674              		.cfi_endproc
 675              	.LFE306:
 677              		.section	.text.DAC_DMAHalfConvCpltCh1,"ax",%progbits
 678              		.align	1
 679              		.syntax unified
 680              		.thumb
 681              		.thumb_func
 682              		.fpu fpv4-sp-d16
 684              	DAC_DMAHalfConvCpltCh1:
 685              	.LFB299:
ARM GAS  C:\Users\LuckyE\AppData\Local\Temp\cca5DOBs.s 			page 37


1333:../../drivers/third_party/ST/STM32L4xx_HAL_Driver/Src/stm32l4xx_hal_dac.c **** 
1334:../../drivers/third_party/ST/STM32L4xx_HAL_Driver/Src/stm32l4xx_hal_dac.c **** /**
1335:../../drivers/third_party/ST/STM32L4xx_HAL_Driver/Src/stm32l4xx_hal_dac.c ****   * @brief  DMA half transfer complete callback. 
1336:../../drivers/third_party/ST/STM32L4xx_HAL_Driver/Src/stm32l4xx_hal_dac.c ****   * @param  hdma: pointer to a DMA_HandleTypeDef structure that contains
1337:../../drivers/third_party/ST/STM32L4xx_HAL_Driver/Src/stm32l4xx_hal_dac.c ****   *                the configuration information for the specified DMA module.
1338:../../drivers/third_party/ST/STM32L4xx_HAL_Driver/Src/stm32l4xx_hal_dac.c ****   * @retval None
1339:../../drivers/third_party/ST/STM32L4xx_HAL_Driver/Src/stm32l4xx_hal_dac.c ****   */
1340:../../drivers/third_party/ST/STM32L4xx_HAL_Driver/Src/stm32l4xx_hal_dac.c **** static void DAC_DMAHalfConvCpltCh1(DMA_HandleTypeDef *hdma)   
1341:../../drivers/third_party/ST/STM32L4xx_HAL_Driver/Src/stm32l4xx_hal_dac.c **** {
 686              		.loc 1 1341 0
 687              		.cfi_startproc
 688              		@ args = 0, pretend = 0, frame = 0
 689              		@ frame_needed = 0, uses_anonymous_args = 0
 690              	.LVL45:
 691              		.loc 1 1341 0
 692 0000 08B5     		push	{r3, lr}
 693              	.LCFI10:
 694              		.cfi_def_cfa_offset 8
 695              		.cfi_offset 3, -8
 696              		.cfi_offset 14, -4
1342:../../drivers/third_party/ST/STM32L4xx_HAL_Driver/Src/stm32l4xx_hal_dac.c ****     DAC_HandleTypeDef* hdac = ( DAC_HandleTypeDef* )((DMA_HandleTypeDef* )hdma)->Parent;
1343:../../drivers/third_party/ST/STM32L4xx_HAL_Driver/Src/stm32l4xx_hal_dac.c ****     /* Conversion complete callback */
1344:../../drivers/third_party/ST/STM32L4xx_HAL_Driver/Src/stm32l4xx_hal_dac.c ****     HAL_DAC_ConvHalfCpltCallbackCh1(hdac); 
 697              		.loc 1 1344 0
 698 0002 806A     		ldr	r0, [r0, #40]
 699              	.LVL46:
 700 0004 FFF7FEFF 		bl	HAL_DAC_ConvHalfCpltCallbackCh1
 701              	.LVL47:
1345:../../drivers/third_party/ST/STM32L4xx_HAL_Driver/Src/stm32l4xx_hal_dac.c **** }
 702              		.loc 1 1345 0
 703 0008 08BD     		pop	{r3, pc}
 704              		.cfi_endproc
 705              	.LFE299:
 707              		.section	.text.HAL_DAC_ErrorCallbackCh1,"ax",%progbits
 708              		.align	1
 709              		.weak	HAL_DAC_ErrorCallbackCh1
 710              		.syntax unified
 711              		.thumb
 712              		.thumb_func
 713              		.fpu fpv4-sp-d16
 715              	HAL_DAC_ErrorCallbackCh1:
 716              	.LFB308:
 717              		.cfi_startproc
 718              		@ args = 0, pretend = 0, frame = 0
 719              		@ frame_needed = 0, uses_anonymous_args = 0
 720              		@ link register save eliminated.
 721 0000 7047     		bx	lr
 722              		.cfi_endproc
 723              	.LFE308:
 725              		.section	.text.DAC_DMAErrorCh1,"ax",%progbits
 726              		.align	1
 727              		.syntax unified
 728              		.thumb
 729              		.thumb_func
 730              		.fpu fpv4-sp-d16
 732              	DAC_DMAErrorCh1:
 733              	.LFB300:
ARM GAS  C:\Users\LuckyE\AppData\Local\Temp\cca5DOBs.s 			page 38


1346:../../drivers/third_party/ST/STM32L4xx_HAL_Driver/Src/stm32l4xx_hal_dac.c **** 
1347:../../drivers/third_party/ST/STM32L4xx_HAL_Driver/Src/stm32l4xx_hal_dac.c **** /**
1348:../../drivers/third_party/ST/STM32L4xx_HAL_Driver/Src/stm32l4xx_hal_dac.c ****   * @brief  DMA error callback 
1349:../../drivers/third_party/ST/STM32L4xx_HAL_Driver/Src/stm32l4xx_hal_dac.c ****   * @param  hdma: pointer to a DMA_HandleTypeDef structure that contains
1350:../../drivers/third_party/ST/STM32L4xx_HAL_Driver/Src/stm32l4xx_hal_dac.c ****   *                the configuration information for the specified DMA module.
1351:../../drivers/third_party/ST/STM32L4xx_HAL_Driver/Src/stm32l4xx_hal_dac.c ****   * @retval None
1352:../../drivers/third_party/ST/STM32L4xx_HAL_Driver/Src/stm32l4xx_hal_dac.c ****   */
1353:../../drivers/third_party/ST/STM32L4xx_HAL_Driver/Src/stm32l4xx_hal_dac.c **** static void DAC_DMAErrorCh1(DMA_HandleTypeDef *hdma)   
1354:../../drivers/third_party/ST/STM32L4xx_HAL_Driver/Src/stm32l4xx_hal_dac.c **** {
 734              		.loc 1 1354 0
 735              		.cfi_startproc
 736              		@ args = 0, pretend = 0, frame = 0
 737              		@ frame_needed = 0, uses_anonymous_args = 0
 738              	.LVL48:
 739              		.loc 1 1354 0
 740 0000 10B5     		push	{r4, lr}
 741              	.LCFI11:
 742              		.cfi_def_cfa_offset 8
 743              		.cfi_offset 4, -8
 744              		.cfi_offset 14, -4
1355:../../drivers/third_party/ST/STM32L4xx_HAL_Driver/Src/stm32l4xx_hal_dac.c ****   DAC_HandleTypeDef* hdac = ( DAC_HandleTypeDef* )((DMA_HandleTypeDef* )hdma)->Parent;
 745              		.loc 1 1355 0
 746 0002 846A     		ldr	r4, [r0, #40]
 747              	.LVL49:
1356:../../drivers/third_party/ST/STM32L4xx_HAL_Driver/Src/stm32l4xx_hal_dac.c ****     
1357:../../drivers/third_party/ST/STM32L4xx_HAL_Driver/Src/stm32l4xx_hal_dac.c ****   /* Set DAC error code to DMA error */
1358:../../drivers/third_party/ST/STM32L4xx_HAL_Driver/Src/stm32l4xx_hal_dac.c ****   hdac->ErrorCode |= HAL_DAC_ERROR_DMA;
 748              		.loc 1 1358 0
 749 0004 2369     		ldr	r3, [r4, #16]
 750 0006 43F00403 		orr	r3, r3, #4
 751 000a 2361     		str	r3, [r4, #16]
1359:../../drivers/third_party/ST/STM32L4xx_HAL_Driver/Src/stm32l4xx_hal_dac.c ****     
1360:../../drivers/third_party/ST/STM32L4xx_HAL_Driver/Src/stm32l4xx_hal_dac.c ****   HAL_DAC_ErrorCallbackCh1(hdac); 
 752              		.loc 1 1360 0
 753 000c 2046     		mov	r0, r4
 754              	.LVL50:
 755 000e FFF7FEFF 		bl	HAL_DAC_ErrorCallbackCh1
 756              	.LVL51:
1361:../../drivers/third_party/ST/STM32L4xx_HAL_Driver/Src/stm32l4xx_hal_dac.c ****     
1362:../../drivers/third_party/ST/STM32L4xx_HAL_Driver/Src/stm32l4xx_hal_dac.c ****   hdac->State= HAL_DAC_STATE_READY;
 757              		.loc 1 1362 0
 758 0012 0123     		movs	r3, #1
 759 0014 2371     		strb	r3, [r4, #4]
1363:../../drivers/third_party/ST/STM32L4xx_HAL_Driver/Src/stm32l4xx_hal_dac.c **** }
 760              		.loc 1 1363 0
 761 0016 10BD     		pop	{r4, pc}
 762              		.cfi_endproc
 763              	.LFE300:
 765              		.section	.text.HAL_DAC_DMAUnderrunCallbackCh1,"ax",%progbits
 766              		.align	1
 767              		.weak	HAL_DAC_DMAUnderrunCallbackCh1
 768              		.syntax unified
 769              		.thumb
 770              		.thumb_func
 771              		.fpu fpv4-sp-d16
 773              	HAL_DAC_DMAUnderrunCallbackCh1:
 774              	.LFB310:
ARM GAS  C:\Users\LuckyE\AppData\Local\Temp\cca5DOBs.s 			page 39


 775              		.cfi_startproc
 776              		@ args = 0, pretend = 0, frame = 0
 777              		@ frame_needed = 0, uses_anonymous_args = 0
 778              		@ link register save eliminated.
 779 0000 7047     		bx	lr
 780              		.cfi_endproc
 781              	.LFE310:
 783              		.section	.text.HAL_DAC_IRQHandler,"ax",%progbits
 784              		.align	1
 785              		.global	HAL_DAC_IRQHandler
 786              		.syntax unified
 787              		.thumb
 788              		.thumb_func
 789              		.fpu fpv4-sp-d16
 791              	HAL_DAC_IRQHandler:
 792              	.LFB288:
 863:../../drivers/third_party/ST/STM32L4xx_HAL_Driver/Src/stm32l4xx_hal_dac.c ****   if(__HAL_DAC_GET_IT_SOURCE(hdac, DAC_IT_DMAUDR1))
 793              		.loc 1 863 0
 794              		.cfi_startproc
 795              		@ args = 0, pretend = 0, frame = 0
 796              		@ frame_needed = 0, uses_anonymous_args = 0
 797              	.LVL52:
 864:../../drivers/third_party/ST/STM32L4xx_HAL_Driver/Src/stm32l4xx_hal_dac.c ****   { 
 798              		.loc 1 864 0
 799 0000 0368     		ldr	r3, [r0]
 800 0002 1A68     		ldr	r2, [r3]
 801 0004 9104     		lsls	r1, r2, #18
 863:../../drivers/third_party/ST/STM32L4xx_HAL_Driver/Src/stm32l4xx_hal_dac.c ****   if(__HAL_DAC_GET_IT_SOURCE(hdac, DAC_IT_DMAUDR1))
 802              		.loc 1 863 0
 803 0006 10B5     		push	{r4, lr}
 804              	.LCFI12:
 805              		.cfi_def_cfa_offset 8
 806              		.cfi_offset 4, -8
 807              		.cfi_offset 14, -4
 863:../../drivers/third_party/ST/STM32L4xx_HAL_Driver/Src/stm32l4xx_hal_dac.c ****   if(__HAL_DAC_GET_IT_SOURCE(hdac, DAC_IT_DMAUDR1))
 808              		.loc 1 863 0
 809 0008 0446     		mov	r4, r0
 864:../../drivers/third_party/ST/STM32L4xx_HAL_Driver/Src/stm32l4xx_hal_dac.c ****   { 
 810              		.loc 1 864 0
 811 000a 11D5     		bpl	.L56
 867:../../drivers/third_party/ST/STM32L4xx_HAL_Driver/Src/stm32l4xx_hal_dac.c ****     {
 812              		.loc 1 867 0
 813 000c 5A6B     		ldr	r2, [r3, #52]
 814 000e 9204     		lsls	r2, r2, #18
 815 0010 0ED5     		bpl	.L56
 870:../../drivers/third_party/ST/STM32L4xx_HAL_Driver/Src/stm32l4xx_hal_dac.c ****       
 816              		.loc 1 870 0
 817 0012 0422     		movs	r2, #4
 818 0014 0271     		strb	r2, [r0, #4]
 873:../../drivers/third_party/ST/STM32L4xx_HAL_Driver/Src/stm32l4xx_hal_dac.c ****       
 819              		.loc 1 873 0
 820 0016 0269     		ldr	r2, [r0, #16]
 821 0018 42F00102 		orr	r2, r2, #1
 822 001c 0261     		str	r2, [r0, #16]
 876:../../drivers/third_party/ST/STM32L4xx_HAL_Driver/Src/stm32l4xx_hal_dac.c ****       
 823              		.loc 1 876 0
 824 001e 4FF40052 		mov	r2, #8192
ARM GAS  C:\Users\LuckyE\AppData\Local\Temp\cca5DOBs.s 			page 40


 825 0022 5A63     		str	r2, [r3, #52]
 879:../../drivers/third_party/ST/STM32L4xx_HAL_Driver/Src/stm32l4xx_hal_dac.c ****       
 826              		.loc 1 879 0
 827 0024 1A68     		ldr	r2, [r3]
 828 0026 22F48052 		bic	r2, r2, #4096
 829 002a 1A60     		str	r2, [r3]
 882:../../drivers/third_party/ST/STM32L4xx_HAL_Driver/Src/stm32l4xx_hal_dac.c ****     }
 830              		.loc 1 882 0
 831 002c FFF7FEFF 		bl	HAL_DAC_DMAUnderrunCallbackCh1
 832              	.LVL53:
 833              	.L56:
 888:../../drivers/third_party/ST/STM32L4xx_HAL_Driver/Src/stm32l4xx_hal_dac.c ****   {
 834              		.loc 1 888 0
 835 0030 2368     		ldr	r3, [r4]
 836 0032 1A68     		ldr	r2, [r3]
 837 0034 9100     		lsls	r1, r2, #2
 838 0036 14D5     		bpl	.L55
 891:../../drivers/third_party/ST/STM32L4xx_HAL_Driver/Src/stm32l4xx_hal_dac.c ****     {
 839              		.loc 1 891 0
 840 0038 5A6B     		ldr	r2, [r3, #52]
 841 003a 9200     		lsls	r2, r2, #2
 842 003c 11D5     		bpl	.L55
 894:../../drivers/third_party/ST/STM32L4xx_HAL_Driver/Src/stm32l4xx_hal_dac.c ****       
 843              		.loc 1 894 0
 844 003e 0422     		movs	r2, #4
 845 0040 2271     		strb	r2, [r4, #4]
 897:../../drivers/third_party/ST/STM32L4xx_HAL_Driver/Src/stm32l4xx_hal_dac.c ****       
 846              		.loc 1 897 0
 847 0042 2269     		ldr	r2, [r4, #16]
 848 0044 42F00202 		orr	r2, r2, #2
 849 0048 2261     		str	r2, [r4, #16]
 900:../../drivers/third_party/ST/STM32L4xx_HAL_Driver/Src/stm32l4xx_hal_dac.c ****       
 850              		.loc 1 900 0
 851 004a 4FF00052 		mov	r2, #536870912
 852 004e 5A63     		str	r2, [r3, #52]
 903:../../drivers/third_party/ST/STM32L4xx_HAL_Driver/Src/stm32l4xx_hal_dac.c ****       
 853              		.loc 1 903 0
 854 0050 1A68     		ldr	r2, [r3]
 855 0052 22F08052 		bic	r2, r2, #268435456
 906:../../drivers/third_party/ST/STM32L4xx_HAL_Driver/Src/stm32l4xx_hal_dac.c ****     }
 856              		.loc 1 906 0
 857 0056 2046     		mov	r0, r4
 903:../../drivers/third_party/ST/STM32L4xx_HAL_Driver/Src/stm32l4xx_hal_dac.c ****       
 858              		.loc 1 903 0
 859 0058 1A60     		str	r2, [r3]
 912:../../drivers/third_party/ST/STM32L4xx_HAL_Driver/Src/stm32l4xx_hal_dac.c **** 
 860              		.loc 1 912 0
 861 005a BDE81040 		pop	{r4, lr}
 862              	.LCFI13:
 863              		.cfi_remember_state
 864              		.cfi_restore 14
 865              		.cfi_restore 4
 866              		.cfi_def_cfa_offset 0
 867              	.LVL54:
 906:../../drivers/third_party/ST/STM32L4xx_HAL_Driver/Src/stm32l4xx_hal_dac.c ****     }
 868              		.loc 1 906 0
 869 005e FFF7FEBF 		b	HAL_DACEx_DMAUnderrunCallbackCh2
ARM GAS  C:\Users\LuckyE\AppData\Local\Temp\cca5DOBs.s 			page 41


 870              	.LVL55:
 871              	.L55:
 872              	.LCFI14:
 873              		.cfi_restore_state
 912:../../drivers/third_party/ST/STM32L4xx_HAL_Driver/Src/stm32l4xx_hal_dac.c **** 
 874              		.loc 1 912 0
 875 0062 10BD     		pop	{r4, pc}
 876              		.cfi_endproc
 877              	.LFE288:
 879              		.section	.text.HAL_DAC_GetValue,"ax",%progbits
 880              		.align	1
 881              		.global	HAL_DAC_GetValue
 882              		.syntax unified
 883              		.thumb
 884              		.thumb_func
 885              		.fpu fpv4-sp-d16
 887              	HAL_DAC_GetValue:
 888              	.LFB294:
1050:../../drivers/third_party/ST/STM32L4xx_HAL_Driver/Src/stm32l4xx_hal_dac.c ****   /* Check the parameters */
 889              		.loc 1 1050 0
 890              		.cfi_startproc
 891              		@ args = 0, pretend = 0, frame = 0
 892              		@ frame_needed = 0, uses_anonymous_args = 0
 893              		@ link register save eliminated.
 894              	.LVL56:
 895 0000 0368     		ldr	r3, [r0]
1062:../../drivers/third_party/ST/STM32L4xx_HAL_Driver/Src/stm32l4xx_hal_dac.c ****   {
 896              		.loc 1 1062 0
 897 0002 09B9     		cbnz	r1, .L71
1064:../../drivers/third_party/ST/STM32L4xx_HAL_Driver/Src/stm32l4xx_hal_dac.c ****   }
 898              		.loc 1 1064 0
 899 0004 D86A     		ldr	r0, [r3, #44]
 900              	.LVL57:
 901 0006 7047     		bx	lr
 902              	.LVL58:
 903              	.L71:
1068:../../drivers/third_party/ST/STM32L4xx_HAL_Driver/Src/stm32l4xx_hal_dac.c ****   }
 904              		.loc 1 1068 0
 905 0008 186B     		ldr	r0, [r3, #48]
 906              	.LVL59:
1073:../../drivers/third_party/ST/STM32L4xx_HAL_Driver/Src/stm32l4xx_hal_dac.c **** 
 907              		.loc 1 1073 0
 908 000a 7047     		bx	lr
 909              		.cfi_endproc
 910              	.LFE294:
 912              		.section	.text.HAL_DAC_ConfigChannel,"ax",%progbits
 913              		.align	1
 914              		.global	HAL_DAC_ConfigChannel
 915              		.syntax unified
 916              		.thumb
 917              		.thumb_func
 918              		.fpu fpv4-sp-d16
 920              	HAL_DAC_ConfigChannel:
 921              	.LFB295:
1087:../../drivers/third_party/ST/STM32L4xx_HAL_Driver/Src/stm32l4xx_hal_dac.c ****   uint32_t tmpreg1 = 0, tmpreg2 = 0;
 922              		.loc 1 1087 0
 923              		.cfi_startproc
ARM GAS  C:\Users\LuckyE\AppData\Local\Temp\cca5DOBs.s 			page 42


 924              		@ args = 0, pretend = 0, frame = 0
 925              		@ frame_needed = 0, uses_anonymous_args = 0
 926              	.LVL60:
 927 0000 F8B5     		push	{r3, r4, r5, r6, r7, lr}
 928              	.LCFI15:
 929              		.cfi_def_cfa_offset 24
 930              		.cfi_offset 3, -24
 931              		.cfi_offset 4, -20
 932              		.cfi_offset 5, -16
 933              		.cfi_offset 6, -12
 934              		.cfi_offset 7, -8
 935              		.cfi_offset 14, -4
1116:../../drivers/third_party/ST/STM32L4xx_HAL_Driver/Src/stm32l4xx_hal_dac.c ****   
 936              		.loc 1 1116 0
 937 0002 4379     		ldrb	r3, [r0, #5]	@ zero_extendqisi2
 938 0004 012B     		cmp	r3, #1
1087:../../drivers/third_party/ST/STM32L4xx_HAL_Driver/Src/stm32l4xx_hal_dac.c ****   uint32_t tmpreg1 = 0, tmpreg2 = 0;
 939              		.loc 1 1087 0
 940 0006 0446     		mov	r4, r0
 941 0008 0E46     		mov	r6, r1
 942 000a 1546     		mov	r5, r2
 943 000c 4FF00200 		mov	r0, #2
 944              	.LVL61:
1116:../../drivers/third_party/ST/STM32L4xx_HAL_Driver/Src/stm32l4xx_hal_dac.c ****   
 945              		.loc 1 1116 0
 946 0010 6AD0     		beq	.L74
1107:../../drivers/third_party/ST/STM32L4xx_HAL_Driver/Src/stm32l4xx_hal_dac.c ****   {
 947              		.loc 1 1107 0 discriminator 2
 948 0012 0B68     		ldr	r3, [r1]
1119:../../drivers/third_party/ST/STM32L4xx_HAL_Driver/Src/stm32l4xx_hal_dac.c ****   
 949              		.loc 1 1119 0 discriminator 2
 950 0014 2071     		strb	r0, [r4, #4]
1116:../../drivers/third_party/ST/STM32L4xx_HAL_Driver/Src/stm32l4xx_hal_dac.c ****   
 951              		.loc 1 1116 0 discriminator 2
 952 0016 0122     		movs	r2, #1
 953              	.LVL62:
1121:../../drivers/third_party/ST/STM32L4xx_HAL_Driver/Src/stm32l4xx_hal_dac.c ****   /* Sample on old configuration */ 
 954              		.loc 1 1121 0 discriminator 2
 955 0018 042B     		cmp	r3, #4
1116:../../drivers/third_party/ST/STM32L4xx_HAL_Driver/Src/stm32l4xx_hal_dac.c ****   
 956              		.loc 1 1116 0 discriminator 2
 957 001a 6271     		strb	r2, [r4, #5]
1121:../../drivers/third_party/ST/STM32L4xx_HAL_Driver/Src/stm32l4xx_hal_dac.c ****   /* Sample on old configuration */ 
 958              		.loc 1 1121 0 discriminator 2
 959 001c 22D1     		bne	.L75
1125:../../drivers/third_party/ST/STM32L4xx_HAL_Driver/Src/stm32l4xx_hal_dac.c ****     {
 960              		.loc 1 1125 0
 961 001e 002D     		cmp	r5, #0
 962 0020 67D1     		bne	.L76
1128:../../drivers/third_party/ST/STM32L4xx_HAL_Driver/Src/stm32l4xx_hal_dac.c ****       
 963              		.loc 1 1128 0
 964 0022 FFF7FEFF 		bl	HAL_GetTick
 965              	.LVL63:
 966 0026 0746     		mov	r7, r0
 967              	.LVL64:
 968              	.L77:
1131:../../drivers/third_party/ST/STM32L4xx_HAL_Driver/Src/stm32l4xx_hal_dac.c ****       {
ARM GAS  C:\Users\LuckyE\AppData\Local\Temp\cca5DOBs.s 			page 43


 969              		.loc 1 1131 0
 970 0028 2368     		ldr	r3, [r4]
 971 002a 5B6B     		ldr	r3, [r3, #52]
 972 002c 1B04     		lsls	r3, r3, #16
 973 002e 50D4     		bmi	.L78
1145:../../drivers/third_party/ST/STM32L4xx_HAL_Driver/Src/stm32l4xx_hal_dac.c ****       hdac->Instance->SHSR1 = sConfig->DAC_SampleAndHoldConfig.DAC_SampleTime;
 974              		.loc 1 1145 0
 975 0030 0120     		movs	r0, #1
 976 0032 FFF7FEFF 		bl	HAL_Delay
 977              	.LVL65:
1146:../../drivers/third_party/ST/STM32L4xx_HAL_Driver/Src/stm32l4xx_hal_dac.c ****     }
 978              		.loc 1 1146 0
 979 0036 2368     		ldr	r3, [r4]
 980 0038 B269     		ldr	r2, [r6, #24]
 981 003a 1A64     		str	r2, [r3, #64]
 982              	.LVL66:
 983              	.L79:
1173:../../drivers/third_party/ST/STM32L4xx_HAL_Driver/Src/stm32l4xx_hal_dac.c ****     /* RefreshTime */
 984              		.loc 1 1173 0
 985 003c 2268     		ldr	r2, [r4]
 986 003e 40F2FF31 		movw	r1, #1023
 987 0042 936C     		ldr	r3, [r2, #72]
 988 0044 A940     		lsls	r1, r1, r5
 989 0046 23EA0103 		bic	r3, r3, r1
 990 004a F169     		ldr	r1, [r6, #28]
 991 004c A940     		lsls	r1, r1, r5
 992 004e 0B43     		orrs	r3, r3, r1
 993 0050 9364     		str	r3, [r2, #72]
1175:../../drivers/third_party/ST/STM32L4xx_HAL_Driver/Src/stm32l4xx_hal_dac.c ****   }
 994              		.loc 1 1175 0
 995 0052 D36C     		ldr	r3, [r2, #76]
 996 0054 FF21     		movs	r1, #255
 997 0056 A940     		lsls	r1, r1, r5
 998 0058 23EA0103 		bic	r3, r3, r1
 999 005c 316A     		ldr	r1, [r6, #32]
 1000 005e A940     		lsls	r1, r1, r5
 1001 0060 0B43     		orrs	r3, r3, r1
 1002 0062 D364     		str	r3, [r2, #76]
 1003              	.L75:
1178:../../drivers/third_party/ST/STM32L4xx_HAL_Driver/Src/stm32l4xx_hal_dac.c ****   /* USER TRIMMING */
 1004              		.loc 1 1178 0
 1005 0064 3269     		ldr	r2, [r6, #16]
 1006 0066 2368     		ldr	r3, [r4]
 1007 0068 012A     		cmp	r2, #1
 1008 006a 08D1     		bne	.L81
1182:../../drivers/third_party/ST/STM32L4xx_HAL_Driver/Src/stm32l4xx_hal_dac.c ****   /* Clear trimming value */
 1009              		.loc 1 1182 0
 1010 006c 9A6B     		ldr	r2, [r3, #56]
 1011              	.LVL67:
1184:../../drivers/third_party/ST/STM32L4xx_HAL_Driver/Src/stm32l4xx_hal_dac.c ****   /* Configure for the selected trimming offset */
 1012              		.loc 1 1184 0
 1013 006e 1F21     		movs	r1, #31
 1014 0070 A940     		lsls	r1, r1, r5
 1015 0072 22EA0101 		bic	r1, r2, r1
 1016              	.LVL68:
1188:../../drivers/third_party/ST/STM32L4xx_HAL_Driver/Src/stm32l4xx_hal_dac.c ****   /* Write to DAC CCR */
 1017              		.loc 1 1188 0
ARM GAS  C:\Users\LuckyE\AppData\Local\Temp\cca5DOBs.s 			page 44


 1018 0076 7269     		ldr	r2, [r6, #20]
 1019 0078 AA40     		lsls	r2, r2, r5
 1020 007a 0A43     		orrs	r2, r2, r1
 1021              	.LVL69:
1190:../../drivers/third_party/ST/STM32L4xx_HAL_Driver/Src/stm32l4xx_hal_dac.c ****   }
 1022              		.loc 1 1190 0
 1023 007c 9A63     		str	r2, [r3, #56]
 1024              	.LVL70:
 1025              	.L81:
1196:../../drivers/third_party/ST/STM32L4xx_HAL_Driver/Src/stm32l4xx_hal_dac.c ****   /* Clear DAC_MCR_MODE2_0, DAC_MCR_MODE2_1 and DAC_MCR_MODE2_2 bits */
 1026              		.loc 1 1196 0
 1027 007e DA6B     		ldr	r2, [r3, #60]
 1028              	.LVL71:
1200:../../drivers/third_party/ST/STM32L4xx_HAL_Driver/Src/stm32l4xx_hal_dac.c ****   /* Calculate MCR register value depending on DAC_Channel */
 1029              		.loc 1 1200 0
 1030 0080 B068     		ldr	r0, [r6, #8]
1198:../../drivers/third_party/ST/STM32L4xx_HAL_Driver/Src/stm32l4xx_hal_dac.c ****   /* Configure for the selected DAC channel: mode, buffer output & on chip peripheral connect */
 1031              		.loc 1 1198 0
 1032 0082 0721     		movs	r1, #7
 1033 0084 A940     		lsls	r1, r1, r5
 1034 0086 22EA0101 		bic	r1, r2, r1
 1035              	.LVL72:
1200:../../drivers/third_party/ST/STM32L4xx_HAL_Driver/Src/stm32l4xx_hal_dac.c ****   /* Calculate MCR register value depending on DAC_Channel */
 1036              		.loc 1 1200 0
 1037 008a 3268     		ldr	r2, [r6]
 1038 008c 0243     		orrs	r2, r2, r0
 1039 008e F068     		ldr	r0, [r6, #12]
 1040              	.LVL73:
 1041 0090 0243     		orrs	r2, r2, r0
 1042              	.LVL74:
1202:../../drivers/third_party/ST/STM32L4xx_HAL_Driver/Src/stm32l4xx_hal_dac.c ****   /* Write to DAC MCR */
 1043              		.loc 1 1202 0
 1044 0092 AA40     		lsls	r2, r2, r5
 1045              	.LVL75:
 1046 0094 0A43     		orrs	r2, r2, r1
 1047              	.LVL76:
1204:../../drivers/third_party/ST/STM32L4xx_HAL_Driver/Src/stm32l4xx_hal_dac.c ****   
 1048              		.loc 1 1204 0
 1049 0096 DA63     		str	r2, [r3, #60]
1207:../../drivers/third_party/ST/STM32L4xx_HAL_Driver/Src/stm32l4xx_hal_dac.c ****   
 1050              		.loc 1 1207 0
 1051 0098 1A68     		ldr	r2, [r3]
 1052              	.LVL77:
 1053 009a 4FF48041 		mov	r1, #16384
 1054 009e A940     		lsls	r1, r1, r5
 1055 00a0 22EA0102 		bic	r2, r2, r1
 1056 00a4 1A60     		str	r2, [r3]
 1057              	.LVL78:
1210:../../drivers/third_party/ST/STM32L4xx_HAL_Driver/Src/stm32l4xx_hal_dac.c ****   /* Clear TENx, TSELx, WAVEx and MAMPx bits */
 1058              		.loc 1 1210 0
 1059 00a6 1A68     		ldr	r2, [r3]
 1060              	.LVL79:
1212:../../drivers/third_party/ST/STM32L4xx_HAL_Driver/Src/stm32l4xx_hal_dac.c ****   /* Configure for the selected DAC channel: trigger */
 1061              		.loc 1 1212 0
 1062 00a8 40F6FC71 		movw	r1, #4092
 1063 00ac A940     		lsls	r1, r1, r5
 1064 00ae 22EA0101 		bic	r1, r2, r1
ARM GAS  C:\Users\LuckyE\AppData\Local\Temp\cca5DOBs.s 			page 45


 1065              	.LVL80:
1217:../../drivers/third_party/ST/STM32L4xx_HAL_Driver/Src/stm32l4xx_hal_dac.c **** #if defined (STM32L4R5xx) || defined (STM32L4R7xx) || defined (STM32L4R9xx) || defined (STM32L4S5xx
 1066              		.loc 1 1217 0
 1067 00b2 7268     		ldr	r2, [r6, #4]
 1068 00b4 AA40     		lsls	r2, r2, r5
 1069 00b6 0A43     		orrs	r2, r2, r1
 1070              	.LVL81:
1248:../../drivers/third_party/ST/STM32L4xx_HAL_Driver/Src/stm32l4xx_hal_dac.c ****       
 1071              		.loc 1 1248 0
 1072 00b8 1A60     		str	r2, [r3]
1251:../../drivers/third_party/ST/STM32L4xx_HAL_Driver/Src/stm32l4xx_hal_dac.c ****   
 1073              		.loc 1 1251 0
 1074 00ba 1968     		ldr	r1, [r3]
 1075 00bc C022     		movs	r2, #192
 1076              	.LVL82:
 1077 00be 02FA05F5 		lsl	r5, r2, r5
 1078              	.LVL83:
 1079 00c2 21EA0505 		bic	r5, r1, r5
 1080 00c6 1D60     		str	r5, [r3]
 1081              	.LVL84:
1257:../../drivers/third_party/ST/STM32L4xx_HAL_Driver/Src/stm32l4xx_hal_dac.c ****   
 1082              		.loc 1 1257 0
 1083 00c8 0020     		movs	r0, #0
1254:../../drivers/third_party/ST/STM32L4xx_HAL_Driver/Src/stm32l4xx_hal_dac.c ****   
 1084              		.loc 1 1254 0
 1085 00ca 0123     		movs	r3, #1
 1086 00cc 2371     		strb	r3, [r4, #4]
1257:../../drivers/third_party/ST/STM32L4xx_HAL_Driver/Src/stm32l4xx_hal_dac.c ****   
 1087              		.loc 1 1257 0
 1088 00ce 6071     		strb	r0, [r4, #5]
1260:../../drivers/third_party/ST/STM32L4xx_HAL_Driver/Src/stm32l4xx_hal_dac.c **** }
 1089              		.loc 1 1260 0
 1090 00d0 0AE0     		b	.L74
 1091              	.LVL85:
 1092              	.L78:
1134:../../drivers/third_party/ST/STM32L4xx_HAL_Driver/Src/stm32l4xx_hal_dac.c ****         {
 1093              		.loc 1 1134 0
 1094 00d2 FFF7FEFF 		bl	HAL_GetTick
 1095              	.LVL86:
 1096 00d6 C01B     		subs	r0, r0, r7
 1097 00d8 0128     		cmp	r0, #1
 1098 00da A5D9     		bls	.L77
 1099              	.LVL87:
 1100              	.L86:
1159:../../drivers/third_party/ST/STM32L4xx_HAL_Driver/Src/stm32l4xx_hal_dac.c **** 
 1101              		.loc 1 1159 0
 1102 00dc 2369     		ldr	r3, [r4, #16]
1162:../../drivers/third_party/ST/STM32L4xx_HAL_Driver/Src/stm32l4xx_hal_dac.c **** 
 1103              		.loc 1 1162 0
 1104 00de 0320     		movs	r0, #3
1159:../../drivers/third_party/ST/STM32L4xx_HAL_Driver/Src/stm32l4xx_hal_dac.c **** 
 1105              		.loc 1 1159 0
 1106 00e0 43F00803 		orr	r3, r3, #8
 1107 00e4 2361     		str	r3, [r4, #16]
1162:../../drivers/third_party/ST/STM32L4xx_HAL_Driver/Src/stm32l4xx_hal_dac.c **** 
 1108              		.loc 1 1162 0
 1109 00e6 2071     		strb	r0, [r4, #4]
ARM GAS  C:\Users\LuckyE\AppData\Local\Temp\cca5DOBs.s 			page 46


 1110              	.LVL88:
 1111              	.L74:
1261:../../drivers/third_party/ST/STM32L4xx_HAL_Driver/Src/stm32l4xx_hal_dac.c **** 
 1112              		.loc 1 1261 0
 1113 00e8 F8BD     		pop	{r3, r4, r5, r6, r7, pc}
 1114              	.LVL89:
 1115              	.L80:
1156:../../drivers/third_party/ST/STM32L4xx_HAL_Driver/Src/stm32l4xx_hal_dac.c ****         {
 1116              		.loc 1 1156 0
 1117 00ea FFF7FEFF 		bl	HAL_GetTick
 1118              	.LVL90:
 1119 00ee 0128     		cmp	r0, #1
 1120 00f0 F4D8     		bhi	.L86
 1121              	.L76:
1153:../../drivers/third_party/ST/STM32L4xx_HAL_Driver/Src/stm32l4xx_hal_dac.c ****       {
 1122              		.loc 1 1153 0
 1123 00f2 2368     		ldr	r3, [r4]
 1124 00f4 5B6B     		ldr	r3, [r3, #52]
 1125 00f6 002B     		cmp	r3, #0
 1126 00f8 F7DB     		blt	.L80
1167:../../drivers/third_party/ST/STM32L4xx_HAL_Driver/Src/stm32l4xx_hal_dac.c ****       hdac->Instance->SHSR2 = sConfig->DAC_SampleAndHoldConfig.DAC_SampleTime;
 1127              		.loc 1 1167 0
 1128 00fa 0120     		movs	r0, #1
 1129 00fc FFF7FEFF 		bl	HAL_Delay
 1130              	.LVL91:
1168:../../drivers/third_party/ST/STM32L4xx_HAL_Driver/Src/stm32l4xx_hal_dac.c ****     }
 1131              		.loc 1 1168 0
 1132 0100 2368     		ldr	r3, [r4]
 1133 0102 B269     		ldr	r2, [r6, #24]
 1134 0104 5A64     		str	r2, [r3, #68]
 1135 0106 99E7     		b	.L79
 1136              		.cfi_endproc
 1137              	.LFE295:
 1139              		.section	.text.HAL_DAC_GetState,"ax",%progbits
 1140              		.align	1
 1141              		.global	HAL_DAC_GetState
 1142              		.syntax unified
 1143              		.thumb
 1144              		.thumb_func
 1145              		.fpu fpv4-sp-d16
 1147              	HAL_DAC_GetState:
 1148              	.LFB296:
1290:../../drivers/third_party/ST/STM32L4xx_HAL_Driver/Src/stm32l4xx_hal_dac.c ****   /* Return DAC handle state */
 1149              		.loc 1 1290 0
 1150              		.cfi_startproc
 1151              		@ args = 0, pretend = 0, frame = 0
 1152              		@ frame_needed = 0, uses_anonymous_args = 0
 1153              		@ link register save eliminated.
 1154              	.LVL92:
1292:../../drivers/third_party/ST/STM32L4xx_HAL_Driver/Src/stm32l4xx_hal_dac.c **** }
 1155              		.loc 1 1292 0
 1156 0000 0079     		ldrb	r0, [r0, #4]	@ zero_extendqisi2
 1157              	.LVL93:
1293:../../drivers/third_party/ST/STM32L4xx_HAL_Driver/Src/stm32l4xx_hal_dac.c **** 
 1158              		.loc 1 1293 0
 1159 0002 7047     		bx	lr
 1160              		.cfi_endproc
ARM GAS  C:\Users\LuckyE\AppData\Local\Temp\cca5DOBs.s 			page 47


 1161              	.LFE296:
 1163              		.section	.text.HAL_DAC_GetError,"ax",%progbits
 1164              		.align	1
 1165              		.global	HAL_DAC_GetError
 1166              		.syntax unified
 1167              		.thumb
 1168              		.thumb_func
 1169              		.fpu fpv4-sp-d16
 1171              	HAL_DAC_GetError:
 1172              	.LFB297:
1303:../../drivers/third_party/ST/STM32L4xx_HAL_Driver/Src/stm32l4xx_hal_dac.c ****   return hdac->ErrorCode;
 1173              		.loc 1 1303 0
 1174              		.cfi_startproc
 1175              		@ args = 0, pretend = 0, frame = 0
 1176              		@ frame_needed = 0, uses_anonymous_args = 0
 1177              		@ link register save eliminated.
 1178              	.LVL94:
1304:../../drivers/third_party/ST/STM32L4xx_HAL_Driver/Src/stm32l4xx_hal_dac.c **** }
 1179              		.loc 1 1304 0
 1180 0000 0069     		ldr	r0, [r0, #16]
 1181              	.LVL95:
1305:../../drivers/third_party/ST/STM32L4xx_HAL_Driver/Src/stm32l4xx_hal_dac.c **** 
 1182              		.loc 1 1305 0
 1183 0002 7047     		bx	lr
 1184              		.cfi_endproc
 1185              	.LFE297:
 1187              		.text
 1188              	.Letext0:
 1189              		.file 2 "c:\\bearpi\\developtools\\gnu tools arm embedded\\7 2018-q2-update\\arm-none-eabi\\includ
 1190              		.file 3 "c:\\bearpi\\developtools\\gnu tools arm embedded\\7 2018-q2-update\\arm-none-eabi\\includ
 1191              		.file 4 "../../iot_link/os/liteos/arch/arm/common/cmsis/core_cm4.h"
 1192              		.file 5 "D:/File/bearpi_liteos/bearpi-iot_std_liteos-master/targets/STM32L431_BearPi/Inc/system_st
 1193              		.file 6 "D:/File/bearpi_liteos/bearpi-iot_std_liteos-master/targets/STM32L431_BearPi/Inc/stm32l431
 1194              		.file 7 "c:\\bearpi\\developtools\\gnu tools arm embedded\\7 2018-q2-update\\arm-none-eabi\\includ
 1195              		.file 8 "c:\\bearpi\\developtools\\gnu tools arm embedded\\7 2018-q2-update\\arm-none-eabi\\includ
 1196              		.file 9 "c:\\bearpi\\developtools\\gnu tools arm embedded\\7 2018-q2-update\\lib\\gcc\\arm-none-ea
 1197              		.file 10 "c:\\bearpi\\developtools\\gnu tools arm embedded\\7 2018-q2-update\\arm-none-eabi\\inclu
 1198              		.file 11 "D:/File/bearpi_liteos/bearpi-iot_std_liteos-master/targets/STM32L431_BearPi/Inc/stm32l4x
 1199              		.file 12 "../../drivers/third_party/ST/STM32L4xx_HAL_Driver/Inc/stm32l4xx_hal_def.h"
 1200              		.file 13 "../../drivers/third_party/ST/STM32L4xx_HAL_Driver/Inc/stm32l4xx_hal_dma.h"
 1201              		.file 14 "../../drivers/third_party/ST/STM32L4xx_HAL_Driver/Inc/stm32l4xx_hal_dac.h"
 1202              		.file 15 "../../drivers/third_party/ST/STM32L4xx_HAL_Driver/Inc/stm32l4xx_hal.h"
 1203              		.file 16 "../../drivers/third_party/ST/STM32L4xx_HAL_Driver/Inc/stm32l4xx_hal_dac_ex.h"
ARM GAS  C:\Users\LuckyE\AppData\Local\Temp\cca5DOBs.s 			page 48

