ARM GAS  C:\Users\LuckyE\AppData\Local\Temp\cccYdq5r.s 			page 1


   1              		.cpu cortex-m4
   2              		.eabi_attribute 27, 1
   3              		.eabi_attribute 28, 1
   4              		.eabi_attribute 20, 1
   5              		.eabi_attribute 21, 1
   6              		.eabi_attribute 23, 3
   7              		.eabi_attribute 24, 1
   8              		.eabi_attribute 25, 1
   9              		.eabi_attribute 26, 1
  10              		.eabi_attribute 30, 4
  11              		.eabi_attribute 34, 1
  12              		.eabi_attribute 18, 4
  13              		.file	"stm32l4xx_hal_pwr_ex.c"
  14              		.text
  15              	.Ltext0:
  16              		.cfi_sections	.debug_frame
  17              		.section	.text.HAL_PWREx_GetVoltageRange,"ax",%progbits
  18              		.align	1
  19              		.global	HAL_PWREx_GetVoltageRange
  20              		.syntax unified
  21              		.thumb
  22              		.thumb_func
  23              		.fpu fpv4-sp-d16
  25              	HAL_PWREx_GetVoltageRange:
  26              	.LFB280:
  27              		.file 1 "../../drivers/third_party/ST/STM32L4xx_HAL_Driver/Src/stm32l4xx_hal_pwr_ex.c"
   1:../../drivers/third_party/ST/STM32L4xx_HAL_Driver/Src/stm32l4xx_hal_pwr_ex.c **** /**
   2:../../drivers/third_party/ST/STM32L4xx_HAL_Driver/Src/stm32l4xx_hal_pwr_ex.c ****   ******************************************************************************
   3:../../drivers/third_party/ST/STM32L4xx_HAL_Driver/Src/stm32l4xx_hal_pwr_ex.c ****   * @file    stm32l4xx_hal_pwr_ex.c
   4:../../drivers/third_party/ST/STM32L4xx_HAL_Driver/Src/stm32l4xx_hal_pwr_ex.c ****   * @author  MCD Application Team
   5:../../drivers/third_party/ST/STM32L4xx_HAL_Driver/Src/stm32l4xx_hal_pwr_ex.c ****   * @brief   Extended PWR HAL module driver.
   6:../../drivers/third_party/ST/STM32L4xx_HAL_Driver/Src/stm32l4xx_hal_pwr_ex.c ****   *          This file provides firmware functions to manage the following
   7:../../drivers/third_party/ST/STM32L4xx_HAL_Driver/Src/stm32l4xx_hal_pwr_ex.c ****   *          functionalities of the Power Controller (PWR) peripheral:
   8:../../drivers/third_party/ST/STM32L4xx_HAL_Driver/Src/stm32l4xx_hal_pwr_ex.c ****   *           + Extended Initialization and de-initialization functions
   9:../../drivers/third_party/ST/STM32L4xx_HAL_Driver/Src/stm32l4xx_hal_pwr_ex.c ****   *           + Extended Peripheral Control functions
  10:../../drivers/third_party/ST/STM32L4xx_HAL_Driver/Src/stm32l4xx_hal_pwr_ex.c ****   *         
  11:../../drivers/third_party/ST/STM32L4xx_HAL_Driver/Src/stm32l4xx_hal_pwr_ex.c ****   ******************************************************************************
  12:../../drivers/third_party/ST/STM32L4xx_HAL_Driver/Src/stm32l4xx_hal_pwr_ex.c ****   * @attention
  13:../../drivers/third_party/ST/STM32L4xx_HAL_Driver/Src/stm32l4xx_hal_pwr_ex.c ****   *
  14:../../drivers/third_party/ST/STM32L4xx_HAL_Driver/Src/stm32l4xx_hal_pwr_ex.c ****   * <h2><center>&copy; COPYRIGHT(c) 2017 STMicroelectronics</center></h2>
  15:../../drivers/third_party/ST/STM32L4xx_HAL_Driver/Src/stm32l4xx_hal_pwr_ex.c ****   *
  16:../../drivers/third_party/ST/STM32L4xx_HAL_Driver/Src/stm32l4xx_hal_pwr_ex.c ****   * Redistribution and use in source and binary forms, with or without modification,
  17:../../drivers/third_party/ST/STM32L4xx_HAL_Driver/Src/stm32l4xx_hal_pwr_ex.c ****   * are permitted provided that the following conditions are met:
  18:../../drivers/third_party/ST/STM32L4xx_HAL_Driver/Src/stm32l4xx_hal_pwr_ex.c ****   *   1. Redistributions of source code must retain the above copyright notice,
  19:../../drivers/third_party/ST/STM32L4xx_HAL_Driver/Src/stm32l4xx_hal_pwr_ex.c ****   *      this list of conditions and the following disclaimer.
  20:../../drivers/third_party/ST/STM32L4xx_HAL_Driver/Src/stm32l4xx_hal_pwr_ex.c ****   *   2. Redistributions in binary form must reproduce the above copyright notice,
  21:../../drivers/third_party/ST/STM32L4xx_HAL_Driver/Src/stm32l4xx_hal_pwr_ex.c ****   *      this list of conditions and the following disclaimer in the documentation
  22:../../drivers/third_party/ST/STM32L4xx_HAL_Driver/Src/stm32l4xx_hal_pwr_ex.c ****   *      and/or other materials provided with the distribution.
  23:../../drivers/third_party/ST/STM32L4xx_HAL_Driver/Src/stm32l4xx_hal_pwr_ex.c ****   *   3. Neither the name of STMicroelectronics nor the names of its contributors
  24:../../drivers/third_party/ST/STM32L4xx_HAL_Driver/Src/stm32l4xx_hal_pwr_ex.c ****   *      may be used to endorse or promote products derived from this software
  25:../../drivers/third_party/ST/STM32L4xx_HAL_Driver/Src/stm32l4xx_hal_pwr_ex.c ****   *      without specific prior written permission.
  26:../../drivers/third_party/ST/STM32L4xx_HAL_Driver/Src/stm32l4xx_hal_pwr_ex.c ****   *
  27:../../drivers/third_party/ST/STM32L4xx_HAL_Driver/Src/stm32l4xx_hal_pwr_ex.c ****   * THIS SOFTWARE IS PROVIDED BY THE COPYRIGHT HOLDERS AND CONTRIBUTORS "AS IS"
  28:../../drivers/third_party/ST/STM32L4xx_HAL_Driver/Src/stm32l4xx_hal_pwr_ex.c ****   * AND ANY EXPRESS OR IMPLIED WARRANTIES, INCLUDING, BUT NOT LIMITED TO, THE
  29:../../drivers/third_party/ST/STM32L4xx_HAL_Driver/Src/stm32l4xx_hal_pwr_ex.c ****   * IMPLIED WARRANTIES OF MERCHANTABILITY AND FITNESS FOR A PARTICULAR PURPOSE ARE
  30:../../drivers/third_party/ST/STM32L4xx_HAL_Driver/Src/stm32l4xx_hal_pwr_ex.c ****   * DISCLAIMED. IN NO EVENT SHALL THE COPYRIGHT HOLDER OR CONTRIBUTORS BE LIABLE
  31:../../drivers/third_party/ST/STM32L4xx_HAL_Driver/Src/stm32l4xx_hal_pwr_ex.c ****   * FOR ANY DIRECT, INDIRECT, INCIDENTAL, SPECIAL, EXEMPLARY, OR CONSEQUENTIAL
ARM GAS  C:\Users\LuckyE\AppData\Local\Temp\cccYdq5r.s 			page 2


  32:../../drivers/third_party/ST/STM32L4xx_HAL_Driver/Src/stm32l4xx_hal_pwr_ex.c ****   * DAMAGES (INCLUDING, BUT NOT LIMITED TO, PROCUREMENT OF SUBSTITUTE GOODS OR
  33:../../drivers/third_party/ST/STM32L4xx_HAL_Driver/Src/stm32l4xx_hal_pwr_ex.c ****   * SERVICES; LOSS OF USE, DATA, OR PROFITS; OR BUSINESS INTERRUPTION) HOWEVER
  34:../../drivers/third_party/ST/STM32L4xx_HAL_Driver/Src/stm32l4xx_hal_pwr_ex.c ****   * CAUSED AND ON ANY THEORY OF LIABILITY, WHETHER IN CONTRACT, STRICT LIABILITY,
  35:../../drivers/third_party/ST/STM32L4xx_HAL_Driver/Src/stm32l4xx_hal_pwr_ex.c ****   * OR TORT (INCLUDING NEGLIGENCE OR OTHERWISE) ARISING IN ANY WAY OUT OF THE USE
  36:../../drivers/third_party/ST/STM32L4xx_HAL_Driver/Src/stm32l4xx_hal_pwr_ex.c ****   * OF THIS SOFTWARE, EVEN IF ADVISED OF THE POSSIBILITY OF SUCH DAMAGE.
  37:../../drivers/third_party/ST/STM32L4xx_HAL_Driver/Src/stm32l4xx_hal_pwr_ex.c ****   *
  38:../../drivers/third_party/ST/STM32L4xx_HAL_Driver/Src/stm32l4xx_hal_pwr_ex.c ****   ******************************************************************************
  39:../../drivers/third_party/ST/STM32L4xx_HAL_Driver/Src/stm32l4xx_hal_pwr_ex.c ****   */
  40:../../drivers/third_party/ST/STM32L4xx_HAL_Driver/Src/stm32l4xx_hal_pwr_ex.c **** 
  41:../../drivers/third_party/ST/STM32L4xx_HAL_Driver/Src/stm32l4xx_hal_pwr_ex.c **** /* Includes ------------------------------------------------------------------*/
  42:../../drivers/third_party/ST/STM32L4xx_HAL_Driver/Src/stm32l4xx_hal_pwr_ex.c **** #include "stm32l4xx_hal.h"
  43:../../drivers/third_party/ST/STM32L4xx_HAL_Driver/Src/stm32l4xx_hal_pwr_ex.c **** 
  44:../../drivers/third_party/ST/STM32L4xx_HAL_Driver/Src/stm32l4xx_hal_pwr_ex.c **** /** @addtogroup STM32L4xx_HAL_Driver
  45:../../drivers/third_party/ST/STM32L4xx_HAL_Driver/Src/stm32l4xx_hal_pwr_ex.c ****   * @{
  46:../../drivers/third_party/ST/STM32L4xx_HAL_Driver/Src/stm32l4xx_hal_pwr_ex.c ****   */
  47:../../drivers/third_party/ST/STM32L4xx_HAL_Driver/Src/stm32l4xx_hal_pwr_ex.c **** 
  48:../../drivers/third_party/ST/STM32L4xx_HAL_Driver/Src/stm32l4xx_hal_pwr_ex.c **** /** @defgroup PWREx PWREx
  49:../../drivers/third_party/ST/STM32L4xx_HAL_Driver/Src/stm32l4xx_hal_pwr_ex.c ****   * @brief PWR Extended HAL module driver
  50:../../drivers/third_party/ST/STM32L4xx_HAL_Driver/Src/stm32l4xx_hal_pwr_ex.c ****   * @{
  51:../../drivers/third_party/ST/STM32L4xx_HAL_Driver/Src/stm32l4xx_hal_pwr_ex.c ****   */
  52:../../drivers/third_party/ST/STM32L4xx_HAL_Driver/Src/stm32l4xx_hal_pwr_ex.c **** 
  53:../../drivers/third_party/ST/STM32L4xx_HAL_Driver/Src/stm32l4xx_hal_pwr_ex.c **** #ifdef HAL_PWR_MODULE_ENABLED
  54:../../drivers/third_party/ST/STM32L4xx_HAL_Driver/Src/stm32l4xx_hal_pwr_ex.c **** 
  55:../../drivers/third_party/ST/STM32L4xx_HAL_Driver/Src/stm32l4xx_hal_pwr_ex.c **** /* Private typedef -----------------------------------------------------------*/
  56:../../drivers/third_party/ST/STM32L4xx_HAL_Driver/Src/stm32l4xx_hal_pwr_ex.c **** /* Private define ------------------------------------------------------------*/
  57:../../drivers/third_party/ST/STM32L4xx_HAL_Driver/Src/stm32l4xx_hal_pwr_ex.c **** 
  58:../../drivers/third_party/ST/STM32L4xx_HAL_Driver/Src/stm32l4xx_hal_pwr_ex.c **** #if defined (STM32L431xx) || defined (STM32L432xx) || defined (STM32L433xx) || defined (STM32L442xx
  59:../../drivers/third_party/ST/STM32L4xx_HAL_Driver/Src/stm32l4xx_hal_pwr_ex.c **** #define PWR_PORTH_AVAILABLE_PINS   ((uint32_t)0x0000000B) /* PH0/PH1/PH3 */
  60:../../drivers/third_party/ST/STM32L4xx_HAL_Driver/Src/stm32l4xx_hal_pwr_ex.c **** #elif defined (STM32L451xx) || defined (STM32L452xx) || defined (STM32L462xx)
  61:../../drivers/third_party/ST/STM32L4xx_HAL_Driver/Src/stm32l4xx_hal_pwr_ex.c **** #define PWR_PORTH_AVAILABLE_PINS   ((uint32_t)0x0000000B) /* PH0/PH1/PH3 */
  62:../../drivers/third_party/ST/STM32L4xx_HAL_Driver/Src/stm32l4xx_hal_pwr_ex.c **** #elif defined (STM32L471xx) || defined (STM32L475xx) || defined (STM32L476xx) || defined (STM32L485
  63:../../drivers/third_party/ST/STM32L4xx_HAL_Driver/Src/stm32l4xx_hal_pwr_ex.c **** #define PWR_PORTH_AVAILABLE_PINS   ((uint32_t)0x00000003) /* PH0/PH1 */
  64:../../drivers/third_party/ST/STM32L4xx_HAL_Driver/Src/stm32l4xx_hal_pwr_ex.c **** #elif defined (STM32L496xx) || defined (STM32L4A6xx) || defined (STM32L4R5xx) || defined (STM32L4R7
  65:../../drivers/third_party/ST/STM32L4xx_HAL_Driver/Src/stm32l4xx_hal_pwr_ex.c **** #define PWR_PORTH_AVAILABLE_PINS   ((uint32_t)0x0000FFFF) /* PH0..PH15 */
  66:../../drivers/third_party/ST/STM32L4xx_HAL_Driver/Src/stm32l4xx_hal_pwr_ex.c **** #endif
  67:../../drivers/third_party/ST/STM32L4xx_HAL_Driver/Src/stm32l4xx_hal_pwr_ex.c **** 
  68:../../drivers/third_party/ST/STM32L4xx_HAL_Driver/Src/stm32l4xx_hal_pwr_ex.c **** #if defined (STM32L496xx) || defined (STM32L4A6xx) || defined (STM32L4R5xx) || defined (STM32L4R7xx
  69:../../drivers/third_party/ST/STM32L4xx_HAL_Driver/Src/stm32l4xx_hal_pwr_ex.c **** #define PWR_PORTI_AVAILABLE_PINS   ((uint32_t)0x00000FFF) /* PI0..PI11 */
  70:../../drivers/third_party/ST/STM32L4xx_HAL_Driver/Src/stm32l4xx_hal_pwr_ex.c **** #endif
  71:../../drivers/third_party/ST/STM32L4xx_HAL_Driver/Src/stm32l4xx_hal_pwr_ex.c **** 
  72:../../drivers/third_party/ST/STM32L4xx_HAL_Driver/Src/stm32l4xx_hal_pwr_ex.c **** /** @defgroup PWR_Extended_Private_Defines PWR Extended Private Defines
  73:../../drivers/third_party/ST/STM32L4xx_HAL_Driver/Src/stm32l4xx_hal_pwr_ex.c ****   * @{
  74:../../drivers/third_party/ST/STM32L4xx_HAL_Driver/Src/stm32l4xx_hal_pwr_ex.c ****   */
  75:../../drivers/third_party/ST/STM32L4xx_HAL_Driver/Src/stm32l4xx_hal_pwr_ex.c ****   
  76:../../drivers/third_party/ST/STM32L4xx_HAL_Driver/Src/stm32l4xx_hal_pwr_ex.c **** /** @defgroup PWREx_PVM_Mode_Mask PWR PVM Mode Mask
  77:../../drivers/third_party/ST/STM32L4xx_HAL_Driver/Src/stm32l4xx_hal_pwr_ex.c ****   * @{
  78:../../drivers/third_party/ST/STM32L4xx_HAL_Driver/Src/stm32l4xx_hal_pwr_ex.c ****   */ 
  79:../../drivers/third_party/ST/STM32L4xx_HAL_Driver/Src/stm32l4xx_hal_pwr_ex.c **** #define PVM_MODE_IT               ((uint32_t)0x00010000)  /*!< Mask for interruption yielded by PVM
  80:../../drivers/third_party/ST/STM32L4xx_HAL_Driver/Src/stm32l4xx_hal_pwr_ex.c **** #define PVM_MODE_EVT              ((uint32_t)0x00020000)  /*!< Mask for event yielded by PVM thresh
  81:../../drivers/third_party/ST/STM32L4xx_HAL_Driver/Src/stm32l4xx_hal_pwr_ex.c **** #define PVM_RISING_EDGE           ((uint32_t)0x00000001)  /*!< Mask for rising edge set as PVM trig
  82:../../drivers/third_party/ST/STM32L4xx_HAL_Driver/Src/stm32l4xx_hal_pwr_ex.c **** #define PVM_FALLING_EDGE          ((uint32_t)0x00000002)  /*!< Mask for falling edge set as PVM tri
  83:../../drivers/third_party/ST/STM32L4xx_HAL_Driver/Src/stm32l4xx_hal_pwr_ex.c **** /**
  84:../../drivers/third_party/ST/STM32L4xx_HAL_Driver/Src/stm32l4xx_hal_pwr_ex.c ****   * @}
  85:../../drivers/third_party/ST/STM32L4xx_HAL_Driver/Src/stm32l4xx_hal_pwr_ex.c ****   */
  86:../../drivers/third_party/ST/STM32L4xx_HAL_Driver/Src/stm32l4xx_hal_pwr_ex.c ****   
  87:../../drivers/third_party/ST/STM32L4xx_HAL_Driver/Src/stm32l4xx_hal_pwr_ex.c **** /** @defgroup PWREx_TimeOut_Value PWR Extended Flag Setting Time Out Value
  88:../../drivers/third_party/ST/STM32L4xx_HAL_Driver/Src/stm32l4xx_hal_pwr_ex.c ****   * @{
ARM GAS  C:\Users\LuckyE\AppData\Local\Temp\cccYdq5r.s 			page 3


  89:../../drivers/third_party/ST/STM32L4xx_HAL_Driver/Src/stm32l4xx_hal_pwr_ex.c ****   */ 
  90:../../drivers/third_party/ST/STM32L4xx_HAL_Driver/Src/stm32l4xx_hal_pwr_ex.c **** #define PWR_FLAG_SETTING_DELAY_US                      50   /*!< Time out value for REGLPF and VOSF
  91:../../drivers/third_party/ST/STM32L4xx_HAL_Driver/Src/stm32l4xx_hal_pwr_ex.c **** /**
  92:../../drivers/third_party/ST/STM32L4xx_HAL_Driver/Src/stm32l4xx_hal_pwr_ex.c ****   * @}
  93:../../drivers/third_party/ST/STM32L4xx_HAL_Driver/Src/stm32l4xx_hal_pwr_ex.c ****   */
  94:../../drivers/third_party/ST/STM32L4xx_HAL_Driver/Src/stm32l4xx_hal_pwr_ex.c ****     
  95:../../drivers/third_party/ST/STM32L4xx_HAL_Driver/Src/stm32l4xx_hal_pwr_ex.c ****   
  96:../../drivers/third_party/ST/STM32L4xx_HAL_Driver/Src/stm32l4xx_hal_pwr_ex.c **** 
  97:../../drivers/third_party/ST/STM32L4xx_HAL_Driver/Src/stm32l4xx_hal_pwr_ex.c **** /**
  98:../../drivers/third_party/ST/STM32L4xx_HAL_Driver/Src/stm32l4xx_hal_pwr_ex.c ****   * @}
  99:../../drivers/third_party/ST/STM32L4xx_HAL_Driver/Src/stm32l4xx_hal_pwr_ex.c ****   */
 100:../../drivers/third_party/ST/STM32L4xx_HAL_Driver/Src/stm32l4xx_hal_pwr_ex.c **** 
 101:../../drivers/third_party/ST/STM32L4xx_HAL_Driver/Src/stm32l4xx_hal_pwr_ex.c **** 
 102:../../drivers/third_party/ST/STM32L4xx_HAL_Driver/Src/stm32l4xx_hal_pwr_ex.c **** 
 103:../../drivers/third_party/ST/STM32L4xx_HAL_Driver/Src/stm32l4xx_hal_pwr_ex.c **** /* Private macro -------------------------------------------------------------*/
 104:../../drivers/third_party/ST/STM32L4xx_HAL_Driver/Src/stm32l4xx_hal_pwr_ex.c **** /* Private variables ---------------------------------------------------------*/
 105:../../drivers/third_party/ST/STM32L4xx_HAL_Driver/Src/stm32l4xx_hal_pwr_ex.c **** /* Private function prototypes -----------------------------------------------*/
 106:../../drivers/third_party/ST/STM32L4xx_HAL_Driver/Src/stm32l4xx_hal_pwr_ex.c **** /* Exported functions --------------------------------------------------------*/
 107:../../drivers/third_party/ST/STM32L4xx_HAL_Driver/Src/stm32l4xx_hal_pwr_ex.c ****   
 108:../../drivers/third_party/ST/STM32L4xx_HAL_Driver/Src/stm32l4xx_hal_pwr_ex.c **** /** @defgroup PWREx_Exported_Functions PWR Extended Exported Functions
 109:../../drivers/third_party/ST/STM32L4xx_HAL_Driver/Src/stm32l4xx_hal_pwr_ex.c ****   * @{
 110:../../drivers/third_party/ST/STM32L4xx_HAL_Driver/Src/stm32l4xx_hal_pwr_ex.c ****   */
 111:../../drivers/third_party/ST/STM32L4xx_HAL_Driver/Src/stm32l4xx_hal_pwr_ex.c **** 
 112:../../drivers/third_party/ST/STM32L4xx_HAL_Driver/Src/stm32l4xx_hal_pwr_ex.c **** /** @defgroup PWREx_Exported_Functions_Group1 Extended Peripheral Control functions
 113:../../drivers/third_party/ST/STM32L4xx_HAL_Driver/Src/stm32l4xx_hal_pwr_ex.c ****   *  @brief   Extended Peripheral Control functions
 114:../../drivers/third_party/ST/STM32L4xx_HAL_Driver/Src/stm32l4xx_hal_pwr_ex.c ****   *
 115:../../drivers/third_party/ST/STM32L4xx_HAL_Driver/Src/stm32l4xx_hal_pwr_ex.c **** @verbatim
 116:../../drivers/third_party/ST/STM32L4xx_HAL_Driver/Src/stm32l4xx_hal_pwr_ex.c ****  ===============================================================================
 117:../../drivers/third_party/ST/STM32L4xx_HAL_Driver/Src/stm32l4xx_hal_pwr_ex.c ****               ##### Extended Peripheral Initialization and de-initialization functions #####
 118:../../drivers/third_party/ST/STM32L4xx_HAL_Driver/Src/stm32l4xx_hal_pwr_ex.c ****  ===============================================================================
 119:../../drivers/third_party/ST/STM32L4xx_HAL_Driver/Src/stm32l4xx_hal_pwr_ex.c ****     [..]
 120:../../drivers/third_party/ST/STM32L4xx_HAL_Driver/Src/stm32l4xx_hal_pwr_ex.c **** 
 121:../../drivers/third_party/ST/STM32L4xx_HAL_Driver/Src/stm32l4xx_hal_pwr_ex.c **** @endverbatim
 122:../../drivers/third_party/ST/STM32L4xx_HAL_Driver/Src/stm32l4xx_hal_pwr_ex.c ****   * @{
 123:../../drivers/third_party/ST/STM32L4xx_HAL_Driver/Src/stm32l4xx_hal_pwr_ex.c ****   */
 124:../../drivers/third_party/ST/STM32L4xx_HAL_Driver/Src/stm32l4xx_hal_pwr_ex.c ****   
 125:../../drivers/third_party/ST/STM32L4xx_HAL_Driver/Src/stm32l4xx_hal_pwr_ex.c **** 
 126:../../drivers/third_party/ST/STM32L4xx_HAL_Driver/Src/stm32l4xx_hal_pwr_ex.c **** /**
 127:../../drivers/third_party/ST/STM32L4xx_HAL_Driver/Src/stm32l4xx_hal_pwr_ex.c ****   * @brief Return Voltage Scaling Range.
 128:../../drivers/third_party/ST/STM32L4xx_HAL_Driver/Src/stm32l4xx_hal_pwr_ex.c ****   * @retval VOS bit field (PWR_REGULATOR_VOLTAGE_RANGE1 or PWR_REGULATOR_VOLTAGE_RANGE2 
 129:../../drivers/third_party/ST/STM32L4xx_HAL_Driver/Src/stm32l4xx_hal_pwr_ex.c ****   *         or PWR_REGULATOR_VOLTAGE_SCALE1_BOOST when applicable)
 130:../../drivers/third_party/ST/STM32L4xx_HAL_Driver/Src/stm32l4xx_hal_pwr_ex.c ****   */  
 131:../../drivers/third_party/ST/STM32L4xx_HAL_Driver/Src/stm32l4xx_hal_pwr_ex.c **** uint32_t HAL_PWREx_GetVoltageRange(void)
 132:../../drivers/third_party/ST/STM32L4xx_HAL_Driver/Src/stm32l4xx_hal_pwr_ex.c **** {
  28              		.loc 1 132 0
  29              		.cfi_startproc
  30              		@ args = 0, pretend = 0, frame = 0
  31              		@ frame_needed = 0, uses_anonymous_args = 0
  32              		@ link register save eliminated.
 133:../../drivers/third_party/ST/STM32L4xx_HAL_Driver/Src/stm32l4xx_hal_pwr_ex.c **** #if defined(PWR_CR5_R1MODE)
 134:../../drivers/third_party/ST/STM32L4xx_HAL_Driver/Src/stm32l4xx_hal_pwr_ex.c ****     if (READ_BIT(PWR->CR1, PWR_CR1_VOS) == PWR_REGULATOR_VOLTAGE_SCALE2)
 135:../../drivers/third_party/ST/STM32L4xx_HAL_Driver/Src/stm32l4xx_hal_pwr_ex.c ****     {
 136:../../drivers/third_party/ST/STM32L4xx_HAL_Driver/Src/stm32l4xx_hal_pwr_ex.c ****       return PWR_REGULATOR_VOLTAGE_SCALE2;
 137:../../drivers/third_party/ST/STM32L4xx_HAL_Driver/Src/stm32l4xx_hal_pwr_ex.c ****     }
 138:../../drivers/third_party/ST/STM32L4xx_HAL_Driver/Src/stm32l4xx_hal_pwr_ex.c ****     else if (READ_BIT(PWR->CR5, PWR_CR5_R1MODE) == PWR_CR5_R1MODE)
 139:../../drivers/third_party/ST/STM32L4xx_HAL_Driver/Src/stm32l4xx_hal_pwr_ex.c ****     {
 140:../../drivers/third_party/ST/STM32L4xx_HAL_Driver/Src/stm32l4xx_hal_pwr_ex.c ****       /* PWR_CR5_R1MODE bit set means that Range 1 Boost is disabled */
ARM GAS  C:\Users\LuckyE\AppData\Local\Temp\cccYdq5r.s 			page 4


 141:../../drivers/third_party/ST/STM32L4xx_HAL_Driver/Src/stm32l4xx_hal_pwr_ex.c ****       return PWR_REGULATOR_VOLTAGE_SCALE1;
 142:../../drivers/third_party/ST/STM32L4xx_HAL_Driver/Src/stm32l4xx_hal_pwr_ex.c ****     }
 143:../../drivers/third_party/ST/STM32L4xx_HAL_Driver/Src/stm32l4xx_hal_pwr_ex.c ****     else
 144:../../drivers/third_party/ST/STM32L4xx_HAL_Driver/Src/stm32l4xx_hal_pwr_ex.c ****     {
 145:../../drivers/third_party/ST/STM32L4xx_HAL_Driver/Src/stm32l4xx_hal_pwr_ex.c ****       return PWR_REGULATOR_VOLTAGE_SCALE1_BOOST;
 146:../../drivers/third_party/ST/STM32L4xx_HAL_Driver/Src/stm32l4xx_hal_pwr_ex.c ****     }
 147:../../drivers/third_party/ST/STM32L4xx_HAL_Driver/Src/stm32l4xx_hal_pwr_ex.c **** #else
 148:../../drivers/third_party/ST/STM32L4xx_HAL_Driver/Src/stm32l4xx_hal_pwr_ex.c ****   return  (PWR->CR1 & PWR_CR1_VOS);
  33              		.loc 1 148 0
  34 0000 024B     		ldr	r3, .L2
  35 0002 1868     		ldr	r0, [r3]
 149:../../drivers/third_party/ST/STM32L4xx_HAL_Driver/Src/stm32l4xx_hal_pwr_ex.c **** #endif  
 150:../../drivers/third_party/ST/STM32L4xx_HAL_Driver/Src/stm32l4xx_hal_pwr_ex.c **** }
  36              		.loc 1 150 0
  37 0004 00F4C060 		and	r0, r0, #1536
  38 0008 7047     		bx	lr
  39              	.L3:
  40 000a 00BF     		.align	2
  41              	.L2:
  42 000c 00700040 		.word	1073770496
  43              		.cfi_endproc
  44              	.LFE280:
  46              		.section	.text.HAL_PWREx_ControlVoltageScaling,"ax",%progbits
  47              		.align	1
  48              		.global	HAL_PWREx_ControlVoltageScaling
  49              		.syntax unified
  50              		.thumb
  51              		.thumb_func
  52              		.fpu fpv4-sp-d16
  54              	HAL_PWREx_ControlVoltageScaling:
  55              	.LFB281:
 151:../../drivers/third_party/ST/STM32L4xx_HAL_Driver/Src/stm32l4xx_hal_pwr_ex.c **** 
 152:../../drivers/third_party/ST/STM32L4xx_HAL_Driver/Src/stm32l4xx_hal_pwr_ex.c ****   
 153:../../drivers/third_party/ST/STM32L4xx_HAL_Driver/Src/stm32l4xx_hal_pwr_ex.c **** 
 154:../../drivers/third_party/ST/STM32L4xx_HAL_Driver/Src/stm32l4xx_hal_pwr_ex.c **** /**
 155:../../drivers/third_party/ST/STM32L4xx_HAL_Driver/Src/stm32l4xx_hal_pwr_ex.c ****   * @brief Configure the main internal regulator output voltage.
 156:../../drivers/third_party/ST/STM32L4xx_HAL_Driver/Src/stm32l4xx_hal_pwr_ex.c ****   * @param  VoltageScaling: specifies the regulator output voltage to achieve
 157:../../drivers/third_party/ST/STM32L4xx_HAL_Driver/Src/stm32l4xx_hal_pwr_ex.c ****   *         a tradeoff between performance and power consumption.
 158:../../drivers/third_party/ST/STM32L4xx_HAL_Driver/Src/stm32l4xx_hal_pwr_ex.c ****   *          This parameter can be one of the following values:
 159:../../drivers/third_party/ST/STM32L4xx_HAL_Driver/Src/stm32l4xx_hal_pwr_ex.c ****   @if STM32L4S9xx
 160:../../drivers/third_party/ST/STM32L4xx_HAL_Driver/Src/stm32l4xx_hal_pwr_ex.c ****   *            @arg @ref PWR_REGULATOR_VOLTAGE_SCALE1_BOOST when available, Regulator voltage outpu
 161:../../drivers/third_party/ST/STM32L4xx_HAL_Driver/Src/stm32l4xx_hal_pwr_ex.c ****   *                                                typical output voltage at 1.2 V,                
 162:../../drivers/third_party/ST/STM32L4xx_HAL_Driver/Src/stm32l4xx_hal_pwr_ex.c ****   *                                                system frequency up to 120 MHz.  
 163:../../drivers/third_party/ST/STM32L4xx_HAL_Driver/Src/stm32l4xx_hal_pwr_ex.c ****   @endif
 164:../../drivers/third_party/ST/STM32L4xx_HAL_Driver/Src/stm32l4xx_hal_pwr_ex.c ****   *            @arg @ref PWR_REGULATOR_VOLTAGE_SCALE1 Regulator voltage output range 1 mode,
 165:../../drivers/third_party/ST/STM32L4xx_HAL_Driver/Src/stm32l4xx_hal_pwr_ex.c ****   *                                                typical output voltage at 1.2 V,  
 166:../../drivers/third_party/ST/STM32L4xx_HAL_Driver/Src/stm32l4xx_hal_pwr_ex.c ****   *                                                system frequency up to 80 MHz.
 167:../../drivers/third_party/ST/STM32L4xx_HAL_Driver/Src/stm32l4xx_hal_pwr_ex.c ****   *            @arg @ref PWR_REGULATOR_VOLTAGE_SCALE2 Regulator voltage output range 2 mode,
 168:../../drivers/third_party/ST/STM32L4xx_HAL_Driver/Src/stm32l4xx_hal_pwr_ex.c ****   *                                                typical output voltage at 1.0 V,                
 169:../../drivers/third_party/ST/STM32L4xx_HAL_Driver/Src/stm32l4xx_hal_pwr_ex.c ****   *                                                system frequency up to 26 MHz.
 170:../../drivers/third_party/ST/STM32L4xx_HAL_Driver/Src/stm32l4xx_hal_pwr_ex.c ****   * @note  When moving from Range 1 to Range 2, the system frequency must be decreased to
 171:../../drivers/third_party/ST/STM32L4xx_HAL_Driver/Src/stm32l4xx_hal_pwr_ex.c ****   *        a value below 26 MHz before calling HAL_PWREx_ControlVoltageScaling() API.
 172:../../drivers/third_party/ST/STM32L4xx_HAL_Driver/Src/stm32l4xx_hal_pwr_ex.c ****   *        When moving from Range 2 to Range 1, the system frequency can be increased to
 173:../../drivers/third_party/ST/STM32L4xx_HAL_Driver/Src/stm32l4xx_hal_pwr_ex.c ****   *        a value up to 80 MHz after calling HAL_PWREx_ControlVoltageScaling() API. For
 174:../../drivers/third_party/ST/STM32L4xx_HAL_Driver/Src/stm32l4xx_hal_pwr_ex.c ****   *        some devices, the system frequency can be increased up to 120 MHz.  
 175:../../drivers/third_party/ST/STM32L4xx_HAL_Driver/Src/stm32l4xx_hal_pwr_ex.c ****   * @note  When moving from Range 2 to Range 1, the API waits for VOSF flag to be
 176:../../drivers/third_party/ST/STM32L4xx_HAL_Driver/Src/stm32l4xx_hal_pwr_ex.c ****   *        cleared before returning the status. If the flag is not cleared within
ARM GAS  C:\Users\LuckyE\AppData\Local\Temp\cccYdq5r.s 			page 5


 177:../../drivers/third_party/ST/STM32L4xx_HAL_Driver/Src/stm32l4xx_hal_pwr_ex.c ****   *        50 microseconds, HAL_TIMEOUT status is reported.                    
 178:../../drivers/third_party/ST/STM32L4xx_HAL_Driver/Src/stm32l4xx_hal_pwr_ex.c ****   * @retval HAL Status
 179:../../drivers/third_party/ST/STM32L4xx_HAL_Driver/Src/stm32l4xx_hal_pwr_ex.c ****   */
 180:../../drivers/third_party/ST/STM32L4xx_HAL_Driver/Src/stm32l4xx_hal_pwr_ex.c **** HAL_StatusTypeDef HAL_PWREx_ControlVoltageScaling(uint32_t VoltageScaling)
 181:../../drivers/third_party/ST/STM32L4xx_HAL_Driver/Src/stm32l4xx_hal_pwr_ex.c **** {
  56              		.loc 1 181 0
  57              		.cfi_startproc
  58              		@ args = 0, pretend = 0, frame = 0
  59              		@ frame_needed = 0, uses_anonymous_args = 0
  60              		@ link register save eliminated.
  61              	.LVL0:
  62 0000 164B     		ldr	r3, .L23
 182:../../drivers/third_party/ST/STM32L4xx_HAL_Driver/Src/stm32l4xx_hal_pwr_ex.c ****   uint32_t wait_loop_index = 0;  
 183:../../drivers/third_party/ST/STM32L4xx_HAL_Driver/Src/stm32l4xx_hal_pwr_ex.c **** 
 184:../../drivers/third_party/ST/STM32L4xx_HAL_Driver/Src/stm32l4xx_hal_pwr_ex.c ****   assert_param(IS_PWR_VOLTAGE_SCALING_RANGE(VoltageScaling));
 185:../../drivers/third_party/ST/STM32L4xx_HAL_Driver/Src/stm32l4xx_hal_pwr_ex.c **** 
 186:../../drivers/third_party/ST/STM32L4xx_HAL_Driver/Src/stm32l4xx_hal_pwr_ex.c **** #if defined(PWR_CR5_R1MODE)
 187:../../drivers/third_party/ST/STM32L4xx_HAL_Driver/Src/stm32l4xx_hal_pwr_ex.c ****   if (VoltageScaling == PWR_REGULATOR_VOLTAGE_SCALE1_BOOST)
 188:../../drivers/third_party/ST/STM32L4xx_HAL_Driver/Src/stm32l4xx_hal_pwr_ex.c ****   {
 189:../../drivers/third_party/ST/STM32L4xx_HAL_Driver/Src/stm32l4xx_hal_pwr_ex.c ****     /* If current range is range 2 */
 190:../../drivers/third_party/ST/STM32L4xx_HAL_Driver/Src/stm32l4xx_hal_pwr_ex.c ****     if (READ_BIT(PWR->CR1, PWR_CR1_VOS) == PWR_REGULATOR_VOLTAGE_SCALE2)
 191:../../drivers/third_party/ST/STM32L4xx_HAL_Driver/Src/stm32l4xx_hal_pwr_ex.c ****     {
 192:../../drivers/third_party/ST/STM32L4xx_HAL_Driver/Src/stm32l4xx_hal_pwr_ex.c ****       /* Make sure Range 1 Boost is enabled */
 193:../../drivers/third_party/ST/STM32L4xx_HAL_Driver/Src/stm32l4xx_hal_pwr_ex.c ****       CLEAR_BIT(PWR->CR5, PWR_CR5_R1MODE);
 194:../../drivers/third_party/ST/STM32L4xx_HAL_Driver/Src/stm32l4xx_hal_pwr_ex.c ****       
 195:../../drivers/third_party/ST/STM32L4xx_HAL_Driver/Src/stm32l4xx_hal_pwr_ex.c ****       /* Set Range 1 */
 196:../../drivers/third_party/ST/STM32L4xx_HAL_Driver/Src/stm32l4xx_hal_pwr_ex.c ****       MODIFY_REG(PWR->CR1, PWR_CR1_VOS, PWR_REGULATOR_VOLTAGE_SCALE1);
 197:../../drivers/third_party/ST/STM32L4xx_HAL_Driver/Src/stm32l4xx_hal_pwr_ex.c ****       
 198:../../drivers/third_party/ST/STM32L4xx_HAL_Driver/Src/stm32l4xx_hal_pwr_ex.c ****       /* Wait until VOSF is cleared */      
 199:../../drivers/third_party/ST/STM32L4xx_HAL_Driver/Src/stm32l4xx_hal_pwr_ex.c ****       wait_loop_index = (PWR_FLAG_SETTING_DELAY_US * (SystemCoreClock / 1000000));
 200:../../drivers/third_party/ST/STM32L4xx_HAL_Driver/Src/stm32l4xx_hal_pwr_ex.c ****       while ((wait_loop_index != 0) && (HAL_IS_BIT_SET(PWR->SR2, PWR_SR2_VOSF)))
 201:../../drivers/third_party/ST/STM32L4xx_HAL_Driver/Src/stm32l4xx_hal_pwr_ex.c ****       {
 202:../../drivers/third_party/ST/STM32L4xx_HAL_Driver/Src/stm32l4xx_hal_pwr_ex.c ****         wait_loop_index--;
 203:../../drivers/third_party/ST/STM32L4xx_HAL_Driver/Src/stm32l4xx_hal_pwr_ex.c ****       }
 204:../../drivers/third_party/ST/STM32L4xx_HAL_Driver/Src/stm32l4xx_hal_pwr_ex.c ****       if (HAL_IS_BIT_SET(PWR->SR2, PWR_SR2_VOSF))
 205:../../drivers/third_party/ST/STM32L4xx_HAL_Driver/Src/stm32l4xx_hal_pwr_ex.c ****       {
 206:../../drivers/third_party/ST/STM32L4xx_HAL_Driver/Src/stm32l4xx_hal_pwr_ex.c ****         return HAL_TIMEOUT;
 207:../../drivers/third_party/ST/STM32L4xx_HAL_Driver/Src/stm32l4xx_hal_pwr_ex.c ****       }    
 208:../../drivers/third_party/ST/STM32L4xx_HAL_Driver/Src/stm32l4xx_hal_pwr_ex.c ****     } 
 209:../../drivers/third_party/ST/STM32L4xx_HAL_Driver/Src/stm32l4xx_hal_pwr_ex.c ****     /* If current range is range 1 normal or boost mode */
 210:../../drivers/third_party/ST/STM32L4xx_HAL_Driver/Src/stm32l4xx_hal_pwr_ex.c ****     else
 211:../../drivers/third_party/ST/STM32L4xx_HAL_Driver/Src/stm32l4xx_hal_pwr_ex.c ****     {
 212:../../drivers/third_party/ST/STM32L4xx_HAL_Driver/Src/stm32l4xx_hal_pwr_ex.c ****       /* Enable Range 1 Boost (no issue if bit already reset) */
 213:../../drivers/third_party/ST/STM32L4xx_HAL_Driver/Src/stm32l4xx_hal_pwr_ex.c ****       CLEAR_BIT(PWR->CR5, PWR_CR5_R1MODE);
 214:../../drivers/third_party/ST/STM32L4xx_HAL_Driver/Src/stm32l4xx_hal_pwr_ex.c ****     }
 215:../../drivers/third_party/ST/STM32L4xx_HAL_Driver/Src/stm32l4xx_hal_pwr_ex.c ****   }
 216:../../drivers/third_party/ST/STM32L4xx_HAL_Driver/Src/stm32l4xx_hal_pwr_ex.c ****   else if (VoltageScaling == PWR_REGULATOR_VOLTAGE_SCALE1)
 217:../../drivers/third_party/ST/STM32L4xx_HAL_Driver/Src/stm32l4xx_hal_pwr_ex.c ****   {
 218:../../drivers/third_party/ST/STM32L4xx_HAL_Driver/Src/stm32l4xx_hal_pwr_ex.c ****     /* If current range is range 2 */
 219:../../drivers/third_party/ST/STM32L4xx_HAL_Driver/Src/stm32l4xx_hal_pwr_ex.c ****     if (READ_BIT(PWR->CR1, PWR_CR1_VOS) == PWR_REGULATOR_VOLTAGE_SCALE2)
 220:../../drivers/third_party/ST/STM32L4xx_HAL_Driver/Src/stm32l4xx_hal_pwr_ex.c ****     {
 221:../../drivers/third_party/ST/STM32L4xx_HAL_Driver/Src/stm32l4xx_hal_pwr_ex.c ****       /* Make sure Range 1 Boost is disabled */
 222:../../drivers/third_party/ST/STM32L4xx_HAL_Driver/Src/stm32l4xx_hal_pwr_ex.c ****       SET_BIT(PWR->CR5, PWR_CR5_R1MODE);
 223:../../drivers/third_party/ST/STM32L4xx_HAL_Driver/Src/stm32l4xx_hal_pwr_ex.c ****       
 224:../../drivers/third_party/ST/STM32L4xx_HAL_Driver/Src/stm32l4xx_hal_pwr_ex.c ****       /* Set Range 1 */
 225:../../drivers/third_party/ST/STM32L4xx_HAL_Driver/Src/stm32l4xx_hal_pwr_ex.c ****       MODIFY_REG(PWR->CR1, PWR_CR1_VOS, PWR_REGULATOR_VOLTAGE_SCALE1);
 226:../../drivers/third_party/ST/STM32L4xx_HAL_Driver/Src/stm32l4xx_hal_pwr_ex.c ****       
ARM GAS  C:\Users\LuckyE\AppData\Local\Temp\cccYdq5r.s 			page 6


 227:../../drivers/third_party/ST/STM32L4xx_HAL_Driver/Src/stm32l4xx_hal_pwr_ex.c ****       /* Wait until VOSF is cleared */      
 228:../../drivers/third_party/ST/STM32L4xx_HAL_Driver/Src/stm32l4xx_hal_pwr_ex.c ****       wait_loop_index = (PWR_FLAG_SETTING_DELAY_US * (SystemCoreClock / 1000000));
 229:../../drivers/third_party/ST/STM32L4xx_HAL_Driver/Src/stm32l4xx_hal_pwr_ex.c ****       while ((wait_loop_index != 0) && (HAL_IS_BIT_SET(PWR->SR2, PWR_SR2_VOSF)))
 230:../../drivers/third_party/ST/STM32L4xx_HAL_Driver/Src/stm32l4xx_hal_pwr_ex.c ****       {
 231:../../drivers/third_party/ST/STM32L4xx_HAL_Driver/Src/stm32l4xx_hal_pwr_ex.c ****         wait_loop_index--;
 232:../../drivers/third_party/ST/STM32L4xx_HAL_Driver/Src/stm32l4xx_hal_pwr_ex.c ****       }
 233:../../drivers/third_party/ST/STM32L4xx_HAL_Driver/Src/stm32l4xx_hal_pwr_ex.c ****       if (HAL_IS_BIT_SET(PWR->SR2, PWR_SR2_VOSF))
 234:../../drivers/third_party/ST/STM32L4xx_HAL_Driver/Src/stm32l4xx_hal_pwr_ex.c ****       {
 235:../../drivers/third_party/ST/STM32L4xx_HAL_Driver/Src/stm32l4xx_hal_pwr_ex.c ****         return HAL_TIMEOUT;
 236:../../drivers/third_party/ST/STM32L4xx_HAL_Driver/Src/stm32l4xx_hal_pwr_ex.c ****       }    
 237:../../drivers/third_party/ST/STM32L4xx_HAL_Driver/Src/stm32l4xx_hal_pwr_ex.c ****     } 
 238:../../drivers/third_party/ST/STM32L4xx_HAL_Driver/Src/stm32l4xx_hal_pwr_ex.c ****      /* If current range is range 1 normal or boost mode */
 239:../../drivers/third_party/ST/STM32L4xx_HAL_Driver/Src/stm32l4xx_hal_pwr_ex.c ****     else
 240:../../drivers/third_party/ST/STM32L4xx_HAL_Driver/Src/stm32l4xx_hal_pwr_ex.c ****     {
 241:../../drivers/third_party/ST/STM32L4xx_HAL_Driver/Src/stm32l4xx_hal_pwr_ex.c ****       /* Disable Range 1 Boost (no issue if bit already set) */
 242:../../drivers/third_party/ST/STM32L4xx_HAL_Driver/Src/stm32l4xx_hal_pwr_ex.c ****       SET_BIT(PWR->CR5, PWR_CR5_R1MODE);
 243:../../drivers/third_party/ST/STM32L4xx_HAL_Driver/Src/stm32l4xx_hal_pwr_ex.c ****     } 
 244:../../drivers/third_party/ST/STM32L4xx_HAL_Driver/Src/stm32l4xx_hal_pwr_ex.c ****   }
 245:../../drivers/third_party/ST/STM32L4xx_HAL_Driver/Src/stm32l4xx_hal_pwr_ex.c ****   else
 246:../../drivers/third_party/ST/STM32L4xx_HAL_Driver/Src/stm32l4xx_hal_pwr_ex.c ****   {
 247:../../drivers/third_party/ST/STM32L4xx_HAL_Driver/Src/stm32l4xx_hal_pwr_ex.c ****     /* Set Range 2 */
 248:../../drivers/third_party/ST/STM32L4xx_HAL_Driver/Src/stm32l4xx_hal_pwr_ex.c ****     MODIFY_REG(PWR->CR1, PWR_CR1_VOS, PWR_REGULATOR_VOLTAGE_SCALE2);
 249:../../drivers/third_party/ST/STM32L4xx_HAL_Driver/Src/stm32l4xx_hal_pwr_ex.c ****     /* No need to wait for VOSF to be cleared for this transition */
 250:../../drivers/third_party/ST/STM32L4xx_HAL_Driver/Src/stm32l4xx_hal_pwr_ex.c ****     /* PWR_CR5_R1MODE bit setting has no effect in Range 2        */    
 251:../../drivers/third_party/ST/STM32L4xx_HAL_Driver/Src/stm32l4xx_hal_pwr_ex.c ****   }
 252:../../drivers/third_party/ST/STM32L4xx_HAL_Driver/Src/stm32l4xx_hal_pwr_ex.c ****   
 253:../../drivers/third_party/ST/STM32L4xx_HAL_Driver/Src/stm32l4xx_hal_pwr_ex.c **** #else
 254:../../drivers/third_party/ST/STM32L4xx_HAL_Driver/Src/stm32l4xx_hal_pwr_ex.c **** 
 255:../../drivers/third_party/ST/STM32L4xx_HAL_Driver/Src/stm32l4xx_hal_pwr_ex.c ****   /* If Set Range 1 */
 256:../../drivers/third_party/ST/STM32L4xx_HAL_Driver/Src/stm32l4xx_hal_pwr_ex.c ****   if (VoltageScaling == PWR_REGULATOR_VOLTAGE_SCALE1)
 257:../../drivers/third_party/ST/STM32L4xx_HAL_Driver/Src/stm32l4xx_hal_pwr_ex.c ****   {
 258:../../drivers/third_party/ST/STM32L4xx_HAL_Driver/Src/stm32l4xx_hal_pwr_ex.c ****     if (READ_BIT(PWR->CR1, PWR_CR1_VOS) != PWR_REGULATOR_VOLTAGE_SCALE1)
  63              		.loc 1 258 0
  64 0002 1A68     		ldr	r2, [r3]
 256:../../drivers/third_party/ST/STM32L4xx_HAL_Driver/Src/stm32l4xx_hal_pwr_ex.c ****   {
  65              		.loc 1 256 0
  66 0004 B0F5007F 		cmp	r0, #512
  67              		.loc 1 258 0
  68 0008 02F4C062 		and	r2, r2, #1536
 256:../../drivers/third_party/ST/STM32L4xx_HAL_Driver/Src/stm32l4xx_hal_pwr_ex.c ****   {
  69              		.loc 1 256 0
  70 000c 1AD1     		bne	.L5
  71              		.loc 1 258 0
  72 000e B2F5007F 		cmp	r2, #512
  73 0012 13D0     		beq	.L22
 259:../../drivers/third_party/ST/STM32L4xx_HAL_Driver/Src/stm32l4xx_hal_pwr_ex.c ****     {
 260:../../drivers/third_party/ST/STM32L4xx_HAL_Driver/Src/stm32l4xx_hal_pwr_ex.c ****       /* Set Range 1 */
 261:../../drivers/third_party/ST/STM32L4xx_HAL_Driver/Src/stm32l4xx_hal_pwr_ex.c ****       MODIFY_REG(PWR->CR1, PWR_CR1_VOS, PWR_REGULATOR_VOLTAGE_SCALE1);
  74              		.loc 1 261 0
  75 0014 1A68     		ldr	r2, [r3]
 262:../../drivers/third_party/ST/STM32L4xx_HAL_Driver/Src/stm32l4xx_hal_pwr_ex.c ****       
 263:../../drivers/third_party/ST/STM32L4xx_HAL_Driver/Src/stm32l4xx_hal_pwr_ex.c ****       /* Wait until VOSF is cleared */      
 264:../../drivers/third_party/ST/STM32L4xx_HAL_Driver/Src/stm32l4xx_hal_pwr_ex.c ****       wait_loop_index = (PWR_FLAG_SETTING_DELAY_US * (SystemCoreClock / 1000000));
  76              		.loc 1 264 0
  77 0016 1249     		ldr	r1, .L23+4
 261:../../drivers/third_party/ST/STM32L4xx_HAL_Driver/Src/stm32l4xx_hal_pwr_ex.c ****       
  78              		.loc 1 261 0
ARM GAS  C:\Users\LuckyE\AppData\Local\Temp\cccYdq5r.s 			page 7


  79 0018 22F4C062 		bic	r2, r2, #1536
  80 001c 42F40072 		orr	r2, r2, #512
  81 0020 1A60     		str	r2, [r3]
  82              		.loc 1 264 0
  83 0022 104A     		ldr	r2, .L23+8
  84 0024 1268     		ldr	r2, [r2]
  85 0026 B2FBF1F1 		udiv	r1, r2, r1
  86 002a 3222     		movs	r2, #50
  87 002c 4A43     		muls	r2, r1, r2
  88              	.LVL1:
  89              	.L7:
 265:../../drivers/third_party/ST/STM32L4xx_HAL_Driver/Src/stm32l4xx_hal_pwr_ex.c ****       while ((wait_loop_index != 0) && (HAL_IS_BIT_SET(PWR->SR2, PWR_SR2_VOSF)))
  90              		.loc 1 265 0
  91 002e 12B1     		cbz	r2, .L8
  92              		.loc 1 265 0 is_stmt 0 discriminator 1
  93 0030 5969     		ldr	r1, [r3, #20]
  94 0032 4905     		lsls	r1, r1, #21
  95 0034 04D4     		bmi	.L9
  96              	.L8:
 266:../../drivers/third_party/ST/STM32L4xx_HAL_Driver/Src/stm32l4xx_hal_pwr_ex.c ****       {
 267:../../drivers/third_party/ST/STM32L4xx_HAL_Driver/Src/stm32l4xx_hal_pwr_ex.c ****         wait_loop_index--;
 268:../../drivers/third_party/ST/STM32L4xx_HAL_Driver/Src/stm32l4xx_hal_pwr_ex.c ****       }
 269:../../drivers/third_party/ST/STM32L4xx_HAL_Driver/Src/stm32l4xx_hal_pwr_ex.c ****       if (HAL_IS_BIT_SET(PWR->SR2, PWR_SR2_VOSF))
  97              		.loc 1 269 0 is_stmt 1
  98 0036 5B69     		ldr	r3, [r3, #20]
  99 0038 5B05     		lsls	r3, r3, #21
 100 003a 0DD4     		bmi	.L11
 101              	.LVL2:
 102              	.L22:
 270:../../drivers/third_party/ST/STM32L4xx_HAL_Driver/Src/stm32l4xx_hal_pwr_ex.c ****       {
 271:../../drivers/third_party/ST/STM32L4xx_HAL_Driver/Src/stm32l4xx_hal_pwr_ex.c ****         return HAL_TIMEOUT;
 272:../../drivers/third_party/ST/STM32L4xx_HAL_Driver/Src/stm32l4xx_hal_pwr_ex.c ****       }
 273:../../drivers/third_party/ST/STM32L4xx_HAL_Driver/Src/stm32l4xx_hal_pwr_ex.c ****     }
 274:../../drivers/third_party/ST/STM32L4xx_HAL_Driver/Src/stm32l4xx_hal_pwr_ex.c ****   }
 275:../../drivers/third_party/ST/STM32L4xx_HAL_Driver/Src/stm32l4xx_hal_pwr_ex.c ****   else
 276:../../drivers/third_party/ST/STM32L4xx_HAL_Driver/Src/stm32l4xx_hal_pwr_ex.c ****   {
 277:../../drivers/third_party/ST/STM32L4xx_HAL_Driver/Src/stm32l4xx_hal_pwr_ex.c ****     if (READ_BIT(PWR->CR1, PWR_CR1_VOS) != PWR_REGULATOR_VOLTAGE_SCALE2)
 278:../../drivers/third_party/ST/STM32L4xx_HAL_Driver/Src/stm32l4xx_hal_pwr_ex.c ****     {
 279:../../drivers/third_party/ST/STM32L4xx_HAL_Driver/Src/stm32l4xx_hal_pwr_ex.c ****       /* Set Range 2 */
 280:../../drivers/third_party/ST/STM32L4xx_HAL_Driver/Src/stm32l4xx_hal_pwr_ex.c ****       MODIFY_REG(PWR->CR1, PWR_CR1_VOS, PWR_REGULATOR_VOLTAGE_SCALE2);
 281:../../drivers/third_party/ST/STM32L4xx_HAL_Driver/Src/stm32l4xx_hal_pwr_ex.c ****       /* No need to wait for VOSF to be cleared for this transition */
 282:../../drivers/third_party/ST/STM32L4xx_HAL_Driver/Src/stm32l4xx_hal_pwr_ex.c ****     }
 283:../../drivers/third_party/ST/STM32L4xx_HAL_Driver/Src/stm32l4xx_hal_pwr_ex.c ****   }
 284:../../drivers/third_party/ST/STM32L4xx_HAL_Driver/Src/stm32l4xx_hal_pwr_ex.c **** #endif  
 285:../../drivers/third_party/ST/STM32L4xx_HAL_Driver/Src/stm32l4xx_hal_pwr_ex.c ****   
 286:../../drivers/third_party/ST/STM32L4xx_HAL_Driver/Src/stm32l4xx_hal_pwr_ex.c ****   return HAL_OK;
 103              		.loc 1 286 0
 104 003c 0020     		movs	r0, #0
 105              	.LVL3:
 106 003e 7047     		bx	lr
 107              	.LVL4:
 108              	.L9:
 267:../../drivers/third_party/ST/STM32L4xx_HAL_Driver/Src/stm32l4xx_hal_pwr_ex.c ****       }
 109              		.loc 1 267 0
 110 0040 013A     		subs	r2, r2, #1
 111              	.LVL5:
 112 0042 F4E7     		b	.L7
ARM GAS  C:\Users\LuckyE\AppData\Local\Temp\cccYdq5r.s 			page 8


 113              	.LVL6:
 114              	.L5:
 277:../../drivers/third_party/ST/STM32L4xx_HAL_Driver/Src/stm32l4xx_hal_pwr_ex.c ****     {
 115              		.loc 1 277 0
 116 0044 B2F5806F 		cmp	r2, #1024
 280:../../drivers/third_party/ST/STM32L4xx_HAL_Driver/Src/stm32l4xx_hal_pwr_ex.c ****       /* No need to wait for VOSF to be cleared for this transition */
 117              		.loc 1 280 0
 118 0048 1FBF     		itttt	ne
 119 004a 1A68     		ldrne	r2, [r3]
 120 004c 22F4C062 		bicne	r2, r2, #1536
 121 0050 42F48062 		orrne	r2, r2, #1024
 122 0054 1A60     		strne	r2, [r3]
 123 0056 F1E7     		b	.L22
 124              	.LVL7:
 125              	.L11:
 271:../../drivers/third_party/ST/STM32L4xx_HAL_Driver/Src/stm32l4xx_hal_pwr_ex.c ****       }
 126              		.loc 1 271 0
 127 0058 0320     		movs	r0, #3
 128              	.LVL8:
 287:../../drivers/third_party/ST/STM32L4xx_HAL_Driver/Src/stm32l4xx_hal_pwr_ex.c **** }  
 129              		.loc 1 287 0
 130 005a 7047     		bx	lr
 131              	.L24:
 132              		.align	2
 133              	.L23:
 134 005c 00700040 		.word	1073770496
 135 0060 40420F00 		.word	1000000
 136 0064 00000000 		.word	SystemCoreClock
 137              		.cfi_endproc
 138              	.LFE281:
 140              		.section	.text.HAL_PWREx_EnableBatteryCharging,"ax",%progbits
 141              		.align	1
 142              		.global	HAL_PWREx_EnableBatteryCharging
 143              		.syntax unified
 144              		.thumb
 145              		.thumb_func
 146              		.fpu fpv4-sp-d16
 148              	HAL_PWREx_EnableBatteryCharging:
 149              	.LFB282:
 288:../../drivers/third_party/ST/STM32L4xx_HAL_Driver/Src/stm32l4xx_hal_pwr_ex.c **** 
 289:../../drivers/third_party/ST/STM32L4xx_HAL_Driver/Src/stm32l4xx_hal_pwr_ex.c **** 
 290:../../drivers/third_party/ST/STM32L4xx_HAL_Driver/Src/stm32l4xx_hal_pwr_ex.c **** /**
 291:../../drivers/third_party/ST/STM32L4xx_HAL_Driver/Src/stm32l4xx_hal_pwr_ex.c ****   * @brief Enable battery charging.
 292:../../drivers/third_party/ST/STM32L4xx_HAL_Driver/Src/stm32l4xx_hal_pwr_ex.c ****   *        When VDD is present, charge the external battery on VBAT thru an internal resistor.  
 293:../../drivers/third_party/ST/STM32L4xx_HAL_Driver/Src/stm32l4xx_hal_pwr_ex.c ****   * @param  ResistorSelection: specifies the resistor impedance.
 294:../../drivers/third_party/ST/STM32L4xx_HAL_Driver/Src/stm32l4xx_hal_pwr_ex.c ****   *          This parameter can be one of the following values:
 295:../../drivers/third_party/ST/STM32L4xx_HAL_Driver/Src/stm32l4xx_hal_pwr_ex.c ****   *            @arg @ref PWR_BATTERY_CHARGING_RESISTOR_5     5 kOhms resistor
 296:../../drivers/third_party/ST/STM32L4xx_HAL_Driver/Src/stm32l4xx_hal_pwr_ex.c ****   *            @arg @ref PWR_BATTERY_CHARGING_RESISTOR_1_5 1.5 kOhms resistor 
 297:../../drivers/third_party/ST/STM32L4xx_HAL_Driver/Src/stm32l4xx_hal_pwr_ex.c ****   * @retval None
 298:../../drivers/third_party/ST/STM32L4xx_HAL_Driver/Src/stm32l4xx_hal_pwr_ex.c ****   */
 299:../../drivers/third_party/ST/STM32L4xx_HAL_Driver/Src/stm32l4xx_hal_pwr_ex.c **** void HAL_PWREx_EnableBatteryCharging(uint32_t ResistorSelection)
 300:../../drivers/third_party/ST/STM32L4xx_HAL_Driver/Src/stm32l4xx_hal_pwr_ex.c **** {
 150              		.loc 1 300 0
 151              		.cfi_startproc
 152              		@ args = 0, pretend = 0, frame = 0
 153              		@ frame_needed = 0, uses_anonymous_args = 0
 154              		@ link register save eliminated.
ARM GAS  C:\Users\LuckyE\AppData\Local\Temp\cccYdq5r.s 			page 9


 155              	.LVL9:
 301:../../drivers/third_party/ST/STM32L4xx_HAL_Driver/Src/stm32l4xx_hal_pwr_ex.c ****   assert_param(IS_PWR_BATTERY_RESISTOR_SELECT(ResistorSelection));
 302:../../drivers/third_party/ST/STM32L4xx_HAL_Driver/Src/stm32l4xx_hal_pwr_ex.c ****   
 303:../../drivers/third_party/ST/STM32L4xx_HAL_Driver/Src/stm32l4xx_hal_pwr_ex.c ****   /* Specify resistor selection */
 304:../../drivers/third_party/ST/STM32L4xx_HAL_Driver/Src/stm32l4xx_hal_pwr_ex.c ****   MODIFY_REG(PWR->CR4, PWR_CR4_VBRS, ResistorSelection);
 156              		.loc 1 304 0
 157 0000 054A     		ldr	r2, .L26
 158 0002 D368     		ldr	r3, [r2, #12]
 159 0004 23F40073 		bic	r3, r3, #512
 160 0008 1843     		orrs	r0, r0, r3
 161              	.LVL10:
 162 000a D060     		str	r0, [r2, #12]
 305:../../drivers/third_party/ST/STM32L4xx_HAL_Driver/Src/stm32l4xx_hal_pwr_ex.c ****   
 306:../../drivers/third_party/ST/STM32L4xx_HAL_Driver/Src/stm32l4xx_hal_pwr_ex.c ****   /* Enable battery charging */
 307:../../drivers/third_party/ST/STM32L4xx_HAL_Driver/Src/stm32l4xx_hal_pwr_ex.c ****   SET_BIT(PWR->CR4, PWR_CR4_VBE);
 163              		.loc 1 307 0
 164 000c D368     		ldr	r3, [r2, #12]
 165 000e 43F48073 		orr	r3, r3, #256
 166 0012 D360     		str	r3, [r2, #12]
 308:../../drivers/third_party/ST/STM32L4xx_HAL_Driver/Src/stm32l4xx_hal_pwr_ex.c **** }
 167              		.loc 1 308 0
 168 0014 7047     		bx	lr
 169              	.L27:
 170 0016 00BF     		.align	2
 171              	.L26:
 172 0018 00700040 		.word	1073770496
 173              		.cfi_endproc
 174              	.LFE282:
 176              		.section	.text.HAL_PWREx_DisableBatteryCharging,"ax",%progbits
 177              		.align	1
 178              		.global	HAL_PWREx_DisableBatteryCharging
 179              		.syntax unified
 180              		.thumb
 181              		.thumb_func
 182              		.fpu fpv4-sp-d16
 184              	HAL_PWREx_DisableBatteryCharging:
 185              	.LFB283:
 309:../../drivers/third_party/ST/STM32L4xx_HAL_Driver/Src/stm32l4xx_hal_pwr_ex.c **** 
 310:../../drivers/third_party/ST/STM32L4xx_HAL_Driver/Src/stm32l4xx_hal_pwr_ex.c **** 
 311:../../drivers/third_party/ST/STM32L4xx_HAL_Driver/Src/stm32l4xx_hal_pwr_ex.c **** /**
 312:../../drivers/third_party/ST/STM32L4xx_HAL_Driver/Src/stm32l4xx_hal_pwr_ex.c ****   * @brief Disable battery charging.  
 313:../../drivers/third_party/ST/STM32L4xx_HAL_Driver/Src/stm32l4xx_hal_pwr_ex.c ****   * @retval None
 314:../../drivers/third_party/ST/STM32L4xx_HAL_Driver/Src/stm32l4xx_hal_pwr_ex.c ****   */
 315:../../drivers/third_party/ST/STM32L4xx_HAL_Driver/Src/stm32l4xx_hal_pwr_ex.c **** void HAL_PWREx_DisableBatteryCharging(void)
 316:../../drivers/third_party/ST/STM32L4xx_HAL_Driver/Src/stm32l4xx_hal_pwr_ex.c **** {
 186              		.loc 1 316 0
 187              		.cfi_startproc
 188              		@ args = 0, pretend = 0, frame = 0
 189              		@ frame_needed = 0, uses_anonymous_args = 0
 190              		@ link register save eliminated.
 317:../../drivers/third_party/ST/STM32L4xx_HAL_Driver/Src/stm32l4xx_hal_pwr_ex.c ****   CLEAR_BIT(PWR->CR4, PWR_CR4_VBE); 
 191              		.loc 1 317 0
 192 0000 024A     		ldr	r2, .L29
 193 0002 D368     		ldr	r3, [r2, #12]
 194 0004 23F48073 		bic	r3, r3, #256
 195 0008 D360     		str	r3, [r2, #12]
 318:../../drivers/third_party/ST/STM32L4xx_HAL_Driver/Src/stm32l4xx_hal_pwr_ex.c **** }  
ARM GAS  C:\Users\LuckyE\AppData\Local\Temp\cccYdq5r.s 			page 10


 196              		.loc 1 318 0
 197 000a 7047     		bx	lr
 198              	.L30:
 199              		.align	2
 200              	.L29:
 201 000c 00700040 		.word	1073770496
 202              		.cfi_endproc
 203              	.LFE283:
 205              		.section	.text.HAL_PWREx_EnableInternalWakeUpLine,"ax",%progbits
 206              		.align	1
 207              		.global	HAL_PWREx_EnableInternalWakeUpLine
 208              		.syntax unified
 209              		.thumb
 210              		.thumb_func
 211              		.fpu fpv4-sp-d16
 213              	HAL_PWREx_EnableInternalWakeUpLine:
 214              	.LFB284:
 319:../../drivers/third_party/ST/STM32L4xx_HAL_Driver/Src/stm32l4xx_hal_pwr_ex.c **** 
 320:../../drivers/third_party/ST/STM32L4xx_HAL_Driver/Src/stm32l4xx_hal_pwr_ex.c **** 
 321:../../drivers/third_party/ST/STM32L4xx_HAL_Driver/Src/stm32l4xx_hal_pwr_ex.c **** #if defined(PWR_CR2_USV)
 322:../../drivers/third_party/ST/STM32L4xx_HAL_Driver/Src/stm32l4xx_hal_pwr_ex.c **** /**
 323:../../drivers/third_party/ST/STM32L4xx_HAL_Driver/Src/stm32l4xx_hal_pwr_ex.c ****   * @brief Enable VDDUSB supply. 
 324:../../drivers/third_party/ST/STM32L4xx_HAL_Driver/Src/stm32l4xx_hal_pwr_ex.c ****   * @note  Remove VDDUSB electrical and logical isolation, once VDDUSB supply is present.  
 325:../../drivers/third_party/ST/STM32L4xx_HAL_Driver/Src/stm32l4xx_hal_pwr_ex.c ****   * @retval None
 326:../../drivers/third_party/ST/STM32L4xx_HAL_Driver/Src/stm32l4xx_hal_pwr_ex.c ****   */
 327:../../drivers/third_party/ST/STM32L4xx_HAL_Driver/Src/stm32l4xx_hal_pwr_ex.c **** void HAL_PWREx_EnableVddUSB(void)
 328:../../drivers/third_party/ST/STM32L4xx_HAL_Driver/Src/stm32l4xx_hal_pwr_ex.c **** {
 329:../../drivers/third_party/ST/STM32L4xx_HAL_Driver/Src/stm32l4xx_hal_pwr_ex.c ****   SET_BIT(PWR->CR2, PWR_CR2_USV);
 330:../../drivers/third_party/ST/STM32L4xx_HAL_Driver/Src/stm32l4xx_hal_pwr_ex.c **** }
 331:../../drivers/third_party/ST/STM32L4xx_HAL_Driver/Src/stm32l4xx_hal_pwr_ex.c **** 
 332:../../drivers/third_party/ST/STM32L4xx_HAL_Driver/Src/stm32l4xx_hal_pwr_ex.c **** 
 333:../../drivers/third_party/ST/STM32L4xx_HAL_Driver/Src/stm32l4xx_hal_pwr_ex.c **** /**
 334:../../drivers/third_party/ST/STM32L4xx_HAL_Driver/Src/stm32l4xx_hal_pwr_ex.c ****   * @brief Disable VDDUSB supply. 
 335:../../drivers/third_party/ST/STM32L4xx_HAL_Driver/Src/stm32l4xx_hal_pwr_ex.c ****   * @retval None
 336:../../drivers/third_party/ST/STM32L4xx_HAL_Driver/Src/stm32l4xx_hal_pwr_ex.c ****   */
 337:../../drivers/third_party/ST/STM32L4xx_HAL_Driver/Src/stm32l4xx_hal_pwr_ex.c **** void HAL_PWREx_DisableVddUSB(void)
 338:../../drivers/third_party/ST/STM32L4xx_HAL_Driver/Src/stm32l4xx_hal_pwr_ex.c **** {
 339:../../drivers/third_party/ST/STM32L4xx_HAL_Driver/Src/stm32l4xx_hal_pwr_ex.c ****   CLEAR_BIT(PWR->CR2, PWR_CR2_USV);
 340:../../drivers/third_party/ST/STM32L4xx_HAL_Driver/Src/stm32l4xx_hal_pwr_ex.c **** }
 341:../../drivers/third_party/ST/STM32L4xx_HAL_Driver/Src/stm32l4xx_hal_pwr_ex.c **** #endif /* PWR_CR2_USV */
 342:../../drivers/third_party/ST/STM32L4xx_HAL_Driver/Src/stm32l4xx_hal_pwr_ex.c **** 
 343:../../drivers/third_party/ST/STM32L4xx_HAL_Driver/Src/stm32l4xx_hal_pwr_ex.c **** #if defined(PWR_CR2_IOSV)
 344:../../drivers/third_party/ST/STM32L4xx_HAL_Driver/Src/stm32l4xx_hal_pwr_ex.c **** /**
 345:../../drivers/third_party/ST/STM32L4xx_HAL_Driver/Src/stm32l4xx_hal_pwr_ex.c ****   * @brief Enable VDDIO2 supply. 
 346:../../drivers/third_party/ST/STM32L4xx_HAL_Driver/Src/stm32l4xx_hal_pwr_ex.c ****   * @note  Remove VDDIO2 electrical and logical isolation, once VDDIO2 supply is present. 
 347:../../drivers/third_party/ST/STM32L4xx_HAL_Driver/Src/stm32l4xx_hal_pwr_ex.c ****   * @retval None
 348:../../drivers/third_party/ST/STM32L4xx_HAL_Driver/Src/stm32l4xx_hal_pwr_ex.c ****   */
 349:../../drivers/third_party/ST/STM32L4xx_HAL_Driver/Src/stm32l4xx_hal_pwr_ex.c **** void HAL_PWREx_EnableVddIO2(void)
 350:../../drivers/third_party/ST/STM32L4xx_HAL_Driver/Src/stm32l4xx_hal_pwr_ex.c **** {
 351:../../drivers/third_party/ST/STM32L4xx_HAL_Driver/Src/stm32l4xx_hal_pwr_ex.c ****   SET_BIT(PWR->CR2, PWR_CR2_IOSV);
 352:../../drivers/third_party/ST/STM32L4xx_HAL_Driver/Src/stm32l4xx_hal_pwr_ex.c **** }
 353:../../drivers/third_party/ST/STM32L4xx_HAL_Driver/Src/stm32l4xx_hal_pwr_ex.c **** 
 354:../../drivers/third_party/ST/STM32L4xx_HAL_Driver/Src/stm32l4xx_hal_pwr_ex.c **** 
 355:../../drivers/third_party/ST/STM32L4xx_HAL_Driver/Src/stm32l4xx_hal_pwr_ex.c **** /**
 356:../../drivers/third_party/ST/STM32L4xx_HAL_Driver/Src/stm32l4xx_hal_pwr_ex.c ****   * @brief Disable VDDIO2 supply. 
 357:../../drivers/third_party/ST/STM32L4xx_HAL_Driver/Src/stm32l4xx_hal_pwr_ex.c ****   * @retval None
 358:../../drivers/third_party/ST/STM32L4xx_HAL_Driver/Src/stm32l4xx_hal_pwr_ex.c ****   */
ARM GAS  C:\Users\LuckyE\AppData\Local\Temp\cccYdq5r.s 			page 11


 359:../../drivers/third_party/ST/STM32L4xx_HAL_Driver/Src/stm32l4xx_hal_pwr_ex.c **** void HAL_PWREx_DisableVddIO2(void)
 360:../../drivers/third_party/ST/STM32L4xx_HAL_Driver/Src/stm32l4xx_hal_pwr_ex.c **** {
 361:../../drivers/third_party/ST/STM32L4xx_HAL_Driver/Src/stm32l4xx_hal_pwr_ex.c ****   CLEAR_BIT(PWR->CR2, PWR_CR2_IOSV);
 362:../../drivers/third_party/ST/STM32L4xx_HAL_Driver/Src/stm32l4xx_hal_pwr_ex.c **** }
 363:../../drivers/third_party/ST/STM32L4xx_HAL_Driver/Src/stm32l4xx_hal_pwr_ex.c **** #endif /* PWR_CR2_IOSV */
 364:../../drivers/third_party/ST/STM32L4xx_HAL_Driver/Src/stm32l4xx_hal_pwr_ex.c **** 
 365:../../drivers/third_party/ST/STM32L4xx_HAL_Driver/Src/stm32l4xx_hal_pwr_ex.c **** 
 366:../../drivers/third_party/ST/STM32L4xx_HAL_Driver/Src/stm32l4xx_hal_pwr_ex.c **** /**
 367:../../drivers/third_party/ST/STM32L4xx_HAL_Driver/Src/stm32l4xx_hal_pwr_ex.c ****   * @brief Enable Internal Wake-up Line. 
 368:../../drivers/third_party/ST/STM32L4xx_HAL_Driver/Src/stm32l4xx_hal_pwr_ex.c ****   * @retval None
 369:../../drivers/third_party/ST/STM32L4xx_HAL_Driver/Src/stm32l4xx_hal_pwr_ex.c ****   */
 370:../../drivers/third_party/ST/STM32L4xx_HAL_Driver/Src/stm32l4xx_hal_pwr_ex.c **** void HAL_PWREx_EnableInternalWakeUpLine(void)
 371:../../drivers/third_party/ST/STM32L4xx_HAL_Driver/Src/stm32l4xx_hal_pwr_ex.c **** {
 215              		.loc 1 371 0
 216              		.cfi_startproc
 217              		@ args = 0, pretend = 0, frame = 0
 218              		@ frame_needed = 0, uses_anonymous_args = 0
 219              		@ link register save eliminated.
 372:../../drivers/third_party/ST/STM32L4xx_HAL_Driver/Src/stm32l4xx_hal_pwr_ex.c ****   SET_BIT(PWR->CR3, PWR_CR3_EIWF);
 220              		.loc 1 372 0
 221 0000 024A     		ldr	r2, .L32
 222 0002 9368     		ldr	r3, [r2, #8]
 223 0004 43F40043 		orr	r3, r3, #32768
 224 0008 9360     		str	r3, [r2, #8]
 373:../../drivers/third_party/ST/STM32L4xx_HAL_Driver/Src/stm32l4xx_hal_pwr_ex.c **** }
 225              		.loc 1 373 0
 226 000a 7047     		bx	lr
 227              	.L33:
 228              		.align	2
 229              	.L32:
 230 000c 00700040 		.word	1073770496
 231              		.cfi_endproc
 232              	.LFE284:
 234              		.section	.text.HAL_PWREx_DisableInternalWakeUpLine,"ax",%progbits
 235              		.align	1
 236              		.global	HAL_PWREx_DisableInternalWakeUpLine
 237              		.syntax unified
 238              		.thumb
 239              		.thumb_func
 240              		.fpu fpv4-sp-d16
 242              	HAL_PWREx_DisableInternalWakeUpLine:
 243              	.LFB285:
 374:../../drivers/third_party/ST/STM32L4xx_HAL_Driver/Src/stm32l4xx_hal_pwr_ex.c **** 
 375:../../drivers/third_party/ST/STM32L4xx_HAL_Driver/Src/stm32l4xx_hal_pwr_ex.c **** 
 376:../../drivers/third_party/ST/STM32L4xx_HAL_Driver/Src/stm32l4xx_hal_pwr_ex.c **** /**
 377:../../drivers/third_party/ST/STM32L4xx_HAL_Driver/Src/stm32l4xx_hal_pwr_ex.c ****   * @brief Disable Internal Wake-up Line. 
 378:../../drivers/third_party/ST/STM32L4xx_HAL_Driver/Src/stm32l4xx_hal_pwr_ex.c ****   * @retval None
 379:../../drivers/third_party/ST/STM32L4xx_HAL_Driver/Src/stm32l4xx_hal_pwr_ex.c ****   */
 380:../../drivers/third_party/ST/STM32L4xx_HAL_Driver/Src/stm32l4xx_hal_pwr_ex.c **** void HAL_PWREx_DisableInternalWakeUpLine(void)
 381:../../drivers/third_party/ST/STM32L4xx_HAL_Driver/Src/stm32l4xx_hal_pwr_ex.c **** {
 244              		.loc 1 381 0
 245              		.cfi_startproc
 246              		@ args = 0, pretend = 0, frame = 0
 247              		@ frame_needed = 0, uses_anonymous_args = 0
 248              		@ link register save eliminated.
 382:../../drivers/third_party/ST/STM32L4xx_HAL_Driver/Src/stm32l4xx_hal_pwr_ex.c ****   CLEAR_BIT(PWR->CR3, PWR_CR3_EIWF);
 249              		.loc 1 382 0
ARM GAS  C:\Users\LuckyE\AppData\Local\Temp\cccYdq5r.s 			page 12


 250 0000 024A     		ldr	r2, .L35
 251 0002 9368     		ldr	r3, [r2, #8]
 252 0004 23F40043 		bic	r3, r3, #32768
 253 0008 9360     		str	r3, [r2, #8]
 383:../../drivers/third_party/ST/STM32L4xx_HAL_Driver/Src/stm32l4xx_hal_pwr_ex.c **** }
 254              		.loc 1 383 0
 255 000a 7047     		bx	lr
 256              	.L36:
 257              		.align	2
 258              	.L35:
 259 000c 00700040 		.word	1073770496
 260              		.cfi_endproc
 261              	.LFE285:
 263              		.section	.text.HAL_PWREx_EnableGPIOPullUp,"ax",%progbits
 264              		.align	1
 265              		.global	HAL_PWREx_EnableGPIOPullUp
 266              		.syntax unified
 267              		.thumb
 268              		.thumb_func
 269              		.fpu fpv4-sp-d16
 271              	HAL_PWREx_EnableGPIOPullUp:
 272              	.LFB286:
 384:../../drivers/third_party/ST/STM32L4xx_HAL_Driver/Src/stm32l4xx_hal_pwr_ex.c **** 
 385:../../drivers/third_party/ST/STM32L4xx_HAL_Driver/Src/stm32l4xx_hal_pwr_ex.c **** 
 386:../../drivers/third_party/ST/STM32L4xx_HAL_Driver/Src/stm32l4xx_hal_pwr_ex.c **** 
 387:../../drivers/third_party/ST/STM32L4xx_HAL_Driver/Src/stm32l4xx_hal_pwr_ex.c **** /**
 388:../../drivers/third_party/ST/STM32L4xx_HAL_Driver/Src/stm32l4xx_hal_pwr_ex.c ****   * @brief Enable GPIO pull-up state in Standby and Shutdown modes.
 389:../../drivers/third_party/ST/STM32L4xx_HAL_Driver/Src/stm32l4xx_hal_pwr_ex.c ****   * @note  Set the relevant PUy bits of PWR_PUCRx register to configure the I/O in 
 390:../../drivers/third_party/ST/STM32L4xx_HAL_Driver/Src/stm32l4xx_hal_pwr_ex.c ****   *        pull-up state in Standby and Shutdown modes. 
 391:../../drivers/third_party/ST/STM32L4xx_HAL_Driver/Src/stm32l4xx_hal_pwr_ex.c ****   * @note  This state is effective in Standby and Shutdown modes only if APC bit 
 392:../../drivers/third_party/ST/STM32L4xx_HAL_Driver/Src/stm32l4xx_hal_pwr_ex.c ****   *        is set through HAL_PWREx_EnablePullUpPullDownConfig() API.
 393:../../drivers/third_party/ST/STM32L4xx_HAL_Driver/Src/stm32l4xx_hal_pwr_ex.c ****   * @note  The configuration is lost when exiting the Shutdown mode due to the 
 394:../../drivers/third_party/ST/STM32L4xx_HAL_Driver/Src/stm32l4xx_hal_pwr_ex.c ****   *        power-on reset, maintained when exiting the Standby mode. 
 395:../../drivers/third_party/ST/STM32L4xx_HAL_Driver/Src/stm32l4xx_hal_pwr_ex.c ****   * @note  To avoid any conflict at Standby and Shutdown modes exits, the corresponding
 396:../../drivers/third_party/ST/STM32L4xx_HAL_Driver/Src/stm32l4xx_hal_pwr_ex.c ****   *        PDy bit of PWR_PDCRx register is cleared unless it is reserved. 
 397:../../drivers/third_party/ST/STM32L4xx_HAL_Driver/Src/stm32l4xx_hal_pwr_ex.c ****   * @note  Even if a PUy bit to set is reserved, the other PUy bits entered as input 
 398:../../drivers/third_party/ST/STM32L4xx_HAL_Driver/Src/stm32l4xx_hal_pwr_ex.c ****   *        parameter at the same time are set.     
 399:../../drivers/third_party/ST/STM32L4xx_HAL_Driver/Src/stm32l4xx_hal_pwr_ex.c ****   * @param  GPIO: Specify the IO port. This parameter can be PWR_GPIO_A, ..., PWR_GPIO_H 
 400:../../drivers/third_party/ST/STM32L4xx_HAL_Driver/Src/stm32l4xx_hal_pwr_ex.c ****   *         (or PWR_GPIO_I depending on the devices) to select the GPIO peripheral.
 401:../../drivers/third_party/ST/STM32L4xx_HAL_Driver/Src/stm32l4xx_hal_pwr_ex.c ****   * @param  GPIONumber: Specify the I/O pins numbers.
 402:../../drivers/third_party/ST/STM32L4xx_HAL_Driver/Src/stm32l4xx_hal_pwr_ex.c ****   *         This parameter can be one of the following values:
 403:../../drivers/third_party/ST/STM32L4xx_HAL_Driver/Src/stm32l4xx_hal_pwr_ex.c ****   *         PWR_GPIO_BIT_0, ..., PWR_GPIO_BIT_15 (except for the port where less  
 404:../../drivers/third_party/ST/STM32L4xx_HAL_Driver/Src/stm32l4xx_hal_pwr_ex.c ****   *         I/O pins are available) or the logical OR of several of them to set 
 405:../../drivers/third_party/ST/STM32L4xx_HAL_Driver/Src/stm32l4xx_hal_pwr_ex.c ****   *         several bits for a given port in a single API call.    
 406:../../drivers/third_party/ST/STM32L4xx_HAL_Driver/Src/stm32l4xx_hal_pwr_ex.c ****   * @retval HAL Status
 407:../../drivers/third_party/ST/STM32L4xx_HAL_Driver/Src/stm32l4xx_hal_pwr_ex.c ****   */   
 408:../../drivers/third_party/ST/STM32L4xx_HAL_Driver/Src/stm32l4xx_hal_pwr_ex.c **** HAL_StatusTypeDef HAL_PWREx_EnableGPIOPullUp(uint32_t GPIO, uint32_t GPIONumber)
 409:../../drivers/third_party/ST/STM32L4xx_HAL_Driver/Src/stm32l4xx_hal_pwr_ex.c **** {  
 273              		.loc 1 409 0
 274              		.cfi_startproc
 275              		@ args = 0, pretend = 0, frame = 0
 276              		@ frame_needed = 0, uses_anonymous_args = 0
 277              		@ link register save eliminated.
 278              	.LVL11:
 410:../../drivers/third_party/ST/STM32L4xx_HAL_Driver/Src/stm32l4xx_hal_pwr_ex.c ****   assert_param(IS_PWR_GPIO(GPIO));
 411:../../drivers/third_party/ST/STM32L4xx_HAL_Driver/Src/stm32l4xx_hal_pwr_ex.c ****   assert_param(IS_PWR_GPIO_BIT_NUMBER(GPIONumber));
 412:../../drivers/third_party/ST/STM32L4xx_HAL_Driver/Src/stm32l4xx_hal_pwr_ex.c **** 
ARM GAS  C:\Users\LuckyE\AppData\Local\Temp\cccYdq5r.s 			page 13


 413:../../drivers/third_party/ST/STM32L4xx_HAL_Driver/Src/stm32l4xx_hal_pwr_ex.c ****   switch (GPIO)
 279              		.loc 1 413 0
 280 0000 0728     		cmp	r0, #7
 281 0002 44D8     		bhi	.L46
 282 0004 DFE800F0 		tbb	[pc, r0]
 283              	.L40:
 284 0008 04       		.byte	(.L39-.L40)/2
 285 0009 12       		.byte	(.L41-.L40)/2
 286 000a 1D       		.byte	(.L42-.L40)/2
 287 000b 26       		.byte	(.L43-.L40)/2
 288 000c 2F       		.byte	(.L44-.L40)/2
 289 000d 43       		.byte	(.L46-.L40)/2
 290 000e 43       		.byte	(.L46-.L40)/2
 291 000f 38       		.byte	(.L45-.L40)/2
 292              		.p2align 1
 293              	.L39:
 414:../../drivers/third_party/ST/STM32L4xx_HAL_Driver/Src/stm32l4xx_hal_pwr_ex.c ****   {
 415:../../drivers/third_party/ST/STM32L4xx_HAL_Driver/Src/stm32l4xx_hal_pwr_ex.c ****     case PWR_GPIO_A:
 416:../../drivers/third_party/ST/STM32L4xx_HAL_Driver/Src/stm32l4xx_hal_pwr_ex.c ****        SET_BIT(PWR->PUCRA, (GPIONumber & (~(PWR_GPIO_BIT_14))));
 294              		.loc 1 416 0
 295 0010 204B     		ldr	r3, .L48
 296 0012 186A     		ldr	r0, [r3, #32]
 297              	.LVL12:
 298 0014 21F48042 		bic	r2, r1, #16384
 299 0018 0243     		orrs	r2, r2, r0
 300 001a 1A62     		str	r2, [r3, #32]
 417:../../drivers/third_party/ST/STM32L4xx_HAL_Driver/Src/stm32l4xx_hal_pwr_ex.c ****        CLEAR_BIT(PWR->PDCRA, (GPIONumber & (~(PWR_GPIO_BIT_13|PWR_GPIO_BIT_15))));
 301              		.loc 1 417 0
 302 001c 5A6A     		ldr	r2, [r3, #36]
 303 001e 21F42041 		bic	r1, r1, #40960
 304              	.LVL13:
 305 0022 22EA0101 		bic	r1, r2, r1
 306 0026 5962     		str	r1, [r3, #36]
 307              	.L47:
 418:../../drivers/third_party/ST/STM32L4xx_HAL_Driver/Src/stm32l4xx_hal_pwr_ex.c ****        break;
 419:../../drivers/third_party/ST/STM32L4xx_HAL_Driver/Src/stm32l4xx_hal_pwr_ex.c ****     case PWR_GPIO_B:
 420:../../drivers/third_party/ST/STM32L4xx_HAL_Driver/Src/stm32l4xx_hal_pwr_ex.c ****        SET_BIT(PWR->PUCRB, GPIONumber);
 421:../../drivers/third_party/ST/STM32L4xx_HAL_Driver/Src/stm32l4xx_hal_pwr_ex.c ****        CLEAR_BIT(PWR->PDCRB, (GPIONumber & (~(PWR_GPIO_BIT_4))));
 422:../../drivers/third_party/ST/STM32L4xx_HAL_Driver/Src/stm32l4xx_hal_pwr_ex.c ****        break;
 423:../../drivers/third_party/ST/STM32L4xx_HAL_Driver/Src/stm32l4xx_hal_pwr_ex.c ****     case PWR_GPIO_C:
 424:../../drivers/third_party/ST/STM32L4xx_HAL_Driver/Src/stm32l4xx_hal_pwr_ex.c ****        SET_BIT(PWR->PUCRC, GPIONumber);
 425:../../drivers/third_party/ST/STM32L4xx_HAL_Driver/Src/stm32l4xx_hal_pwr_ex.c ****        CLEAR_BIT(PWR->PDCRC, GPIONumber);
 426:../../drivers/third_party/ST/STM32L4xx_HAL_Driver/Src/stm32l4xx_hal_pwr_ex.c ****        break;
 427:../../drivers/third_party/ST/STM32L4xx_HAL_Driver/Src/stm32l4xx_hal_pwr_ex.c **** #if defined(GPIOD)
 428:../../drivers/third_party/ST/STM32L4xx_HAL_Driver/Src/stm32l4xx_hal_pwr_ex.c ****     case PWR_GPIO_D:
 429:../../drivers/third_party/ST/STM32L4xx_HAL_Driver/Src/stm32l4xx_hal_pwr_ex.c ****        SET_BIT(PWR->PUCRD, GPIONumber);
 430:../../drivers/third_party/ST/STM32L4xx_HAL_Driver/Src/stm32l4xx_hal_pwr_ex.c ****        CLEAR_BIT(PWR->PDCRD, GPIONumber);
 431:../../drivers/third_party/ST/STM32L4xx_HAL_Driver/Src/stm32l4xx_hal_pwr_ex.c ****        break;
 432:../../drivers/third_party/ST/STM32L4xx_HAL_Driver/Src/stm32l4xx_hal_pwr_ex.c **** #endif
 433:../../drivers/third_party/ST/STM32L4xx_HAL_Driver/Src/stm32l4xx_hal_pwr_ex.c **** #if defined(GPIOE)
 434:../../drivers/third_party/ST/STM32L4xx_HAL_Driver/Src/stm32l4xx_hal_pwr_ex.c ****     case PWR_GPIO_E:
 435:../../drivers/third_party/ST/STM32L4xx_HAL_Driver/Src/stm32l4xx_hal_pwr_ex.c ****        SET_BIT(PWR->PUCRE, GPIONumber);
 436:../../drivers/third_party/ST/STM32L4xx_HAL_Driver/Src/stm32l4xx_hal_pwr_ex.c ****        CLEAR_BIT(PWR->PDCRE, GPIONumber);
 437:../../drivers/third_party/ST/STM32L4xx_HAL_Driver/Src/stm32l4xx_hal_pwr_ex.c ****        break;
 438:../../drivers/third_party/ST/STM32L4xx_HAL_Driver/Src/stm32l4xx_hal_pwr_ex.c **** #endif
 439:../../drivers/third_party/ST/STM32L4xx_HAL_Driver/Src/stm32l4xx_hal_pwr_ex.c **** #if defined(GPIOF)
 440:../../drivers/third_party/ST/STM32L4xx_HAL_Driver/Src/stm32l4xx_hal_pwr_ex.c ****     case PWR_GPIO_F:
ARM GAS  C:\Users\LuckyE\AppData\Local\Temp\cccYdq5r.s 			page 14


 441:../../drivers/third_party/ST/STM32L4xx_HAL_Driver/Src/stm32l4xx_hal_pwr_ex.c ****        SET_BIT(PWR->PUCRF, GPIONumber);
 442:../../drivers/third_party/ST/STM32L4xx_HAL_Driver/Src/stm32l4xx_hal_pwr_ex.c ****        CLEAR_BIT(PWR->PDCRF, GPIONumber);
 443:../../drivers/third_party/ST/STM32L4xx_HAL_Driver/Src/stm32l4xx_hal_pwr_ex.c ****        break;
 444:../../drivers/third_party/ST/STM32L4xx_HAL_Driver/Src/stm32l4xx_hal_pwr_ex.c **** #endif
 445:../../drivers/third_party/ST/STM32L4xx_HAL_Driver/Src/stm32l4xx_hal_pwr_ex.c **** #if defined(GPIOG)
 446:../../drivers/third_party/ST/STM32L4xx_HAL_Driver/Src/stm32l4xx_hal_pwr_ex.c ****     case PWR_GPIO_G:
 447:../../drivers/third_party/ST/STM32L4xx_HAL_Driver/Src/stm32l4xx_hal_pwr_ex.c ****        SET_BIT(PWR->PUCRG, GPIONumber);
 448:../../drivers/third_party/ST/STM32L4xx_HAL_Driver/Src/stm32l4xx_hal_pwr_ex.c ****        CLEAR_BIT(PWR->PDCRG, GPIONumber);
 449:../../drivers/third_party/ST/STM32L4xx_HAL_Driver/Src/stm32l4xx_hal_pwr_ex.c ****        break;
 450:../../drivers/third_party/ST/STM32L4xx_HAL_Driver/Src/stm32l4xx_hal_pwr_ex.c **** #endif
 451:../../drivers/third_party/ST/STM32L4xx_HAL_Driver/Src/stm32l4xx_hal_pwr_ex.c ****     case PWR_GPIO_H:
 452:../../drivers/third_party/ST/STM32L4xx_HAL_Driver/Src/stm32l4xx_hal_pwr_ex.c ****        SET_BIT(PWR->PUCRH, (GPIONumber & PWR_PORTH_AVAILABLE_PINS));
 453:../../drivers/third_party/ST/STM32L4xx_HAL_Driver/Src/stm32l4xx_hal_pwr_ex.c **** #if defined (STM32L496xx) || defined (STM32L4A6xx)
 454:../../drivers/third_party/ST/STM32L4xx_HAL_Driver/Src/stm32l4xx_hal_pwr_ex.c ****        CLEAR_BIT(PWR->PDCRH, ((GPIONumber & PWR_PORTH_AVAILABLE_PINS) & (~(PWR_GPIO_BIT_3))));
 455:../../drivers/third_party/ST/STM32L4xx_HAL_Driver/Src/stm32l4xx_hal_pwr_ex.c **** #else       
 456:../../drivers/third_party/ST/STM32L4xx_HAL_Driver/Src/stm32l4xx_hal_pwr_ex.c ****        CLEAR_BIT(PWR->PDCRH, (GPIONumber & PWR_PORTH_AVAILABLE_PINS));
 457:../../drivers/third_party/ST/STM32L4xx_HAL_Driver/Src/stm32l4xx_hal_pwr_ex.c **** #endif       
 458:../../drivers/third_party/ST/STM32L4xx_HAL_Driver/Src/stm32l4xx_hal_pwr_ex.c ****        break;
 459:../../drivers/third_party/ST/STM32L4xx_HAL_Driver/Src/stm32l4xx_hal_pwr_ex.c **** #if defined(GPIOI)
 460:../../drivers/third_party/ST/STM32L4xx_HAL_Driver/Src/stm32l4xx_hal_pwr_ex.c ****     case PWR_GPIO_I:
 461:../../drivers/third_party/ST/STM32L4xx_HAL_Driver/Src/stm32l4xx_hal_pwr_ex.c ****        SET_BIT(PWR->PUCRI, (GPIONumber & PWR_PORTI_AVAILABLE_PINS));
 462:../../drivers/third_party/ST/STM32L4xx_HAL_Driver/Src/stm32l4xx_hal_pwr_ex.c ****        CLEAR_BIT(PWR->PDCRI, (GPIONumber & PWR_PORTI_AVAILABLE_PINS));
 463:../../drivers/third_party/ST/STM32L4xx_HAL_Driver/Src/stm32l4xx_hal_pwr_ex.c ****        break;
 464:../../drivers/third_party/ST/STM32L4xx_HAL_Driver/Src/stm32l4xx_hal_pwr_ex.c **** #endif
 465:../../drivers/third_party/ST/STM32L4xx_HAL_Driver/Src/stm32l4xx_hal_pwr_ex.c ****     default:
 466:../../drivers/third_party/ST/STM32L4xx_HAL_Driver/Src/stm32l4xx_hal_pwr_ex.c ****        return HAL_ERROR;
 467:../../drivers/third_party/ST/STM32L4xx_HAL_Driver/Src/stm32l4xx_hal_pwr_ex.c ****   }
 468:../../drivers/third_party/ST/STM32L4xx_HAL_Driver/Src/stm32l4xx_hal_pwr_ex.c ****   
 469:../../drivers/third_party/ST/STM32L4xx_HAL_Driver/Src/stm32l4xx_hal_pwr_ex.c ****   return HAL_OK;
 308              		.loc 1 469 0
 309 0028 0020     		movs	r0, #0
 422:../../drivers/third_party/ST/STM32L4xx_HAL_Driver/Src/stm32l4xx_hal_pwr_ex.c ****     case PWR_GPIO_C:
 310              		.loc 1 422 0
 311 002a 7047     		bx	lr
 312              	.LVL14:
 313              	.L41:
 420:../../drivers/third_party/ST/STM32L4xx_HAL_Driver/Src/stm32l4xx_hal_pwr_ex.c ****        CLEAR_BIT(PWR->PDCRB, (GPIONumber & (~(PWR_GPIO_BIT_4))));
 314              		.loc 1 420 0
 315 002c 194B     		ldr	r3, .L48
 316 002e 9A6A     		ldr	r2, [r3, #40]
 317 0030 0A43     		orrs	r2, r2, r1
 318 0032 9A62     		str	r2, [r3, #40]
 421:../../drivers/third_party/ST/STM32L4xx_HAL_Driver/Src/stm32l4xx_hal_pwr_ex.c ****        break;
 319              		.loc 1 421 0
 320 0034 DA6A     		ldr	r2, [r3, #44]
 321 0036 21F01001 		bic	r1, r1, #16
 322              	.LVL15:
 323 003a 22EA0101 		bic	r1, r2, r1
 324 003e D962     		str	r1, [r3, #44]
 325 0040 F2E7     		b	.L47
 326              	.LVL16:
 327              	.L42:
 424:../../drivers/third_party/ST/STM32L4xx_HAL_Driver/Src/stm32l4xx_hal_pwr_ex.c ****        CLEAR_BIT(PWR->PDCRC, GPIONumber);
 328              		.loc 1 424 0
 329 0042 144B     		ldr	r3, .L48
 330 0044 1A6B     		ldr	r2, [r3, #48]
 331 0046 0A43     		orrs	r2, r2, r1
ARM GAS  C:\Users\LuckyE\AppData\Local\Temp\cccYdq5r.s 			page 15


 332 0048 1A63     		str	r2, [r3, #48]
 425:../../drivers/third_party/ST/STM32L4xx_HAL_Driver/Src/stm32l4xx_hal_pwr_ex.c ****        break;
 333              		.loc 1 425 0
 334 004a 5A6B     		ldr	r2, [r3, #52]
 335 004c 22EA0101 		bic	r1, r2, r1
 336              	.LVL17:
 337 0050 5963     		str	r1, [r3, #52]
 338 0052 E9E7     		b	.L47
 339              	.LVL18:
 340              	.L43:
 429:../../drivers/third_party/ST/STM32L4xx_HAL_Driver/Src/stm32l4xx_hal_pwr_ex.c ****        CLEAR_BIT(PWR->PDCRD, GPIONumber);
 341              		.loc 1 429 0
 342 0054 0F4B     		ldr	r3, .L48
 343 0056 9A6B     		ldr	r2, [r3, #56]
 344 0058 0A43     		orrs	r2, r2, r1
 345 005a 9A63     		str	r2, [r3, #56]
 430:../../drivers/third_party/ST/STM32L4xx_HAL_Driver/Src/stm32l4xx_hal_pwr_ex.c ****        break;
 346              		.loc 1 430 0
 347 005c DA6B     		ldr	r2, [r3, #60]
 348 005e 22EA0101 		bic	r1, r2, r1
 349              	.LVL19:
 350 0062 D963     		str	r1, [r3, #60]
 351 0064 E0E7     		b	.L47
 352              	.LVL20:
 353              	.L44:
 435:../../drivers/third_party/ST/STM32L4xx_HAL_Driver/Src/stm32l4xx_hal_pwr_ex.c ****        CLEAR_BIT(PWR->PDCRE, GPIONumber);
 354              		.loc 1 435 0
 355 0066 0B4B     		ldr	r3, .L48
 356 0068 1A6C     		ldr	r2, [r3, #64]
 357 006a 0A43     		orrs	r2, r2, r1
 358 006c 1A64     		str	r2, [r3, #64]
 436:../../drivers/third_party/ST/STM32L4xx_HAL_Driver/Src/stm32l4xx_hal_pwr_ex.c ****        break;
 359              		.loc 1 436 0
 360 006e 5A6C     		ldr	r2, [r3, #68]
 361 0070 22EA0101 		bic	r1, r2, r1
 362              	.LVL21:
 363 0074 5964     		str	r1, [r3, #68]
 364 0076 D7E7     		b	.L47
 365              	.LVL22:
 366              	.L45:
 452:../../drivers/third_party/ST/STM32L4xx_HAL_Driver/Src/stm32l4xx_hal_pwr_ex.c **** #if defined (STM32L496xx) || defined (STM32L4A6xx)
 367              		.loc 1 452 0
 368 0078 064B     		ldr	r3, .L48
 369 007a 9A6D     		ldr	r2, [r3, #88]
 370 007c 01F00B01 		and	r1, r1, #11
 371              	.LVL23:
 372 0080 0A43     		orrs	r2, r2, r1
 373 0082 9A65     		str	r2, [r3, #88]
 456:../../drivers/third_party/ST/STM32L4xx_HAL_Driver/Src/stm32l4xx_hal_pwr_ex.c **** #endif       
 374              		.loc 1 456 0
 375 0084 DA6D     		ldr	r2, [r3, #92]
 376 0086 22EA0101 		bic	r1, r2, r1
 377 008a D965     		str	r1, [r3, #92]
 378 008c CCE7     		b	.L47
 379              	.LVL24:
 380              	.L46:
 466:../../drivers/third_party/ST/STM32L4xx_HAL_Driver/Src/stm32l4xx_hal_pwr_ex.c ****   }
ARM GAS  C:\Users\LuckyE\AppData\Local\Temp\cccYdq5r.s 			page 16


 381              		.loc 1 466 0
 382 008e 0120     		movs	r0, #1
 383              	.LVL25:
 470:../../drivers/third_party/ST/STM32L4xx_HAL_Driver/Src/stm32l4xx_hal_pwr_ex.c **** }
 384              		.loc 1 470 0
 385 0090 7047     		bx	lr
 386              	.L49:
 387 0092 00BF     		.align	2
 388              	.L48:
 389 0094 00700040 		.word	1073770496
 390              		.cfi_endproc
 391              	.LFE286:
 393              		.section	.text.HAL_PWREx_DisableGPIOPullUp,"ax",%progbits
 394              		.align	1
 395              		.global	HAL_PWREx_DisableGPIOPullUp
 396              		.syntax unified
 397              		.thumb
 398              		.thumb_func
 399              		.fpu fpv4-sp-d16
 401              	HAL_PWREx_DisableGPIOPullUp:
 402              	.LFB287:
 471:../../drivers/third_party/ST/STM32L4xx_HAL_Driver/Src/stm32l4xx_hal_pwr_ex.c **** 
 472:../../drivers/third_party/ST/STM32L4xx_HAL_Driver/Src/stm32l4xx_hal_pwr_ex.c **** 
 473:../../drivers/third_party/ST/STM32L4xx_HAL_Driver/Src/stm32l4xx_hal_pwr_ex.c **** /**
 474:../../drivers/third_party/ST/STM32L4xx_HAL_Driver/Src/stm32l4xx_hal_pwr_ex.c ****   * @brief Disable GPIO pull-up state in Standby mode and Shutdown modes.
 475:../../drivers/third_party/ST/STM32L4xx_HAL_Driver/Src/stm32l4xx_hal_pwr_ex.c ****   * @note  Reset the relevant PUy bits of PWR_PUCRx register used to configure the I/O
 476:../../drivers/third_party/ST/STM32L4xx_HAL_Driver/Src/stm32l4xx_hal_pwr_ex.c ****   *        in pull-up state in Standby and Shutdown modes.
 477:../../drivers/third_party/ST/STM32L4xx_HAL_Driver/Src/stm32l4xx_hal_pwr_ex.c ****   * @note  Even if a PUy bit to reset is reserved, the other PUy bits entered as input 
 478:../../drivers/third_party/ST/STM32L4xx_HAL_Driver/Src/stm32l4xx_hal_pwr_ex.c ****   *        parameter at the same time are reset.      
 479:../../drivers/third_party/ST/STM32L4xx_HAL_Driver/Src/stm32l4xx_hal_pwr_ex.c ****   * @param  GPIO: Specifies the IO port. This parameter can be PWR_GPIO_A, ..., PWR_GPIO_H 
 480:../../drivers/third_party/ST/STM32L4xx_HAL_Driver/Src/stm32l4xx_hal_pwr_ex.c ****   *          (or PWR_GPIO_I depending on the devices) to select the GPIO peripheral.
 481:../../drivers/third_party/ST/STM32L4xx_HAL_Driver/Src/stm32l4xx_hal_pwr_ex.c ****   * @param  GPIONumber: Specify the I/O pins numbers.
 482:../../drivers/third_party/ST/STM32L4xx_HAL_Driver/Src/stm32l4xx_hal_pwr_ex.c ****   *         This parameter can be one of the following values:
 483:../../drivers/third_party/ST/STM32L4xx_HAL_Driver/Src/stm32l4xx_hal_pwr_ex.c ****   *         PWR_GPIO_BIT_0, ..., PWR_GPIO_BIT_15 (except for the port where less  
 484:../../drivers/third_party/ST/STM32L4xx_HAL_Driver/Src/stm32l4xx_hal_pwr_ex.c ****   *         I/O pins are available) or the logical OR of several of them to reset 
 485:../../drivers/third_party/ST/STM32L4xx_HAL_Driver/Src/stm32l4xx_hal_pwr_ex.c ****   *         several bits for a given port in a single API call. 
 486:../../drivers/third_party/ST/STM32L4xx_HAL_Driver/Src/stm32l4xx_hal_pwr_ex.c ****   * @retval HAL Status
 487:../../drivers/third_party/ST/STM32L4xx_HAL_Driver/Src/stm32l4xx_hal_pwr_ex.c ****   */   
 488:../../drivers/third_party/ST/STM32L4xx_HAL_Driver/Src/stm32l4xx_hal_pwr_ex.c **** HAL_StatusTypeDef HAL_PWREx_DisableGPIOPullUp(uint32_t GPIO, uint32_t GPIONumber)
 489:../../drivers/third_party/ST/STM32L4xx_HAL_Driver/Src/stm32l4xx_hal_pwr_ex.c **** {  
 403              		.loc 1 489 0
 404              		.cfi_startproc
 405              		@ args = 0, pretend = 0, frame = 0
 406              		@ frame_needed = 0, uses_anonymous_args = 0
 407              		@ link register save eliminated.
 408              	.LVL26:
 490:../../drivers/third_party/ST/STM32L4xx_HAL_Driver/Src/stm32l4xx_hal_pwr_ex.c ****   assert_param(IS_PWR_GPIO(GPIO));
 491:../../drivers/third_party/ST/STM32L4xx_HAL_Driver/Src/stm32l4xx_hal_pwr_ex.c ****   assert_param(IS_PWR_GPIO_BIT_NUMBER(GPIONumber));
 492:../../drivers/third_party/ST/STM32L4xx_HAL_Driver/Src/stm32l4xx_hal_pwr_ex.c ****   
 493:../../drivers/third_party/ST/STM32L4xx_HAL_Driver/Src/stm32l4xx_hal_pwr_ex.c ****   switch (GPIO)
 409              		.loc 1 493 0
 410 0000 0728     		cmp	r0, #7
 411 0002 2ED8     		bhi	.L59
 412 0004 DFE800F0 		tbb	[pc, r0]
 413              	.L53:
 414 0008 04       		.byte	(.L52-.L53)/2
 415 0009 0D       		.byte	(.L54-.L53)/2
ARM GAS  C:\Users\LuckyE\AppData\Local\Temp\cccYdq5r.s 			page 17


 416 000a 13       		.byte	(.L55-.L53)/2
 417 000b 19       		.byte	(.L56-.L53)/2
 418 000c 1F       		.byte	(.L57-.L53)/2
 419 000d 2D       		.byte	(.L59-.L53)/2
 420 000e 2D       		.byte	(.L59-.L53)/2
 421 000f 25       		.byte	(.L58-.L53)/2
 422              		.p2align 1
 423              	.L52:
 494:../../drivers/third_party/ST/STM32L4xx_HAL_Driver/Src/stm32l4xx_hal_pwr_ex.c ****   {
 495:../../drivers/third_party/ST/STM32L4xx_HAL_Driver/Src/stm32l4xx_hal_pwr_ex.c ****     case PWR_GPIO_A:
 496:../../drivers/third_party/ST/STM32L4xx_HAL_Driver/Src/stm32l4xx_hal_pwr_ex.c ****        CLEAR_BIT(PWR->PUCRA, (GPIONumber & (~(PWR_GPIO_BIT_14))));
 424              		.loc 1 496 0
 425 0010 154A     		ldr	r2, .L61
 426 0012 136A     		ldr	r3, [r2, #32]
 427 0014 21F48041 		bic	r1, r1, #16384
 428              	.LVL27:
 429 0018 23EA0101 		bic	r1, r3, r1
 430 001c 1162     		str	r1, [r2, #32]
 431              	.L60:
 497:../../drivers/third_party/ST/STM32L4xx_HAL_Driver/Src/stm32l4xx_hal_pwr_ex.c ****        break;
 498:../../drivers/third_party/ST/STM32L4xx_HAL_Driver/Src/stm32l4xx_hal_pwr_ex.c ****     case PWR_GPIO_B:
 499:../../drivers/third_party/ST/STM32L4xx_HAL_Driver/Src/stm32l4xx_hal_pwr_ex.c ****        CLEAR_BIT(PWR->PUCRB, GPIONumber);
 500:../../drivers/third_party/ST/STM32L4xx_HAL_Driver/Src/stm32l4xx_hal_pwr_ex.c ****        break;
 501:../../drivers/third_party/ST/STM32L4xx_HAL_Driver/Src/stm32l4xx_hal_pwr_ex.c ****     case PWR_GPIO_C:
 502:../../drivers/third_party/ST/STM32L4xx_HAL_Driver/Src/stm32l4xx_hal_pwr_ex.c ****        CLEAR_BIT(PWR->PUCRC, GPIONumber);
 503:../../drivers/third_party/ST/STM32L4xx_HAL_Driver/Src/stm32l4xx_hal_pwr_ex.c ****        break;
 504:../../drivers/third_party/ST/STM32L4xx_HAL_Driver/Src/stm32l4xx_hal_pwr_ex.c **** #if defined(GPIOD)
 505:../../drivers/third_party/ST/STM32L4xx_HAL_Driver/Src/stm32l4xx_hal_pwr_ex.c ****     case PWR_GPIO_D:
 506:../../drivers/third_party/ST/STM32L4xx_HAL_Driver/Src/stm32l4xx_hal_pwr_ex.c ****        CLEAR_BIT(PWR->PUCRD, GPIONumber);
 507:../../drivers/third_party/ST/STM32L4xx_HAL_Driver/Src/stm32l4xx_hal_pwr_ex.c ****        break;
 508:../../drivers/third_party/ST/STM32L4xx_HAL_Driver/Src/stm32l4xx_hal_pwr_ex.c **** #endif
 509:../../drivers/third_party/ST/STM32L4xx_HAL_Driver/Src/stm32l4xx_hal_pwr_ex.c **** #if defined(GPIOE)
 510:../../drivers/third_party/ST/STM32L4xx_HAL_Driver/Src/stm32l4xx_hal_pwr_ex.c ****     case PWR_GPIO_E:
 511:../../drivers/third_party/ST/STM32L4xx_HAL_Driver/Src/stm32l4xx_hal_pwr_ex.c ****        CLEAR_BIT(PWR->PUCRE, GPIONumber);
 512:../../drivers/third_party/ST/STM32L4xx_HAL_Driver/Src/stm32l4xx_hal_pwr_ex.c ****        break;
 513:../../drivers/third_party/ST/STM32L4xx_HAL_Driver/Src/stm32l4xx_hal_pwr_ex.c **** #endif
 514:../../drivers/third_party/ST/STM32L4xx_HAL_Driver/Src/stm32l4xx_hal_pwr_ex.c **** #if defined(GPIOF)
 515:../../drivers/third_party/ST/STM32L4xx_HAL_Driver/Src/stm32l4xx_hal_pwr_ex.c ****     case PWR_GPIO_F:
 516:../../drivers/third_party/ST/STM32L4xx_HAL_Driver/Src/stm32l4xx_hal_pwr_ex.c ****        CLEAR_BIT(PWR->PUCRF, GPIONumber);
 517:../../drivers/third_party/ST/STM32L4xx_HAL_Driver/Src/stm32l4xx_hal_pwr_ex.c ****        break;
 518:../../drivers/third_party/ST/STM32L4xx_HAL_Driver/Src/stm32l4xx_hal_pwr_ex.c **** #endif
 519:../../drivers/third_party/ST/STM32L4xx_HAL_Driver/Src/stm32l4xx_hal_pwr_ex.c **** #if defined(GPIOG)
 520:../../drivers/third_party/ST/STM32L4xx_HAL_Driver/Src/stm32l4xx_hal_pwr_ex.c ****     case PWR_GPIO_G:
 521:../../drivers/third_party/ST/STM32L4xx_HAL_Driver/Src/stm32l4xx_hal_pwr_ex.c ****        CLEAR_BIT(PWR->PUCRG, GPIONumber);
 522:../../drivers/third_party/ST/STM32L4xx_HAL_Driver/Src/stm32l4xx_hal_pwr_ex.c ****        break;
 523:../../drivers/third_party/ST/STM32L4xx_HAL_Driver/Src/stm32l4xx_hal_pwr_ex.c **** #endif
 524:../../drivers/third_party/ST/STM32L4xx_HAL_Driver/Src/stm32l4xx_hal_pwr_ex.c ****     case PWR_GPIO_H:    
 525:../../drivers/third_party/ST/STM32L4xx_HAL_Driver/Src/stm32l4xx_hal_pwr_ex.c ****        CLEAR_BIT(PWR->PUCRH, (GPIONumber & PWR_PORTH_AVAILABLE_PINS));
 526:../../drivers/third_party/ST/STM32L4xx_HAL_Driver/Src/stm32l4xx_hal_pwr_ex.c ****        break;
 527:../../drivers/third_party/ST/STM32L4xx_HAL_Driver/Src/stm32l4xx_hal_pwr_ex.c **** #if defined(GPIOI)
 528:../../drivers/third_party/ST/STM32L4xx_HAL_Driver/Src/stm32l4xx_hal_pwr_ex.c ****     case PWR_GPIO_I:
 529:../../drivers/third_party/ST/STM32L4xx_HAL_Driver/Src/stm32l4xx_hal_pwr_ex.c ****        CLEAR_BIT(PWR->PUCRI, (GPIONumber & PWR_PORTI_AVAILABLE_PINS));
 530:../../drivers/third_party/ST/STM32L4xx_HAL_Driver/Src/stm32l4xx_hal_pwr_ex.c ****        break;
 531:../../drivers/third_party/ST/STM32L4xx_HAL_Driver/Src/stm32l4xx_hal_pwr_ex.c **** #endif
 532:../../drivers/third_party/ST/STM32L4xx_HAL_Driver/Src/stm32l4xx_hal_pwr_ex.c ****     default:
 533:../../drivers/third_party/ST/STM32L4xx_HAL_Driver/Src/stm32l4xx_hal_pwr_ex.c ****        return HAL_ERROR;
 534:../../drivers/third_party/ST/STM32L4xx_HAL_Driver/Src/stm32l4xx_hal_pwr_ex.c ****   }
ARM GAS  C:\Users\LuckyE\AppData\Local\Temp\cccYdq5r.s 			page 18


 535:../../drivers/third_party/ST/STM32L4xx_HAL_Driver/Src/stm32l4xx_hal_pwr_ex.c ****   
 536:../../drivers/third_party/ST/STM32L4xx_HAL_Driver/Src/stm32l4xx_hal_pwr_ex.c ****   return HAL_OK;
 432              		.loc 1 536 0
 433 001e 0020     		movs	r0, #0
 434              	.LVL28:
 500:../../drivers/third_party/ST/STM32L4xx_HAL_Driver/Src/stm32l4xx_hal_pwr_ex.c ****     case PWR_GPIO_C:
 435              		.loc 1 500 0
 436 0020 7047     		bx	lr
 437              	.LVL29:
 438              	.L54:
 499:../../drivers/third_party/ST/STM32L4xx_HAL_Driver/Src/stm32l4xx_hal_pwr_ex.c ****        break;
 439              		.loc 1 499 0
 440 0022 114A     		ldr	r2, .L61
 441 0024 936A     		ldr	r3, [r2, #40]
 442 0026 23EA0101 		bic	r1, r3, r1
 443              	.LVL30:
 444 002a 9162     		str	r1, [r2, #40]
 445 002c F7E7     		b	.L60
 446              	.LVL31:
 447              	.L55:
 502:../../drivers/third_party/ST/STM32L4xx_HAL_Driver/Src/stm32l4xx_hal_pwr_ex.c ****        break;
 448              		.loc 1 502 0
 449 002e 0E4A     		ldr	r2, .L61
 450 0030 136B     		ldr	r3, [r2, #48]
 451 0032 23EA0101 		bic	r1, r3, r1
 452              	.LVL32:
 453 0036 1163     		str	r1, [r2, #48]
 454 0038 F1E7     		b	.L60
 455              	.LVL33:
 456              	.L56:
 506:../../drivers/third_party/ST/STM32L4xx_HAL_Driver/Src/stm32l4xx_hal_pwr_ex.c ****        break;
 457              		.loc 1 506 0
 458 003a 0B4A     		ldr	r2, .L61
 459 003c 936B     		ldr	r3, [r2, #56]
 460 003e 23EA0101 		bic	r1, r3, r1
 461              	.LVL34:
 462 0042 9163     		str	r1, [r2, #56]
 463 0044 EBE7     		b	.L60
 464              	.LVL35:
 465              	.L57:
 511:../../drivers/third_party/ST/STM32L4xx_HAL_Driver/Src/stm32l4xx_hal_pwr_ex.c ****        break;
 466              		.loc 1 511 0
 467 0046 084A     		ldr	r2, .L61
 468 0048 136C     		ldr	r3, [r2, #64]
 469 004a 23EA0101 		bic	r1, r3, r1
 470              	.LVL36:
 471 004e 1164     		str	r1, [r2, #64]
 472 0050 E5E7     		b	.L60
 473              	.LVL37:
 474              	.L58:
 525:../../drivers/third_party/ST/STM32L4xx_HAL_Driver/Src/stm32l4xx_hal_pwr_ex.c ****        break;
 475              		.loc 1 525 0
 476 0052 054A     		ldr	r2, .L61
 477 0054 936D     		ldr	r3, [r2, #88]
 478 0056 01F00B01 		and	r1, r1, #11
 479              	.LVL38:
 480 005a 23EA0101 		bic	r1, r3, r1
ARM GAS  C:\Users\LuckyE\AppData\Local\Temp\cccYdq5r.s 			page 19


 481 005e 9165     		str	r1, [r2, #88]
 482 0060 DDE7     		b	.L60
 483              	.LVL39:
 484              	.L59:
 533:../../drivers/third_party/ST/STM32L4xx_HAL_Driver/Src/stm32l4xx_hal_pwr_ex.c ****   }
 485              		.loc 1 533 0
 486 0062 0120     		movs	r0, #1
 487              	.LVL40:
 537:../../drivers/third_party/ST/STM32L4xx_HAL_Driver/Src/stm32l4xx_hal_pwr_ex.c **** }
 488              		.loc 1 537 0
 489 0064 7047     		bx	lr
 490              	.L62:
 491 0066 00BF     		.align	2
 492              	.L61:
 493 0068 00700040 		.word	1073770496
 494              		.cfi_endproc
 495              	.LFE287:
 497              		.section	.text.HAL_PWREx_EnableGPIOPullDown,"ax",%progbits
 498              		.align	1
 499              		.global	HAL_PWREx_EnableGPIOPullDown
 500              		.syntax unified
 501              		.thumb
 502              		.thumb_func
 503              		.fpu fpv4-sp-d16
 505              	HAL_PWREx_EnableGPIOPullDown:
 506              	.LFB288:
 538:../../drivers/third_party/ST/STM32L4xx_HAL_Driver/Src/stm32l4xx_hal_pwr_ex.c **** 
 539:../../drivers/third_party/ST/STM32L4xx_HAL_Driver/Src/stm32l4xx_hal_pwr_ex.c **** 
 540:../../drivers/third_party/ST/STM32L4xx_HAL_Driver/Src/stm32l4xx_hal_pwr_ex.c **** 
 541:../../drivers/third_party/ST/STM32L4xx_HAL_Driver/Src/stm32l4xx_hal_pwr_ex.c **** /**
 542:../../drivers/third_party/ST/STM32L4xx_HAL_Driver/Src/stm32l4xx_hal_pwr_ex.c ****   * @brief Enable GPIO pull-down state in Standby and Shutdown modes.
 543:../../drivers/third_party/ST/STM32L4xx_HAL_Driver/Src/stm32l4xx_hal_pwr_ex.c ****   * @note  Set the relevant PDy bits of PWR_PDCRx register to configure the I/O in 
 544:../../drivers/third_party/ST/STM32L4xx_HAL_Driver/Src/stm32l4xx_hal_pwr_ex.c ****   *        pull-down state in Standby and Shutdown modes. 
 545:../../drivers/third_party/ST/STM32L4xx_HAL_Driver/Src/stm32l4xx_hal_pwr_ex.c ****   * @note  This state is effective in Standby and Shutdown modes only if APC bit
 546:../../drivers/third_party/ST/STM32L4xx_HAL_Driver/Src/stm32l4xx_hal_pwr_ex.c ****   *        is set through HAL_PWREx_EnablePullUpPullDownConfig() API. 
 547:../../drivers/third_party/ST/STM32L4xx_HAL_Driver/Src/stm32l4xx_hal_pwr_ex.c ****   * @note  The configuration is lost when exiting the Shutdown mode due to the 
 548:../../drivers/third_party/ST/STM32L4xx_HAL_Driver/Src/stm32l4xx_hal_pwr_ex.c ****   *        power-on reset, maintained when exiting the Standby mode. 
 549:../../drivers/third_party/ST/STM32L4xx_HAL_Driver/Src/stm32l4xx_hal_pwr_ex.c ****   * @note  To avoid any conflict at Standby and Shutdown modes exits, the corresponding
 550:../../drivers/third_party/ST/STM32L4xx_HAL_Driver/Src/stm32l4xx_hal_pwr_ex.c ****   *        PUy bit of PWR_PUCRx register is cleared unless it is reserved. 
 551:../../drivers/third_party/ST/STM32L4xx_HAL_Driver/Src/stm32l4xx_hal_pwr_ex.c ****   * @note  Even if a PDy bit to set is reserved, the other PDy bits entered as input 
 552:../../drivers/third_party/ST/STM32L4xx_HAL_Driver/Src/stm32l4xx_hal_pwr_ex.c ****   *        parameter at the same time are set.         
 553:../../drivers/third_party/ST/STM32L4xx_HAL_Driver/Src/stm32l4xx_hal_pwr_ex.c ****   * @param  GPIO: Specify the IO port. This parameter can be PWR_GPIO_A..PWR_GPIO_H 
 554:../../drivers/third_party/ST/STM32L4xx_HAL_Driver/Src/stm32l4xx_hal_pwr_ex.c ****   *         (or PWR_GPIO_I depending on the devices) to select the GPIO peripheral.
 555:../../drivers/third_party/ST/STM32L4xx_HAL_Driver/Src/stm32l4xx_hal_pwr_ex.c ****   * @param  GPIONumber: Specify the I/O pins numbers.
 556:../../drivers/third_party/ST/STM32L4xx_HAL_Driver/Src/stm32l4xx_hal_pwr_ex.c ****   *         This parameter can be one of the following values:
 557:../../drivers/third_party/ST/STM32L4xx_HAL_Driver/Src/stm32l4xx_hal_pwr_ex.c ****   *         PWR_GPIO_BIT_0, ..., PWR_GPIO_BIT_15 (except for the port where less  
 558:../../drivers/third_party/ST/STM32L4xx_HAL_Driver/Src/stm32l4xx_hal_pwr_ex.c ****   *         I/O pins are available) or the logical OR of several of them to set 
 559:../../drivers/third_party/ST/STM32L4xx_HAL_Driver/Src/stm32l4xx_hal_pwr_ex.c ****   *         several bits for a given port in a single API call. 
 560:../../drivers/third_party/ST/STM32L4xx_HAL_Driver/Src/stm32l4xx_hal_pwr_ex.c ****   * @retval HAL Status
 561:../../drivers/third_party/ST/STM32L4xx_HAL_Driver/Src/stm32l4xx_hal_pwr_ex.c ****   */   
 562:../../drivers/third_party/ST/STM32L4xx_HAL_Driver/Src/stm32l4xx_hal_pwr_ex.c **** HAL_StatusTypeDef HAL_PWREx_EnableGPIOPullDown(uint32_t GPIO, uint32_t GPIONumber)
 563:../../drivers/third_party/ST/STM32L4xx_HAL_Driver/Src/stm32l4xx_hal_pwr_ex.c **** {
 507              		.loc 1 563 0
 508              		.cfi_startproc
 509              		@ args = 0, pretend = 0, frame = 0
 510              		@ frame_needed = 0, uses_anonymous_args = 0
 511              		@ link register save eliminated.
ARM GAS  C:\Users\LuckyE\AppData\Local\Temp\cccYdq5r.s 			page 20


 512              	.LVL41:
 564:../../drivers/third_party/ST/STM32L4xx_HAL_Driver/Src/stm32l4xx_hal_pwr_ex.c ****   assert_param(IS_PWR_GPIO(GPIO));
 565:../../drivers/third_party/ST/STM32L4xx_HAL_Driver/Src/stm32l4xx_hal_pwr_ex.c ****   assert_param(IS_PWR_GPIO_BIT_NUMBER(GPIONumber));
 566:../../drivers/third_party/ST/STM32L4xx_HAL_Driver/Src/stm32l4xx_hal_pwr_ex.c ****   
 567:../../drivers/third_party/ST/STM32L4xx_HAL_Driver/Src/stm32l4xx_hal_pwr_ex.c ****   switch (GPIO)
 513              		.loc 1 567 0
 514 0000 0728     		cmp	r0, #7
 515 0002 44D8     		bhi	.L72
 516 0004 DFE800F0 		tbb	[pc, r0]
 517              	.L66:
 518 0008 04       		.byte	(.L65-.L66)/2
 519 0009 12       		.byte	(.L67-.L66)/2
 520 000a 1D       		.byte	(.L68-.L66)/2
 521 000b 26       		.byte	(.L69-.L66)/2
 522 000c 2F       		.byte	(.L70-.L66)/2
 523 000d 43       		.byte	(.L72-.L66)/2
 524 000e 43       		.byte	(.L72-.L66)/2
 525 000f 38       		.byte	(.L71-.L66)/2
 526              		.p2align 1
 527              	.L65:
 568:../../drivers/third_party/ST/STM32L4xx_HAL_Driver/Src/stm32l4xx_hal_pwr_ex.c ****   {
 569:../../drivers/third_party/ST/STM32L4xx_HAL_Driver/Src/stm32l4xx_hal_pwr_ex.c ****     case PWR_GPIO_A:
 570:../../drivers/third_party/ST/STM32L4xx_HAL_Driver/Src/stm32l4xx_hal_pwr_ex.c ****        SET_BIT(PWR->PDCRA, (GPIONumber & (~(PWR_GPIO_BIT_13|PWR_GPIO_BIT_15))));
 528              		.loc 1 570 0
 529 0010 204B     		ldr	r3, .L74
 530 0012 586A     		ldr	r0, [r3, #36]
 531              	.LVL42:
 532 0014 21F42042 		bic	r2, r1, #40960
 533 0018 0243     		orrs	r2, r2, r0
 534 001a 5A62     		str	r2, [r3, #36]
 571:../../drivers/third_party/ST/STM32L4xx_HAL_Driver/Src/stm32l4xx_hal_pwr_ex.c ****        CLEAR_BIT(PWR->PUCRA, (GPIONumber & (~(PWR_GPIO_BIT_14))));
 535              		.loc 1 571 0
 536 001c 1A6A     		ldr	r2, [r3, #32]
 537 001e 21F48041 		bic	r1, r1, #16384
 538              	.LVL43:
 539 0022 22EA0101 		bic	r1, r2, r1
 540 0026 1962     		str	r1, [r3, #32]
 541              	.L73:
 572:../../drivers/third_party/ST/STM32L4xx_HAL_Driver/Src/stm32l4xx_hal_pwr_ex.c ****        break;
 573:../../drivers/third_party/ST/STM32L4xx_HAL_Driver/Src/stm32l4xx_hal_pwr_ex.c ****     case PWR_GPIO_B:
 574:../../drivers/third_party/ST/STM32L4xx_HAL_Driver/Src/stm32l4xx_hal_pwr_ex.c ****        SET_BIT(PWR->PDCRB, (GPIONumber & (~(PWR_GPIO_BIT_4))));
 575:../../drivers/third_party/ST/STM32L4xx_HAL_Driver/Src/stm32l4xx_hal_pwr_ex.c ****        CLEAR_BIT(PWR->PUCRB, GPIONumber);
 576:../../drivers/third_party/ST/STM32L4xx_HAL_Driver/Src/stm32l4xx_hal_pwr_ex.c ****        break;
 577:../../drivers/third_party/ST/STM32L4xx_HAL_Driver/Src/stm32l4xx_hal_pwr_ex.c ****     case PWR_GPIO_C:
 578:../../drivers/third_party/ST/STM32L4xx_HAL_Driver/Src/stm32l4xx_hal_pwr_ex.c ****        SET_BIT(PWR->PDCRC, GPIONumber);
 579:../../drivers/third_party/ST/STM32L4xx_HAL_Driver/Src/stm32l4xx_hal_pwr_ex.c ****        CLEAR_BIT(PWR->PUCRC, GPIONumber);
 580:../../drivers/third_party/ST/STM32L4xx_HAL_Driver/Src/stm32l4xx_hal_pwr_ex.c ****        break;
 581:../../drivers/third_party/ST/STM32L4xx_HAL_Driver/Src/stm32l4xx_hal_pwr_ex.c **** #if defined(GPIOD)
 582:../../drivers/third_party/ST/STM32L4xx_HAL_Driver/Src/stm32l4xx_hal_pwr_ex.c ****     case PWR_GPIO_D:
 583:../../drivers/third_party/ST/STM32L4xx_HAL_Driver/Src/stm32l4xx_hal_pwr_ex.c ****        SET_BIT(PWR->PDCRD, GPIONumber);
 584:../../drivers/third_party/ST/STM32L4xx_HAL_Driver/Src/stm32l4xx_hal_pwr_ex.c ****        CLEAR_BIT(PWR->PUCRD, GPIONumber);
 585:../../drivers/third_party/ST/STM32L4xx_HAL_Driver/Src/stm32l4xx_hal_pwr_ex.c ****        break;
 586:../../drivers/third_party/ST/STM32L4xx_HAL_Driver/Src/stm32l4xx_hal_pwr_ex.c **** #endif
 587:../../drivers/third_party/ST/STM32L4xx_HAL_Driver/Src/stm32l4xx_hal_pwr_ex.c **** #if defined(GPIOE)
 588:../../drivers/third_party/ST/STM32L4xx_HAL_Driver/Src/stm32l4xx_hal_pwr_ex.c ****     case PWR_GPIO_E:
 589:../../drivers/third_party/ST/STM32L4xx_HAL_Driver/Src/stm32l4xx_hal_pwr_ex.c ****        SET_BIT(PWR->PDCRE, GPIONumber);
 590:../../drivers/third_party/ST/STM32L4xx_HAL_Driver/Src/stm32l4xx_hal_pwr_ex.c ****        CLEAR_BIT(PWR->PUCRE, GPIONumber);
ARM GAS  C:\Users\LuckyE\AppData\Local\Temp\cccYdq5r.s 			page 21


 591:../../drivers/third_party/ST/STM32L4xx_HAL_Driver/Src/stm32l4xx_hal_pwr_ex.c ****        break;
 592:../../drivers/third_party/ST/STM32L4xx_HAL_Driver/Src/stm32l4xx_hal_pwr_ex.c **** #endif
 593:../../drivers/third_party/ST/STM32L4xx_HAL_Driver/Src/stm32l4xx_hal_pwr_ex.c **** #if defined(GPIOF)
 594:../../drivers/third_party/ST/STM32L4xx_HAL_Driver/Src/stm32l4xx_hal_pwr_ex.c ****     case PWR_GPIO_F:
 595:../../drivers/third_party/ST/STM32L4xx_HAL_Driver/Src/stm32l4xx_hal_pwr_ex.c ****        SET_BIT(PWR->PDCRF, GPIONumber);
 596:../../drivers/third_party/ST/STM32L4xx_HAL_Driver/Src/stm32l4xx_hal_pwr_ex.c ****        CLEAR_BIT(PWR->PUCRF, GPIONumber);
 597:../../drivers/third_party/ST/STM32L4xx_HAL_Driver/Src/stm32l4xx_hal_pwr_ex.c ****        break;
 598:../../drivers/third_party/ST/STM32L4xx_HAL_Driver/Src/stm32l4xx_hal_pwr_ex.c **** #endif
 599:../../drivers/third_party/ST/STM32L4xx_HAL_Driver/Src/stm32l4xx_hal_pwr_ex.c **** #if defined(GPIOG)
 600:../../drivers/third_party/ST/STM32L4xx_HAL_Driver/Src/stm32l4xx_hal_pwr_ex.c ****     case PWR_GPIO_G:
 601:../../drivers/third_party/ST/STM32L4xx_HAL_Driver/Src/stm32l4xx_hal_pwr_ex.c ****        SET_BIT(PWR->PDCRG, GPIONumber);
 602:../../drivers/third_party/ST/STM32L4xx_HAL_Driver/Src/stm32l4xx_hal_pwr_ex.c ****        CLEAR_BIT(PWR->PUCRG, GPIONumber);
 603:../../drivers/third_party/ST/STM32L4xx_HAL_Driver/Src/stm32l4xx_hal_pwr_ex.c ****        break;
 604:../../drivers/third_party/ST/STM32L4xx_HAL_Driver/Src/stm32l4xx_hal_pwr_ex.c **** #endif
 605:../../drivers/third_party/ST/STM32L4xx_HAL_Driver/Src/stm32l4xx_hal_pwr_ex.c ****     case PWR_GPIO_H:
 606:../../drivers/third_party/ST/STM32L4xx_HAL_Driver/Src/stm32l4xx_hal_pwr_ex.c **** #if defined (STM32L496xx) || defined (STM32L4A6xx)
 607:../../drivers/third_party/ST/STM32L4xx_HAL_Driver/Src/stm32l4xx_hal_pwr_ex.c ****        SET_BIT(PWR->PDCRH, ((GPIONumber & PWR_PORTH_AVAILABLE_PINS) & (~(PWR_GPIO_BIT_3))));
 608:../../drivers/third_party/ST/STM32L4xx_HAL_Driver/Src/stm32l4xx_hal_pwr_ex.c **** #else       
 609:../../drivers/third_party/ST/STM32L4xx_HAL_Driver/Src/stm32l4xx_hal_pwr_ex.c ****        SET_BIT(PWR->PDCRH, (GPIONumber & PWR_PORTH_AVAILABLE_PINS));
 610:../../drivers/third_party/ST/STM32L4xx_HAL_Driver/Src/stm32l4xx_hal_pwr_ex.c **** #endif  
 611:../../drivers/third_party/ST/STM32L4xx_HAL_Driver/Src/stm32l4xx_hal_pwr_ex.c ****        CLEAR_BIT(PWR->PUCRH, (GPIONumber & PWR_PORTH_AVAILABLE_PINS));
 612:../../drivers/third_party/ST/STM32L4xx_HAL_Driver/Src/stm32l4xx_hal_pwr_ex.c ****        break;
 613:../../drivers/third_party/ST/STM32L4xx_HAL_Driver/Src/stm32l4xx_hal_pwr_ex.c **** #if defined(GPIOI)
 614:../../drivers/third_party/ST/STM32L4xx_HAL_Driver/Src/stm32l4xx_hal_pwr_ex.c ****     case PWR_GPIO_I:
 615:../../drivers/third_party/ST/STM32L4xx_HAL_Driver/Src/stm32l4xx_hal_pwr_ex.c ****        SET_BIT(PWR->PDCRI, (GPIONumber & PWR_PORTI_AVAILABLE_PINS));
 616:../../drivers/third_party/ST/STM32L4xx_HAL_Driver/Src/stm32l4xx_hal_pwr_ex.c ****        CLEAR_BIT(PWR->PUCRI, (GPIONumber & PWR_PORTI_AVAILABLE_PINS));
 617:../../drivers/third_party/ST/STM32L4xx_HAL_Driver/Src/stm32l4xx_hal_pwr_ex.c ****        break;
 618:../../drivers/third_party/ST/STM32L4xx_HAL_Driver/Src/stm32l4xx_hal_pwr_ex.c **** #endif
 619:../../drivers/third_party/ST/STM32L4xx_HAL_Driver/Src/stm32l4xx_hal_pwr_ex.c ****     default:
 620:../../drivers/third_party/ST/STM32L4xx_HAL_Driver/Src/stm32l4xx_hal_pwr_ex.c ****        return HAL_ERROR;
 621:../../drivers/third_party/ST/STM32L4xx_HAL_Driver/Src/stm32l4xx_hal_pwr_ex.c ****   }
 622:../../drivers/third_party/ST/STM32L4xx_HAL_Driver/Src/stm32l4xx_hal_pwr_ex.c ****   
 623:../../drivers/third_party/ST/STM32L4xx_HAL_Driver/Src/stm32l4xx_hal_pwr_ex.c ****   return HAL_OK;
 542              		.loc 1 623 0
 543 0028 0020     		movs	r0, #0
 576:../../drivers/third_party/ST/STM32L4xx_HAL_Driver/Src/stm32l4xx_hal_pwr_ex.c ****     case PWR_GPIO_C:
 544              		.loc 1 576 0
 545 002a 7047     		bx	lr
 546              	.LVL44:
 547              	.L67:
 574:../../drivers/third_party/ST/STM32L4xx_HAL_Driver/Src/stm32l4xx_hal_pwr_ex.c ****        CLEAR_BIT(PWR->PUCRB, GPIONumber);
 548              		.loc 1 574 0
 549 002c 194B     		ldr	r3, .L74
 550 002e D86A     		ldr	r0, [r3, #44]
 551              	.LVL45:
 552 0030 21F01002 		bic	r2, r1, #16
 553 0034 0243     		orrs	r2, r2, r0
 554 0036 DA62     		str	r2, [r3, #44]
 575:../../drivers/third_party/ST/STM32L4xx_HAL_Driver/Src/stm32l4xx_hal_pwr_ex.c ****        break;
 555              		.loc 1 575 0
 556 0038 9A6A     		ldr	r2, [r3, #40]
 557 003a 22EA0101 		bic	r1, r2, r1
 558              	.LVL46:
 559 003e 9962     		str	r1, [r3, #40]
 560 0040 F2E7     		b	.L73
 561              	.LVL47:
 562              	.L68:
ARM GAS  C:\Users\LuckyE\AppData\Local\Temp\cccYdq5r.s 			page 22


 578:../../drivers/third_party/ST/STM32L4xx_HAL_Driver/Src/stm32l4xx_hal_pwr_ex.c ****        CLEAR_BIT(PWR->PUCRC, GPIONumber);
 563              		.loc 1 578 0
 564 0042 144B     		ldr	r3, .L74
 565 0044 5A6B     		ldr	r2, [r3, #52]
 566 0046 0A43     		orrs	r2, r2, r1
 567 0048 5A63     		str	r2, [r3, #52]
 579:../../drivers/third_party/ST/STM32L4xx_HAL_Driver/Src/stm32l4xx_hal_pwr_ex.c ****        break;
 568              		.loc 1 579 0
 569 004a 1A6B     		ldr	r2, [r3, #48]
 570 004c 22EA0101 		bic	r1, r2, r1
 571              	.LVL48:
 572 0050 1963     		str	r1, [r3, #48]
 573 0052 E9E7     		b	.L73
 574              	.LVL49:
 575              	.L69:
 583:../../drivers/third_party/ST/STM32L4xx_HAL_Driver/Src/stm32l4xx_hal_pwr_ex.c ****        CLEAR_BIT(PWR->PUCRD, GPIONumber);
 576              		.loc 1 583 0
 577 0054 0F4B     		ldr	r3, .L74
 578 0056 DA6B     		ldr	r2, [r3, #60]
 579 0058 0A43     		orrs	r2, r2, r1
 580 005a DA63     		str	r2, [r3, #60]
 584:../../drivers/third_party/ST/STM32L4xx_HAL_Driver/Src/stm32l4xx_hal_pwr_ex.c ****        break;
 581              		.loc 1 584 0
 582 005c 9A6B     		ldr	r2, [r3, #56]
 583 005e 22EA0101 		bic	r1, r2, r1
 584              	.LVL50:
 585 0062 9963     		str	r1, [r3, #56]
 586 0064 E0E7     		b	.L73
 587              	.LVL51:
 588              	.L70:
 589:../../drivers/third_party/ST/STM32L4xx_HAL_Driver/Src/stm32l4xx_hal_pwr_ex.c ****        CLEAR_BIT(PWR->PUCRE, GPIONumber);
 589              		.loc 1 589 0
 590 0066 0B4B     		ldr	r3, .L74
 591 0068 5A6C     		ldr	r2, [r3, #68]
 592 006a 0A43     		orrs	r2, r2, r1
 593 006c 5A64     		str	r2, [r3, #68]
 590:../../drivers/third_party/ST/STM32L4xx_HAL_Driver/Src/stm32l4xx_hal_pwr_ex.c ****        break;
 594              		.loc 1 590 0
 595 006e 1A6C     		ldr	r2, [r3, #64]
 596 0070 22EA0101 		bic	r1, r2, r1
 597              	.LVL52:
 598 0074 1964     		str	r1, [r3, #64]
 599 0076 D7E7     		b	.L73
 600              	.LVL53:
 601              	.L71:
 609:../../drivers/third_party/ST/STM32L4xx_HAL_Driver/Src/stm32l4xx_hal_pwr_ex.c **** #endif  
 602              		.loc 1 609 0
 603 0078 064B     		ldr	r3, .L74
 604 007a DA6D     		ldr	r2, [r3, #92]
 605 007c 01F00B01 		and	r1, r1, #11
 606              	.LVL54:
 607 0080 0A43     		orrs	r2, r2, r1
 608 0082 DA65     		str	r2, [r3, #92]
 611:../../drivers/third_party/ST/STM32L4xx_HAL_Driver/Src/stm32l4xx_hal_pwr_ex.c ****        break;
 609              		.loc 1 611 0
 610 0084 9A6D     		ldr	r2, [r3, #88]
 611 0086 22EA0101 		bic	r1, r2, r1
ARM GAS  C:\Users\LuckyE\AppData\Local\Temp\cccYdq5r.s 			page 23


 612 008a 9965     		str	r1, [r3, #88]
 613 008c CCE7     		b	.L73
 614              	.LVL55:
 615              	.L72:
 620:../../drivers/third_party/ST/STM32L4xx_HAL_Driver/Src/stm32l4xx_hal_pwr_ex.c ****   }
 616              		.loc 1 620 0
 617 008e 0120     		movs	r0, #1
 618              	.LVL56:
 624:../../drivers/third_party/ST/STM32L4xx_HAL_Driver/Src/stm32l4xx_hal_pwr_ex.c **** }
 619              		.loc 1 624 0
 620 0090 7047     		bx	lr
 621              	.L75:
 622 0092 00BF     		.align	2
 623              	.L74:
 624 0094 00700040 		.word	1073770496
 625              		.cfi_endproc
 626              	.LFE288:
 628              		.section	.text.HAL_PWREx_DisableGPIOPullDown,"ax",%progbits
 629              		.align	1
 630              		.global	HAL_PWREx_DisableGPIOPullDown
 631              		.syntax unified
 632              		.thumb
 633              		.thumb_func
 634              		.fpu fpv4-sp-d16
 636              	HAL_PWREx_DisableGPIOPullDown:
 637              	.LFB289:
 625:../../drivers/third_party/ST/STM32L4xx_HAL_Driver/Src/stm32l4xx_hal_pwr_ex.c **** 
 626:../../drivers/third_party/ST/STM32L4xx_HAL_Driver/Src/stm32l4xx_hal_pwr_ex.c **** 
 627:../../drivers/third_party/ST/STM32L4xx_HAL_Driver/Src/stm32l4xx_hal_pwr_ex.c **** /**
 628:../../drivers/third_party/ST/STM32L4xx_HAL_Driver/Src/stm32l4xx_hal_pwr_ex.c ****   * @brief Disable GPIO pull-down state in Standby and Shutdown modes.
 629:../../drivers/third_party/ST/STM32L4xx_HAL_Driver/Src/stm32l4xx_hal_pwr_ex.c ****   * @note  Reset the relevant PDy bits of PWR_PDCRx register used to configure the I/O
 630:../../drivers/third_party/ST/STM32L4xx_HAL_Driver/Src/stm32l4xx_hal_pwr_ex.c ****   *        in pull-down state in Standby and Shutdown modes. 
 631:../../drivers/third_party/ST/STM32L4xx_HAL_Driver/Src/stm32l4xx_hal_pwr_ex.c ****   * @note  Even if a PDy bit to reset is reserved, the other PDy bits entered as input 
 632:../../drivers/third_party/ST/STM32L4xx_HAL_Driver/Src/stm32l4xx_hal_pwr_ex.c ****   *        parameter at the same time are reset.   
 633:../../drivers/third_party/ST/STM32L4xx_HAL_Driver/Src/stm32l4xx_hal_pwr_ex.c ****   * @param  GPIO: Specifies the IO port. This parameter can be PWR_GPIO_A..PWR_GPIO_H 
 634:../../drivers/third_party/ST/STM32L4xx_HAL_Driver/Src/stm32l4xx_hal_pwr_ex.c ****   *         (or PWR_GPIO_I depending on the devices) to select the GPIO peripheral.
 635:../../drivers/third_party/ST/STM32L4xx_HAL_Driver/Src/stm32l4xx_hal_pwr_ex.c ****   * @param  GPIONumber: Specify the I/O pins numbers.
 636:../../drivers/third_party/ST/STM32L4xx_HAL_Driver/Src/stm32l4xx_hal_pwr_ex.c ****   *         This parameter can be one of the following values:
 637:../../drivers/third_party/ST/STM32L4xx_HAL_Driver/Src/stm32l4xx_hal_pwr_ex.c ****   *         PWR_GPIO_BIT_0, ..., PWR_GPIO_BIT_15 (except for the port where less  
 638:../../drivers/third_party/ST/STM32L4xx_HAL_Driver/Src/stm32l4xx_hal_pwr_ex.c ****   *         I/O pins are available) or the logical OR of several of them to reset 
 639:../../drivers/third_party/ST/STM32L4xx_HAL_Driver/Src/stm32l4xx_hal_pwr_ex.c ****   *         several bits for a given port in a single API call. 
 640:../../drivers/third_party/ST/STM32L4xx_HAL_Driver/Src/stm32l4xx_hal_pwr_ex.c ****   * @retval HAL Status
 641:../../drivers/third_party/ST/STM32L4xx_HAL_Driver/Src/stm32l4xx_hal_pwr_ex.c ****   */   
 642:../../drivers/third_party/ST/STM32L4xx_HAL_Driver/Src/stm32l4xx_hal_pwr_ex.c **** HAL_StatusTypeDef HAL_PWREx_DisableGPIOPullDown(uint32_t GPIO, uint32_t GPIONumber)
 643:../../drivers/third_party/ST/STM32L4xx_HAL_Driver/Src/stm32l4xx_hal_pwr_ex.c **** {
 638              		.loc 1 643 0
 639              		.cfi_startproc
 640              		@ args = 0, pretend = 0, frame = 0
 641              		@ frame_needed = 0, uses_anonymous_args = 0
 642              		@ link register save eliminated.
 643              	.LVL57:
 644:../../drivers/third_party/ST/STM32L4xx_HAL_Driver/Src/stm32l4xx_hal_pwr_ex.c ****   assert_param(IS_PWR_GPIO(GPIO));
 645:../../drivers/third_party/ST/STM32L4xx_HAL_Driver/Src/stm32l4xx_hal_pwr_ex.c ****   assert_param(IS_PWR_GPIO_BIT_NUMBER(GPIONumber));
 646:../../drivers/third_party/ST/STM32L4xx_HAL_Driver/Src/stm32l4xx_hal_pwr_ex.c ****    
 647:../../drivers/third_party/ST/STM32L4xx_HAL_Driver/Src/stm32l4xx_hal_pwr_ex.c ****   switch (GPIO)
 644              		.loc 1 647 0
 645 0000 0728     		cmp	r0, #7
ARM GAS  C:\Users\LuckyE\AppData\Local\Temp\cccYdq5r.s 			page 24


 646 0002 30D8     		bhi	.L85
 647 0004 DFE800F0 		tbb	[pc, r0]
 648              	.L79:
 649 0008 04       		.byte	(.L78-.L79)/2
 650 0009 0D       		.byte	(.L80-.L79)/2
 651 000a 15       		.byte	(.L81-.L79)/2
 652 000b 1B       		.byte	(.L82-.L79)/2
 653 000c 21       		.byte	(.L83-.L79)/2
 654 000d 2F       		.byte	(.L85-.L79)/2
 655 000e 2F       		.byte	(.L85-.L79)/2
 656 000f 27       		.byte	(.L84-.L79)/2
 657              		.p2align 1
 658              	.L78:
 648:../../drivers/third_party/ST/STM32L4xx_HAL_Driver/Src/stm32l4xx_hal_pwr_ex.c ****   {
 649:../../drivers/third_party/ST/STM32L4xx_HAL_Driver/Src/stm32l4xx_hal_pwr_ex.c ****     case PWR_GPIO_A:
 650:../../drivers/third_party/ST/STM32L4xx_HAL_Driver/Src/stm32l4xx_hal_pwr_ex.c ****        CLEAR_BIT(PWR->PDCRA, (GPIONumber & (~(PWR_GPIO_BIT_13|PWR_GPIO_BIT_15))));
 659              		.loc 1 650 0
 660 0010 164A     		ldr	r2, .L87
 661 0012 536A     		ldr	r3, [r2, #36]
 662 0014 21F42041 		bic	r1, r1, #40960
 663              	.LVL58:
 664 0018 23EA0101 		bic	r1, r3, r1
 665 001c 5162     		str	r1, [r2, #36]
 666              	.L86:
 651:../../drivers/third_party/ST/STM32L4xx_HAL_Driver/Src/stm32l4xx_hal_pwr_ex.c ****        break;
 652:../../drivers/third_party/ST/STM32L4xx_HAL_Driver/Src/stm32l4xx_hal_pwr_ex.c ****     case PWR_GPIO_B:
 653:../../drivers/third_party/ST/STM32L4xx_HAL_Driver/Src/stm32l4xx_hal_pwr_ex.c ****        CLEAR_BIT(PWR->PDCRB, (GPIONumber & (~(PWR_GPIO_BIT_4))));
 654:../../drivers/third_party/ST/STM32L4xx_HAL_Driver/Src/stm32l4xx_hal_pwr_ex.c ****        break; 
 655:../../drivers/third_party/ST/STM32L4xx_HAL_Driver/Src/stm32l4xx_hal_pwr_ex.c ****     case PWR_GPIO_C:
 656:../../drivers/third_party/ST/STM32L4xx_HAL_Driver/Src/stm32l4xx_hal_pwr_ex.c ****        CLEAR_BIT(PWR->PDCRC, GPIONumber);
 657:../../drivers/third_party/ST/STM32L4xx_HAL_Driver/Src/stm32l4xx_hal_pwr_ex.c ****        break;
 658:../../drivers/third_party/ST/STM32L4xx_HAL_Driver/Src/stm32l4xx_hal_pwr_ex.c **** #if defined(GPIOD)
 659:../../drivers/third_party/ST/STM32L4xx_HAL_Driver/Src/stm32l4xx_hal_pwr_ex.c ****     case PWR_GPIO_D:
 660:../../drivers/third_party/ST/STM32L4xx_HAL_Driver/Src/stm32l4xx_hal_pwr_ex.c ****        CLEAR_BIT(PWR->PDCRD, GPIONumber);
 661:../../drivers/third_party/ST/STM32L4xx_HAL_Driver/Src/stm32l4xx_hal_pwr_ex.c ****        break;
 662:../../drivers/third_party/ST/STM32L4xx_HAL_Driver/Src/stm32l4xx_hal_pwr_ex.c **** #endif
 663:../../drivers/third_party/ST/STM32L4xx_HAL_Driver/Src/stm32l4xx_hal_pwr_ex.c **** #if defined(GPIOE)
 664:../../drivers/third_party/ST/STM32L4xx_HAL_Driver/Src/stm32l4xx_hal_pwr_ex.c ****     case PWR_GPIO_E:
 665:../../drivers/third_party/ST/STM32L4xx_HAL_Driver/Src/stm32l4xx_hal_pwr_ex.c ****        CLEAR_BIT(PWR->PDCRE, GPIONumber);
 666:../../drivers/third_party/ST/STM32L4xx_HAL_Driver/Src/stm32l4xx_hal_pwr_ex.c ****        break;
 667:../../drivers/third_party/ST/STM32L4xx_HAL_Driver/Src/stm32l4xx_hal_pwr_ex.c **** #endif
 668:../../drivers/third_party/ST/STM32L4xx_HAL_Driver/Src/stm32l4xx_hal_pwr_ex.c **** #if defined(GPIOF) 
 669:../../drivers/third_party/ST/STM32L4xx_HAL_Driver/Src/stm32l4xx_hal_pwr_ex.c ****     case PWR_GPIO_F:
 670:../../drivers/third_party/ST/STM32L4xx_HAL_Driver/Src/stm32l4xx_hal_pwr_ex.c ****        CLEAR_BIT(PWR->PDCRF, GPIONumber);
 671:../../drivers/third_party/ST/STM32L4xx_HAL_Driver/Src/stm32l4xx_hal_pwr_ex.c ****        break;
 672:../../drivers/third_party/ST/STM32L4xx_HAL_Driver/Src/stm32l4xx_hal_pwr_ex.c **** #endif
 673:../../drivers/third_party/ST/STM32L4xx_HAL_Driver/Src/stm32l4xx_hal_pwr_ex.c **** #if defined(GPIOG)
 674:../../drivers/third_party/ST/STM32L4xx_HAL_Driver/Src/stm32l4xx_hal_pwr_ex.c ****     case PWR_GPIO_G:
 675:../../drivers/third_party/ST/STM32L4xx_HAL_Driver/Src/stm32l4xx_hal_pwr_ex.c ****        CLEAR_BIT(PWR->PDCRG, GPIONumber);
 676:../../drivers/third_party/ST/STM32L4xx_HAL_Driver/Src/stm32l4xx_hal_pwr_ex.c ****        break;
 677:../../drivers/third_party/ST/STM32L4xx_HAL_Driver/Src/stm32l4xx_hal_pwr_ex.c **** #endif
 678:../../drivers/third_party/ST/STM32L4xx_HAL_Driver/Src/stm32l4xx_hal_pwr_ex.c ****     case PWR_GPIO_H:
 679:../../drivers/third_party/ST/STM32L4xx_HAL_Driver/Src/stm32l4xx_hal_pwr_ex.c **** #if defined (STM32L496xx) || defined (STM32L4A6xx)
 680:../../drivers/third_party/ST/STM32L4xx_HAL_Driver/Src/stm32l4xx_hal_pwr_ex.c ****        CLEAR_BIT(PWR->PDCRH, ((GPIONumber & PWR_PORTH_AVAILABLE_PINS) & (~(PWR_GPIO_BIT_3))));
 681:../../drivers/third_party/ST/STM32L4xx_HAL_Driver/Src/stm32l4xx_hal_pwr_ex.c **** #else       
 682:../../drivers/third_party/ST/STM32L4xx_HAL_Driver/Src/stm32l4xx_hal_pwr_ex.c ****        CLEAR_BIT(PWR->PDCRH, (GPIONumber & PWR_PORTH_AVAILABLE_PINS));
 683:../../drivers/third_party/ST/STM32L4xx_HAL_Driver/Src/stm32l4xx_hal_pwr_ex.c **** #endif     
ARM GAS  C:\Users\LuckyE\AppData\Local\Temp\cccYdq5r.s 			page 25


 684:../../drivers/third_party/ST/STM32L4xx_HAL_Driver/Src/stm32l4xx_hal_pwr_ex.c ****        break; 
 685:../../drivers/third_party/ST/STM32L4xx_HAL_Driver/Src/stm32l4xx_hal_pwr_ex.c **** #if defined(GPIOI)
 686:../../drivers/third_party/ST/STM32L4xx_HAL_Driver/Src/stm32l4xx_hal_pwr_ex.c ****     case PWR_GPIO_I:
 687:../../drivers/third_party/ST/STM32L4xx_HAL_Driver/Src/stm32l4xx_hal_pwr_ex.c ****        CLEAR_BIT(PWR->PDCRI, (GPIONumber & PWR_PORTI_AVAILABLE_PINS));
 688:../../drivers/third_party/ST/STM32L4xx_HAL_Driver/Src/stm32l4xx_hal_pwr_ex.c ****        break;
 689:../../drivers/third_party/ST/STM32L4xx_HAL_Driver/Src/stm32l4xx_hal_pwr_ex.c **** #endif
 690:../../drivers/third_party/ST/STM32L4xx_HAL_Driver/Src/stm32l4xx_hal_pwr_ex.c ****     default:
 691:../../drivers/third_party/ST/STM32L4xx_HAL_Driver/Src/stm32l4xx_hal_pwr_ex.c ****        return HAL_ERROR;
 692:../../drivers/third_party/ST/STM32L4xx_HAL_Driver/Src/stm32l4xx_hal_pwr_ex.c ****   }
 693:../../drivers/third_party/ST/STM32L4xx_HAL_Driver/Src/stm32l4xx_hal_pwr_ex.c ****   
 694:../../drivers/third_party/ST/STM32L4xx_HAL_Driver/Src/stm32l4xx_hal_pwr_ex.c ****   return HAL_OK;
 667              		.loc 1 694 0
 668 001e 0020     		movs	r0, #0
 669              	.LVL59:
 654:../../drivers/third_party/ST/STM32L4xx_HAL_Driver/Src/stm32l4xx_hal_pwr_ex.c ****     case PWR_GPIO_C:
 670              		.loc 1 654 0
 671 0020 7047     		bx	lr
 672              	.LVL60:
 673              	.L80:
 653:../../drivers/third_party/ST/STM32L4xx_HAL_Driver/Src/stm32l4xx_hal_pwr_ex.c ****        break; 
 674              		.loc 1 653 0
 675 0022 124A     		ldr	r2, .L87
 676 0024 D36A     		ldr	r3, [r2, #44]
 677 0026 21F01001 		bic	r1, r1, #16
 678              	.LVL61:
 679 002a 23EA0101 		bic	r1, r3, r1
 680 002e D162     		str	r1, [r2, #44]
 681 0030 F5E7     		b	.L86
 682              	.LVL62:
 683              	.L81:
 656:../../drivers/third_party/ST/STM32L4xx_HAL_Driver/Src/stm32l4xx_hal_pwr_ex.c ****        break;
 684              		.loc 1 656 0
 685 0032 0E4A     		ldr	r2, .L87
 686 0034 536B     		ldr	r3, [r2, #52]
 687 0036 23EA0101 		bic	r1, r3, r1
 688              	.LVL63:
 689 003a 5163     		str	r1, [r2, #52]
 690 003c EFE7     		b	.L86
 691              	.LVL64:
 692              	.L82:
 660:../../drivers/third_party/ST/STM32L4xx_HAL_Driver/Src/stm32l4xx_hal_pwr_ex.c ****        break;
 693              		.loc 1 660 0
 694 003e 0B4A     		ldr	r2, .L87
 695 0040 D36B     		ldr	r3, [r2, #60]
 696 0042 23EA0101 		bic	r1, r3, r1
 697              	.LVL65:
 698 0046 D163     		str	r1, [r2, #60]
 699 0048 E9E7     		b	.L86
 700              	.LVL66:
 701              	.L83:
 665:../../drivers/third_party/ST/STM32L4xx_HAL_Driver/Src/stm32l4xx_hal_pwr_ex.c ****        break;
 702              		.loc 1 665 0
 703 004a 084A     		ldr	r2, .L87
 704 004c 536C     		ldr	r3, [r2, #68]
 705 004e 23EA0101 		bic	r1, r3, r1
 706              	.LVL67:
 707 0052 5164     		str	r1, [r2, #68]
ARM GAS  C:\Users\LuckyE\AppData\Local\Temp\cccYdq5r.s 			page 26


 708 0054 E3E7     		b	.L86
 709              	.LVL68:
 710              	.L84:
 682:../../drivers/third_party/ST/STM32L4xx_HAL_Driver/Src/stm32l4xx_hal_pwr_ex.c **** #endif     
 711              		.loc 1 682 0
 712 0056 054A     		ldr	r2, .L87
 713 0058 D36D     		ldr	r3, [r2, #92]
 714 005a 01F00B01 		and	r1, r1, #11
 715              	.LVL69:
 716 005e 23EA0101 		bic	r1, r3, r1
 717 0062 D165     		str	r1, [r2, #92]
 718 0064 DBE7     		b	.L86
 719              	.LVL70:
 720              	.L85:
 691:../../drivers/third_party/ST/STM32L4xx_HAL_Driver/Src/stm32l4xx_hal_pwr_ex.c ****   }
 721              		.loc 1 691 0
 722 0066 0120     		movs	r0, #1
 723              	.LVL71:
 695:../../drivers/third_party/ST/STM32L4xx_HAL_Driver/Src/stm32l4xx_hal_pwr_ex.c **** }
 724              		.loc 1 695 0
 725 0068 7047     		bx	lr
 726              	.L88:
 727 006a 00BF     		.align	2
 728              	.L87:
 729 006c 00700040 		.word	1073770496
 730              		.cfi_endproc
 731              	.LFE289:
 733              		.section	.text.HAL_PWREx_EnablePullUpPullDownConfig,"ax",%progbits
 734              		.align	1
 735              		.global	HAL_PWREx_EnablePullUpPullDownConfig
 736              		.syntax unified
 737              		.thumb
 738              		.thumb_func
 739              		.fpu fpv4-sp-d16
 741              	HAL_PWREx_EnablePullUpPullDownConfig:
 742              	.LFB290:
 696:../../drivers/third_party/ST/STM32L4xx_HAL_Driver/Src/stm32l4xx_hal_pwr_ex.c **** 
 697:../../drivers/third_party/ST/STM32L4xx_HAL_Driver/Src/stm32l4xx_hal_pwr_ex.c **** 
 698:../../drivers/third_party/ST/STM32L4xx_HAL_Driver/Src/stm32l4xx_hal_pwr_ex.c **** 
 699:../../drivers/third_party/ST/STM32L4xx_HAL_Driver/Src/stm32l4xx_hal_pwr_ex.c **** /**
 700:../../drivers/third_party/ST/STM32L4xx_HAL_Driver/Src/stm32l4xx_hal_pwr_ex.c ****   * @brief Enable pull-up and pull-down configuration.
 701:../../drivers/third_party/ST/STM32L4xx_HAL_Driver/Src/stm32l4xx_hal_pwr_ex.c ****   * @note  When APC bit is set, the I/O pull-up and pull-down configurations defined in 
 702:../../drivers/third_party/ST/STM32L4xx_HAL_Driver/Src/stm32l4xx_hal_pwr_ex.c ****   *        PWR_PUCRx and PWR_PDCRx registers are applied in Standby and Shutdown modes.    
 703:../../drivers/third_party/ST/STM32L4xx_HAL_Driver/Src/stm32l4xx_hal_pwr_ex.c ****   * @note  Pull-up set by PUy bit of PWR_PUCRx register is not activated if the corresponding
 704:../../drivers/third_party/ST/STM32L4xx_HAL_Driver/Src/stm32l4xx_hal_pwr_ex.c ****   *        PDy bit of PWR_PDCRx register is also set (pull-down configuration priority is higher). 
 705:../../drivers/third_party/ST/STM32L4xx_HAL_Driver/Src/stm32l4xx_hal_pwr_ex.c ****   *        HAL_PWREx_EnableGPIOPullUp() and HAL_PWREx_EnableGPIOPullDown() API's ensure there 
 706:../../drivers/third_party/ST/STM32L4xx_HAL_Driver/Src/stm32l4xx_hal_pwr_ex.c ****   *        is no conflict when setting PUy or PDy bit.         
 707:../../drivers/third_party/ST/STM32L4xx_HAL_Driver/Src/stm32l4xx_hal_pwr_ex.c ****   * @retval None
 708:../../drivers/third_party/ST/STM32L4xx_HAL_Driver/Src/stm32l4xx_hal_pwr_ex.c ****   */
 709:../../drivers/third_party/ST/STM32L4xx_HAL_Driver/Src/stm32l4xx_hal_pwr_ex.c **** void HAL_PWREx_EnablePullUpPullDownConfig(void)
 710:../../drivers/third_party/ST/STM32L4xx_HAL_Driver/Src/stm32l4xx_hal_pwr_ex.c **** {
 743              		.loc 1 710 0
 744              		.cfi_startproc
 745              		@ args = 0, pretend = 0, frame = 0
 746              		@ frame_needed = 0, uses_anonymous_args = 0
 747              		@ link register save eliminated.
 711:../../drivers/third_party/ST/STM32L4xx_HAL_Driver/Src/stm32l4xx_hal_pwr_ex.c ****   SET_BIT(PWR->CR3, PWR_CR3_APC);
ARM GAS  C:\Users\LuckyE\AppData\Local\Temp\cccYdq5r.s 			page 27


 748              		.loc 1 711 0
 749 0000 024A     		ldr	r2, .L90
 750 0002 9368     		ldr	r3, [r2, #8]
 751 0004 43F48063 		orr	r3, r3, #1024
 752 0008 9360     		str	r3, [r2, #8]
 712:../../drivers/third_party/ST/STM32L4xx_HAL_Driver/Src/stm32l4xx_hal_pwr_ex.c **** }
 753              		.loc 1 712 0
 754 000a 7047     		bx	lr
 755              	.L91:
 756              		.align	2
 757              	.L90:
 758 000c 00700040 		.word	1073770496
 759              		.cfi_endproc
 760              	.LFE290:
 762              		.section	.text.HAL_PWREx_DisablePullUpPullDownConfig,"ax",%progbits
 763              		.align	1
 764              		.global	HAL_PWREx_DisablePullUpPullDownConfig
 765              		.syntax unified
 766              		.thumb
 767              		.thumb_func
 768              		.fpu fpv4-sp-d16
 770              	HAL_PWREx_DisablePullUpPullDownConfig:
 771              	.LFB291:
 713:../../drivers/third_party/ST/STM32L4xx_HAL_Driver/Src/stm32l4xx_hal_pwr_ex.c **** 
 714:../../drivers/third_party/ST/STM32L4xx_HAL_Driver/Src/stm32l4xx_hal_pwr_ex.c **** 
 715:../../drivers/third_party/ST/STM32L4xx_HAL_Driver/Src/stm32l4xx_hal_pwr_ex.c **** /**
 716:../../drivers/third_party/ST/STM32L4xx_HAL_Driver/Src/stm32l4xx_hal_pwr_ex.c ****   * @brief Disable pull-up and pull-down configuration.
 717:../../drivers/third_party/ST/STM32L4xx_HAL_Driver/Src/stm32l4xx_hal_pwr_ex.c ****   * @note  When APC bit is cleared, the I/O pull-up and pull-down configurations defined in 
 718:../../drivers/third_party/ST/STM32L4xx_HAL_Driver/Src/stm32l4xx_hal_pwr_ex.c ****   *        PWR_PUCRx and PWR_PDCRx registers are not applied in Standby and Shutdown modes.     
 719:../../drivers/third_party/ST/STM32L4xx_HAL_Driver/Src/stm32l4xx_hal_pwr_ex.c ****   * @retval None
 720:../../drivers/third_party/ST/STM32L4xx_HAL_Driver/Src/stm32l4xx_hal_pwr_ex.c ****   */
 721:../../drivers/third_party/ST/STM32L4xx_HAL_Driver/Src/stm32l4xx_hal_pwr_ex.c **** void HAL_PWREx_DisablePullUpPullDownConfig(void)
 722:../../drivers/third_party/ST/STM32L4xx_HAL_Driver/Src/stm32l4xx_hal_pwr_ex.c **** {
 772              		.loc 1 722 0
 773              		.cfi_startproc
 774              		@ args = 0, pretend = 0, frame = 0
 775              		@ frame_needed = 0, uses_anonymous_args = 0
 776              		@ link register save eliminated.
 723:../../drivers/third_party/ST/STM32L4xx_HAL_Driver/Src/stm32l4xx_hal_pwr_ex.c ****   CLEAR_BIT(PWR->CR3, PWR_CR3_APC);
 777              		.loc 1 723 0
 778 0000 024A     		ldr	r2, .L93
 779 0002 9368     		ldr	r3, [r2, #8]
 780 0004 23F48063 		bic	r3, r3, #1024
 781 0008 9360     		str	r3, [r2, #8]
 724:../../drivers/third_party/ST/STM32L4xx_HAL_Driver/Src/stm32l4xx_hal_pwr_ex.c **** }
 782              		.loc 1 724 0
 783 000a 7047     		bx	lr
 784              	.L94:
 785              		.align	2
 786              	.L93:
 787 000c 00700040 		.word	1073770496
 788              		.cfi_endproc
 789              	.LFE291:
 791              		.section	.text.HAL_PWREx_EnableSRAM2ContentRetention,"ax",%progbits
 792              		.align	1
 793              		.global	HAL_PWREx_EnableSRAM2ContentRetention
 794              		.syntax unified
ARM GAS  C:\Users\LuckyE\AppData\Local\Temp\cccYdq5r.s 			page 28


 795              		.thumb
 796              		.thumb_func
 797              		.fpu fpv4-sp-d16
 799              	HAL_PWREx_EnableSRAM2ContentRetention:
 800              	.LFB292:
 725:../../drivers/third_party/ST/STM32L4xx_HAL_Driver/Src/stm32l4xx_hal_pwr_ex.c **** 
 726:../../drivers/third_party/ST/STM32L4xx_HAL_Driver/Src/stm32l4xx_hal_pwr_ex.c **** 
 727:../../drivers/third_party/ST/STM32L4xx_HAL_Driver/Src/stm32l4xx_hal_pwr_ex.c **** 
 728:../../drivers/third_party/ST/STM32L4xx_HAL_Driver/Src/stm32l4xx_hal_pwr_ex.c **** /**
 729:../../drivers/third_party/ST/STM32L4xx_HAL_Driver/Src/stm32l4xx_hal_pwr_ex.c ****   * @brief Enable SRAM2 content retention in Standby mode.
 730:../../drivers/third_party/ST/STM32L4xx_HAL_Driver/Src/stm32l4xx_hal_pwr_ex.c ****   * @note  When RRS bit is set, SRAM2 is powered by the low-power regulator in 
 731:../../drivers/third_party/ST/STM32L4xx_HAL_Driver/Src/stm32l4xx_hal_pwr_ex.c ****   *         Standby mode and its content is kept.    
 732:../../drivers/third_party/ST/STM32L4xx_HAL_Driver/Src/stm32l4xx_hal_pwr_ex.c ****   * @retval None
 733:../../drivers/third_party/ST/STM32L4xx_HAL_Driver/Src/stm32l4xx_hal_pwr_ex.c ****   */
 734:../../drivers/third_party/ST/STM32L4xx_HAL_Driver/Src/stm32l4xx_hal_pwr_ex.c **** void HAL_PWREx_EnableSRAM2ContentRetention(void)
 735:../../drivers/third_party/ST/STM32L4xx_HAL_Driver/Src/stm32l4xx_hal_pwr_ex.c **** {
 801              		.loc 1 735 0
 802              		.cfi_startproc
 803              		@ args = 0, pretend = 0, frame = 0
 804              		@ frame_needed = 0, uses_anonymous_args = 0
 805              		@ link register save eliminated.
 736:../../drivers/third_party/ST/STM32L4xx_HAL_Driver/Src/stm32l4xx_hal_pwr_ex.c ****   SET_BIT(PWR->CR3, PWR_CR3_RRS);
 806              		.loc 1 736 0
 807 0000 024A     		ldr	r2, .L96
 808 0002 9368     		ldr	r3, [r2, #8]
 809 0004 43F48073 		orr	r3, r3, #256
 810 0008 9360     		str	r3, [r2, #8]
 737:../../drivers/third_party/ST/STM32L4xx_HAL_Driver/Src/stm32l4xx_hal_pwr_ex.c **** }
 811              		.loc 1 737 0
 812 000a 7047     		bx	lr
 813              	.L97:
 814              		.align	2
 815              	.L96:
 816 000c 00700040 		.word	1073770496
 817              		.cfi_endproc
 818              	.LFE292:
 820              		.section	.text.HAL_PWREx_DisableSRAM2ContentRetention,"ax",%progbits
 821              		.align	1
 822              		.global	HAL_PWREx_DisableSRAM2ContentRetention
 823              		.syntax unified
 824              		.thumb
 825              		.thumb_func
 826              		.fpu fpv4-sp-d16
 828              	HAL_PWREx_DisableSRAM2ContentRetention:
 829              	.LFB293:
 738:../../drivers/third_party/ST/STM32L4xx_HAL_Driver/Src/stm32l4xx_hal_pwr_ex.c **** 
 739:../../drivers/third_party/ST/STM32L4xx_HAL_Driver/Src/stm32l4xx_hal_pwr_ex.c **** 
 740:../../drivers/third_party/ST/STM32L4xx_HAL_Driver/Src/stm32l4xx_hal_pwr_ex.c **** /**
 741:../../drivers/third_party/ST/STM32L4xx_HAL_Driver/Src/stm32l4xx_hal_pwr_ex.c ****   * @brief Disable SRAM2 content retention in Standby mode.
 742:../../drivers/third_party/ST/STM32L4xx_HAL_Driver/Src/stm32l4xx_hal_pwr_ex.c ****   * @note  When RRS bit is reset, SRAM2 is powered off in Standby mode 
 743:../../drivers/third_party/ST/STM32L4xx_HAL_Driver/Src/stm32l4xx_hal_pwr_ex.c ****   *        and its content is lost.      
 744:../../drivers/third_party/ST/STM32L4xx_HAL_Driver/Src/stm32l4xx_hal_pwr_ex.c ****   * @retval None
 745:../../drivers/third_party/ST/STM32L4xx_HAL_Driver/Src/stm32l4xx_hal_pwr_ex.c ****   */
 746:../../drivers/third_party/ST/STM32L4xx_HAL_Driver/Src/stm32l4xx_hal_pwr_ex.c **** void HAL_PWREx_DisableSRAM2ContentRetention(void)
 747:../../drivers/third_party/ST/STM32L4xx_HAL_Driver/Src/stm32l4xx_hal_pwr_ex.c **** {
 830              		.loc 1 747 0
 831              		.cfi_startproc
ARM GAS  C:\Users\LuckyE\AppData\Local\Temp\cccYdq5r.s 			page 29


 832              		@ args = 0, pretend = 0, frame = 0
 833              		@ frame_needed = 0, uses_anonymous_args = 0
 834              		@ link register save eliminated.
 748:../../drivers/third_party/ST/STM32L4xx_HAL_Driver/Src/stm32l4xx_hal_pwr_ex.c ****   CLEAR_BIT(PWR->CR3, PWR_CR3_RRS);
 835              		.loc 1 748 0
 836 0000 024A     		ldr	r2, .L99
 837 0002 9368     		ldr	r3, [r2, #8]
 838 0004 23F48073 		bic	r3, r3, #256
 839 0008 9360     		str	r3, [r2, #8]
 749:../../drivers/third_party/ST/STM32L4xx_HAL_Driver/Src/stm32l4xx_hal_pwr_ex.c **** }
 840              		.loc 1 749 0
 841 000a 7047     		bx	lr
 842              	.L100:
 843              		.align	2
 844              	.L99:
 845 000c 00700040 		.word	1073770496
 846              		.cfi_endproc
 847              	.LFE293:
 849              		.section	.text.HAL_PWREx_EnablePVM3,"ax",%progbits
 850              		.align	1
 851              		.global	HAL_PWREx_EnablePVM3
 852              		.syntax unified
 853              		.thumb
 854              		.thumb_func
 855              		.fpu fpv4-sp-d16
 857              	HAL_PWREx_EnablePVM3:
 858              	.LFB294:
 750:../../drivers/third_party/ST/STM32L4xx_HAL_Driver/Src/stm32l4xx_hal_pwr_ex.c **** 
 751:../../drivers/third_party/ST/STM32L4xx_HAL_Driver/Src/stm32l4xx_hal_pwr_ex.c **** 
 752:../../drivers/third_party/ST/STM32L4xx_HAL_Driver/Src/stm32l4xx_hal_pwr_ex.c **** #if defined(PWR_CR1_RRSTP)
 753:../../drivers/third_party/ST/STM32L4xx_HAL_Driver/Src/stm32l4xx_hal_pwr_ex.c **** /**
 754:../../drivers/third_party/ST/STM32L4xx_HAL_Driver/Src/stm32l4xx_hal_pwr_ex.c ****   * @brief Enable SRAM3 content retention in Stop 2 mode.
 755:../../drivers/third_party/ST/STM32L4xx_HAL_Driver/Src/stm32l4xx_hal_pwr_ex.c ****   * @note  When RRSTP bit is set, SRAM3 is powered by the low-power regulator in 
 756:../../drivers/third_party/ST/STM32L4xx_HAL_Driver/Src/stm32l4xx_hal_pwr_ex.c ****   *        Stop 2 mode and its content is kept.    
 757:../../drivers/third_party/ST/STM32L4xx_HAL_Driver/Src/stm32l4xx_hal_pwr_ex.c ****   * @retval None
 758:../../drivers/third_party/ST/STM32L4xx_HAL_Driver/Src/stm32l4xx_hal_pwr_ex.c ****   */
 759:../../drivers/third_party/ST/STM32L4xx_HAL_Driver/Src/stm32l4xx_hal_pwr_ex.c **** void HAL_PWREx_EnableSRAM3ContentRetention(void)
 760:../../drivers/third_party/ST/STM32L4xx_HAL_Driver/Src/stm32l4xx_hal_pwr_ex.c **** {
 761:../../drivers/third_party/ST/STM32L4xx_HAL_Driver/Src/stm32l4xx_hal_pwr_ex.c ****   SET_BIT(PWR->CR1, PWR_CR1_RRSTP);
 762:../../drivers/third_party/ST/STM32L4xx_HAL_Driver/Src/stm32l4xx_hal_pwr_ex.c **** }
 763:../../drivers/third_party/ST/STM32L4xx_HAL_Driver/Src/stm32l4xx_hal_pwr_ex.c **** 
 764:../../drivers/third_party/ST/STM32L4xx_HAL_Driver/Src/stm32l4xx_hal_pwr_ex.c **** 
 765:../../drivers/third_party/ST/STM32L4xx_HAL_Driver/Src/stm32l4xx_hal_pwr_ex.c **** /**
 766:../../drivers/third_party/ST/STM32L4xx_HAL_Driver/Src/stm32l4xx_hal_pwr_ex.c ****   * @brief Disable SRAM3 content retention in Stop 2 mode.
 767:../../drivers/third_party/ST/STM32L4xx_HAL_Driver/Src/stm32l4xx_hal_pwr_ex.c ****   * @note  When RRSTP bit is reset, SRAM3 is powered off in Stop 2 mode 
 768:../../drivers/third_party/ST/STM32L4xx_HAL_Driver/Src/stm32l4xx_hal_pwr_ex.c ****   *        and its content is lost.      
 769:../../drivers/third_party/ST/STM32L4xx_HAL_Driver/Src/stm32l4xx_hal_pwr_ex.c ****   * @retval None
 770:../../drivers/third_party/ST/STM32L4xx_HAL_Driver/Src/stm32l4xx_hal_pwr_ex.c ****   */
 771:../../drivers/third_party/ST/STM32L4xx_HAL_Driver/Src/stm32l4xx_hal_pwr_ex.c **** void HAL_PWREx_DisableSRAM3ContentRetention(void)
 772:../../drivers/third_party/ST/STM32L4xx_HAL_Driver/Src/stm32l4xx_hal_pwr_ex.c **** {
 773:../../drivers/third_party/ST/STM32L4xx_HAL_Driver/Src/stm32l4xx_hal_pwr_ex.c ****   CLEAR_BIT(PWR->CR1, PWR_CR1_RRSTP);
 774:../../drivers/third_party/ST/STM32L4xx_HAL_Driver/Src/stm32l4xx_hal_pwr_ex.c **** }
 775:../../drivers/third_party/ST/STM32L4xx_HAL_Driver/Src/stm32l4xx_hal_pwr_ex.c **** #endif /* PWR_CR1_RRSTP */
 776:../../drivers/third_party/ST/STM32L4xx_HAL_Driver/Src/stm32l4xx_hal_pwr_ex.c **** 
 777:../../drivers/third_party/ST/STM32L4xx_HAL_Driver/Src/stm32l4xx_hal_pwr_ex.c **** #if defined(PWR_CR3_DSIPDEN)
 778:../../drivers/third_party/ST/STM32L4xx_HAL_Driver/Src/stm32l4xx_hal_pwr_ex.c **** /**
 779:../../drivers/third_party/ST/STM32L4xx_HAL_Driver/Src/stm32l4xx_hal_pwr_ex.c ****   * @brief Enable pull-down activation on DSI pins.   
ARM GAS  C:\Users\LuckyE\AppData\Local\Temp\cccYdq5r.s 			page 30


 780:../../drivers/third_party/ST/STM32L4xx_HAL_Driver/Src/stm32l4xx_hal_pwr_ex.c ****   * @retval None
 781:../../drivers/third_party/ST/STM32L4xx_HAL_Driver/Src/stm32l4xx_hal_pwr_ex.c ****   */
 782:../../drivers/third_party/ST/STM32L4xx_HAL_Driver/Src/stm32l4xx_hal_pwr_ex.c **** void HAL_PWREx_EnableDSIPinsPDActivation(void)
 783:../../drivers/third_party/ST/STM32L4xx_HAL_Driver/Src/stm32l4xx_hal_pwr_ex.c **** {
 784:../../drivers/third_party/ST/STM32L4xx_HAL_Driver/Src/stm32l4xx_hal_pwr_ex.c ****   SET_BIT(PWR->CR3, PWR_CR3_DSIPDEN);
 785:../../drivers/third_party/ST/STM32L4xx_HAL_Driver/Src/stm32l4xx_hal_pwr_ex.c **** }
 786:../../drivers/third_party/ST/STM32L4xx_HAL_Driver/Src/stm32l4xx_hal_pwr_ex.c **** 
 787:../../drivers/third_party/ST/STM32L4xx_HAL_Driver/Src/stm32l4xx_hal_pwr_ex.c **** 
 788:../../drivers/third_party/ST/STM32L4xx_HAL_Driver/Src/stm32l4xx_hal_pwr_ex.c **** /**
 789:../../drivers/third_party/ST/STM32L4xx_HAL_Driver/Src/stm32l4xx_hal_pwr_ex.c ****   * @brief Disable pull-down activation on DSI pins.    
 790:../../drivers/third_party/ST/STM32L4xx_HAL_Driver/Src/stm32l4xx_hal_pwr_ex.c ****   * @retval None
 791:../../drivers/third_party/ST/STM32L4xx_HAL_Driver/Src/stm32l4xx_hal_pwr_ex.c ****   */
 792:../../drivers/third_party/ST/STM32L4xx_HAL_Driver/Src/stm32l4xx_hal_pwr_ex.c **** void HAL_PWREx_DisableDSIPinsPDActivation(void)
 793:../../drivers/third_party/ST/STM32L4xx_HAL_Driver/Src/stm32l4xx_hal_pwr_ex.c **** {
 794:../../drivers/third_party/ST/STM32L4xx_HAL_Driver/Src/stm32l4xx_hal_pwr_ex.c ****   CLEAR_BIT(PWR->CR3, PWR_CR3_DSIPDEN);
 795:../../drivers/third_party/ST/STM32L4xx_HAL_Driver/Src/stm32l4xx_hal_pwr_ex.c **** }
 796:../../drivers/third_party/ST/STM32L4xx_HAL_Driver/Src/stm32l4xx_hal_pwr_ex.c **** #endif /* PWR_CR3_DSIPDEN */
 797:../../drivers/third_party/ST/STM32L4xx_HAL_Driver/Src/stm32l4xx_hal_pwr_ex.c **** 
 798:../../drivers/third_party/ST/STM32L4xx_HAL_Driver/Src/stm32l4xx_hal_pwr_ex.c **** #if defined(PWR_CR2_PVME1)
 799:../../drivers/third_party/ST/STM32L4xx_HAL_Driver/Src/stm32l4xx_hal_pwr_ex.c **** /**
 800:../../drivers/third_party/ST/STM32L4xx_HAL_Driver/Src/stm32l4xx_hal_pwr_ex.c ****   * @brief Enable the Power Voltage Monitoring 1: VDDUSB versus 1.2V.
 801:../../drivers/third_party/ST/STM32L4xx_HAL_Driver/Src/stm32l4xx_hal_pwr_ex.c ****   * @retval None
 802:../../drivers/third_party/ST/STM32L4xx_HAL_Driver/Src/stm32l4xx_hal_pwr_ex.c ****   */
 803:../../drivers/third_party/ST/STM32L4xx_HAL_Driver/Src/stm32l4xx_hal_pwr_ex.c **** void HAL_PWREx_EnablePVM1(void)
 804:../../drivers/third_party/ST/STM32L4xx_HAL_Driver/Src/stm32l4xx_hal_pwr_ex.c **** {
 805:../../drivers/third_party/ST/STM32L4xx_HAL_Driver/Src/stm32l4xx_hal_pwr_ex.c ****   SET_BIT(PWR->CR2, PWR_PVM_1);    
 806:../../drivers/third_party/ST/STM32L4xx_HAL_Driver/Src/stm32l4xx_hal_pwr_ex.c **** }
 807:../../drivers/third_party/ST/STM32L4xx_HAL_Driver/Src/stm32l4xx_hal_pwr_ex.c **** 
 808:../../drivers/third_party/ST/STM32L4xx_HAL_Driver/Src/stm32l4xx_hal_pwr_ex.c **** /**
 809:../../drivers/third_party/ST/STM32L4xx_HAL_Driver/Src/stm32l4xx_hal_pwr_ex.c ****   * @brief Disable the Power Voltage Monitoring 1: VDDUSB versus 1.2V.
 810:../../drivers/third_party/ST/STM32L4xx_HAL_Driver/Src/stm32l4xx_hal_pwr_ex.c ****   * @retval None
 811:../../drivers/third_party/ST/STM32L4xx_HAL_Driver/Src/stm32l4xx_hal_pwr_ex.c ****   */
 812:../../drivers/third_party/ST/STM32L4xx_HAL_Driver/Src/stm32l4xx_hal_pwr_ex.c **** void HAL_PWREx_DisablePVM1(void)
 813:../../drivers/third_party/ST/STM32L4xx_HAL_Driver/Src/stm32l4xx_hal_pwr_ex.c **** {
 814:../../drivers/third_party/ST/STM32L4xx_HAL_Driver/Src/stm32l4xx_hal_pwr_ex.c ****   CLEAR_BIT(PWR->CR2, PWR_PVM_1);    
 815:../../drivers/third_party/ST/STM32L4xx_HAL_Driver/Src/stm32l4xx_hal_pwr_ex.c **** }
 816:../../drivers/third_party/ST/STM32L4xx_HAL_Driver/Src/stm32l4xx_hal_pwr_ex.c **** #endif /* PWR_CR2_PVME1 */
 817:../../drivers/third_party/ST/STM32L4xx_HAL_Driver/Src/stm32l4xx_hal_pwr_ex.c **** 
 818:../../drivers/third_party/ST/STM32L4xx_HAL_Driver/Src/stm32l4xx_hal_pwr_ex.c **** 
 819:../../drivers/third_party/ST/STM32L4xx_HAL_Driver/Src/stm32l4xx_hal_pwr_ex.c **** #if defined(PWR_CR2_PVME2)
 820:../../drivers/third_party/ST/STM32L4xx_HAL_Driver/Src/stm32l4xx_hal_pwr_ex.c **** /**
 821:../../drivers/third_party/ST/STM32L4xx_HAL_Driver/Src/stm32l4xx_hal_pwr_ex.c ****   * @brief Enable the Power Voltage Monitoring 2: VDDIO2 versus 0.9V.
 822:../../drivers/third_party/ST/STM32L4xx_HAL_Driver/Src/stm32l4xx_hal_pwr_ex.c ****   * @retval None
 823:../../drivers/third_party/ST/STM32L4xx_HAL_Driver/Src/stm32l4xx_hal_pwr_ex.c ****   */
 824:../../drivers/third_party/ST/STM32L4xx_HAL_Driver/Src/stm32l4xx_hal_pwr_ex.c **** void HAL_PWREx_EnablePVM2(void)
 825:../../drivers/third_party/ST/STM32L4xx_HAL_Driver/Src/stm32l4xx_hal_pwr_ex.c **** {
 826:../../drivers/third_party/ST/STM32L4xx_HAL_Driver/Src/stm32l4xx_hal_pwr_ex.c ****   SET_BIT(PWR->CR2, PWR_PVM_2);    
 827:../../drivers/third_party/ST/STM32L4xx_HAL_Driver/Src/stm32l4xx_hal_pwr_ex.c **** }
 828:../../drivers/third_party/ST/STM32L4xx_HAL_Driver/Src/stm32l4xx_hal_pwr_ex.c **** 
 829:../../drivers/third_party/ST/STM32L4xx_HAL_Driver/Src/stm32l4xx_hal_pwr_ex.c **** /**
 830:../../drivers/third_party/ST/STM32L4xx_HAL_Driver/Src/stm32l4xx_hal_pwr_ex.c ****   * @brief Disable the Power Voltage Monitoring 2: VDDIO2 versus 0.9V.
 831:../../drivers/third_party/ST/STM32L4xx_HAL_Driver/Src/stm32l4xx_hal_pwr_ex.c ****   * @retval None
 832:../../drivers/third_party/ST/STM32L4xx_HAL_Driver/Src/stm32l4xx_hal_pwr_ex.c ****   */
 833:../../drivers/third_party/ST/STM32L4xx_HAL_Driver/Src/stm32l4xx_hal_pwr_ex.c **** void HAL_PWREx_DisablePVM2(void)
 834:../../drivers/third_party/ST/STM32L4xx_HAL_Driver/Src/stm32l4xx_hal_pwr_ex.c **** {
 835:../../drivers/third_party/ST/STM32L4xx_HAL_Driver/Src/stm32l4xx_hal_pwr_ex.c ****   CLEAR_BIT(PWR->CR2, PWR_PVM_2);    
 836:../../drivers/third_party/ST/STM32L4xx_HAL_Driver/Src/stm32l4xx_hal_pwr_ex.c **** }
ARM GAS  C:\Users\LuckyE\AppData\Local\Temp\cccYdq5r.s 			page 31


 837:../../drivers/third_party/ST/STM32L4xx_HAL_Driver/Src/stm32l4xx_hal_pwr_ex.c **** #endif /* PWR_CR2_PVME2 */
 838:../../drivers/third_party/ST/STM32L4xx_HAL_Driver/Src/stm32l4xx_hal_pwr_ex.c **** 
 839:../../drivers/third_party/ST/STM32L4xx_HAL_Driver/Src/stm32l4xx_hal_pwr_ex.c **** 
 840:../../drivers/third_party/ST/STM32L4xx_HAL_Driver/Src/stm32l4xx_hal_pwr_ex.c **** /**
 841:../../drivers/third_party/ST/STM32L4xx_HAL_Driver/Src/stm32l4xx_hal_pwr_ex.c ****   * @brief Enable the Power Voltage Monitoring 3: VDDA versus 1.62V.
 842:../../drivers/third_party/ST/STM32L4xx_HAL_Driver/Src/stm32l4xx_hal_pwr_ex.c ****   * @retval None
 843:../../drivers/third_party/ST/STM32L4xx_HAL_Driver/Src/stm32l4xx_hal_pwr_ex.c ****   */
 844:../../drivers/third_party/ST/STM32L4xx_HAL_Driver/Src/stm32l4xx_hal_pwr_ex.c **** void HAL_PWREx_EnablePVM3(void)
 845:../../drivers/third_party/ST/STM32L4xx_HAL_Driver/Src/stm32l4xx_hal_pwr_ex.c **** {
 859              		.loc 1 845 0
 860              		.cfi_startproc
 861              		@ args = 0, pretend = 0, frame = 0
 862              		@ frame_needed = 0, uses_anonymous_args = 0
 863              		@ link register save eliminated.
 846:../../drivers/third_party/ST/STM32L4xx_HAL_Driver/Src/stm32l4xx_hal_pwr_ex.c ****   SET_BIT(PWR->CR2, PWR_PVM_3);    
 864              		.loc 1 846 0
 865 0000 024A     		ldr	r2, .L102
 866 0002 5368     		ldr	r3, [r2, #4]
 867 0004 43F04003 		orr	r3, r3, #64
 868 0008 5360     		str	r3, [r2, #4]
 847:../../drivers/third_party/ST/STM32L4xx_HAL_Driver/Src/stm32l4xx_hal_pwr_ex.c **** }
 869              		.loc 1 847 0
 870 000a 7047     		bx	lr
 871              	.L103:
 872              		.align	2
 873              	.L102:
 874 000c 00700040 		.word	1073770496
 875              		.cfi_endproc
 876              	.LFE294:
 878              		.section	.text.HAL_PWREx_DisablePVM3,"ax",%progbits
 879              		.align	1
 880              		.global	HAL_PWREx_DisablePVM3
 881              		.syntax unified
 882              		.thumb
 883              		.thumb_func
 884              		.fpu fpv4-sp-d16
 886              	HAL_PWREx_DisablePVM3:
 887              	.LFB295:
 848:../../drivers/third_party/ST/STM32L4xx_HAL_Driver/Src/stm32l4xx_hal_pwr_ex.c **** 
 849:../../drivers/third_party/ST/STM32L4xx_HAL_Driver/Src/stm32l4xx_hal_pwr_ex.c **** /**
 850:../../drivers/third_party/ST/STM32L4xx_HAL_Driver/Src/stm32l4xx_hal_pwr_ex.c ****   * @brief Disable the Power Voltage Monitoring 3: VDDA versus 1.62V.
 851:../../drivers/third_party/ST/STM32L4xx_HAL_Driver/Src/stm32l4xx_hal_pwr_ex.c ****   * @retval None
 852:../../drivers/third_party/ST/STM32L4xx_HAL_Driver/Src/stm32l4xx_hal_pwr_ex.c ****   */
 853:../../drivers/third_party/ST/STM32L4xx_HAL_Driver/Src/stm32l4xx_hal_pwr_ex.c **** void HAL_PWREx_DisablePVM3(void)
 854:../../drivers/third_party/ST/STM32L4xx_HAL_Driver/Src/stm32l4xx_hal_pwr_ex.c **** {
 888              		.loc 1 854 0
 889              		.cfi_startproc
 890              		@ args = 0, pretend = 0, frame = 0
 891              		@ frame_needed = 0, uses_anonymous_args = 0
 892              		@ link register save eliminated.
 855:../../drivers/third_party/ST/STM32L4xx_HAL_Driver/Src/stm32l4xx_hal_pwr_ex.c ****   CLEAR_BIT(PWR->CR2, PWR_PVM_3);    
 893              		.loc 1 855 0
 894 0000 024A     		ldr	r2, .L105
 895 0002 5368     		ldr	r3, [r2, #4]
 896 0004 23F04003 		bic	r3, r3, #64
 897 0008 5360     		str	r3, [r2, #4]
 856:../../drivers/third_party/ST/STM32L4xx_HAL_Driver/Src/stm32l4xx_hal_pwr_ex.c **** }
ARM GAS  C:\Users\LuckyE\AppData\Local\Temp\cccYdq5r.s 			page 32


 898              		.loc 1 856 0
 899 000a 7047     		bx	lr
 900              	.L106:
 901              		.align	2
 902              	.L105:
 903 000c 00700040 		.word	1073770496
 904              		.cfi_endproc
 905              	.LFE295:
 907              		.section	.text.HAL_PWREx_EnablePVM4,"ax",%progbits
 908              		.align	1
 909              		.global	HAL_PWREx_EnablePVM4
 910              		.syntax unified
 911              		.thumb
 912              		.thumb_func
 913              		.fpu fpv4-sp-d16
 915              	HAL_PWREx_EnablePVM4:
 916              	.LFB296:
 857:../../drivers/third_party/ST/STM32L4xx_HAL_Driver/Src/stm32l4xx_hal_pwr_ex.c **** 
 858:../../drivers/third_party/ST/STM32L4xx_HAL_Driver/Src/stm32l4xx_hal_pwr_ex.c **** 
 859:../../drivers/third_party/ST/STM32L4xx_HAL_Driver/Src/stm32l4xx_hal_pwr_ex.c **** /**
 860:../../drivers/third_party/ST/STM32L4xx_HAL_Driver/Src/stm32l4xx_hal_pwr_ex.c ****   * @brief Enable the Power Voltage Monitoring 4:  VDDA versus 2.2V.
 861:../../drivers/third_party/ST/STM32L4xx_HAL_Driver/Src/stm32l4xx_hal_pwr_ex.c ****   * @retval None
 862:../../drivers/third_party/ST/STM32L4xx_HAL_Driver/Src/stm32l4xx_hal_pwr_ex.c ****   */
 863:../../drivers/third_party/ST/STM32L4xx_HAL_Driver/Src/stm32l4xx_hal_pwr_ex.c **** void HAL_PWREx_EnablePVM4(void)
 864:../../drivers/third_party/ST/STM32L4xx_HAL_Driver/Src/stm32l4xx_hal_pwr_ex.c **** {
 917              		.loc 1 864 0
 918              		.cfi_startproc
 919              		@ args = 0, pretend = 0, frame = 0
 920              		@ frame_needed = 0, uses_anonymous_args = 0
 921              		@ link register save eliminated.
 865:../../drivers/third_party/ST/STM32L4xx_HAL_Driver/Src/stm32l4xx_hal_pwr_ex.c ****   SET_BIT(PWR->CR2, PWR_PVM_4);    
 922              		.loc 1 865 0
 923 0000 024A     		ldr	r2, .L108
 924 0002 5368     		ldr	r3, [r2, #4]
 925 0004 43F08003 		orr	r3, r3, #128
 926 0008 5360     		str	r3, [r2, #4]
 866:../../drivers/third_party/ST/STM32L4xx_HAL_Driver/Src/stm32l4xx_hal_pwr_ex.c **** }
 927              		.loc 1 866 0
 928 000a 7047     		bx	lr
 929              	.L109:
 930              		.align	2
 931              	.L108:
 932 000c 00700040 		.word	1073770496
 933              		.cfi_endproc
 934              	.LFE296:
 936              		.section	.text.HAL_PWREx_DisablePVM4,"ax",%progbits
 937              		.align	1
 938              		.global	HAL_PWREx_DisablePVM4
 939              		.syntax unified
 940              		.thumb
 941              		.thumb_func
 942              		.fpu fpv4-sp-d16
 944              	HAL_PWREx_DisablePVM4:
 945              	.LFB297:
 867:../../drivers/third_party/ST/STM32L4xx_HAL_Driver/Src/stm32l4xx_hal_pwr_ex.c **** 
 868:../../drivers/third_party/ST/STM32L4xx_HAL_Driver/Src/stm32l4xx_hal_pwr_ex.c **** /**
 869:../../drivers/third_party/ST/STM32L4xx_HAL_Driver/Src/stm32l4xx_hal_pwr_ex.c ****   * @brief Disable the Power Voltage Monitoring 4:  VDDA versus 2.2V.
ARM GAS  C:\Users\LuckyE\AppData\Local\Temp\cccYdq5r.s 			page 33


 870:../../drivers/third_party/ST/STM32L4xx_HAL_Driver/Src/stm32l4xx_hal_pwr_ex.c ****   * @retval None
 871:../../drivers/third_party/ST/STM32L4xx_HAL_Driver/Src/stm32l4xx_hal_pwr_ex.c ****   */
 872:../../drivers/third_party/ST/STM32L4xx_HAL_Driver/Src/stm32l4xx_hal_pwr_ex.c **** void HAL_PWREx_DisablePVM4(void)
 873:../../drivers/third_party/ST/STM32L4xx_HAL_Driver/Src/stm32l4xx_hal_pwr_ex.c **** {
 946              		.loc 1 873 0
 947              		.cfi_startproc
 948              		@ args = 0, pretend = 0, frame = 0
 949              		@ frame_needed = 0, uses_anonymous_args = 0
 950              		@ link register save eliminated.
 874:../../drivers/third_party/ST/STM32L4xx_HAL_Driver/Src/stm32l4xx_hal_pwr_ex.c ****   CLEAR_BIT(PWR->CR2, PWR_PVM_4);    
 951              		.loc 1 874 0
 952 0000 024A     		ldr	r2, .L111
 953 0002 5368     		ldr	r3, [r2, #4]
 954 0004 23F08003 		bic	r3, r3, #128
 955 0008 5360     		str	r3, [r2, #4]
 875:../../drivers/third_party/ST/STM32L4xx_HAL_Driver/Src/stm32l4xx_hal_pwr_ex.c **** }
 956              		.loc 1 875 0
 957 000a 7047     		bx	lr
 958              	.L112:
 959              		.align	2
 960              	.L111:
 961 000c 00700040 		.word	1073770496
 962              		.cfi_endproc
 963              	.LFE297:
 965              		.section	.text.HAL_PWREx_ConfigPVM,"ax",%progbits
 966              		.align	1
 967              		.global	HAL_PWREx_ConfigPVM
 968              		.syntax unified
 969              		.thumb
 970              		.thumb_func
 971              		.fpu fpv4-sp-d16
 973              	HAL_PWREx_ConfigPVM:
 974              	.LFB298:
 876:../../drivers/third_party/ST/STM32L4xx_HAL_Driver/Src/stm32l4xx_hal_pwr_ex.c **** 
 877:../../drivers/third_party/ST/STM32L4xx_HAL_Driver/Src/stm32l4xx_hal_pwr_ex.c **** 
 878:../../drivers/third_party/ST/STM32L4xx_HAL_Driver/Src/stm32l4xx_hal_pwr_ex.c **** 
 879:../../drivers/third_party/ST/STM32L4xx_HAL_Driver/Src/stm32l4xx_hal_pwr_ex.c **** 
 880:../../drivers/third_party/ST/STM32L4xx_HAL_Driver/Src/stm32l4xx_hal_pwr_ex.c **** /**
 881:../../drivers/third_party/ST/STM32L4xx_HAL_Driver/Src/stm32l4xx_hal_pwr_ex.c ****   * @brief Configure the Peripheral Voltage Monitoring (PVM).
 882:../../drivers/third_party/ST/STM32L4xx_HAL_Driver/Src/stm32l4xx_hal_pwr_ex.c ****   * @param sConfigPVM: pointer to a PWR_PVMTypeDef structure that contains the
 883:../../drivers/third_party/ST/STM32L4xx_HAL_Driver/Src/stm32l4xx_hal_pwr_ex.c ****   *        PVM configuration information.
 884:../../drivers/third_party/ST/STM32L4xx_HAL_Driver/Src/stm32l4xx_hal_pwr_ex.c ****   * @note The API configures a single PVM according to the information contained 
 885:../../drivers/third_party/ST/STM32L4xx_HAL_Driver/Src/stm32l4xx_hal_pwr_ex.c ****   *       in the input structure. To configure several PVMs, the API must be singly 
 886:../../drivers/third_party/ST/STM32L4xx_HAL_Driver/Src/stm32l4xx_hal_pwr_ex.c ****   *       called for each PVM used.
 887:../../drivers/third_party/ST/STM32L4xx_HAL_Driver/Src/stm32l4xx_hal_pwr_ex.c ****   * @note Refer to the electrical characteristics of your device datasheet for
 888:../../drivers/third_party/ST/STM32L4xx_HAL_Driver/Src/stm32l4xx_hal_pwr_ex.c ****   *         more details about the voltage thresholds corresponding to each
 889:../../drivers/third_party/ST/STM32L4xx_HAL_Driver/Src/stm32l4xx_hal_pwr_ex.c ****   *         detection level and to each monitored supply.
 890:../../drivers/third_party/ST/STM32L4xx_HAL_Driver/Src/stm32l4xx_hal_pwr_ex.c ****   * @retval HAL status
 891:../../drivers/third_party/ST/STM32L4xx_HAL_Driver/Src/stm32l4xx_hal_pwr_ex.c ****   */
 892:../../drivers/third_party/ST/STM32L4xx_HAL_Driver/Src/stm32l4xx_hal_pwr_ex.c **** HAL_StatusTypeDef HAL_PWREx_ConfigPVM(PWR_PVMTypeDef *sConfigPVM)
 893:../../drivers/third_party/ST/STM32L4xx_HAL_Driver/Src/stm32l4xx_hal_pwr_ex.c **** {  
 975              		.loc 1 893 0
 976              		.cfi_startproc
 977              		@ args = 0, pretend = 0, frame = 0
 978              		@ frame_needed = 0, uses_anonymous_args = 0
 979              		@ link register save eliminated.
 980              	.LVL72:
ARM GAS  C:\Users\LuckyE\AppData\Local\Temp\cccYdq5r.s 			page 34


 894:../../drivers/third_party/ST/STM32L4xx_HAL_Driver/Src/stm32l4xx_hal_pwr_ex.c ****   /* Check the parameters */
 895:../../drivers/third_party/ST/STM32L4xx_HAL_Driver/Src/stm32l4xx_hal_pwr_ex.c ****   assert_param(IS_PWR_PVM_TYPE(sConfigPVM->PVMType));
 896:../../drivers/third_party/ST/STM32L4xx_HAL_Driver/Src/stm32l4xx_hal_pwr_ex.c ****   assert_param(IS_PWR_PVM_MODE(sConfigPVM->Mode));
 897:../../drivers/third_party/ST/STM32L4xx_HAL_Driver/Src/stm32l4xx_hal_pwr_ex.c **** 
 898:../../drivers/third_party/ST/STM32L4xx_HAL_Driver/Src/stm32l4xx_hal_pwr_ex.c **** 
 899:../../drivers/third_party/ST/STM32L4xx_HAL_Driver/Src/stm32l4xx_hal_pwr_ex.c ****   /* Configure EXTI 35 to 38 interrupts if so required:
 900:../../drivers/third_party/ST/STM32L4xx_HAL_Driver/Src/stm32l4xx_hal_pwr_ex.c ****      scan thru PVMType to detect which PVMx is set and
 901:../../drivers/third_party/ST/STM32L4xx_HAL_Driver/Src/stm32l4xx_hal_pwr_ex.c ****      configure the corresponding EXTI line accordingly. */
 902:../../drivers/third_party/ST/STM32L4xx_HAL_Driver/Src/stm32l4xx_hal_pwr_ex.c ****   switch (sConfigPVM->PVMType)
 981              		.loc 1 902 0
 982 0000 0368     		ldr	r3, [r0]
 983 0002 402B     		cmp	r3, #64
 984 0004 03D0     		beq	.L115
 985 0006 802B     		cmp	r3, #128
 986 0008 2ED0     		beq	.L116
 903:../../drivers/third_party/ST/STM32L4xx_HAL_Driver/Src/stm32l4xx_hal_pwr_ex.c ****   {
 904:../../drivers/third_party/ST/STM32L4xx_HAL_Driver/Src/stm32l4xx_hal_pwr_ex.c **** #if defined(PWR_CR2_PVME1)  
 905:../../drivers/third_party/ST/STM32L4xx_HAL_Driver/Src/stm32l4xx_hal_pwr_ex.c ****     case PWR_PVM_1:
 906:../../drivers/third_party/ST/STM32L4xx_HAL_Driver/Src/stm32l4xx_hal_pwr_ex.c ****       /* Clear any previous config. Keep it clear if no event or IT mode is selected */
 907:../../drivers/third_party/ST/STM32L4xx_HAL_Driver/Src/stm32l4xx_hal_pwr_ex.c ****       __HAL_PWR_PVM1_EXTI_DISABLE_EVENT();
 908:../../drivers/third_party/ST/STM32L4xx_HAL_Driver/Src/stm32l4xx_hal_pwr_ex.c ****       __HAL_PWR_PVM1_EXTI_DISABLE_IT();
 909:../../drivers/third_party/ST/STM32L4xx_HAL_Driver/Src/stm32l4xx_hal_pwr_ex.c ****       __HAL_PWR_PVM1_EXTI_DISABLE_FALLING_EDGE(); 
 910:../../drivers/third_party/ST/STM32L4xx_HAL_Driver/Src/stm32l4xx_hal_pwr_ex.c ****       __HAL_PWR_PVM1_EXTI_DISABLE_RISING_EDGE();
 911:../../drivers/third_party/ST/STM32L4xx_HAL_Driver/Src/stm32l4xx_hal_pwr_ex.c **** 
 912:../../drivers/third_party/ST/STM32L4xx_HAL_Driver/Src/stm32l4xx_hal_pwr_ex.c ****       /* Configure interrupt mode */
 913:../../drivers/third_party/ST/STM32L4xx_HAL_Driver/Src/stm32l4xx_hal_pwr_ex.c ****       if((sConfigPVM->Mode & PVM_MODE_IT) == PVM_MODE_IT)
 914:../../drivers/third_party/ST/STM32L4xx_HAL_Driver/Src/stm32l4xx_hal_pwr_ex.c ****       {
 915:../../drivers/third_party/ST/STM32L4xx_HAL_Driver/Src/stm32l4xx_hal_pwr_ex.c ****         __HAL_PWR_PVM1_EXTI_ENABLE_IT();
 916:../../drivers/third_party/ST/STM32L4xx_HAL_Driver/Src/stm32l4xx_hal_pwr_ex.c ****       }
 917:../../drivers/third_party/ST/STM32L4xx_HAL_Driver/Src/stm32l4xx_hal_pwr_ex.c ****   
 918:../../drivers/third_party/ST/STM32L4xx_HAL_Driver/Src/stm32l4xx_hal_pwr_ex.c ****       /* Configure event mode */
 919:../../drivers/third_party/ST/STM32L4xx_HAL_Driver/Src/stm32l4xx_hal_pwr_ex.c ****       if((sConfigPVM->Mode & PVM_MODE_EVT) == PVM_MODE_EVT)
 920:../../drivers/third_party/ST/STM32L4xx_HAL_Driver/Src/stm32l4xx_hal_pwr_ex.c ****       {
 921:../../drivers/third_party/ST/STM32L4xx_HAL_Driver/Src/stm32l4xx_hal_pwr_ex.c ****         __HAL_PWR_PVM1_EXTI_ENABLE_EVENT();
 922:../../drivers/third_party/ST/STM32L4xx_HAL_Driver/Src/stm32l4xx_hal_pwr_ex.c ****       }
 923:../../drivers/third_party/ST/STM32L4xx_HAL_Driver/Src/stm32l4xx_hal_pwr_ex.c ****   
 924:../../drivers/third_party/ST/STM32L4xx_HAL_Driver/Src/stm32l4xx_hal_pwr_ex.c ****       /* Configure the edge */
 925:../../drivers/third_party/ST/STM32L4xx_HAL_Driver/Src/stm32l4xx_hal_pwr_ex.c ****       if((sConfigPVM->Mode & PVM_RISING_EDGE) == PVM_RISING_EDGE)
 926:../../drivers/third_party/ST/STM32L4xx_HAL_Driver/Src/stm32l4xx_hal_pwr_ex.c ****       {
 927:../../drivers/third_party/ST/STM32L4xx_HAL_Driver/Src/stm32l4xx_hal_pwr_ex.c ****         __HAL_PWR_PVM1_EXTI_ENABLE_RISING_EDGE();
 928:../../drivers/third_party/ST/STM32L4xx_HAL_Driver/Src/stm32l4xx_hal_pwr_ex.c ****       }
 929:../../drivers/third_party/ST/STM32L4xx_HAL_Driver/Src/stm32l4xx_hal_pwr_ex.c ****   
 930:../../drivers/third_party/ST/STM32L4xx_HAL_Driver/Src/stm32l4xx_hal_pwr_ex.c ****       if((sConfigPVM->Mode & PVM_FALLING_EDGE) == PVM_FALLING_EDGE)
 931:../../drivers/third_party/ST/STM32L4xx_HAL_Driver/Src/stm32l4xx_hal_pwr_ex.c ****       {
 932:../../drivers/third_party/ST/STM32L4xx_HAL_Driver/Src/stm32l4xx_hal_pwr_ex.c ****         __HAL_PWR_PVM1_EXTI_ENABLE_FALLING_EDGE();
 933:../../drivers/third_party/ST/STM32L4xx_HAL_Driver/Src/stm32l4xx_hal_pwr_ex.c ****       }
 934:../../drivers/third_party/ST/STM32L4xx_HAL_Driver/Src/stm32l4xx_hal_pwr_ex.c ****       break; 
 935:../../drivers/third_party/ST/STM32L4xx_HAL_Driver/Src/stm32l4xx_hal_pwr_ex.c **** #endif /* PWR_CR2_PVME1 */        
 936:../../drivers/third_party/ST/STM32L4xx_HAL_Driver/Src/stm32l4xx_hal_pwr_ex.c ****     
 937:../../drivers/third_party/ST/STM32L4xx_HAL_Driver/Src/stm32l4xx_hal_pwr_ex.c **** #if defined(PWR_CR2_PVME2)    
 938:../../drivers/third_party/ST/STM32L4xx_HAL_Driver/Src/stm32l4xx_hal_pwr_ex.c ****     case PWR_PVM_2:
 939:../../drivers/third_party/ST/STM32L4xx_HAL_Driver/Src/stm32l4xx_hal_pwr_ex.c ****       /* Clear any previous config. Keep it clear if no event or IT mode is selected */
 940:../../drivers/third_party/ST/STM32L4xx_HAL_Driver/Src/stm32l4xx_hal_pwr_ex.c ****       __HAL_PWR_PVM2_EXTI_DISABLE_EVENT();
 941:../../drivers/third_party/ST/STM32L4xx_HAL_Driver/Src/stm32l4xx_hal_pwr_ex.c ****       __HAL_PWR_PVM2_EXTI_DISABLE_IT();
 942:../../drivers/third_party/ST/STM32L4xx_HAL_Driver/Src/stm32l4xx_hal_pwr_ex.c ****       __HAL_PWR_PVM2_EXTI_DISABLE_FALLING_EDGE(); 
 943:../../drivers/third_party/ST/STM32L4xx_HAL_Driver/Src/stm32l4xx_hal_pwr_ex.c ****       __HAL_PWR_PVM2_EXTI_DISABLE_RISING_EDGE();
 944:../../drivers/third_party/ST/STM32L4xx_HAL_Driver/Src/stm32l4xx_hal_pwr_ex.c **** 
ARM GAS  C:\Users\LuckyE\AppData\Local\Temp\cccYdq5r.s 			page 35


 945:../../drivers/third_party/ST/STM32L4xx_HAL_Driver/Src/stm32l4xx_hal_pwr_ex.c ****       /* Configure interrupt mode */
 946:../../drivers/third_party/ST/STM32L4xx_HAL_Driver/Src/stm32l4xx_hal_pwr_ex.c ****       if((sConfigPVM->Mode & PVM_MODE_IT) == PVM_MODE_IT)
 947:../../drivers/third_party/ST/STM32L4xx_HAL_Driver/Src/stm32l4xx_hal_pwr_ex.c ****       {
 948:../../drivers/third_party/ST/STM32L4xx_HAL_Driver/Src/stm32l4xx_hal_pwr_ex.c ****         __HAL_PWR_PVM2_EXTI_ENABLE_IT();
 949:../../drivers/third_party/ST/STM32L4xx_HAL_Driver/Src/stm32l4xx_hal_pwr_ex.c ****       }
 950:../../drivers/third_party/ST/STM32L4xx_HAL_Driver/Src/stm32l4xx_hal_pwr_ex.c ****   
 951:../../drivers/third_party/ST/STM32L4xx_HAL_Driver/Src/stm32l4xx_hal_pwr_ex.c ****       /* Configure event mode */
 952:../../drivers/third_party/ST/STM32L4xx_HAL_Driver/Src/stm32l4xx_hal_pwr_ex.c ****       if((sConfigPVM->Mode & PVM_MODE_EVT) == PVM_MODE_EVT)
 953:../../drivers/third_party/ST/STM32L4xx_HAL_Driver/Src/stm32l4xx_hal_pwr_ex.c ****       {
 954:../../drivers/third_party/ST/STM32L4xx_HAL_Driver/Src/stm32l4xx_hal_pwr_ex.c ****         __HAL_PWR_PVM2_EXTI_ENABLE_EVENT();
 955:../../drivers/third_party/ST/STM32L4xx_HAL_Driver/Src/stm32l4xx_hal_pwr_ex.c ****       }
 956:../../drivers/third_party/ST/STM32L4xx_HAL_Driver/Src/stm32l4xx_hal_pwr_ex.c ****   
 957:../../drivers/third_party/ST/STM32L4xx_HAL_Driver/Src/stm32l4xx_hal_pwr_ex.c ****       /* Configure the edge */
 958:../../drivers/third_party/ST/STM32L4xx_HAL_Driver/Src/stm32l4xx_hal_pwr_ex.c ****       if((sConfigPVM->Mode & PVM_RISING_EDGE) == PVM_RISING_EDGE)
 959:../../drivers/third_party/ST/STM32L4xx_HAL_Driver/Src/stm32l4xx_hal_pwr_ex.c ****       {
 960:../../drivers/third_party/ST/STM32L4xx_HAL_Driver/Src/stm32l4xx_hal_pwr_ex.c ****         __HAL_PWR_PVM2_EXTI_ENABLE_RISING_EDGE();
 961:../../drivers/third_party/ST/STM32L4xx_HAL_Driver/Src/stm32l4xx_hal_pwr_ex.c ****       }
 962:../../drivers/third_party/ST/STM32L4xx_HAL_Driver/Src/stm32l4xx_hal_pwr_ex.c ****   
 963:../../drivers/third_party/ST/STM32L4xx_HAL_Driver/Src/stm32l4xx_hal_pwr_ex.c ****       if((sConfigPVM->Mode & PVM_FALLING_EDGE) == PVM_FALLING_EDGE)
 964:../../drivers/third_party/ST/STM32L4xx_HAL_Driver/Src/stm32l4xx_hal_pwr_ex.c ****       {
 965:../../drivers/third_party/ST/STM32L4xx_HAL_Driver/Src/stm32l4xx_hal_pwr_ex.c ****         __HAL_PWR_PVM2_EXTI_ENABLE_FALLING_EDGE();
 966:../../drivers/third_party/ST/STM32L4xx_HAL_Driver/Src/stm32l4xx_hal_pwr_ex.c ****       }
 967:../../drivers/third_party/ST/STM32L4xx_HAL_Driver/Src/stm32l4xx_hal_pwr_ex.c ****       break;
 968:../../drivers/third_party/ST/STM32L4xx_HAL_Driver/Src/stm32l4xx_hal_pwr_ex.c **** #endif /* PWR_CR2_PVME2 */      
 969:../../drivers/third_party/ST/STM32L4xx_HAL_Driver/Src/stm32l4xx_hal_pwr_ex.c ****       
 970:../../drivers/third_party/ST/STM32L4xx_HAL_Driver/Src/stm32l4xx_hal_pwr_ex.c ****     case PWR_PVM_3:
 971:../../drivers/third_party/ST/STM32L4xx_HAL_Driver/Src/stm32l4xx_hal_pwr_ex.c ****       /* Clear any previous config. Keep it clear if no event or IT mode is selected */
 972:../../drivers/third_party/ST/STM32L4xx_HAL_Driver/Src/stm32l4xx_hal_pwr_ex.c ****       __HAL_PWR_PVM3_EXTI_DISABLE_EVENT();
 973:../../drivers/third_party/ST/STM32L4xx_HAL_Driver/Src/stm32l4xx_hal_pwr_ex.c ****       __HAL_PWR_PVM3_EXTI_DISABLE_IT();
 974:../../drivers/third_party/ST/STM32L4xx_HAL_Driver/Src/stm32l4xx_hal_pwr_ex.c ****       __HAL_PWR_PVM3_EXTI_DISABLE_FALLING_EDGE(); 
 975:../../drivers/third_party/ST/STM32L4xx_HAL_Driver/Src/stm32l4xx_hal_pwr_ex.c ****       __HAL_PWR_PVM3_EXTI_DISABLE_RISING_EDGE();
 976:../../drivers/third_party/ST/STM32L4xx_HAL_Driver/Src/stm32l4xx_hal_pwr_ex.c **** 
 977:../../drivers/third_party/ST/STM32L4xx_HAL_Driver/Src/stm32l4xx_hal_pwr_ex.c ****       /* Configure interrupt mode */
 978:../../drivers/third_party/ST/STM32L4xx_HAL_Driver/Src/stm32l4xx_hal_pwr_ex.c ****       if((sConfigPVM->Mode & PVM_MODE_IT) == PVM_MODE_IT)
 979:../../drivers/third_party/ST/STM32L4xx_HAL_Driver/Src/stm32l4xx_hal_pwr_ex.c ****       {
 980:../../drivers/third_party/ST/STM32L4xx_HAL_Driver/Src/stm32l4xx_hal_pwr_ex.c ****         __HAL_PWR_PVM3_EXTI_ENABLE_IT();
 981:../../drivers/third_party/ST/STM32L4xx_HAL_Driver/Src/stm32l4xx_hal_pwr_ex.c ****       }
 982:../../drivers/third_party/ST/STM32L4xx_HAL_Driver/Src/stm32l4xx_hal_pwr_ex.c ****   
 983:../../drivers/third_party/ST/STM32L4xx_HAL_Driver/Src/stm32l4xx_hal_pwr_ex.c ****       /* Configure event mode */
 984:../../drivers/third_party/ST/STM32L4xx_HAL_Driver/Src/stm32l4xx_hal_pwr_ex.c ****       if((sConfigPVM->Mode & PVM_MODE_EVT) == PVM_MODE_EVT)
 985:../../drivers/third_party/ST/STM32L4xx_HAL_Driver/Src/stm32l4xx_hal_pwr_ex.c ****       {
 986:../../drivers/third_party/ST/STM32L4xx_HAL_Driver/Src/stm32l4xx_hal_pwr_ex.c ****         __HAL_PWR_PVM3_EXTI_ENABLE_EVENT();
 987:../../drivers/third_party/ST/STM32L4xx_HAL_Driver/Src/stm32l4xx_hal_pwr_ex.c ****       }
 988:../../drivers/third_party/ST/STM32L4xx_HAL_Driver/Src/stm32l4xx_hal_pwr_ex.c ****   
 989:../../drivers/third_party/ST/STM32L4xx_HAL_Driver/Src/stm32l4xx_hal_pwr_ex.c ****       /* Configure the edge */
 990:../../drivers/third_party/ST/STM32L4xx_HAL_Driver/Src/stm32l4xx_hal_pwr_ex.c ****       if((sConfigPVM->Mode & PVM_RISING_EDGE) == PVM_RISING_EDGE)
 991:../../drivers/third_party/ST/STM32L4xx_HAL_Driver/Src/stm32l4xx_hal_pwr_ex.c ****       {
 992:../../drivers/third_party/ST/STM32L4xx_HAL_Driver/Src/stm32l4xx_hal_pwr_ex.c ****         __HAL_PWR_PVM3_EXTI_ENABLE_RISING_EDGE();
 993:../../drivers/third_party/ST/STM32L4xx_HAL_Driver/Src/stm32l4xx_hal_pwr_ex.c ****       }
 994:../../drivers/third_party/ST/STM32L4xx_HAL_Driver/Src/stm32l4xx_hal_pwr_ex.c ****   
 995:../../drivers/third_party/ST/STM32L4xx_HAL_Driver/Src/stm32l4xx_hal_pwr_ex.c ****       if((sConfigPVM->Mode & PVM_FALLING_EDGE) == PVM_FALLING_EDGE)
 996:../../drivers/third_party/ST/STM32L4xx_HAL_Driver/Src/stm32l4xx_hal_pwr_ex.c ****       {
 997:../../drivers/third_party/ST/STM32L4xx_HAL_Driver/Src/stm32l4xx_hal_pwr_ex.c ****         __HAL_PWR_PVM3_EXTI_ENABLE_FALLING_EDGE();
 998:../../drivers/third_party/ST/STM32L4xx_HAL_Driver/Src/stm32l4xx_hal_pwr_ex.c ****       }
 999:../../drivers/third_party/ST/STM32L4xx_HAL_Driver/Src/stm32l4xx_hal_pwr_ex.c ****       break;
1000:../../drivers/third_party/ST/STM32L4xx_HAL_Driver/Src/stm32l4xx_hal_pwr_ex.c ****       
1001:../../drivers/third_party/ST/STM32L4xx_HAL_Driver/Src/stm32l4xx_hal_pwr_ex.c ****     case PWR_PVM_4:
ARM GAS  C:\Users\LuckyE\AppData\Local\Temp\cccYdq5r.s 			page 36


1002:../../drivers/third_party/ST/STM32L4xx_HAL_Driver/Src/stm32l4xx_hal_pwr_ex.c ****       /* Clear any previous config. Keep it clear if no event or IT mode is selected */
1003:../../drivers/third_party/ST/STM32L4xx_HAL_Driver/Src/stm32l4xx_hal_pwr_ex.c ****       __HAL_PWR_PVM4_EXTI_DISABLE_EVENT();
1004:../../drivers/third_party/ST/STM32L4xx_HAL_Driver/Src/stm32l4xx_hal_pwr_ex.c ****       __HAL_PWR_PVM4_EXTI_DISABLE_IT();
1005:../../drivers/third_party/ST/STM32L4xx_HAL_Driver/Src/stm32l4xx_hal_pwr_ex.c ****       __HAL_PWR_PVM4_EXTI_DISABLE_FALLING_EDGE(); 
1006:../../drivers/third_party/ST/STM32L4xx_HAL_Driver/Src/stm32l4xx_hal_pwr_ex.c ****       __HAL_PWR_PVM4_EXTI_DISABLE_RISING_EDGE();
1007:../../drivers/third_party/ST/STM32L4xx_HAL_Driver/Src/stm32l4xx_hal_pwr_ex.c **** 
1008:../../drivers/third_party/ST/STM32L4xx_HAL_Driver/Src/stm32l4xx_hal_pwr_ex.c ****       /* Configure interrupt mode */
1009:../../drivers/third_party/ST/STM32L4xx_HAL_Driver/Src/stm32l4xx_hal_pwr_ex.c ****       if((sConfigPVM->Mode & PVM_MODE_IT) == PVM_MODE_IT)
1010:../../drivers/third_party/ST/STM32L4xx_HAL_Driver/Src/stm32l4xx_hal_pwr_ex.c ****       {
1011:../../drivers/third_party/ST/STM32L4xx_HAL_Driver/Src/stm32l4xx_hal_pwr_ex.c ****         __HAL_PWR_PVM4_EXTI_ENABLE_IT();
1012:../../drivers/third_party/ST/STM32L4xx_HAL_Driver/Src/stm32l4xx_hal_pwr_ex.c ****       }
1013:../../drivers/third_party/ST/STM32L4xx_HAL_Driver/Src/stm32l4xx_hal_pwr_ex.c ****   
1014:../../drivers/third_party/ST/STM32L4xx_HAL_Driver/Src/stm32l4xx_hal_pwr_ex.c ****       /* Configure event mode */
1015:../../drivers/third_party/ST/STM32L4xx_HAL_Driver/Src/stm32l4xx_hal_pwr_ex.c ****       if((sConfigPVM->Mode & PVM_MODE_EVT) == PVM_MODE_EVT)
1016:../../drivers/third_party/ST/STM32L4xx_HAL_Driver/Src/stm32l4xx_hal_pwr_ex.c ****       {
1017:../../drivers/third_party/ST/STM32L4xx_HAL_Driver/Src/stm32l4xx_hal_pwr_ex.c ****         __HAL_PWR_PVM4_EXTI_ENABLE_EVENT();
1018:../../drivers/third_party/ST/STM32L4xx_HAL_Driver/Src/stm32l4xx_hal_pwr_ex.c ****       }
1019:../../drivers/third_party/ST/STM32L4xx_HAL_Driver/Src/stm32l4xx_hal_pwr_ex.c ****   
1020:../../drivers/third_party/ST/STM32L4xx_HAL_Driver/Src/stm32l4xx_hal_pwr_ex.c ****       /* Configure the edge */
1021:../../drivers/third_party/ST/STM32L4xx_HAL_Driver/Src/stm32l4xx_hal_pwr_ex.c ****       if((sConfigPVM->Mode & PVM_RISING_EDGE) == PVM_RISING_EDGE)
1022:../../drivers/third_party/ST/STM32L4xx_HAL_Driver/Src/stm32l4xx_hal_pwr_ex.c ****       {
1023:../../drivers/third_party/ST/STM32L4xx_HAL_Driver/Src/stm32l4xx_hal_pwr_ex.c ****         __HAL_PWR_PVM4_EXTI_ENABLE_RISING_EDGE();
1024:../../drivers/third_party/ST/STM32L4xx_HAL_Driver/Src/stm32l4xx_hal_pwr_ex.c ****       }
1025:../../drivers/third_party/ST/STM32L4xx_HAL_Driver/Src/stm32l4xx_hal_pwr_ex.c ****   
1026:../../drivers/third_party/ST/STM32L4xx_HAL_Driver/Src/stm32l4xx_hal_pwr_ex.c ****       if((sConfigPVM->Mode & PVM_FALLING_EDGE) == PVM_FALLING_EDGE)
1027:../../drivers/third_party/ST/STM32L4xx_HAL_Driver/Src/stm32l4xx_hal_pwr_ex.c ****       {
1028:../../drivers/third_party/ST/STM32L4xx_HAL_Driver/Src/stm32l4xx_hal_pwr_ex.c ****         __HAL_PWR_PVM4_EXTI_ENABLE_FALLING_EDGE();
1029:../../drivers/third_party/ST/STM32L4xx_HAL_Driver/Src/stm32l4xx_hal_pwr_ex.c ****       }
1030:../../drivers/third_party/ST/STM32L4xx_HAL_Driver/Src/stm32l4xx_hal_pwr_ex.c ****       break;  
1031:../../drivers/third_party/ST/STM32L4xx_HAL_Driver/Src/stm32l4xx_hal_pwr_ex.c ****       
1032:../../drivers/third_party/ST/STM32L4xx_HAL_Driver/Src/stm32l4xx_hal_pwr_ex.c ****     default:
1033:../../drivers/third_party/ST/STM32L4xx_HAL_Driver/Src/stm32l4xx_hal_pwr_ex.c ****       return HAL_ERROR;                      
 987              		.loc 1 1033 0
 988 000a 0120     		movs	r0, #1
 989              	.LVL73:
1034:../../drivers/third_party/ST/STM32L4xx_HAL_Driver/Src/stm32l4xx_hal_pwr_ex.c ****     
1035:../../drivers/third_party/ST/STM32L4xx_HAL_Driver/Src/stm32l4xx_hal_pwr_ex.c ****   }   
1036:../../drivers/third_party/ST/STM32L4xx_HAL_Driver/Src/stm32l4xx_hal_pwr_ex.c **** 
1037:../../drivers/third_party/ST/STM32L4xx_HAL_Driver/Src/stm32l4xx_hal_pwr_ex.c ****   
1038:../../drivers/third_party/ST/STM32L4xx_HAL_Driver/Src/stm32l4xx_hal_pwr_ex.c ****   return HAL_OK;
1039:../../drivers/third_party/ST/STM32L4xx_HAL_Driver/Src/stm32l4xx_hal_pwr_ex.c **** }
 990              		.loc 1 1039 0
 991 000c 7047     		bx	lr
 992              	.LVL74:
 993              	.L115:
 972:../../drivers/third_party/ST/STM32L4xx_HAL_Driver/Src/stm32l4xx_hal_pwr_ex.c ****       __HAL_PWR_PVM3_EXTI_DISABLE_IT();
 994              		.loc 1 972 0
 995 000e 2B4B     		ldr	r3, .L150
 996 0010 5A6A     		ldr	r2, [r3, #36]
 997 0012 22F02002 		bic	r2, r2, #32
 998 0016 5A62     		str	r2, [r3, #36]
 973:../../drivers/third_party/ST/STM32L4xx_HAL_Driver/Src/stm32l4xx_hal_pwr_ex.c ****       __HAL_PWR_PVM3_EXTI_DISABLE_FALLING_EDGE(); 
 999              		.loc 1 973 0
 1000 0018 1A6A     		ldr	r2, [r3, #32]
 1001 001a 22F02002 		bic	r2, r2, #32
 1002 001e 1A62     		str	r2, [r3, #32]
 974:../../drivers/third_party/ST/STM32L4xx_HAL_Driver/Src/stm32l4xx_hal_pwr_ex.c ****       __HAL_PWR_PVM3_EXTI_DISABLE_RISING_EDGE();
ARM GAS  C:\Users\LuckyE\AppData\Local\Temp\cccYdq5r.s 			page 37


 1003              		.loc 1 974 0
 1004 0020 DA6A     		ldr	r2, [r3, #44]
 1005 0022 22F02002 		bic	r2, r2, #32
 1006 0026 DA62     		str	r2, [r3, #44]
 975:../../drivers/third_party/ST/STM32L4xx_HAL_Driver/Src/stm32l4xx_hal_pwr_ex.c **** 
 1007              		.loc 1 975 0
 1008 0028 9A6A     		ldr	r2, [r3, #40]
 1009 002a 22F02002 		bic	r2, r2, #32
 1010 002e 9A62     		str	r2, [r3, #40]
 978:../../drivers/third_party/ST/STM32L4xx_HAL_Driver/Src/stm32l4xx_hal_pwr_ex.c ****       {
 1011              		.loc 1 978 0
 1012 0030 4268     		ldr	r2, [r0, #4]
 1013 0032 D103     		lsls	r1, r2, #15
 980:../../drivers/third_party/ST/STM32L4xx_HAL_Driver/Src/stm32l4xx_hal_pwr_ex.c ****       }
 1014              		.loc 1 980 0
 1015 0034 42BF     		ittt	mi
 1016 0036 196A     		ldrmi	r1, [r3, #32]
 1017 0038 41F02001 		orrmi	r1, r1, #32
 1018 003c 1962     		strmi	r1, [r3, #32]
 984:../../drivers/third_party/ST/STM32L4xx_HAL_Driver/Src/stm32l4xx_hal_pwr_ex.c ****       {
 1019              		.loc 1 984 0
 1020 003e 9003     		lsls	r0, r2, #14
 1021              	.LVL75:
 986:../../drivers/third_party/ST/STM32L4xx_HAL_Driver/Src/stm32l4xx_hal_pwr_ex.c ****       }
 1022              		.loc 1 986 0
 1023 0040 42BF     		ittt	mi
 1024 0042 596A     		ldrmi	r1, [r3, #36]
 1025 0044 41F02001 		orrmi	r1, r1, #32
 1026 0048 5962     		strmi	r1, [r3, #36]
 990:../../drivers/third_party/ST/STM32L4xx_HAL_Driver/Src/stm32l4xx_hal_pwr_ex.c ****       {
 1027              		.loc 1 990 0
 1028 004a D107     		lsls	r1, r2, #31
 992:../../drivers/third_party/ST/STM32L4xx_HAL_Driver/Src/stm32l4xx_hal_pwr_ex.c ****       }
 1029              		.loc 1 992 0
 1030 004c 42BF     		ittt	mi
 1031 004e 996A     		ldrmi	r1, [r3, #40]
 1032 0050 41F02001 		orrmi	r1, r1, #32
 1033 0054 9962     		strmi	r1, [r3, #40]
 995:../../drivers/third_party/ST/STM32L4xx_HAL_Driver/Src/stm32l4xx_hal_pwr_ex.c ****       {
 1034              		.loc 1 995 0
 1035 0056 9007     		lsls	r0, r2, #30
 1036 0058 01D4     		bmi	.L120
 1037              	.L148:
1038:../../drivers/third_party/ST/STM32L4xx_HAL_Driver/Src/stm32l4xx_hal_pwr_ex.c **** }
 1038              		.loc 1 1038 0
 1039 005a 0020     		movs	r0, #0
 1040 005c 7047     		bx	lr
 1041              	.L120:
 997:../../drivers/third_party/ST/STM32L4xx_HAL_Driver/Src/stm32l4xx_hal_pwr_ex.c ****       }
 1042              		.loc 1 997 0
 1043 005e DA6A     		ldr	r2, [r3, #44]
 1044 0060 42F02002 		orr	r2, r2, #32
 1045              	.L149:
 1046 0064 DA62     		str	r2, [r3, #44]
 1047 0066 F8E7     		b	.L148
 1048              	.LVL76:
 1049              	.L116:
ARM GAS  C:\Users\LuckyE\AppData\Local\Temp\cccYdq5r.s 			page 38


1003:../../drivers/third_party/ST/STM32L4xx_HAL_Driver/Src/stm32l4xx_hal_pwr_ex.c ****       __HAL_PWR_PVM4_EXTI_DISABLE_IT();
 1050              		.loc 1 1003 0
 1051 0068 144B     		ldr	r3, .L150
 1052 006a 5A6A     		ldr	r2, [r3, #36]
 1053 006c 22F04002 		bic	r2, r2, #64
 1054 0070 5A62     		str	r2, [r3, #36]
1004:../../drivers/third_party/ST/STM32L4xx_HAL_Driver/Src/stm32l4xx_hal_pwr_ex.c ****       __HAL_PWR_PVM4_EXTI_DISABLE_FALLING_EDGE(); 
 1055              		.loc 1 1004 0
 1056 0072 1A6A     		ldr	r2, [r3, #32]
 1057 0074 22F04002 		bic	r2, r2, #64
 1058 0078 1A62     		str	r2, [r3, #32]
1005:../../drivers/third_party/ST/STM32L4xx_HAL_Driver/Src/stm32l4xx_hal_pwr_ex.c ****       __HAL_PWR_PVM4_EXTI_DISABLE_RISING_EDGE();
 1059              		.loc 1 1005 0
 1060 007a DA6A     		ldr	r2, [r3, #44]
 1061 007c 22F04002 		bic	r2, r2, #64
 1062 0080 DA62     		str	r2, [r3, #44]
1006:../../drivers/third_party/ST/STM32L4xx_HAL_Driver/Src/stm32l4xx_hal_pwr_ex.c **** 
 1063              		.loc 1 1006 0
 1064 0082 9A6A     		ldr	r2, [r3, #40]
 1065 0084 22F04002 		bic	r2, r2, #64
 1066 0088 9A62     		str	r2, [r3, #40]
1009:../../drivers/third_party/ST/STM32L4xx_HAL_Driver/Src/stm32l4xx_hal_pwr_ex.c ****       {
 1067              		.loc 1 1009 0
 1068 008a 4268     		ldr	r2, [r0, #4]
 1069 008c D103     		lsls	r1, r2, #15
1011:../../drivers/third_party/ST/STM32L4xx_HAL_Driver/Src/stm32l4xx_hal_pwr_ex.c ****       }
 1070              		.loc 1 1011 0
 1071 008e 42BF     		ittt	mi
 1072 0090 196A     		ldrmi	r1, [r3, #32]
 1073 0092 41F04001 		orrmi	r1, r1, #64
 1074 0096 1962     		strmi	r1, [r3, #32]
1015:../../drivers/third_party/ST/STM32L4xx_HAL_Driver/Src/stm32l4xx_hal_pwr_ex.c ****       {
 1075              		.loc 1 1015 0
 1076 0098 9003     		lsls	r0, r2, #14
 1077              	.LVL77:
1017:../../drivers/third_party/ST/STM32L4xx_HAL_Driver/Src/stm32l4xx_hal_pwr_ex.c ****       }
 1078              		.loc 1 1017 0
 1079 009a 42BF     		ittt	mi
 1080 009c 596A     		ldrmi	r1, [r3, #36]
 1081 009e 41F04001 		orrmi	r1, r1, #64
 1082 00a2 5962     		strmi	r1, [r3, #36]
1021:../../drivers/third_party/ST/STM32L4xx_HAL_Driver/Src/stm32l4xx_hal_pwr_ex.c ****       {
 1083              		.loc 1 1021 0
 1084 00a4 D107     		lsls	r1, r2, #31
1023:../../drivers/third_party/ST/STM32L4xx_HAL_Driver/Src/stm32l4xx_hal_pwr_ex.c ****       }
 1085              		.loc 1 1023 0
 1086 00a6 42BF     		ittt	mi
 1087 00a8 996A     		ldrmi	r1, [r3, #40]
 1088 00aa 41F04001 		orrmi	r1, r1, #64
 1089 00ae 9962     		strmi	r1, [r3, #40]
1026:../../drivers/third_party/ST/STM32L4xx_HAL_Driver/Src/stm32l4xx_hal_pwr_ex.c ****       {
 1090              		.loc 1 1026 0
 1091 00b0 9207     		lsls	r2, r2, #30
 1092 00b2 D2D5     		bpl	.L148
1028:../../drivers/third_party/ST/STM32L4xx_HAL_Driver/Src/stm32l4xx_hal_pwr_ex.c ****       }
 1093              		.loc 1 1028 0
 1094 00b4 DA6A     		ldr	r2, [r3, #44]
ARM GAS  C:\Users\LuckyE\AppData\Local\Temp\cccYdq5r.s 			page 39


 1095 00b6 42F04002 		orr	r2, r2, #64
 1096 00ba D3E7     		b	.L149
 1097              	.L151:
 1098              		.align	2
 1099              	.L150:
 1100 00bc 00040140 		.word	1073808384
 1101              		.cfi_endproc
 1102              	.LFE298:
 1104              		.section	.text.HAL_PWREx_EnableLowPowerRunMode,"ax",%progbits
 1105              		.align	1
 1106              		.global	HAL_PWREx_EnableLowPowerRunMode
 1107              		.syntax unified
 1108              		.thumb
 1109              		.thumb_func
 1110              		.fpu fpv4-sp-d16
 1112              	HAL_PWREx_EnableLowPowerRunMode:
 1113              	.LFB299:
1040:../../drivers/third_party/ST/STM32L4xx_HAL_Driver/Src/stm32l4xx_hal_pwr_ex.c **** 
1041:../../drivers/third_party/ST/STM32L4xx_HAL_Driver/Src/stm32l4xx_hal_pwr_ex.c **** 
1042:../../drivers/third_party/ST/STM32L4xx_HAL_Driver/Src/stm32l4xx_hal_pwr_ex.c **** 
1043:../../drivers/third_party/ST/STM32L4xx_HAL_Driver/Src/stm32l4xx_hal_pwr_ex.c **** /**
1044:../../drivers/third_party/ST/STM32L4xx_HAL_Driver/Src/stm32l4xx_hal_pwr_ex.c ****   * @brief Enter Low-power Run mode
1045:../../drivers/third_party/ST/STM32L4xx_HAL_Driver/Src/stm32l4xx_hal_pwr_ex.c ****   * @note  In Low-power Run mode, all I/O pins keep the same state as in Run mode.  
1046:../../drivers/third_party/ST/STM32L4xx_HAL_Driver/Src/stm32l4xx_hal_pwr_ex.c ****   * @note  When Regulator is set to PWR_LOWPOWERREGULATOR_ON, the user can optionally configure the
1047:../../drivers/third_party/ST/STM32L4xx_HAL_Driver/Src/stm32l4xx_hal_pwr_ex.c ****   *        Flash in power-down monde in setting the RUN_PD bit in FLASH_ACR register.
1048:../../drivers/third_party/ST/STM32L4xx_HAL_Driver/Src/stm32l4xx_hal_pwr_ex.c ****   *        Additionally, the clock frequency must be reduced below 2 MHz.
1049:../../drivers/third_party/ST/STM32L4xx_HAL_Driver/Src/stm32l4xx_hal_pwr_ex.c ****   *        Setting RUN_PD in FLASH_ACR then appropriately reducing the clock frequency must 
1050:../../drivers/third_party/ST/STM32L4xx_HAL_Driver/Src/stm32l4xx_hal_pwr_ex.c ****   *        be done before calling HAL_PWREx_EnableLowPowerRunMode() API.     
1051:../../drivers/third_party/ST/STM32L4xx_HAL_Driver/Src/stm32l4xx_hal_pwr_ex.c ****   * @retval None
1052:../../drivers/third_party/ST/STM32L4xx_HAL_Driver/Src/stm32l4xx_hal_pwr_ex.c ****   */
1053:../../drivers/third_party/ST/STM32L4xx_HAL_Driver/Src/stm32l4xx_hal_pwr_ex.c **** void HAL_PWREx_EnableLowPowerRunMode(void)
1054:../../drivers/third_party/ST/STM32L4xx_HAL_Driver/Src/stm32l4xx_hal_pwr_ex.c **** {
 1114              		.loc 1 1054 0
 1115              		.cfi_startproc
 1116              		@ args = 0, pretend = 0, frame = 0
 1117              		@ frame_needed = 0, uses_anonymous_args = 0
 1118              		@ link register save eliminated.
1055:../../drivers/third_party/ST/STM32L4xx_HAL_Driver/Src/stm32l4xx_hal_pwr_ex.c ****   /* Set Regulator parameter */
1056:../../drivers/third_party/ST/STM32L4xx_HAL_Driver/Src/stm32l4xx_hal_pwr_ex.c ****   SET_BIT(PWR->CR1, PWR_CR1_LPR); 
 1119              		.loc 1 1056 0
 1120 0000 024A     		ldr	r2, .L153
 1121 0002 1368     		ldr	r3, [r2]
 1122 0004 43F48043 		orr	r3, r3, #16384
 1123 0008 1360     		str	r3, [r2]
1057:../../drivers/third_party/ST/STM32L4xx_HAL_Driver/Src/stm32l4xx_hal_pwr_ex.c **** }
 1124              		.loc 1 1057 0
 1125 000a 7047     		bx	lr
 1126              	.L154:
 1127              		.align	2
 1128              	.L153:
 1129 000c 00700040 		.word	1073770496
 1130              		.cfi_endproc
 1131              	.LFE299:
 1133              		.section	.text.HAL_PWREx_DisableLowPowerRunMode,"ax",%progbits
 1134              		.align	1
 1135              		.global	HAL_PWREx_DisableLowPowerRunMode
 1136              		.syntax unified
ARM GAS  C:\Users\LuckyE\AppData\Local\Temp\cccYdq5r.s 			page 40


 1137              		.thumb
 1138              		.thumb_func
 1139              		.fpu fpv4-sp-d16
 1141              	HAL_PWREx_DisableLowPowerRunMode:
 1142              	.LFB300:
1058:../../drivers/third_party/ST/STM32L4xx_HAL_Driver/Src/stm32l4xx_hal_pwr_ex.c **** 
1059:../../drivers/third_party/ST/STM32L4xx_HAL_Driver/Src/stm32l4xx_hal_pwr_ex.c **** 
1060:../../drivers/third_party/ST/STM32L4xx_HAL_Driver/Src/stm32l4xx_hal_pwr_ex.c **** /**
1061:../../drivers/third_party/ST/STM32L4xx_HAL_Driver/Src/stm32l4xx_hal_pwr_ex.c ****   * @brief Exit Low-power Run mode.
1062:../../drivers/third_party/ST/STM32L4xx_HAL_Driver/Src/stm32l4xx_hal_pwr_ex.c ****   * @note  Before HAL_PWREx_DisableLowPowerRunMode() completion, the function checks that 
1063:../../drivers/third_party/ST/STM32L4xx_HAL_Driver/Src/stm32l4xx_hal_pwr_ex.c ****   *        REGLPF has been properly reset (otherwise, HAL_PWREx_DisableLowPowerRunMode 
1064:../../drivers/third_party/ST/STM32L4xx_HAL_Driver/Src/stm32l4xx_hal_pwr_ex.c ****   *        returns HAL_TIMEOUT status). The system clock frequency can then be
1065:../../drivers/third_party/ST/STM32L4xx_HAL_Driver/Src/stm32l4xx_hal_pwr_ex.c ****   *        increased above 2 MHz.   
1066:../../drivers/third_party/ST/STM32L4xx_HAL_Driver/Src/stm32l4xx_hal_pwr_ex.c ****   * @retval HAL Status
1067:../../drivers/third_party/ST/STM32L4xx_HAL_Driver/Src/stm32l4xx_hal_pwr_ex.c ****   */
1068:../../drivers/third_party/ST/STM32L4xx_HAL_Driver/Src/stm32l4xx_hal_pwr_ex.c **** HAL_StatusTypeDef HAL_PWREx_DisableLowPowerRunMode(void)
1069:../../drivers/third_party/ST/STM32L4xx_HAL_Driver/Src/stm32l4xx_hal_pwr_ex.c **** {
 1143              		.loc 1 1069 0
 1144              		.cfi_startproc
 1145              		@ args = 0, pretend = 0, frame = 0
 1146              		@ frame_needed = 0, uses_anonymous_args = 0
 1147              		@ link register save eliminated.
 1148              	.LVL78:
1070:../../drivers/third_party/ST/STM32L4xx_HAL_Driver/Src/stm32l4xx_hal_pwr_ex.c ****   uint32_t wait_loop_index = 0;
1071:../../drivers/third_party/ST/STM32L4xx_HAL_Driver/Src/stm32l4xx_hal_pwr_ex.c ****   
1072:../../drivers/third_party/ST/STM32L4xx_HAL_Driver/Src/stm32l4xx_hal_pwr_ex.c ****   /* Clear LPR bit */
1073:../../drivers/third_party/ST/STM32L4xx_HAL_Driver/Src/stm32l4xx_hal_pwr_ex.c ****   CLEAR_BIT(PWR->CR1, PWR_CR1_LPR); 
 1149              		.loc 1 1073 0
 1150 0000 0C4B     		ldr	r3, .L165
1074:../../drivers/third_party/ST/STM32L4xx_HAL_Driver/Src/stm32l4xx_hal_pwr_ex.c **** 
1075:../../drivers/third_party/ST/STM32L4xx_HAL_Driver/Src/stm32l4xx_hal_pwr_ex.c ****   /* Wait until REGLPF is reset */
1076:../../drivers/third_party/ST/STM32L4xx_HAL_Driver/Src/stm32l4xx_hal_pwr_ex.c ****   wait_loop_index = (PWR_FLAG_SETTING_DELAY_US * (SystemCoreClock / 1000000));
 1151              		.loc 1 1076 0
 1152 0002 0D49     		ldr	r1, .L165+4
1073:../../drivers/third_party/ST/STM32L4xx_HAL_Driver/Src/stm32l4xx_hal_pwr_ex.c **** 
 1153              		.loc 1 1073 0
 1154 0004 1A68     		ldr	r2, [r3]
 1155 0006 22F48042 		bic	r2, r2, #16384
 1156 000a 1A60     		str	r2, [r3]
 1157              		.loc 1 1076 0
 1158 000c 0B4A     		ldr	r2, .L165+8
 1159 000e 1268     		ldr	r2, [r2]
 1160 0010 B2FBF1F1 		udiv	r1, r2, r1
 1161 0014 3222     		movs	r2, #50
 1162 0016 4A43     		muls	r2, r1, r2
 1163              	.LVL79:
 1164              	.L156:
1077:../../drivers/third_party/ST/STM32L4xx_HAL_Driver/Src/stm32l4xx_hal_pwr_ex.c ****   while ((wait_loop_index != 0) && (HAL_IS_BIT_SET(PWR->SR2, PWR_SR2_REGLPF)))
 1165              		.loc 1 1077 0
 1166 0018 12B1     		cbz	r2, .L157
 1167              		.loc 1 1077 0 is_stmt 0 discriminator 1
 1168 001a 5969     		ldr	r1, [r3, #20]
 1169 001c 8905     		lsls	r1, r1, #22
 1170 001e 06D4     		bmi	.L158
 1171              	.L157:
1078:../../drivers/third_party/ST/STM32L4xx_HAL_Driver/Src/stm32l4xx_hal_pwr_ex.c ****   {
1079:../../drivers/third_party/ST/STM32L4xx_HAL_Driver/Src/stm32l4xx_hal_pwr_ex.c ****     wait_loop_index--;
ARM GAS  C:\Users\LuckyE\AppData\Local\Temp\cccYdq5r.s 			page 41


1080:../../drivers/third_party/ST/STM32L4xx_HAL_Driver/Src/stm32l4xx_hal_pwr_ex.c ****   }
1081:../../drivers/third_party/ST/STM32L4xx_HAL_Driver/Src/stm32l4xx_hal_pwr_ex.c ****   if (HAL_IS_BIT_SET(PWR->SR2, PWR_SR2_REGLPF))
 1172              		.loc 1 1081 0 is_stmt 1
 1173 0020 5B69     		ldr	r3, [r3, #20]
1082:../../drivers/third_party/ST/STM32L4xx_HAL_Driver/Src/stm32l4xx_hal_pwr_ex.c ****   {
1083:../../drivers/third_party/ST/STM32L4xx_HAL_Driver/Src/stm32l4xx_hal_pwr_ex.c ****     return HAL_TIMEOUT;
1084:../../drivers/third_party/ST/STM32L4xx_HAL_Driver/Src/stm32l4xx_hal_pwr_ex.c ****   }
1085:../../drivers/third_party/ST/STM32L4xx_HAL_Driver/Src/stm32l4xx_hal_pwr_ex.c ****   
1086:../../drivers/third_party/ST/STM32L4xx_HAL_Driver/Src/stm32l4xx_hal_pwr_ex.c ****   return HAL_OK;
 1174              		.loc 1 1086 0
 1175 0022 13F4007F 		tst	r3, #512
1087:../../drivers/third_party/ST/STM32L4xx_HAL_Driver/Src/stm32l4xx_hal_pwr_ex.c **** }
 1176              		.loc 1 1087 0
 1177 0026 14BF     		ite	ne
 1178 0028 0320     		movne	r0, #3
 1179 002a 0020     		moveq	r0, #0
 1180 002c 7047     		bx	lr
 1181              	.L158:
1079:../../drivers/third_party/ST/STM32L4xx_HAL_Driver/Src/stm32l4xx_hal_pwr_ex.c ****   }
 1182              		.loc 1 1079 0
 1183 002e 013A     		subs	r2, r2, #1
 1184              	.LVL80:
 1185 0030 F2E7     		b	.L156
 1186              	.L166:
 1187 0032 00BF     		.align	2
 1188              	.L165:
 1189 0034 00700040 		.word	1073770496
 1190 0038 40420F00 		.word	1000000
 1191 003c 00000000 		.word	SystemCoreClock
 1192              		.cfi_endproc
 1193              	.LFE300:
 1195              		.section	.text.HAL_PWREx_EnterSTOP0Mode,"ax",%progbits
 1196              		.align	1
 1197              		.global	HAL_PWREx_EnterSTOP0Mode
 1198              		.syntax unified
 1199              		.thumb
 1200              		.thumb_func
 1201              		.fpu fpv4-sp-d16
 1203              	HAL_PWREx_EnterSTOP0Mode:
 1204              	.LFB301:
1088:../../drivers/third_party/ST/STM32L4xx_HAL_Driver/Src/stm32l4xx_hal_pwr_ex.c **** 
1089:../../drivers/third_party/ST/STM32L4xx_HAL_Driver/Src/stm32l4xx_hal_pwr_ex.c **** 
1090:../../drivers/third_party/ST/STM32L4xx_HAL_Driver/Src/stm32l4xx_hal_pwr_ex.c **** /**
1091:../../drivers/third_party/ST/STM32L4xx_HAL_Driver/Src/stm32l4xx_hal_pwr_ex.c ****   * @brief Enter Stop 0 mode.
1092:../../drivers/third_party/ST/STM32L4xx_HAL_Driver/Src/stm32l4xx_hal_pwr_ex.c ****   * @note  In Stop 0 mode, main and low voltage regulators are ON.
1093:../../drivers/third_party/ST/STM32L4xx_HAL_Driver/Src/stm32l4xx_hal_pwr_ex.c ****   * @note  In Stop 0 mode, all I/O pins keep the same state as in Run mode.
1094:../../drivers/third_party/ST/STM32L4xx_HAL_Driver/Src/stm32l4xx_hal_pwr_ex.c ****   * @note  All clocks in the VCORE domain are stopped; the PLL, the MSI, 
1095:../../drivers/third_party/ST/STM32L4xx_HAL_Driver/Src/stm32l4xx_hal_pwr_ex.c ****   *        the HSI and the HSE oscillators are disabled. Some peripherals with the wakeup capabilit
1096:../../drivers/third_party/ST/STM32L4xx_HAL_Driver/Src/stm32l4xx_hal_pwr_ex.c ****   *        (I2Cx, USARTx and LPUART) can switch on the HSI to receive a frame, and switch off the H
1097:../../drivers/third_party/ST/STM32L4xx_HAL_Driver/Src/stm32l4xx_hal_pwr_ex.c ****   *        after receiving the frame if it is not a wakeup frame. In this case, the HSI clock is pr
1098:../../drivers/third_party/ST/STM32L4xx_HAL_Driver/Src/stm32l4xx_hal_pwr_ex.c ****   *        only to the peripheral requesting it.
1099:../../drivers/third_party/ST/STM32L4xx_HAL_Driver/Src/stm32l4xx_hal_pwr_ex.c ****   *        SRAM1, SRAM2 and register contents are preserved.
1100:../../drivers/third_party/ST/STM32L4xx_HAL_Driver/Src/stm32l4xx_hal_pwr_ex.c ****   *        The BOR is available.
1101:../../drivers/third_party/ST/STM32L4xx_HAL_Driver/Src/stm32l4xx_hal_pwr_ex.c ****   * @note  When exiting Stop 0 mode by issuing an interrupt or a wakeup event,
1102:../../drivers/third_party/ST/STM32L4xx_HAL_Driver/Src/stm32l4xx_hal_pwr_ex.c ****   *         the HSI RC oscillator is selected as system clock if STOPWUCK bit in RCC_CFGR register
1103:../../drivers/third_party/ST/STM32L4xx_HAL_Driver/Src/stm32l4xx_hal_pwr_ex.c ****   *         is set; the MSI oscillator is selected if STOPWUCK is cleared.  
1104:../../drivers/third_party/ST/STM32L4xx_HAL_Driver/Src/stm32l4xx_hal_pwr_ex.c ****   * @note  By keeping the internal regulator ON during Stop 0 mode, the consumption
ARM GAS  C:\Users\LuckyE\AppData\Local\Temp\cccYdq5r.s 			page 42


1105:../../drivers/third_party/ST/STM32L4xx_HAL_Driver/Src/stm32l4xx_hal_pwr_ex.c ****   *         is higher although the startup time is reduced.
1106:../../drivers/third_party/ST/STM32L4xx_HAL_Driver/Src/stm32l4xx_hal_pwr_ex.c ****   * @param STOPEntry  specifies if Stop mode in entered with WFI or WFE instruction.
1107:../../drivers/third_party/ST/STM32L4xx_HAL_Driver/Src/stm32l4xx_hal_pwr_ex.c ****   *          This parameter can be one of the following values:
1108:../../drivers/third_party/ST/STM32L4xx_HAL_Driver/Src/stm32l4xx_hal_pwr_ex.c ****   *            @arg @ref PWR_STOPENTRY_WFI  Enter Stop mode with WFI instruction
1109:../../drivers/third_party/ST/STM32L4xx_HAL_Driver/Src/stm32l4xx_hal_pwr_ex.c ****   *            @arg @ref PWR_STOPENTRY_WFE  Enter Stop mode with WFE instruction
1110:../../drivers/third_party/ST/STM32L4xx_HAL_Driver/Src/stm32l4xx_hal_pwr_ex.c ****   * @retval None
1111:../../drivers/third_party/ST/STM32L4xx_HAL_Driver/Src/stm32l4xx_hal_pwr_ex.c ****   */
1112:../../drivers/third_party/ST/STM32L4xx_HAL_Driver/Src/stm32l4xx_hal_pwr_ex.c **** void HAL_PWREx_EnterSTOP0Mode(uint8_t STOPEntry)
1113:../../drivers/third_party/ST/STM32L4xx_HAL_Driver/Src/stm32l4xx_hal_pwr_ex.c **** {
 1205              		.loc 1 1113 0
 1206              		.cfi_startproc
 1207              		@ args = 0, pretend = 0, frame = 0
 1208              		@ frame_needed = 0, uses_anonymous_args = 0
 1209              		@ link register save eliminated.
 1210              	.LVL81:
1114:../../drivers/third_party/ST/STM32L4xx_HAL_Driver/Src/stm32l4xx_hal_pwr_ex.c ****   /* Check the parameters */
1115:../../drivers/third_party/ST/STM32L4xx_HAL_Driver/Src/stm32l4xx_hal_pwr_ex.c ****   assert_param(IS_PWR_STOP_ENTRY(STOPEntry));
1116:../../drivers/third_party/ST/STM32L4xx_HAL_Driver/Src/stm32l4xx_hal_pwr_ex.c ****     
1117:../../drivers/third_party/ST/STM32L4xx_HAL_Driver/Src/stm32l4xx_hal_pwr_ex.c ****   /* Stop 0 mode with Main Regulator */
1118:../../drivers/third_party/ST/STM32L4xx_HAL_Driver/Src/stm32l4xx_hal_pwr_ex.c ****   MODIFY_REG(PWR->CR1, PWR_CR1_LPMS, PWR_CR1_LPMS_STOP0);
 1211              		.loc 1 1118 0
 1212 0000 0A4A     		ldr	r2, .L170
 1213 0002 1368     		ldr	r3, [r2]
 1214 0004 23F00703 		bic	r3, r3, #7
 1215 0008 1360     		str	r3, [r2]
1119:../../drivers/third_party/ST/STM32L4xx_HAL_Driver/Src/stm32l4xx_hal_pwr_ex.c **** 
1120:../../drivers/third_party/ST/STM32L4xx_HAL_Driver/Src/stm32l4xx_hal_pwr_ex.c ****   /* Set SLEEPDEEP bit of Cortex System Control Register */
1121:../../drivers/third_party/ST/STM32L4xx_HAL_Driver/Src/stm32l4xx_hal_pwr_ex.c ****   SET_BIT(SCB->SCR, ((uint32_t)SCB_SCR_SLEEPDEEP_Msk));
 1216              		.loc 1 1121 0
 1217 000a 094B     		ldr	r3, .L170+4
 1218 000c 1A69     		ldr	r2, [r3, #16]
1122:../../drivers/third_party/ST/STM32L4xx_HAL_Driver/Src/stm32l4xx_hal_pwr_ex.c **** 
1123:../../drivers/third_party/ST/STM32L4xx_HAL_Driver/Src/stm32l4xx_hal_pwr_ex.c ****   /* Select Stop mode entry --------------------------------------------------*/
1124:../../drivers/third_party/ST/STM32L4xx_HAL_Driver/Src/stm32l4xx_hal_pwr_ex.c ****   if(STOPEntry == PWR_STOPENTRY_WFI)
 1219              		.loc 1 1124 0
 1220 000e 0128     		cmp	r0, #1
1121:../../drivers/third_party/ST/STM32L4xx_HAL_Driver/Src/stm32l4xx_hal_pwr_ex.c **** 
 1221              		.loc 1 1121 0
 1222 0010 42F00402 		orr	r2, r2, #4
 1223 0014 1A61     		str	r2, [r3, #16]
 1224              		.loc 1 1124 0
 1225 0016 05D1     		bne	.L168
1125:../../drivers/third_party/ST/STM32L4xx_HAL_Driver/Src/stm32l4xx_hal_pwr_ex.c ****   {
1126:../../drivers/third_party/ST/STM32L4xx_HAL_Driver/Src/stm32l4xx_hal_pwr_ex.c ****     /* Request Wait For Interrupt */
1127:../../drivers/third_party/ST/STM32L4xx_HAL_Driver/Src/stm32l4xx_hal_pwr_ex.c ****     __WFI();
 1226              		.loc 1 1127 0
 1227              		.syntax unified
 1228              	@ 1127 "../../drivers/third_party/ST/STM32L4xx_HAL_Driver/Src/stm32l4xx_hal_pwr_ex.c" 1
 1229 0018 30BF     		wfi
 1230              	@ 0 "" 2
 1231              		.thumb
 1232              		.syntax unified
 1233              	.L169:
1128:../../drivers/third_party/ST/STM32L4xx_HAL_Driver/Src/stm32l4xx_hal_pwr_ex.c ****   }
1129:../../drivers/third_party/ST/STM32L4xx_HAL_Driver/Src/stm32l4xx_hal_pwr_ex.c ****   else
1130:../../drivers/third_party/ST/STM32L4xx_HAL_Driver/Src/stm32l4xx_hal_pwr_ex.c ****   {
1131:../../drivers/third_party/ST/STM32L4xx_HAL_Driver/Src/stm32l4xx_hal_pwr_ex.c ****     /* Request Wait For Event */
ARM GAS  C:\Users\LuckyE\AppData\Local\Temp\cccYdq5r.s 			page 43


1132:../../drivers/third_party/ST/STM32L4xx_HAL_Driver/Src/stm32l4xx_hal_pwr_ex.c ****     __SEV();
1133:../../drivers/third_party/ST/STM32L4xx_HAL_Driver/Src/stm32l4xx_hal_pwr_ex.c ****     __WFE();
1134:../../drivers/third_party/ST/STM32L4xx_HAL_Driver/Src/stm32l4xx_hal_pwr_ex.c ****     __WFE();
1135:../../drivers/third_party/ST/STM32L4xx_HAL_Driver/Src/stm32l4xx_hal_pwr_ex.c ****   }
1136:../../drivers/third_party/ST/STM32L4xx_HAL_Driver/Src/stm32l4xx_hal_pwr_ex.c **** 
1137:../../drivers/third_party/ST/STM32L4xx_HAL_Driver/Src/stm32l4xx_hal_pwr_ex.c ****   /* Reset SLEEPDEEP bit of Cortex System Control Register */
1138:../../drivers/third_party/ST/STM32L4xx_HAL_Driver/Src/stm32l4xx_hal_pwr_ex.c ****   CLEAR_BIT(SCB->SCR, ((uint32_t)SCB_SCR_SLEEPDEEP_Msk));
 1234              		.loc 1 1138 0
 1235 001a 1A69     		ldr	r2, [r3, #16]
 1236 001c 22F00402 		bic	r2, r2, #4
 1237 0020 1A61     		str	r2, [r3, #16]
1139:../../drivers/third_party/ST/STM32L4xx_HAL_Driver/Src/stm32l4xx_hal_pwr_ex.c **** }
 1238              		.loc 1 1139 0
 1239 0022 7047     		bx	lr
 1240              	.L168:
1132:../../drivers/third_party/ST/STM32L4xx_HAL_Driver/Src/stm32l4xx_hal_pwr_ex.c ****     __WFE();
 1241              		.loc 1 1132 0
 1242              		.syntax unified
 1243              	@ 1132 "../../drivers/third_party/ST/STM32L4xx_HAL_Driver/Src/stm32l4xx_hal_pwr_ex.c" 1
 1244 0024 40BF     		sev
 1245              	@ 0 "" 2
1133:../../drivers/third_party/ST/STM32L4xx_HAL_Driver/Src/stm32l4xx_hal_pwr_ex.c ****     __WFE();
 1246              		.loc 1 1133 0
 1247              	@ 1133 "../../drivers/third_party/ST/STM32L4xx_HAL_Driver/Src/stm32l4xx_hal_pwr_ex.c" 1
 1248 0026 20BF     		wfe
 1249              	@ 0 "" 2
1134:../../drivers/third_party/ST/STM32L4xx_HAL_Driver/Src/stm32l4xx_hal_pwr_ex.c ****   }
 1250              		.loc 1 1134 0
 1251              	@ 1134 "../../drivers/third_party/ST/STM32L4xx_HAL_Driver/Src/stm32l4xx_hal_pwr_ex.c" 1
 1252 0028 20BF     		wfe
 1253              	@ 0 "" 2
 1254              		.thumb
 1255              		.syntax unified
 1256 002a F6E7     		b	.L169
 1257              	.L171:
 1258              		.align	2
 1259              	.L170:
 1260 002c 00700040 		.word	1073770496
 1261 0030 00ED00E0 		.word	-536810240
 1262              		.cfi_endproc
 1263              	.LFE301:
 1265              		.section	.text.HAL_PWREx_EnterSTOP1Mode,"ax",%progbits
 1266              		.align	1
 1267              		.global	HAL_PWREx_EnterSTOP1Mode
 1268              		.syntax unified
 1269              		.thumb
 1270              		.thumb_func
 1271              		.fpu fpv4-sp-d16
 1273              	HAL_PWREx_EnterSTOP1Mode:
 1274              	.LFB302:
1140:../../drivers/third_party/ST/STM32L4xx_HAL_Driver/Src/stm32l4xx_hal_pwr_ex.c **** 
1141:../../drivers/third_party/ST/STM32L4xx_HAL_Driver/Src/stm32l4xx_hal_pwr_ex.c **** 
1142:../../drivers/third_party/ST/STM32L4xx_HAL_Driver/Src/stm32l4xx_hal_pwr_ex.c **** /**
1143:../../drivers/third_party/ST/STM32L4xx_HAL_Driver/Src/stm32l4xx_hal_pwr_ex.c ****   * @brief Enter Stop 1 mode.
1144:../../drivers/third_party/ST/STM32L4xx_HAL_Driver/Src/stm32l4xx_hal_pwr_ex.c ****   * @note  In Stop 1 mode, only low power voltage regulator is ON.
1145:../../drivers/third_party/ST/STM32L4xx_HAL_Driver/Src/stm32l4xx_hal_pwr_ex.c ****   * @note  In Stop 1 mode, all I/O pins keep the same state as in Run mode.
1146:../../drivers/third_party/ST/STM32L4xx_HAL_Driver/Src/stm32l4xx_hal_pwr_ex.c ****   * @note  All clocks in the VCORE domain are stopped; the PLL, the MSI, 
ARM GAS  C:\Users\LuckyE\AppData\Local\Temp\cccYdq5r.s 			page 44


1147:../../drivers/third_party/ST/STM32L4xx_HAL_Driver/Src/stm32l4xx_hal_pwr_ex.c ****   *        the HSI and the HSE oscillators are disabled. Some peripherals with the wakeup capabilit
1148:../../drivers/third_party/ST/STM32L4xx_HAL_Driver/Src/stm32l4xx_hal_pwr_ex.c ****   *        (I2Cx, USARTx and LPUART) can switch on the HSI to receive a frame, and switch off the H
1149:../../drivers/third_party/ST/STM32L4xx_HAL_Driver/Src/stm32l4xx_hal_pwr_ex.c ****   *        after receiving the frame if it is not a wakeup frame. In this case, the HSI clock is pr
1150:../../drivers/third_party/ST/STM32L4xx_HAL_Driver/Src/stm32l4xx_hal_pwr_ex.c ****   *        only to the peripheral requesting it.
1151:../../drivers/third_party/ST/STM32L4xx_HAL_Driver/Src/stm32l4xx_hal_pwr_ex.c ****   *        SRAM1, SRAM2 and register contents are preserved.
1152:../../drivers/third_party/ST/STM32L4xx_HAL_Driver/Src/stm32l4xx_hal_pwr_ex.c ****   *        The BOR is available.
1153:../../drivers/third_party/ST/STM32L4xx_HAL_Driver/Src/stm32l4xx_hal_pwr_ex.c ****   * @note  When exiting Stop 1 mode by issuing an interrupt or a wakeup event,
1154:../../drivers/third_party/ST/STM32L4xx_HAL_Driver/Src/stm32l4xx_hal_pwr_ex.c ****   *         the HSI RC oscillator is selected as system clock if STOPWUCK bit in RCC_CFGR register
1155:../../drivers/third_party/ST/STM32L4xx_HAL_Driver/Src/stm32l4xx_hal_pwr_ex.c ****   *         is set; the MSI oscillator is selected if STOPWUCK is cleared.  
1156:../../drivers/third_party/ST/STM32L4xx_HAL_Driver/Src/stm32l4xx_hal_pwr_ex.c ****   * @note  Due to low power mode, an additional startup delay is incurred when waking up from Stop 
1157:../../drivers/third_party/ST/STM32L4xx_HAL_Driver/Src/stm32l4xx_hal_pwr_ex.c ****   * @param STOPEntry  specifies if Stop mode in entered with WFI or WFE instruction.
1158:../../drivers/third_party/ST/STM32L4xx_HAL_Driver/Src/stm32l4xx_hal_pwr_ex.c ****   *          This parameter can be one of the following values:
1159:../../drivers/third_party/ST/STM32L4xx_HAL_Driver/Src/stm32l4xx_hal_pwr_ex.c ****   *            @arg @ref PWR_STOPENTRY_WFI  Enter Stop mode with WFI instruction
1160:../../drivers/third_party/ST/STM32L4xx_HAL_Driver/Src/stm32l4xx_hal_pwr_ex.c ****   *            @arg @ref PWR_STOPENTRY_WFE  Enter Stop mode with WFE instruction
1161:../../drivers/third_party/ST/STM32L4xx_HAL_Driver/Src/stm32l4xx_hal_pwr_ex.c ****   * @retval None
1162:../../drivers/third_party/ST/STM32L4xx_HAL_Driver/Src/stm32l4xx_hal_pwr_ex.c ****   */
1163:../../drivers/third_party/ST/STM32L4xx_HAL_Driver/Src/stm32l4xx_hal_pwr_ex.c **** void HAL_PWREx_EnterSTOP1Mode(uint8_t STOPEntry)
1164:../../drivers/third_party/ST/STM32L4xx_HAL_Driver/Src/stm32l4xx_hal_pwr_ex.c **** {
 1275              		.loc 1 1164 0
 1276              		.cfi_startproc
 1277              		@ args = 0, pretend = 0, frame = 0
 1278              		@ frame_needed = 0, uses_anonymous_args = 0
 1279              		@ link register save eliminated.
 1280              	.LVL82:
1165:../../drivers/third_party/ST/STM32L4xx_HAL_Driver/Src/stm32l4xx_hal_pwr_ex.c ****   /* Check the parameters */
1166:../../drivers/third_party/ST/STM32L4xx_HAL_Driver/Src/stm32l4xx_hal_pwr_ex.c ****   assert_param(IS_PWR_STOP_ENTRY(STOPEntry));
1167:../../drivers/third_party/ST/STM32L4xx_HAL_Driver/Src/stm32l4xx_hal_pwr_ex.c ****     
1168:../../drivers/third_party/ST/STM32L4xx_HAL_Driver/Src/stm32l4xx_hal_pwr_ex.c ****   /* Stop 1 mode with Low-Power Regulator */
1169:../../drivers/third_party/ST/STM32L4xx_HAL_Driver/Src/stm32l4xx_hal_pwr_ex.c ****   MODIFY_REG(PWR->CR1, PWR_CR1_LPMS, PWR_CR1_LPMS_STOP1);
 1281              		.loc 1 1169 0
 1282 0000 0B4A     		ldr	r2, .L175
 1283 0002 1368     		ldr	r3, [r2]
 1284 0004 23F00703 		bic	r3, r3, #7
 1285 0008 43F00103 		orr	r3, r3, #1
 1286 000c 1360     		str	r3, [r2]
1170:../../drivers/third_party/ST/STM32L4xx_HAL_Driver/Src/stm32l4xx_hal_pwr_ex.c **** 
1171:../../drivers/third_party/ST/STM32L4xx_HAL_Driver/Src/stm32l4xx_hal_pwr_ex.c ****   /* Set SLEEPDEEP bit of Cortex System Control Register */
1172:../../drivers/third_party/ST/STM32L4xx_HAL_Driver/Src/stm32l4xx_hal_pwr_ex.c ****   SET_BIT(SCB->SCR, ((uint32_t)SCB_SCR_SLEEPDEEP_Msk));
 1287              		.loc 1 1172 0
 1288 000e 094B     		ldr	r3, .L175+4
 1289 0010 1A69     		ldr	r2, [r3, #16]
1173:../../drivers/third_party/ST/STM32L4xx_HAL_Driver/Src/stm32l4xx_hal_pwr_ex.c **** 
1174:../../drivers/third_party/ST/STM32L4xx_HAL_Driver/Src/stm32l4xx_hal_pwr_ex.c ****   /* Select Stop mode entry --------------------------------------------------*/
1175:../../drivers/third_party/ST/STM32L4xx_HAL_Driver/Src/stm32l4xx_hal_pwr_ex.c ****   if(STOPEntry == PWR_STOPENTRY_WFI)
 1290              		.loc 1 1175 0
 1291 0012 0128     		cmp	r0, #1
1172:../../drivers/third_party/ST/STM32L4xx_HAL_Driver/Src/stm32l4xx_hal_pwr_ex.c **** 
 1292              		.loc 1 1172 0
 1293 0014 42F00402 		orr	r2, r2, #4
 1294 0018 1A61     		str	r2, [r3, #16]
 1295              		.loc 1 1175 0
 1296 001a 05D1     		bne	.L173
1176:../../drivers/third_party/ST/STM32L4xx_HAL_Driver/Src/stm32l4xx_hal_pwr_ex.c ****   {
1177:../../drivers/third_party/ST/STM32L4xx_HAL_Driver/Src/stm32l4xx_hal_pwr_ex.c ****     /* Request Wait For Interrupt */
1178:../../drivers/third_party/ST/STM32L4xx_HAL_Driver/Src/stm32l4xx_hal_pwr_ex.c ****     __WFI();
 1297              		.loc 1 1178 0
 1298              		.syntax unified
ARM GAS  C:\Users\LuckyE\AppData\Local\Temp\cccYdq5r.s 			page 45


 1299              	@ 1178 "../../drivers/third_party/ST/STM32L4xx_HAL_Driver/Src/stm32l4xx_hal_pwr_ex.c" 1
 1300 001c 30BF     		wfi
 1301              	@ 0 "" 2
 1302              		.thumb
 1303              		.syntax unified
 1304              	.L174:
1179:../../drivers/third_party/ST/STM32L4xx_HAL_Driver/Src/stm32l4xx_hal_pwr_ex.c ****   }
1180:../../drivers/third_party/ST/STM32L4xx_HAL_Driver/Src/stm32l4xx_hal_pwr_ex.c ****   else
1181:../../drivers/third_party/ST/STM32L4xx_HAL_Driver/Src/stm32l4xx_hal_pwr_ex.c ****   {
1182:../../drivers/third_party/ST/STM32L4xx_HAL_Driver/Src/stm32l4xx_hal_pwr_ex.c ****     /* Request Wait For Event */
1183:../../drivers/third_party/ST/STM32L4xx_HAL_Driver/Src/stm32l4xx_hal_pwr_ex.c ****     __SEV();
1184:../../drivers/third_party/ST/STM32L4xx_HAL_Driver/Src/stm32l4xx_hal_pwr_ex.c ****     __WFE();
1185:../../drivers/third_party/ST/STM32L4xx_HAL_Driver/Src/stm32l4xx_hal_pwr_ex.c ****     __WFE();
1186:../../drivers/third_party/ST/STM32L4xx_HAL_Driver/Src/stm32l4xx_hal_pwr_ex.c ****   }
1187:../../drivers/third_party/ST/STM32L4xx_HAL_Driver/Src/stm32l4xx_hal_pwr_ex.c **** 
1188:../../drivers/third_party/ST/STM32L4xx_HAL_Driver/Src/stm32l4xx_hal_pwr_ex.c ****   /* Reset SLEEPDEEP bit of Cortex System Control Register */
1189:../../drivers/third_party/ST/STM32L4xx_HAL_Driver/Src/stm32l4xx_hal_pwr_ex.c ****   CLEAR_BIT(SCB->SCR, ((uint32_t)SCB_SCR_SLEEPDEEP_Msk));
 1305              		.loc 1 1189 0
 1306 001e 1A69     		ldr	r2, [r3, #16]
 1307 0020 22F00402 		bic	r2, r2, #4
 1308 0024 1A61     		str	r2, [r3, #16]
1190:../../drivers/third_party/ST/STM32L4xx_HAL_Driver/Src/stm32l4xx_hal_pwr_ex.c **** }
 1309              		.loc 1 1190 0
 1310 0026 7047     		bx	lr
 1311              	.L173:
1183:../../drivers/third_party/ST/STM32L4xx_HAL_Driver/Src/stm32l4xx_hal_pwr_ex.c ****     __WFE();
 1312              		.loc 1 1183 0
 1313              		.syntax unified
 1314              	@ 1183 "../../drivers/third_party/ST/STM32L4xx_HAL_Driver/Src/stm32l4xx_hal_pwr_ex.c" 1
 1315 0028 40BF     		sev
 1316              	@ 0 "" 2
1184:../../drivers/third_party/ST/STM32L4xx_HAL_Driver/Src/stm32l4xx_hal_pwr_ex.c ****     __WFE();
 1317              		.loc 1 1184 0
 1318              	@ 1184 "../../drivers/third_party/ST/STM32L4xx_HAL_Driver/Src/stm32l4xx_hal_pwr_ex.c" 1
 1319 002a 20BF     		wfe
 1320              	@ 0 "" 2
1185:../../drivers/third_party/ST/STM32L4xx_HAL_Driver/Src/stm32l4xx_hal_pwr_ex.c ****   }
 1321              		.loc 1 1185 0
 1322              	@ 1185 "../../drivers/third_party/ST/STM32L4xx_HAL_Driver/Src/stm32l4xx_hal_pwr_ex.c" 1
 1323 002c 20BF     		wfe
 1324              	@ 0 "" 2
 1325              		.thumb
 1326              		.syntax unified
 1327 002e F6E7     		b	.L174
 1328              	.L176:
 1329              		.align	2
 1330              	.L175:
 1331 0030 00700040 		.word	1073770496
 1332 0034 00ED00E0 		.word	-536810240
 1333              		.cfi_endproc
 1334              	.LFE302:
 1336              		.section	.text.HAL_PWREx_EnterSTOP2Mode,"ax",%progbits
 1337              		.align	1
 1338              		.global	HAL_PWREx_EnterSTOP2Mode
 1339              		.syntax unified
 1340              		.thumb
 1341              		.thumb_func
ARM GAS  C:\Users\LuckyE\AppData\Local\Temp\cccYdq5r.s 			page 46


 1342              		.fpu fpv4-sp-d16
 1344              	HAL_PWREx_EnterSTOP2Mode:
 1345              	.LFB303:
1191:../../drivers/third_party/ST/STM32L4xx_HAL_Driver/Src/stm32l4xx_hal_pwr_ex.c **** 
1192:../../drivers/third_party/ST/STM32L4xx_HAL_Driver/Src/stm32l4xx_hal_pwr_ex.c **** 
1193:../../drivers/third_party/ST/STM32L4xx_HAL_Driver/Src/stm32l4xx_hal_pwr_ex.c **** /**
1194:../../drivers/third_party/ST/STM32L4xx_HAL_Driver/Src/stm32l4xx_hal_pwr_ex.c ****   * @brief Enter Stop 2 mode.
1195:../../drivers/third_party/ST/STM32L4xx_HAL_Driver/Src/stm32l4xx_hal_pwr_ex.c ****   * @note  In Stop 2 mode, only low power voltage regulator is ON.
1196:../../drivers/third_party/ST/STM32L4xx_HAL_Driver/Src/stm32l4xx_hal_pwr_ex.c ****   * @note  In Stop 2 mode, all I/O pins keep the same state as in Run mode.
1197:../../drivers/third_party/ST/STM32L4xx_HAL_Driver/Src/stm32l4xx_hal_pwr_ex.c ****   * @note  All clocks in the VCORE domain are stopped, the PLL, the MSI, 
1198:../../drivers/third_party/ST/STM32L4xx_HAL_Driver/Src/stm32l4xx_hal_pwr_ex.c ****   *        the HSI and the HSE oscillators are disabled. Some peripherals with wakeup capability 
1199:../../drivers/third_party/ST/STM32L4xx_HAL_Driver/Src/stm32l4xx_hal_pwr_ex.c ****   *        (LCD, LPTIM1, I2C3 and LPUART) can switch on the HSI to receive a frame, and switch off 
1200:../../drivers/third_party/ST/STM32L4xx_HAL_Driver/Src/stm32l4xx_hal_pwr_ex.c ****   *        receiving the frame if it is not a wakeup frame. In this case the HSI clock is propagate
1201:../../drivers/third_party/ST/STM32L4xx_HAL_Driver/Src/stm32l4xx_hal_pwr_ex.c ****   *        to the peripheral requesting it.
1202:../../drivers/third_party/ST/STM32L4xx_HAL_Driver/Src/stm32l4xx_hal_pwr_ex.c ****   *        SRAM1, SRAM2 and register contents are preserved.
1203:../../drivers/third_party/ST/STM32L4xx_HAL_Driver/Src/stm32l4xx_hal_pwr_ex.c ****   *        The BOR is available.   
1204:../../drivers/third_party/ST/STM32L4xx_HAL_Driver/Src/stm32l4xx_hal_pwr_ex.c ****   *        The voltage regulator is set in low-power mode but LPR bit must be cleared to enter stop
1205:../../drivers/third_party/ST/STM32L4xx_HAL_Driver/Src/stm32l4xx_hal_pwr_ex.c ****   *        Otherwise, Stop 1 mode is entered.  
1206:../../drivers/third_party/ST/STM32L4xx_HAL_Driver/Src/stm32l4xx_hal_pwr_ex.c ****   * @note  When exiting Stop 2 mode by issuing an interrupt or a wakeup event,
1207:../../drivers/third_party/ST/STM32L4xx_HAL_Driver/Src/stm32l4xx_hal_pwr_ex.c ****   *         the HSI RC oscillator is selected as system clock if STOPWUCK bit in RCC_CFGR register
1208:../../drivers/third_party/ST/STM32L4xx_HAL_Driver/Src/stm32l4xx_hal_pwr_ex.c ****   *         is set; the MSI oscillator is selected if STOPWUCK is cleared.     
1209:../../drivers/third_party/ST/STM32L4xx_HAL_Driver/Src/stm32l4xx_hal_pwr_ex.c ****   * @param STOPEntry  specifies if Stop mode in entered with WFI or WFE instruction.
1210:../../drivers/third_party/ST/STM32L4xx_HAL_Driver/Src/stm32l4xx_hal_pwr_ex.c ****   *          This parameter can be one of the following values:
1211:../../drivers/third_party/ST/STM32L4xx_HAL_Driver/Src/stm32l4xx_hal_pwr_ex.c ****   *            @arg @ref PWR_STOPENTRY_WFI  Enter Stop mode with WFI instruction
1212:../../drivers/third_party/ST/STM32L4xx_HAL_Driver/Src/stm32l4xx_hal_pwr_ex.c ****   *            @arg @ref PWR_STOPENTRY_WFE  Enter Stop mode with WFE instruction
1213:../../drivers/third_party/ST/STM32L4xx_HAL_Driver/Src/stm32l4xx_hal_pwr_ex.c ****   * @retval None
1214:../../drivers/third_party/ST/STM32L4xx_HAL_Driver/Src/stm32l4xx_hal_pwr_ex.c ****   */
1215:../../drivers/third_party/ST/STM32L4xx_HAL_Driver/Src/stm32l4xx_hal_pwr_ex.c **** void HAL_PWREx_EnterSTOP2Mode(uint8_t STOPEntry)
1216:../../drivers/third_party/ST/STM32L4xx_HAL_Driver/Src/stm32l4xx_hal_pwr_ex.c **** {
 1346              		.loc 1 1216 0
 1347              		.cfi_startproc
 1348              		@ args = 0, pretend = 0, frame = 0
 1349              		@ frame_needed = 0, uses_anonymous_args = 0
 1350              		@ link register save eliminated.
 1351              	.LVL83:
1217:../../drivers/third_party/ST/STM32L4xx_HAL_Driver/Src/stm32l4xx_hal_pwr_ex.c ****   /* Check the parameter */
1218:../../drivers/third_party/ST/STM32L4xx_HAL_Driver/Src/stm32l4xx_hal_pwr_ex.c ****   assert_param(IS_PWR_STOP_ENTRY(STOPEntry));
1219:../../drivers/third_party/ST/STM32L4xx_HAL_Driver/Src/stm32l4xx_hal_pwr_ex.c **** 
1220:../../drivers/third_party/ST/STM32L4xx_HAL_Driver/Src/stm32l4xx_hal_pwr_ex.c ****   /* Set Stop mode 2 */
1221:../../drivers/third_party/ST/STM32L4xx_HAL_Driver/Src/stm32l4xx_hal_pwr_ex.c ****   MODIFY_REG(PWR->CR1, PWR_CR1_LPMS, PWR_CR1_LPMS_STOP2);
 1352              		.loc 1 1221 0
 1353 0000 0B4A     		ldr	r2, .L180
 1354 0002 1368     		ldr	r3, [r2]
 1355 0004 23F00703 		bic	r3, r3, #7
 1356 0008 43F00203 		orr	r3, r3, #2
 1357 000c 1360     		str	r3, [r2]
1222:../../drivers/third_party/ST/STM32L4xx_HAL_Driver/Src/stm32l4xx_hal_pwr_ex.c **** 
1223:../../drivers/third_party/ST/STM32L4xx_HAL_Driver/Src/stm32l4xx_hal_pwr_ex.c ****   /* Set SLEEPDEEP bit of Cortex System Control Register */
1224:../../drivers/third_party/ST/STM32L4xx_HAL_Driver/Src/stm32l4xx_hal_pwr_ex.c ****   SET_BIT(SCB->SCR, ((uint32_t)SCB_SCR_SLEEPDEEP_Msk));
 1358              		.loc 1 1224 0
 1359 000e 094B     		ldr	r3, .L180+4
 1360 0010 1A69     		ldr	r2, [r3, #16]
1225:../../drivers/third_party/ST/STM32L4xx_HAL_Driver/Src/stm32l4xx_hal_pwr_ex.c **** 
1226:../../drivers/third_party/ST/STM32L4xx_HAL_Driver/Src/stm32l4xx_hal_pwr_ex.c ****   /* Select Stop mode entry --------------------------------------------------*/
1227:../../drivers/third_party/ST/STM32L4xx_HAL_Driver/Src/stm32l4xx_hal_pwr_ex.c ****   if(STOPEntry == PWR_STOPENTRY_WFI)
 1361              		.loc 1 1227 0
 1362 0012 0128     		cmp	r0, #1
ARM GAS  C:\Users\LuckyE\AppData\Local\Temp\cccYdq5r.s 			page 47


1224:../../drivers/third_party/ST/STM32L4xx_HAL_Driver/Src/stm32l4xx_hal_pwr_ex.c **** 
 1363              		.loc 1 1224 0
 1364 0014 42F00402 		orr	r2, r2, #4
 1365 0018 1A61     		str	r2, [r3, #16]
 1366              		.loc 1 1227 0
 1367 001a 05D1     		bne	.L178
1228:../../drivers/third_party/ST/STM32L4xx_HAL_Driver/Src/stm32l4xx_hal_pwr_ex.c ****   {
1229:../../drivers/third_party/ST/STM32L4xx_HAL_Driver/Src/stm32l4xx_hal_pwr_ex.c ****     /* Request Wait For Interrupt */
1230:../../drivers/third_party/ST/STM32L4xx_HAL_Driver/Src/stm32l4xx_hal_pwr_ex.c ****     __WFI();
 1368              		.loc 1 1230 0
 1369              		.syntax unified
 1370              	@ 1230 "../../drivers/third_party/ST/STM32L4xx_HAL_Driver/Src/stm32l4xx_hal_pwr_ex.c" 1
 1371 001c 30BF     		wfi
 1372              	@ 0 "" 2
 1373              		.thumb
 1374              		.syntax unified
 1375              	.L179:
1231:../../drivers/third_party/ST/STM32L4xx_HAL_Driver/Src/stm32l4xx_hal_pwr_ex.c ****   }
1232:../../drivers/third_party/ST/STM32L4xx_HAL_Driver/Src/stm32l4xx_hal_pwr_ex.c ****   else
1233:../../drivers/third_party/ST/STM32L4xx_HAL_Driver/Src/stm32l4xx_hal_pwr_ex.c ****   {
1234:../../drivers/third_party/ST/STM32L4xx_HAL_Driver/Src/stm32l4xx_hal_pwr_ex.c ****     /* Request Wait For Event */
1235:../../drivers/third_party/ST/STM32L4xx_HAL_Driver/Src/stm32l4xx_hal_pwr_ex.c ****     __SEV();
1236:../../drivers/third_party/ST/STM32L4xx_HAL_Driver/Src/stm32l4xx_hal_pwr_ex.c ****     __WFE();
1237:../../drivers/third_party/ST/STM32L4xx_HAL_Driver/Src/stm32l4xx_hal_pwr_ex.c ****     __WFE();
1238:../../drivers/third_party/ST/STM32L4xx_HAL_Driver/Src/stm32l4xx_hal_pwr_ex.c ****   }
1239:../../drivers/third_party/ST/STM32L4xx_HAL_Driver/Src/stm32l4xx_hal_pwr_ex.c **** 
1240:../../drivers/third_party/ST/STM32L4xx_HAL_Driver/Src/stm32l4xx_hal_pwr_ex.c ****   /* Reset SLEEPDEEP bit of Cortex System Control Register */
1241:../../drivers/third_party/ST/STM32L4xx_HAL_Driver/Src/stm32l4xx_hal_pwr_ex.c ****   CLEAR_BIT(SCB->SCR, ((uint32_t)SCB_SCR_SLEEPDEEP_Msk));
 1376              		.loc 1 1241 0
 1377 001e 1A69     		ldr	r2, [r3, #16]
 1378 0020 22F00402 		bic	r2, r2, #4
 1379 0024 1A61     		str	r2, [r3, #16]
1242:../../drivers/third_party/ST/STM32L4xx_HAL_Driver/Src/stm32l4xx_hal_pwr_ex.c **** }
 1380              		.loc 1 1242 0
 1381 0026 7047     		bx	lr
 1382              	.L178:
1235:../../drivers/third_party/ST/STM32L4xx_HAL_Driver/Src/stm32l4xx_hal_pwr_ex.c ****     __WFE();
 1383              		.loc 1 1235 0
 1384              		.syntax unified
 1385              	@ 1235 "../../drivers/third_party/ST/STM32L4xx_HAL_Driver/Src/stm32l4xx_hal_pwr_ex.c" 1
 1386 0028 40BF     		sev
 1387              	@ 0 "" 2
1236:../../drivers/third_party/ST/STM32L4xx_HAL_Driver/Src/stm32l4xx_hal_pwr_ex.c ****     __WFE();
 1388              		.loc 1 1236 0
 1389              	@ 1236 "../../drivers/third_party/ST/STM32L4xx_HAL_Driver/Src/stm32l4xx_hal_pwr_ex.c" 1
 1390 002a 20BF     		wfe
 1391              	@ 0 "" 2
1237:../../drivers/third_party/ST/STM32L4xx_HAL_Driver/Src/stm32l4xx_hal_pwr_ex.c ****   }
 1392              		.loc 1 1237 0
 1393              	@ 1237 "../../drivers/third_party/ST/STM32L4xx_HAL_Driver/Src/stm32l4xx_hal_pwr_ex.c" 1
 1394 002c 20BF     		wfe
 1395              	@ 0 "" 2
 1396              		.thumb
 1397              		.syntax unified
 1398 002e F6E7     		b	.L179
 1399              	.L181:
 1400              		.align	2
ARM GAS  C:\Users\LuckyE\AppData\Local\Temp\cccYdq5r.s 			page 48


 1401              	.L180:
 1402 0030 00700040 		.word	1073770496
 1403 0034 00ED00E0 		.word	-536810240
 1404              		.cfi_endproc
 1405              	.LFE303:
 1407              		.section	.text.HAL_PWREx_EnterSHUTDOWNMode,"ax",%progbits
 1408              		.align	1
 1409              		.global	HAL_PWREx_EnterSHUTDOWNMode
 1410              		.syntax unified
 1411              		.thumb
 1412              		.thumb_func
 1413              		.fpu fpv4-sp-d16
 1415              	HAL_PWREx_EnterSHUTDOWNMode:
 1416              	.LFB304:
1243:../../drivers/third_party/ST/STM32L4xx_HAL_Driver/Src/stm32l4xx_hal_pwr_ex.c **** 
1244:../../drivers/third_party/ST/STM32L4xx_HAL_Driver/Src/stm32l4xx_hal_pwr_ex.c **** 
1245:../../drivers/third_party/ST/STM32L4xx_HAL_Driver/Src/stm32l4xx_hal_pwr_ex.c **** 
1246:../../drivers/third_party/ST/STM32L4xx_HAL_Driver/Src/stm32l4xx_hal_pwr_ex.c **** 
1247:../../drivers/third_party/ST/STM32L4xx_HAL_Driver/Src/stm32l4xx_hal_pwr_ex.c **** 
1248:../../drivers/third_party/ST/STM32L4xx_HAL_Driver/Src/stm32l4xx_hal_pwr_ex.c **** /**
1249:../../drivers/third_party/ST/STM32L4xx_HAL_Driver/Src/stm32l4xx_hal_pwr_ex.c ****   * @brief Enter Shutdown mode. 
1250:../../drivers/third_party/ST/STM32L4xx_HAL_Driver/Src/stm32l4xx_hal_pwr_ex.c ****   * @note  In Shutdown mode, the PLL, the HSI, the MSI, the LSI and the HSE oscillators are switche
1251:../../drivers/third_party/ST/STM32L4xx_HAL_Driver/Src/stm32l4xx_hal_pwr_ex.c ****   *        off. The voltage regulator is disabled and Vcore domain is powered off. 
1252:../../drivers/third_party/ST/STM32L4xx_HAL_Driver/Src/stm32l4xx_hal_pwr_ex.c ****   *        SRAM1, SRAM2 and registers contents are lost except for registers in the Backup domain.
1253:../../drivers/third_party/ST/STM32L4xx_HAL_Driver/Src/stm32l4xx_hal_pwr_ex.c ****   *        The BOR is not available.  
1254:../../drivers/third_party/ST/STM32L4xx_HAL_Driver/Src/stm32l4xx_hal_pwr_ex.c ****   * @note  The I/Os can be configured either with a pull-up or pull-down or can be kept in analog s
1255:../../drivers/third_party/ST/STM32L4xx_HAL_Driver/Src/stm32l4xx_hal_pwr_ex.c ****   * @retval None
1256:../../drivers/third_party/ST/STM32L4xx_HAL_Driver/Src/stm32l4xx_hal_pwr_ex.c ****   */
1257:../../drivers/third_party/ST/STM32L4xx_HAL_Driver/Src/stm32l4xx_hal_pwr_ex.c **** void HAL_PWREx_EnterSHUTDOWNMode(void)
1258:../../drivers/third_party/ST/STM32L4xx_HAL_Driver/Src/stm32l4xx_hal_pwr_ex.c **** {
 1417              		.loc 1 1258 0
 1418              		.cfi_startproc
 1419              		@ args = 0, pretend = 0, frame = 0
 1420              		@ frame_needed = 0, uses_anonymous_args = 0
 1421              		@ link register save eliminated.
1259:../../drivers/third_party/ST/STM32L4xx_HAL_Driver/Src/stm32l4xx_hal_pwr_ex.c ****   
1260:../../drivers/third_party/ST/STM32L4xx_HAL_Driver/Src/stm32l4xx_hal_pwr_ex.c ****   /* Set Shutdown mode */
1261:../../drivers/third_party/ST/STM32L4xx_HAL_Driver/Src/stm32l4xx_hal_pwr_ex.c ****   MODIFY_REG(PWR->CR1, PWR_CR1_LPMS, PWR_CR1_LPMS_SHUTDOWN);
 1422              		.loc 1 1261 0
 1423 0000 064A     		ldr	r2, .L183
 1424 0002 1368     		ldr	r3, [r2]
 1425 0004 23F00703 		bic	r3, r3, #7
 1426 0008 43F00403 		orr	r3, r3, #4
 1427 000c 1360     		str	r3, [r2]
1262:../../drivers/third_party/ST/STM32L4xx_HAL_Driver/Src/stm32l4xx_hal_pwr_ex.c ****   
1263:../../drivers/third_party/ST/STM32L4xx_HAL_Driver/Src/stm32l4xx_hal_pwr_ex.c ****   /* Set SLEEPDEEP bit of Cortex System Control Register */
1264:../../drivers/third_party/ST/STM32L4xx_HAL_Driver/Src/stm32l4xx_hal_pwr_ex.c ****   SET_BIT(SCB->SCR, ((uint32_t)SCB_SCR_SLEEPDEEP_Msk));
 1428              		.loc 1 1264 0
 1429 000e 044A     		ldr	r2, .L183+4
 1430 0010 1369     		ldr	r3, [r2, #16]
 1431 0012 43F00403 		orr	r3, r3, #4
 1432 0016 1361     		str	r3, [r2, #16]
1265:../../drivers/third_party/ST/STM32L4xx_HAL_Driver/Src/stm32l4xx_hal_pwr_ex.c **** 
1266:../../drivers/third_party/ST/STM32L4xx_HAL_Driver/Src/stm32l4xx_hal_pwr_ex.c **** /* This option is used to ensure that store operations are completed */
1267:../../drivers/third_party/ST/STM32L4xx_HAL_Driver/Src/stm32l4xx_hal_pwr_ex.c **** #if defined ( __CC_ARM)
1268:../../drivers/third_party/ST/STM32L4xx_HAL_Driver/Src/stm32l4xx_hal_pwr_ex.c ****   __force_stores();
1269:../../drivers/third_party/ST/STM32L4xx_HAL_Driver/Src/stm32l4xx_hal_pwr_ex.c **** #endif
ARM GAS  C:\Users\LuckyE\AppData\Local\Temp\cccYdq5r.s 			page 49


1270:../../drivers/third_party/ST/STM32L4xx_HAL_Driver/Src/stm32l4xx_hal_pwr_ex.c ****   /* Request Wait For Interrupt */
1271:../../drivers/third_party/ST/STM32L4xx_HAL_Driver/Src/stm32l4xx_hal_pwr_ex.c ****   __WFI();
 1433              		.loc 1 1271 0
 1434              		.syntax unified
 1435              	@ 1271 "../../drivers/third_party/ST/STM32L4xx_HAL_Driver/Src/stm32l4xx_hal_pwr_ex.c" 1
 1436 0018 30BF     		wfi
 1437              	@ 0 "" 2
1272:../../drivers/third_party/ST/STM32L4xx_HAL_Driver/Src/stm32l4xx_hal_pwr_ex.c **** }
 1438              		.loc 1 1272 0
 1439              		.thumb
 1440              		.syntax unified
 1441 001a 7047     		bx	lr
 1442              	.L184:
 1443              		.align	2
 1444              	.L183:
 1445 001c 00700040 		.word	1073770496
 1446 0020 00ED00E0 		.word	-536810240
 1447              		.cfi_endproc
 1448              	.LFE304:
 1450              		.section	.text.HAL_PWREx_PVM3Callback,"ax",%progbits
 1451              		.align	1
 1452              		.weak	HAL_PWREx_PVM3Callback
 1453              		.syntax unified
 1454              		.thumb
 1455              		.thumb_func
 1456              		.fpu fpv4-sp-d16
 1458              	HAL_PWREx_PVM3Callback:
 1459              	.LFB306:
1273:../../drivers/third_party/ST/STM32L4xx_HAL_Driver/Src/stm32l4xx_hal_pwr_ex.c **** 
1274:../../drivers/third_party/ST/STM32L4xx_HAL_Driver/Src/stm32l4xx_hal_pwr_ex.c **** 
1275:../../drivers/third_party/ST/STM32L4xx_HAL_Driver/Src/stm32l4xx_hal_pwr_ex.c **** 
1276:../../drivers/third_party/ST/STM32L4xx_HAL_Driver/Src/stm32l4xx_hal_pwr_ex.c **** 
1277:../../drivers/third_party/ST/STM32L4xx_HAL_Driver/Src/stm32l4xx_hal_pwr_ex.c **** /**
1278:../../drivers/third_party/ST/STM32L4xx_HAL_Driver/Src/stm32l4xx_hal_pwr_ex.c ****   * @brief This function handles the PWR PVD/PVMx interrupt request.
1279:../../drivers/third_party/ST/STM32L4xx_HAL_Driver/Src/stm32l4xx_hal_pwr_ex.c ****   * @note This API should be called under the PVD_PVM_IRQHandler().  
1280:../../drivers/third_party/ST/STM32L4xx_HAL_Driver/Src/stm32l4xx_hal_pwr_ex.c ****   * @retval None
1281:../../drivers/third_party/ST/STM32L4xx_HAL_Driver/Src/stm32l4xx_hal_pwr_ex.c ****   */
1282:../../drivers/third_party/ST/STM32L4xx_HAL_Driver/Src/stm32l4xx_hal_pwr_ex.c **** void HAL_PWREx_PVD_PVM_IRQHandler(void)
1283:../../drivers/third_party/ST/STM32L4xx_HAL_Driver/Src/stm32l4xx_hal_pwr_ex.c **** {
1284:../../drivers/third_party/ST/STM32L4xx_HAL_Driver/Src/stm32l4xx_hal_pwr_ex.c ****   /* Check PWR exti flag */
1285:../../drivers/third_party/ST/STM32L4xx_HAL_Driver/Src/stm32l4xx_hal_pwr_ex.c ****   if(__HAL_PWR_PVD_EXTI_GET_FLAG() != RESET)
1286:../../drivers/third_party/ST/STM32L4xx_HAL_Driver/Src/stm32l4xx_hal_pwr_ex.c ****   {
1287:../../drivers/third_party/ST/STM32L4xx_HAL_Driver/Src/stm32l4xx_hal_pwr_ex.c ****     /* PWR PVD interrupt user callback */
1288:../../drivers/third_party/ST/STM32L4xx_HAL_Driver/Src/stm32l4xx_hal_pwr_ex.c ****     HAL_PWR_PVDCallback();
1289:../../drivers/third_party/ST/STM32L4xx_HAL_Driver/Src/stm32l4xx_hal_pwr_ex.c **** 
1290:../../drivers/third_party/ST/STM32L4xx_HAL_Driver/Src/stm32l4xx_hal_pwr_ex.c ****     /* Clear PVD exti pending bit */
1291:../../drivers/third_party/ST/STM32L4xx_HAL_Driver/Src/stm32l4xx_hal_pwr_ex.c ****     __HAL_PWR_PVD_EXTI_CLEAR_FLAG();
1292:../../drivers/third_party/ST/STM32L4xx_HAL_Driver/Src/stm32l4xx_hal_pwr_ex.c ****   }
1293:../../drivers/third_party/ST/STM32L4xx_HAL_Driver/Src/stm32l4xx_hal_pwr_ex.c ****   /* Next, successively check PVMx exti flags */
1294:../../drivers/third_party/ST/STM32L4xx_HAL_Driver/Src/stm32l4xx_hal_pwr_ex.c **** #if defined(PWR_CR2_PVME1)  
1295:../../drivers/third_party/ST/STM32L4xx_HAL_Driver/Src/stm32l4xx_hal_pwr_ex.c ****   if(__HAL_PWR_PVM1_EXTI_GET_FLAG() != RESET) 
1296:../../drivers/third_party/ST/STM32L4xx_HAL_Driver/Src/stm32l4xx_hal_pwr_ex.c ****   {
1297:../../drivers/third_party/ST/STM32L4xx_HAL_Driver/Src/stm32l4xx_hal_pwr_ex.c ****     /* PWR PVM1 interrupt user callback */
1298:../../drivers/third_party/ST/STM32L4xx_HAL_Driver/Src/stm32l4xx_hal_pwr_ex.c ****     HAL_PWREx_PVM1Callback();
1299:../../drivers/third_party/ST/STM32L4xx_HAL_Driver/Src/stm32l4xx_hal_pwr_ex.c ****    
1300:../../drivers/third_party/ST/STM32L4xx_HAL_Driver/Src/stm32l4xx_hal_pwr_ex.c ****     /* Clear PVM1 exti pending bit */
1301:../../drivers/third_party/ST/STM32L4xx_HAL_Driver/Src/stm32l4xx_hal_pwr_ex.c ****     __HAL_PWR_PVM1_EXTI_CLEAR_FLAG();
ARM GAS  C:\Users\LuckyE\AppData\Local\Temp\cccYdq5r.s 			page 50


1302:../../drivers/third_party/ST/STM32L4xx_HAL_Driver/Src/stm32l4xx_hal_pwr_ex.c ****   }
1303:../../drivers/third_party/ST/STM32L4xx_HAL_Driver/Src/stm32l4xx_hal_pwr_ex.c **** #endif /* PWR_CR2_PVME1 */
1304:../../drivers/third_party/ST/STM32L4xx_HAL_Driver/Src/stm32l4xx_hal_pwr_ex.c **** #if defined(PWR_CR2_PVME2)  
1305:../../drivers/third_party/ST/STM32L4xx_HAL_Driver/Src/stm32l4xx_hal_pwr_ex.c ****   if(__HAL_PWR_PVM2_EXTI_GET_FLAG() != RESET) 
1306:../../drivers/third_party/ST/STM32L4xx_HAL_Driver/Src/stm32l4xx_hal_pwr_ex.c ****   {
1307:../../drivers/third_party/ST/STM32L4xx_HAL_Driver/Src/stm32l4xx_hal_pwr_ex.c ****     /* PWR PVM2 interrupt user callback */
1308:../../drivers/third_party/ST/STM32L4xx_HAL_Driver/Src/stm32l4xx_hal_pwr_ex.c ****     HAL_PWREx_PVM2Callback();
1309:../../drivers/third_party/ST/STM32L4xx_HAL_Driver/Src/stm32l4xx_hal_pwr_ex.c ****    
1310:../../drivers/third_party/ST/STM32L4xx_HAL_Driver/Src/stm32l4xx_hal_pwr_ex.c ****     /* Clear PVM2 exti pending bit */
1311:../../drivers/third_party/ST/STM32L4xx_HAL_Driver/Src/stm32l4xx_hal_pwr_ex.c ****     __HAL_PWR_PVM2_EXTI_CLEAR_FLAG();
1312:../../drivers/third_party/ST/STM32L4xx_HAL_Driver/Src/stm32l4xx_hal_pwr_ex.c ****   }
1313:../../drivers/third_party/ST/STM32L4xx_HAL_Driver/Src/stm32l4xx_hal_pwr_ex.c **** #endif /* PWR_CR2_PVME2 */  
1314:../../drivers/third_party/ST/STM32L4xx_HAL_Driver/Src/stm32l4xx_hal_pwr_ex.c ****   if(__HAL_PWR_PVM3_EXTI_GET_FLAG() != RESET) 
1315:../../drivers/third_party/ST/STM32L4xx_HAL_Driver/Src/stm32l4xx_hal_pwr_ex.c ****   {
1316:../../drivers/third_party/ST/STM32L4xx_HAL_Driver/Src/stm32l4xx_hal_pwr_ex.c ****     /* PWR PVM3 interrupt user callback */
1317:../../drivers/third_party/ST/STM32L4xx_HAL_Driver/Src/stm32l4xx_hal_pwr_ex.c ****     HAL_PWREx_PVM3Callback();
1318:../../drivers/third_party/ST/STM32L4xx_HAL_Driver/Src/stm32l4xx_hal_pwr_ex.c ****    
1319:../../drivers/third_party/ST/STM32L4xx_HAL_Driver/Src/stm32l4xx_hal_pwr_ex.c ****     /* Clear PVM3 exti pending bit */
1320:../../drivers/third_party/ST/STM32L4xx_HAL_Driver/Src/stm32l4xx_hal_pwr_ex.c ****     __HAL_PWR_PVM3_EXTI_CLEAR_FLAG();
1321:../../drivers/third_party/ST/STM32L4xx_HAL_Driver/Src/stm32l4xx_hal_pwr_ex.c ****   }
1322:../../drivers/third_party/ST/STM32L4xx_HAL_Driver/Src/stm32l4xx_hal_pwr_ex.c ****   if(__HAL_PWR_PVM4_EXTI_GET_FLAG() != RESET) 
1323:../../drivers/third_party/ST/STM32L4xx_HAL_Driver/Src/stm32l4xx_hal_pwr_ex.c ****   {
1324:../../drivers/third_party/ST/STM32L4xx_HAL_Driver/Src/stm32l4xx_hal_pwr_ex.c ****     /* PWR PVM4 interrupt user callback */
1325:../../drivers/third_party/ST/STM32L4xx_HAL_Driver/Src/stm32l4xx_hal_pwr_ex.c ****     HAL_PWREx_PVM4Callback();
1326:../../drivers/third_party/ST/STM32L4xx_HAL_Driver/Src/stm32l4xx_hal_pwr_ex.c ****    
1327:../../drivers/third_party/ST/STM32L4xx_HAL_Driver/Src/stm32l4xx_hal_pwr_ex.c ****     /* Clear PVM4 exti pending bit */
1328:../../drivers/third_party/ST/STM32L4xx_HAL_Driver/Src/stm32l4xx_hal_pwr_ex.c ****     __HAL_PWR_PVM4_EXTI_CLEAR_FLAG();
1329:../../drivers/third_party/ST/STM32L4xx_HAL_Driver/Src/stm32l4xx_hal_pwr_ex.c ****   }      
1330:../../drivers/third_party/ST/STM32L4xx_HAL_Driver/Src/stm32l4xx_hal_pwr_ex.c **** }
1331:../../drivers/third_party/ST/STM32L4xx_HAL_Driver/Src/stm32l4xx_hal_pwr_ex.c **** 
1332:../../drivers/third_party/ST/STM32L4xx_HAL_Driver/Src/stm32l4xx_hal_pwr_ex.c **** 
1333:../../drivers/third_party/ST/STM32L4xx_HAL_Driver/Src/stm32l4xx_hal_pwr_ex.c **** #if defined(PWR_CR2_PVME1)
1334:../../drivers/third_party/ST/STM32L4xx_HAL_Driver/Src/stm32l4xx_hal_pwr_ex.c **** /**
1335:../../drivers/third_party/ST/STM32L4xx_HAL_Driver/Src/stm32l4xx_hal_pwr_ex.c ****   * @brief PWR PVM1 interrupt callback
1336:../../drivers/third_party/ST/STM32L4xx_HAL_Driver/Src/stm32l4xx_hal_pwr_ex.c ****   * @retval None
1337:../../drivers/third_party/ST/STM32L4xx_HAL_Driver/Src/stm32l4xx_hal_pwr_ex.c ****   */
1338:../../drivers/third_party/ST/STM32L4xx_HAL_Driver/Src/stm32l4xx_hal_pwr_ex.c **** __weak void HAL_PWREx_PVM1Callback(void)
1339:../../drivers/third_party/ST/STM32L4xx_HAL_Driver/Src/stm32l4xx_hal_pwr_ex.c **** {
1340:../../drivers/third_party/ST/STM32L4xx_HAL_Driver/Src/stm32l4xx_hal_pwr_ex.c ****   /* NOTE : This function should not be modified; when the callback is needed,
1341:../../drivers/third_party/ST/STM32L4xx_HAL_Driver/Src/stm32l4xx_hal_pwr_ex.c ****             HAL_PWREx_PVM1Callback() API can be implemented in the user file
1342:../../drivers/third_party/ST/STM32L4xx_HAL_Driver/Src/stm32l4xx_hal_pwr_ex.c ****    */
1343:../../drivers/third_party/ST/STM32L4xx_HAL_Driver/Src/stm32l4xx_hal_pwr_ex.c **** }
1344:../../drivers/third_party/ST/STM32L4xx_HAL_Driver/Src/stm32l4xx_hal_pwr_ex.c **** #endif /* PWR_CR2_PVME1 */
1345:../../drivers/third_party/ST/STM32L4xx_HAL_Driver/Src/stm32l4xx_hal_pwr_ex.c **** 
1346:../../drivers/third_party/ST/STM32L4xx_HAL_Driver/Src/stm32l4xx_hal_pwr_ex.c **** #if defined(PWR_CR2_PVME2)
1347:../../drivers/third_party/ST/STM32L4xx_HAL_Driver/Src/stm32l4xx_hal_pwr_ex.c **** /**
1348:../../drivers/third_party/ST/STM32L4xx_HAL_Driver/Src/stm32l4xx_hal_pwr_ex.c ****   * @brief PWR PVM2 interrupt callback
1349:../../drivers/third_party/ST/STM32L4xx_HAL_Driver/Src/stm32l4xx_hal_pwr_ex.c ****   * @retval None
1350:../../drivers/third_party/ST/STM32L4xx_HAL_Driver/Src/stm32l4xx_hal_pwr_ex.c ****   */
1351:../../drivers/third_party/ST/STM32L4xx_HAL_Driver/Src/stm32l4xx_hal_pwr_ex.c **** __weak void HAL_PWREx_PVM2Callback(void)
1352:../../drivers/third_party/ST/STM32L4xx_HAL_Driver/Src/stm32l4xx_hal_pwr_ex.c **** {
1353:../../drivers/third_party/ST/STM32L4xx_HAL_Driver/Src/stm32l4xx_hal_pwr_ex.c ****   /* NOTE : This function should not be modified; when the callback is needed,
1354:../../drivers/third_party/ST/STM32L4xx_HAL_Driver/Src/stm32l4xx_hal_pwr_ex.c ****             HAL_PWREx_PVM2Callback() API can be implemented in the user file
1355:../../drivers/third_party/ST/STM32L4xx_HAL_Driver/Src/stm32l4xx_hal_pwr_ex.c ****    */
1356:../../drivers/third_party/ST/STM32L4xx_HAL_Driver/Src/stm32l4xx_hal_pwr_ex.c **** }
1357:../../drivers/third_party/ST/STM32L4xx_HAL_Driver/Src/stm32l4xx_hal_pwr_ex.c **** #endif /* PWR_CR2_PVME2 */
1358:../../drivers/third_party/ST/STM32L4xx_HAL_Driver/Src/stm32l4xx_hal_pwr_ex.c **** 
ARM GAS  C:\Users\LuckyE\AppData\Local\Temp\cccYdq5r.s 			page 51


1359:../../drivers/third_party/ST/STM32L4xx_HAL_Driver/Src/stm32l4xx_hal_pwr_ex.c **** /**
1360:../../drivers/third_party/ST/STM32L4xx_HAL_Driver/Src/stm32l4xx_hal_pwr_ex.c ****   * @brief PWR PVM3 interrupt callback
1361:../../drivers/third_party/ST/STM32L4xx_HAL_Driver/Src/stm32l4xx_hal_pwr_ex.c ****   * @retval None
1362:../../drivers/third_party/ST/STM32L4xx_HAL_Driver/Src/stm32l4xx_hal_pwr_ex.c ****   */
1363:../../drivers/third_party/ST/STM32L4xx_HAL_Driver/Src/stm32l4xx_hal_pwr_ex.c **** __weak void HAL_PWREx_PVM3Callback(void)
1364:../../drivers/third_party/ST/STM32L4xx_HAL_Driver/Src/stm32l4xx_hal_pwr_ex.c **** {
 1460              		.loc 1 1364 0
 1461              		.cfi_startproc
 1462              		@ args = 0, pretend = 0, frame = 0
 1463              		@ frame_needed = 0, uses_anonymous_args = 0
 1464              		@ link register save eliminated.
1365:../../drivers/third_party/ST/STM32L4xx_HAL_Driver/Src/stm32l4xx_hal_pwr_ex.c ****   /* NOTE : This function should not be modified; when the callback is needed,
1366:../../drivers/third_party/ST/STM32L4xx_HAL_Driver/Src/stm32l4xx_hal_pwr_ex.c ****             HAL_PWREx_PVM3Callback() API can be implemented in the user file
1367:../../drivers/third_party/ST/STM32L4xx_HAL_Driver/Src/stm32l4xx_hal_pwr_ex.c ****    */
1368:../../drivers/third_party/ST/STM32L4xx_HAL_Driver/Src/stm32l4xx_hal_pwr_ex.c **** }
 1465              		.loc 1 1368 0
 1466 0000 7047     		bx	lr
 1467              		.cfi_endproc
 1468              	.LFE306:
 1470              		.section	.text.HAL_PWREx_PVM4Callback,"ax",%progbits
 1471              		.align	1
 1472              		.weak	HAL_PWREx_PVM4Callback
 1473              		.syntax unified
 1474              		.thumb
 1475              		.thumb_func
 1476              		.fpu fpv4-sp-d16
 1478              	HAL_PWREx_PVM4Callback:
 1479              	.LFB309:
 1480              		.cfi_startproc
 1481              		@ args = 0, pretend = 0, frame = 0
 1482              		@ frame_needed = 0, uses_anonymous_args = 0
 1483              		@ link register save eliminated.
 1484 0000 7047     		bx	lr
 1485              		.cfi_endproc
 1486              	.LFE309:
 1488              		.section	.text.HAL_PWREx_PVD_PVM_IRQHandler,"ax",%progbits
 1489              		.align	1
 1490              		.global	HAL_PWREx_PVD_PVM_IRQHandler
 1491              		.syntax unified
 1492              		.thumb
 1493              		.thumb_func
 1494              		.fpu fpv4-sp-d16
 1496              	HAL_PWREx_PVD_PVM_IRQHandler:
 1497              	.LFB305:
1283:../../drivers/third_party/ST/STM32L4xx_HAL_Driver/Src/stm32l4xx_hal_pwr_ex.c ****   /* Check PWR exti flag */
 1498              		.loc 1 1283 0
 1499              		.cfi_startproc
 1500              		@ args = 0, pretend = 0, frame = 0
 1501              		@ frame_needed = 0, uses_anonymous_args = 0
1283:../../drivers/third_party/ST/STM32L4xx_HAL_Driver/Src/stm32l4xx_hal_pwr_ex.c ****   /* Check PWR exti flag */
 1502              		.loc 1 1283 0
 1503 0000 10B5     		push	{r4, lr}
 1504              	.LCFI0:
 1505              		.cfi_def_cfa_offset 8
 1506              		.cfi_offset 4, -8
 1507              		.cfi_offset 14, -4
1285:../../drivers/third_party/ST/STM32L4xx_HAL_Driver/Src/stm32l4xx_hal_pwr_ex.c ****   {
ARM GAS  C:\Users\LuckyE\AppData\Local\Temp\cccYdq5r.s 			page 52


 1508              		.loc 1 1285 0
 1509 0002 0C4C     		ldr	r4, .L200
 1510 0004 6369     		ldr	r3, [r4, #20]
 1511 0006 D903     		lsls	r1, r3, #15
 1512 0008 04D5     		bpl	.L188
1288:../../drivers/third_party/ST/STM32L4xx_HAL_Driver/Src/stm32l4xx_hal_pwr_ex.c **** 
 1513              		.loc 1 1288 0
 1514 000a FFF7FEFF 		bl	HAL_PWR_PVDCallback
 1515              	.LVL84:
1291:../../drivers/third_party/ST/STM32L4xx_HAL_Driver/Src/stm32l4xx_hal_pwr_ex.c ****   }
 1516              		.loc 1 1291 0
 1517 000e 4FF48033 		mov	r3, #65536
 1518 0012 6361     		str	r3, [r4, #20]
 1519              	.L188:
1314:../../drivers/third_party/ST/STM32L4xx_HAL_Driver/Src/stm32l4xx_hal_pwr_ex.c ****   {
 1520              		.loc 1 1314 0
 1521 0014 636B     		ldr	r3, [r4, #52]
 1522 0016 9A06     		lsls	r2, r3, #26
 1523 0018 03D5     		bpl	.L189
1317:../../drivers/third_party/ST/STM32L4xx_HAL_Driver/Src/stm32l4xx_hal_pwr_ex.c ****    
 1524              		.loc 1 1317 0
 1525 001a FFF7FEFF 		bl	HAL_PWREx_PVM3Callback
 1526              	.LVL85:
1320:../../drivers/third_party/ST/STM32L4xx_HAL_Driver/Src/stm32l4xx_hal_pwr_ex.c ****   }
 1527              		.loc 1 1320 0
 1528 001e 2023     		movs	r3, #32
 1529 0020 6363     		str	r3, [r4, #52]
 1530              	.L189:
1322:../../drivers/third_party/ST/STM32L4xx_HAL_Driver/Src/stm32l4xx_hal_pwr_ex.c ****   {
 1531              		.loc 1 1322 0
 1532 0022 636B     		ldr	r3, [r4, #52]
 1533 0024 5B06     		lsls	r3, r3, #25
 1534 0026 03D5     		bpl	.L187
1325:../../drivers/third_party/ST/STM32L4xx_HAL_Driver/Src/stm32l4xx_hal_pwr_ex.c ****    
 1535              		.loc 1 1325 0
 1536 0028 FFF7FEFF 		bl	HAL_PWREx_PVM4Callback
 1537              	.LVL86:
1328:../../drivers/third_party/ST/STM32L4xx_HAL_Driver/Src/stm32l4xx_hal_pwr_ex.c ****   }      
 1538              		.loc 1 1328 0
 1539 002c 4023     		movs	r3, #64
 1540 002e 6363     		str	r3, [r4, #52]
 1541              	.L187:
1330:../../drivers/third_party/ST/STM32L4xx_HAL_Driver/Src/stm32l4xx_hal_pwr_ex.c **** 
 1542              		.loc 1 1330 0
 1543 0030 10BD     		pop	{r4, pc}
 1544              	.L201:
 1545 0032 00BF     		.align	2
 1546              	.L200:
 1547 0034 00040140 		.word	1073808384
 1548              		.cfi_endproc
 1549              	.LFE305:
 1551              		.text
 1552              	.Letext0:
 1553              		.file 2 "c:\\bearpi\\developtools\\gnu tools arm embedded\\7 2018-q2-update\\arm-none-eabi\\includ
 1554              		.file 3 "c:\\bearpi\\developtools\\gnu tools arm embedded\\7 2018-q2-update\\arm-none-eabi\\includ
 1555              		.file 4 "../../iot_link/os/liteos/arch/arm/common/cmsis/core_cm4.h"
 1556              		.file 5 "D:/File/bearpi_liteos/bearpi-iot_std_liteos-master/targets/STM32L431_BearPi/Inc/system_st
ARM GAS  C:\Users\LuckyE\AppData\Local\Temp\cccYdq5r.s 			page 53


 1557              		.file 6 "D:/File/bearpi_liteos/bearpi-iot_std_liteos-master/targets/STM32L431_BearPi/Inc/stm32l431
 1558              		.file 7 "c:\\bearpi\\developtools\\gnu tools arm embedded\\7 2018-q2-update\\arm-none-eabi\\includ
 1559              		.file 8 "c:\\bearpi\\developtools\\gnu tools arm embedded\\7 2018-q2-update\\arm-none-eabi\\includ
 1560              		.file 9 "c:\\bearpi\\developtools\\gnu tools arm embedded\\7 2018-q2-update\\lib\\gcc\\arm-none-ea
 1561              		.file 10 "c:\\bearpi\\developtools\\gnu tools arm embedded\\7 2018-q2-update\\arm-none-eabi\\inclu
 1562              		.file 11 "D:/File/bearpi_liteos/bearpi-iot_std_liteos-master/targets/STM32L431_BearPi/Inc/stm32l4x
 1563              		.file 12 "../../drivers/third_party/ST/STM32L4xx_HAL_Driver/Inc/stm32l4xx_hal_def.h"
 1564              		.file 13 "../../drivers/third_party/ST/STM32L4xx_HAL_Driver/Inc/stm32l4xx_hal_pwr_ex.h"
 1565              		.file 14 "../../drivers/third_party/ST/STM32L4xx_HAL_Driver/Inc/stm32l4xx_hal_pwr.h"
ARM GAS  C:\Users\LuckyE\AppData\Local\Temp\cccYdq5r.s 			page 54

