ARM GAS  C:\Users\LuckyE\AppData\Local\Temp\ccBar2YG.s 			page 1


   1              		.cpu cortex-m4
   2              		.eabi_attribute 27, 1
   3              		.eabi_attribute 28, 1
   4              		.eabi_attribute 20, 1
   5              		.eabi_attribute 21, 1
   6              		.eabi_attribute 23, 3
   7              		.eabi_attribute 24, 1
   8              		.eabi_attribute 25, 1
   9              		.eabi_attribute 26, 1
  10              		.eabi_attribute 30, 4
  11              		.eabi_attribute 34, 1
  12              		.eabi_attribute 18, 4
  13              		.file	"stm32l4xx_hal_flash_ex.c"
  14              		.text
  15              	.Ltext0:
  16              		.cfi_sections	.debug_frame
  17              		.section	.text.FLASH_MassErase,"ax",%progbits
  18              		.align	1
  19              		.syntax unified
  20              		.thumb
  21              		.thumb_func
  22              		.fpu fpv4-sp-d16
  24              	FLASH_MassErase:
  25              	.LFB284:
  26              		.file 1 "../../drivers/third_party/ST/STM32L4xx_HAL_Driver/Src/stm32l4xx_hal_flash_ex.c"
   1:../../drivers/third_party/ST/STM32L4xx_HAL_Driver/Src/stm32l4xx_hal_flash_ex.c **** /**
   2:../../drivers/third_party/ST/STM32L4xx_HAL_Driver/Src/stm32l4xx_hal_flash_ex.c ****   ******************************************************************************
   3:../../drivers/third_party/ST/STM32L4xx_HAL_Driver/Src/stm32l4xx_hal_flash_ex.c ****   * @file    stm32l4xx_hal_flash_ex.c
   4:../../drivers/third_party/ST/STM32L4xx_HAL_Driver/Src/stm32l4xx_hal_flash_ex.c ****   * @author  MCD Application Team
   5:../../drivers/third_party/ST/STM32L4xx_HAL_Driver/Src/stm32l4xx_hal_flash_ex.c ****   * @brief   Extended FLASH HAL module driver.
   6:../../drivers/third_party/ST/STM32L4xx_HAL_Driver/Src/stm32l4xx_hal_flash_ex.c ****   *          This file provides firmware functions to manage the following 
   7:../../drivers/third_party/ST/STM32L4xx_HAL_Driver/Src/stm32l4xx_hal_flash_ex.c ****   *          functionalities of the FLASH extended peripheral:
   8:../../drivers/third_party/ST/STM32L4xx_HAL_Driver/Src/stm32l4xx_hal_flash_ex.c ****   *           + Extended programming operations functions
   9:../../drivers/third_party/ST/STM32L4xx_HAL_Driver/Src/stm32l4xx_hal_flash_ex.c ****   *  
  10:../../drivers/third_party/ST/STM32L4xx_HAL_Driver/Src/stm32l4xx_hal_flash_ex.c ****  @verbatim    
  11:../../drivers/third_party/ST/STM32L4xx_HAL_Driver/Src/stm32l4xx_hal_flash_ex.c ****  ==============================================================================
  12:../../drivers/third_party/ST/STM32L4xx_HAL_Driver/Src/stm32l4xx_hal_flash_ex.c ****                    ##### Flash Extended features #####
  13:../../drivers/third_party/ST/STM32L4xx_HAL_Driver/Src/stm32l4xx_hal_flash_ex.c ****   ==============================================================================
  14:../../drivers/third_party/ST/STM32L4xx_HAL_Driver/Src/stm32l4xx_hal_flash_ex.c ****            
  15:../../drivers/third_party/ST/STM32L4xx_HAL_Driver/Src/stm32l4xx_hal_flash_ex.c ****   [..] Comparing to other previous devices, the FLASH interface for STM32L4xx 
  16:../../drivers/third_party/ST/STM32L4xx_HAL_Driver/Src/stm32l4xx_hal_flash_ex.c ****        devices contains the following additional features 
  17:../../drivers/third_party/ST/STM32L4xx_HAL_Driver/Src/stm32l4xx_hal_flash_ex.c ****        
  18:../../drivers/third_party/ST/STM32L4xx_HAL_Driver/Src/stm32l4xx_hal_flash_ex.c ****        (+) Capacity up to 2 Mbyte with dual bank architecture supporting read-while-write
  19:../../drivers/third_party/ST/STM32L4xx_HAL_Driver/Src/stm32l4xx_hal_flash_ex.c ****            capability (RWW)
  20:../../drivers/third_party/ST/STM32L4xx_HAL_Driver/Src/stm32l4xx_hal_flash_ex.c ****        (+) Dual bank memory organization       
  21:../../drivers/third_party/ST/STM32L4xx_HAL_Driver/Src/stm32l4xx_hal_flash_ex.c ****        (+) PCROP protection for all banks
  22:../../drivers/third_party/ST/STM32L4xx_HAL_Driver/Src/stm32l4xx_hal_flash_ex.c ****    
  23:../../drivers/third_party/ST/STM32L4xx_HAL_Driver/Src/stm32l4xx_hal_flash_ex.c ****                         ##### How to use this driver #####
  24:../../drivers/third_party/ST/STM32L4xx_HAL_Driver/Src/stm32l4xx_hal_flash_ex.c ****  ==============================================================================
  25:../../drivers/third_party/ST/STM32L4xx_HAL_Driver/Src/stm32l4xx_hal_flash_ex.c ****   [..] This driver provides functions to configure and program the FLASH memory 
  26:../../drivers/third_party/ST/STM32L4xx_HAL_Driver/Src/stm32l4xx_hal_flash_ex.c ****        of all STM32L4xx devices. It includes
  27:../../drivers/third_party/ST/STM32L4xx_HAL_Driver/Src/stm32l4xx_hal_flash_ex.c ****       (#) Flash Memory Erase functions: 
  28:../../drivers/third_party/ST/STM32L4xx_HAL_Driver/Src/stm32l4xx_hal_flash_ex.c ****            (++) Lock and Unlock the FLASH interface using HAL_FLASH_Unlock() and 
  29:../../drivers/third_party/ST/STM32L4xx_HAL_Driver/Src/stm32l4xx_hal_flash_ex.c ****                 HAL_FLASH_Lock() functions
  30:../../drivers/third_party/ST/STM32L4xx_HAL_Driver/Src/stm32l4xx_hal_flash_ex.c ****            (++) Erase function: Erase page, erase all sectors
  31:../../drivers/third_party/ST/STM32L4xx_HAL_Driver/Src/stm32l4xx_hal_flash_ex.c ****            (++) There are two modes of erase :
  32:../../drivers/third_party/ST/STM32L4xx_HAL_Driver/Src/stm32l4xx_hal_flash_ex.c ****              (+++) Polling Mode using HAL_FLASHEx_Erase()
ARM GAS  C:\Users\LuckyE\AppData\Local\Temp\ccBar2YG.s 			page 2


  33:../../drivers/third_party/ST/STM32L4xx_HAL_Driver/Src/stm32l4xx_hal_flash_ex.c ****              (+++) Interrupt Mode using HAL_FLASHEx_Erase_IT()
  34:../../drivers/third_party/ST/STM32L4xx_HAL_Driver/Src/stm32l4xx_hal_flash_ex.c ****                          
  35:../../drivers/third_party/ST/STM32L4xx_HAL_Driver/Src/stm32l4xx_hal_flash_ex.c ****       (#) Option Bytes Programming function: Use HAL_FLASHEx_OBProgram() to :
  36:../../drivers/third_party/ST/STM32L4xx_HAL_Driver/Src/stm32l4xx_hal_flash_ex.c ****         (++) Set/Reset the write protection
  37:../../drivers/third_party/ST/STM32L4xx_HAL_Driver/Src/stm32l4xx_hal_flash_ex.c ****         (++) Set the Read protection Level
  38:../../drivers/third_party/ST/STM32L4xx_HAL_Driver/Src/stm32l4xx_hal_flash_ex.c ****         (++) Program the user Option Bytes
  39:../../drivers/third_party/ST/STM32L4xx_HAL_Driver/Src/stm32l4xx_hal_flash_ex.c ****         (++) Configure the PCROP protection
  40:../../drivers/third_party/ST/STM32L4xx_HAL_Driver/Src/stm32l4xx_hal_flash_ex.c ****         
  41:../../drivers/third_party/ST/STM32L4xx_HAL_Driver/Src/stm32l4xx_hal_flash_ex.c ****       (#) Get Option Bytes Configuration function: Use HAL_FLASHEx_OBGetConfig() to :
  42:../../drivers/third_party/ST/STM32L4xx_HAL_Driver/Src/stm32l4xx_hal_flash_ex.c ****         (++) Get the value of a write protection area
  43:../../drivers/third_party/ST/STM32L4xx_HAL_Driver/Src/stm32l4xx_hal_flash_ex.c ****         (++) Know if the read protection is activated
  44:../../drivers/third_party/ST/STM32L4xx_HAL_Driver/Src/stm32l4xx_hal_flash_ex.c ****         (++) Get the value of the user Option Bytes
  45:../../drivers/third_party/ST/STM32L4xx_HAL_Driver/Src/stm32l4xx_hal_flash_ex.c ****         (++) Get the value of a PCROP area
  46:../../drivers/third_party/ST/STM32L4xx_HAL_Driver/Src/stm32l4xx_hal_flash_ex.c ****     
  47:../../drivers/third_party/ST/STM32L4xx_HAL_Driver/Src/stm32l4xx_hal_flash_ex.c ****  @endverbatim                      
  48:../../drivers/third_party/ST/STM32L4xx_HAL_Driver/Src/stm32l4xx_hal_flash_ex.c ****   ******************************************************************************
  49:../../drivers/third_party/ST/STM32L4xx_HAL_Driver/Src/stm32l4xx_hal_flash_ex.c ****   * @attention
  50:../../drivers/third_party/ST/STM32L4xx_HAL_Driver/Src/stm32l4xx_hal_flash_ex.c ****   *
  51:../../drivers/third_party/ST/STM32L4xx_HAL_Driver/Src/stm32l4xx_hal_flash_ex.c ****   * <h2><center>&copy; COPYRIGHT(c) 2017 STMicroelectronics</center></h2>
  52:../../drivers/third_party/ST/STM32L4xx_HAL_Driver/Src/stm32l4xx_hal_flash_ex.c ****   *
  53:../../drivers/third_party/ST/STM32L4xx_HAL_Driver/Src/stm32l4xx_hal_flash_ex.c ****   * Redistribution and use in source and binary forms, with or without modification,
  54:../../drivers/third_party/ST/STM32L4xx_HAL_Driver/Src/stm32l4xx_hal_flash_ex.c ****   * are permitted provided that the following conditions are met:
  55:../../drivers/third_party/ST/STM32L4xx_HAL_Driver/Src/stm32l4xx_hal_flash_ex.c ****   *   1. Redistributions of source code must retain the above copyright notice,
  56:../../drivers/third_party/ST/STM32L4xx_HAL_Driver/Src/stm32l4xx_hal_flash_ex.c ****   *      this list of conditions and the following disclaimer.
  57:../../drivers/third_party/ST/STM32L4xx_HAL_Driver/Src/stm32l4xx_hal_flash_ex.c ****   *   2. Redistributions in binary form must reproduce the above copyright notice,
  58:../../drivers/third_party/ST/STM32L4xx_HAL_Driver/Src/stm32l4xx_hal_flash_ex.c ****   *      this list of conditions and the following disclaimer in the documentation
  59:../../drivers/third_party/ST/STM32L4xx_HAL_Driver/Src/stm32l4xx_hal_flash_ex.c ****   *      and/or other materials provided with the distribution.
  60:../../drivers/third_party/ST/STM32L4xx_HAL_Driver/Src/stm32l4xx_hal_flash_ex.c ****   *   3. Neither the name of STMicroelectronics nor the names of its contributors
  61:../../drivers/third_party/ST/STM32L4xx_HAL_Driver/Src/stm32l4xx_hal_flash_ex.c ****   *      may be used to endorse or promote products derived from this software
  62:../../drivers/third_party/ST/STM32L4xx_HAL_Driver/Src/stm32l4xx_hal_flash_ex.c ****   *      without specific prior written permission.
  63:../../drivers/third_party/ST/STM32L4xx_HAL_Driver/Src/stm32l4xx_hal_flash_ex.c ****   *
  64:../../drivers/third_party/ST/STM32L4xx_HAL_Driver/Src/stm32l4xx_hal_flash_ex.c ****   * THIS SOFTWARE IS PROVIDED BY THE COPYRIGHT HOLDERS AND CONTRIBUTORS "AS IS"
  65:../../drivers/third_party/ST/STM32L4xx_HAL_Driver/Src/stm32l4xx_hal_flash_ex.c ****   * AND ANY EXPRESS OR IMPLIED WARRANTIES, INCLUDING, BUT NOT LIMITED TO, THE
  66:../../drivers/third_party/ST/STM32L4xx_HAL_Driver/Src/stm32l4xx_hal_flash_ex.c ****   * IMPLIED WARRANTIES OF MERCHANTABILITY AND FITNESS FOR A PARTICULAR PURPOSE ARE
  67:../../drivers/third_party/ST/STM32L4xx_HAL_Driver/Src/stm32l4xx_hal_flash_ex.c ****   * DISCLAIMED. IN NO EVENT SHALL THE COPYRIGHT HOLDER OR CONTRIBUTORS BE LIABLE
  68:../../drivers/third_party/ST/STM32L4xx_HAL_Driver/Src/stm32l4xx_hal_flash_ex.c ****   * FOR ANY DIRECT, INDIRECT, INCIDENTAL, SPECIAL, EXEMPLARY, OR CONSEQUENTIAL
  69:../../drivers/third_party/ST/STM32L4xx_HAL_Driver/Src/stm32l4xx_hal_flash_ex.c ****   * DAMAGES (INCLUDING, BUT NOT LIMITED TO, PROCUREMENT OF SUBSTITUTE GOODS OR
  70:../../drivers/third_party/ST/STM32L4xx_HAL_Driver/Src/stm32l4xx_hal_flash_ex.c ****   * SERVICES; LOSS OF USE, DATA, OR PROFITS; OR BUSINESS INTERRUPTION) HOWEVER
  71:../../drivers/third_party/ST/STM32L4xx_HAL_Driver/Src/stm32l4xx_hal_flash_ex.c ****   * CAUSED AND ON ANY THEORY OF LIABILITY, WHETHER IN CONTRACT, STRICT LIABILITY,
  72:../../drivers/third_party/ST/STM32L4xx_HAL_Driver/Src/stm32l4xx_hal_flash_ex.c ****   * OR TORT (INCLUDING NEGLIGENCE OR OTHERWISE) ARISING IN ANY WAY OUT OF THE USE
  73:../../drivers/third_party/ST/STM32L4xx_HAL_Driver/Src/stm32l4xx_hal_flash_ex.c ****   * OF THIS SOFTWARE, EVEN IF ADVISED OF THE POSSIBILITY OF SUCH DAMAGE.
  74:../../drivers/third_party/ST/STM32L4xx_HAL_Driver/Src/stm32l4xx_hal_flash_ex.c ****   *
  75:../../drivers/third_party/ST/STM32L4xx_HAL_Driver/Src/stm32l4xx_hal_flash_ex.c ****   ******************************************************************************
  76:../../drivers/third_party/ST/STM32L4xx_HAL_Driver/Src/stm32l4xx_hal_flash_ex.c ****   */
  77:../../drivers/third_party/ST/STM32L4xx_HAL_Driver/Src/stm32l4xx_hal_flash_ex.c **** 
  78:../../drivers/third_party/ST/STM32L4xx_HAL_Driver/Src/stm32l4xx_hal_flash_ex.c **** /* Includes ------------------------------------------------------------------*/
  79:../../drivers/third_party/ST/STM32L4xx_HAL_Driver/Src/stm32l4xx_hal_flash_ex.c **** #include "stm32l4xx_hal.h"
  80:../../drivers/third_party/ST/STM32L4xx_HAL_Driver/Src/stm32l4xx_hal_flash_ex.c **** 
  81:../../drivers/third_party/ST/STM32L4xx_HAL_Driver/Src/stm32l4xx_hal_flash_ex.c **** /** @addtogroup STM32L4xx_HAL_Driver
  82:../../drivers/third_party/ST/STM32L4xx_HAL_Driver/Src/stm32l4xx_hal_flash_ex.c ****   * @{
  83:../../drivers/third_party/ST/STM32L4xx_HAL_Driver/Src/stm32l4xx_hal_flash_ex.c ****   */
  84:../../drivers/third_party/ST/STM32L4xx_HAL_Driver/Src/stm32l4xx_hal_flash_ex.c **** 
  85:../../drivers/third_party/ST/STM32L4xx_HAL_Driver/Src/stm32l4xx_hal_flash_ex.c **** /** @defgroup FLASHEx FLASHEx
  86:../../drivers/third_party/ST/STM32L4xx_HAL_Driver/Src/stm32l4xx_hal_flash_ex.c ****   * @brief FLASH Extended HAL module driver
  87:../../drivers/third_party/ST/STM32L4xx_HAL_Driver/Src/stm32l4xx_hal_flash_ex.c ****   * @{
  88:../../drivers/third_party/ST/STM32L4xx_HAL_Driver/Src/stm32l4xx_hal_flash_ex.c ****   */
  89:../../drivers/third_party/ST/STM32L4xx_HAL_Driver/Src/stm32l4xx_hal_flash_ex.c **** 
ARM GAS  C:\Users\LuckyE\AppData\Local\Temp\ccBar2YG.s 			page 3


  90:../../drivers/third_party/ST/STM32L4xx_HAL_Driver/Src/stm32l4xx_hal_flash_ex.c **** #ifdef HAL_FLASH_MODULE_ENABLED
  91:../../drivers/third_party/ST/STM32L4xx_HAL_Driver/Src/stm32l4xx_hal_flash_ex.c **** 
  92:../../drivers/third_party/ST/STM32L4xx_HAL_Driver/Src/stm32l4xx_hal_flash_ex.c **** /* Private typedef -----------------------------------------------------------*/
  93:../../drivers/third_party/ST/STM32L4xx_HAL_Driver/Src/stm32l4xx_hal_flash_ex.c **** /* Private define ------------------------------------------------------------*/ 
  94:../../drivers/third_party/ST/STM32L4xx_HAL_Driver/Src/stm32l4xx_hal_flash_ex.c **** /* Private macro -------------------------------------------------------------*/
  95:../../drivers/third_party/ST/STM32L4xx_HAL_Driver/Src/stm32l4xx_hal_flash_ex.c **** /* Private variables ---------------------------------------------------------*/
  96:../../drivers/third_party/ST/STM32L4xx_HAL_Driver/Src/stm32l4xx_hal_flash_ex.c **** /** @defgroup FLASHEx_Private_Variables FLASHEx Private Variables
  97:../../drivers/third_party/ST/STM32L4xx_HAL_Driver/Src/stm32l4xx_hal_flash_ex.c ****  * @{
  98:../../drivers/third_party/ST/STM32L4xx_HAL_Driver/Src/stm32l4xx_hal_flash_ex.c ****  */
  99:../../drivers/third_party/ST/STM32L4xx_HAL_Driver/Src/stm32l4xx_hal_flash_ex.c **** extern FLASH_ProcessTypeDef pFlash;
 100:../../drivers/third_party/ST/STM32L4xx_HAL_Driver/Src/stm32l4xx_hal_flash_ex.c **** /**
 101:../../drivers/third_party/ST/STM32L4xx_HAL_Driver/Src/stm32l4xx_hal_flash_ex.c ****   * @}
 102:../../drivers/third_party/ST/STM32L4xx_HAL_Driver/Src/stm32l4xx_hal_flash_ex.c ****   */
 103:../../drivers/third_party/ST/STM32L4xx_HAL_Driver/Src/stm32l4xx_hal_flash_ex.c **** 
 104:../../drivers/third_party/ST/STM32L4xx_HAL_Driver/Src/stm32l4xx_hal_flash_ex.c **** /* Private function prototypes -----------------------------------------------*/
 105:../../drivers/third_party/ST/STM32L4xx_HAL_Driver/Src/stm32l4xx_hal_flash_ex.c **** /** @defgroup FLASHEx_Private_Functions FLASHEx Private Functions
 106:../../drivers/third_party/ST/STM32L4xx_HAL_Driver/Src/stm32l4xx_hal_flash_ex.c ****  * @{
 107:../../drivers/third_party/ST/STM32L4xx_HAL_Driver/Src/stm32l4xx_hal_flash_ex.c ****  */
 108:../../drivers/third_party/ST/STM32L4xx_HAL_Driver/Src/stm32l4xx_hal_flash_ex.c **** extern HAL_StatusTypeDef FLASH_WaitForLastOperation(uint32_t Timeout);
 109:../../drivers/third_party/ST/STM32L4xx_HAL_Driver/Src/stm32l4xx_hal_flash_ex.c **** void                     FLASH_PageErase(uint32_t Page, uint32_t Banks);
 110:../../drivers/third_party/ST/STM32L4xx_HAL_Driver/Src/stm32l4xx_hal_flash_ex.c **** static void              FLASH_MassErase(uint32_t Banks);
 111:../../drivers/third_party/ST/STM32L4xx_HAL_Driver/Src/stm32l4xx_hal_flash_ex.c **** void                     FLASH_FlushCaches(void);
 112:../../drivers/third_party/ST/STM32L4xx_HAL_Driver/Src/stm32l4xx_hal_flash_ex.c **** static HAL_StatusTypeDef FLASH_OB_WRPConfig(uint32_t WRPArea, uint32_t WRPStartOffset, uint32_t WRD
 113:../../drivers/third_party/ST/STM32L4xx_HAL_Driver/Src/stm32l4xx_hal_flash_ex.c **** static HAL_StatusTypeDef FLASH_OB_RDPConfig(uint32_t RDPLevel);
 114:../../drivers/third_party/ST/STM32L4xx_HAL_Driver/Src/stm32l4xx_hal_flash_ex.c **** static HAL_StatusTypeDef FLASH_OB_UserConfig(uint32_t UserType, uint32_t UserConfig);
 115:../../drivers/third_party/ST/STM32L4xx_HAL_Driver/Src/stm32l4xx_hal_flash_ex.c **** static HAL_StatusTypeDef FLASH_OB_PCROPConfig(uint32_t PCROPConfig, uint32_t PCROPStartAddr, uint32
 116:../../drivers/third_party/ST/STM32L4xx_HAL_Driver/Src/stm32l4xx_hal_flash_ex.c **** static void              FLASH_OB_GetWRP(uint32_t WRPArea, uint32_t * WRPStartOffset, uint32_t * WR
 117:../../drivers/third_party/ST/STM32L4xx_HAL_Driver/Src/stm32l4xx_hal_flash_ex.c **** static uint32_t          FLASH_OB_GetRDP(void);
 118:../../drivers/third_party/ST/STM32L4xx_HAL_Driver/Src/stm32l4xx_hal_flash_ex.c **** static uint32_t          FLASH_OB_GetUser(void);
 119:../../drivers/third_party/ST/STM32L4xx_HAL_Driver/Src/stm32l4xx_hal_flash_ex.c **** static void              FLASH_OB_GetPCROP(uint32_t * PCROPConfig, uint32_t * PCROPStartAddr, uint3
 120:../../drivers/third_party/ST/STM32L4xx_HAL_Driver/Src/stm32l4xx_hal_flash_ex.c **** /**
 121:../../drivers/third_party/ST/STM32L4xx_HAL_Driver/Src/stm32l4xx_hal_flash_ex.c ****   * @}
 122:../../drivers/third_party/ST/STM32L4xx_HAL_Driver/Src/stm32l4xx_hal_flash_ex.c ****   */
 123:../../drivers/third_party/ST/STM32L4xx_HAL_Driver/Src/stm32l4xx_hal_flash_ex.c **** 
 124:../../drivers/third_party/ST/STM32L4xx_HAL_Driver/Src/stm32l4xx_hal_flash_ex.c **** /* Exported functions -------------------------------------------------------*/
 125:../../drivers/third_party/ST/STM32L4xx_HAL_Driver/Src/stm32l4xx_hal_flash_ex.c **** /** @defgroup FLASHEx_Exported_Functions FLASHEx Exported Functions
 126:../../drivers/third_party/ST/STM32L4xx_HAL_Driver/Src/stm32l4xx_hal_flash_ex.c ****   * @{
 127:../../drivers/third_party/ST/STM32L4xx_HAL_Driver/Src/stm32l4xx_hal_flash_ex.c ****   */ 
 128:../../drivers/third_party/ST/STM32L4xx_HAL_Driver/Src/stm32l4xx_hal_flash_ex.c **** 
 129:../../drivers/third_party/ST/STM32L4xx_HAL_Driver/Src/stm32l4xx_hal_flash_ex.c **** /** @defgroup FLASHEx_Exported_Functions_Group1 Extended IO operation functions
 130:../../drivers/third_party/ST/STM32L4xx_HAL_Driver/Src/stm32l4xx_hal_flash_ex.c ****  *  @brief   Extended IO operation functions 
 131:../../drivers/third_party/ST/STM32L4xx_HAL_Driver/Src/stm32l4xx_hal_flash_ex.c ****  *
 132:../../drivers/third_party/ST/STM32L4xx_HAL_Driver/Src/stm32l4xx_hal_flash_ex.c **** @verbatim   
 133:../../drivers/third_party/ST/STM32L4xx_HAL_Driver/Src/stm32l4xx_hal_flash_ex.c ****  ===============================================================================
 134:../../drivers/third_party/ST/STM32L4xx_HAL_Driver/Src/stm32l4xx_hal_flash_ex.c ****                 ##### Extended programming operation functions #####
 135:../../drivers/third_party/ST/STM32L4xx_HAL_Driver/Src/stm32l4xx_hal_flash_ex.c ****  ===============================================================================
 136:../../drivers/third_party/ST/STM32L4xx_HAL_Driver/Src/stm32l4xx_hal_flash_ex.c ****     [..]
 137:../../drivers/third_party/ST/STM32L4xx_HAL_Driver/Src/stm32l4xx_hal_flash_ex.c ****     This subsection provides a set of functions allowing to manage the Extended FLASH 
 138:../../drivers/third_party/ST/STM32L4xx_HAL_Driver/Src/stm32l4xx_hal_flash_ex.c ****     programming operations Operations.
 139:../../drivers/third_party/ST/STM32L4xx_HAL_Driver/Src/stm32l4xx_hal_flash_ex.c ****  
 140:../../drivers/third_party/ST/STM32L4xx_HAL_Driver/Src/stm32l4xx_hal_flash_ex.c **** @endverbatim
 141:../../drivers/third_party/ST/STM32L4xx_HAL_Driver/Src/stm32l4xx_hal_flash_ex.c ****   * @{
 142:../../drivers/third_party/ST/STM32L4xx_HAL_Driver/Src/stm32l4xx_hal_flash_ex.c ****   */
 143:../../drivers/third_party/ST/STM32L4xx_HAL_Driver/Src/stm32l4xx_hal_flash_ex.c **** /**
 144:../../drivers/third_party/ST/STM32L4xx_HAL_Driver/Src/stm32l4xx_hal_flash_ex.c ****   * @brief  Perform a mass erase or erase the specified FLASH memory pages.
 145:../../drivers/third_party/ST/STM32L4xx_HAL_Driver/Src/stm32l4xx_hal_flash_ex.c ****   * @param[in]  pEraseInit: pointer to an FLASH_EraseInitTypeDef structure that
 146:../../drivers/third_party/ST/STM32L4xx_HAL_Driver/Src/stm32l4xx_hal_flash_ex.c ****   *         contains the configuration information for the erasing.
ARM GAS  C:\Users\LuckyE\AppData\Local\Temp\ccBar2YG.s 			page 4


 147:../../drivers/third_party/ST/STM32L4xx_HAL_Driver/Src/stm32l4xx_hal_flash_ex.c ****   * 
 148:../../drivers/third_party/ST/STM32L4xx_HAL_Driver/Src/stm32l4xx_hal_flash_ex.c ****   * @param[out]  PageError  : pointer to variable that contains the configuration 
 149:../../drivers/third_party/ST/STM32L4xx_HAL_Driver/Src/stm32l4xx_hal_flash_ex.c ****   *         information on faulty page in case of error (0xFFFFFFFF means that all 
 150:../../drivers/third_party/ST/STM32L4xx_HAL_Driver/Src/stm32l4xx_hal_flash_ex.c ****   *         the pages have been correctly erased)
 151:../../drivers/third_party/ST/STM32L4xx_HAL_Driver/Src/stm32l4xx_hal_flash_ex.c ****   * 
 152:../../drivers/third_party/ST/STM32L4xx_HAL_Driver/Src/stm32l4xx_hal_flash_ex.c ****   * @retval HAL Status
 153:../../drivers/third_party/ST/STM32L4xx_HAL_Driver/Src/stm32l4xx_hal_flash_ex.c ****   */
 154:../../drivers/third_party/ST/STM32L4xx_HAL_Driver/Src/stm32l4xx_hal_flash_ex.c **** HAL_StatusTypeDef HAL_FLASHEx_Erase(FLASH_EraseInitTypeDef *pEraseInit, uint32_t *PageError)
 155:../../drivers/third_party/ST/STM32L4xx_HAL_Driver/Src/stm32l4xx_hal_flash_ex.c **** {
 156:../../drivers/third_party/ST/STM32L4xx_HAL_Driver/Src/stm32l4xx_hal_flash_ex.c ****   HAL_StatusTypeDef status = HAL_ERROR;
 157:../../drivers/third_party/ST/STM32L4xx_HAL_Driver/Src/stm32l4xx_hal_flash_ex.c ****   uint32_t page_index = 0;
 158:../../drivers/third_party/ST/STM32L4xx_HAL_Driver/Src/stm32l4xx_hal_flash_ex.c **** 
 159:../../drivers/third_party/ST/STM32L4xx_HAL_Driver/Src/stm32l4xx_hal_flash_ex.c ****   /* Process Locked */
 160:../../drivers/third_party/ST/STM32L4xx_HAL_Driver/Src/stm32l4xx_hal_flash_ex.c ****   __HAL_LOCK(&pFlash);
 161:../../drivers/third_party/ST/STM32L4xx_HAL_Driver/Src/stm32l4xx_hal_flash_ex.c **** 
 162:../../drivers/third_party/ST/STM32L4xx_HAL_Driver/Src/stm32l4xx_hal_flash_ex.c ****   /* Check the parameters */
 163:../../drivers/third_party/ST/STM32L4xx_HAL_Driver/Src/stm32l4xx_hal_flash_ex.c ****   assert_param(IS_FLASH_TYPEERASE(pEraseInit->TypeErase));
 164:../../drivers/third_party/ST/STM32L4xx_HAL_Driver/Src/stm32l4xx_hal_flash_ex.c **** 
 165:../../drivers/third_party/ST/STM32L4xx_HAL_Driver/Src/stm32l4xx_hal_flash_ex.c ****   /* Wait for last operation to be completed */
 166:../../drivers/third_party/ST/STM32L4xx_HAL_Driver/Src/stm32l4xx_hal_flash_ex.c ****   status = FLASH_WaitForLastOperation((uint32_t)FLASH_TIMEOUT_VALUE);
 167:../../drivers/third_party/ST/STM32L4xx_HAL_Driver/Src/stm32l4xx_hal_flash_ex.c **** 
 168:../../drivers/third_party/ST/STM32L4xx_HAL_Driver/Src/stm32l4xx_hal_flash_ex.c ****   if (status == HAL_OK)
 169:../../drivers/third_party/ST/STM32L4xx_HAL_Driver/Src/stm32l4xx_hal_flash_ex.c ****   {
 170:../../drivers/third_party/ST/STM32L4xx_HAL_Driver/Src/stm32l4xx_hal_flash_ex.c ****     pFlash.ErrorCode = HAL_FLASH_ERROR_NONE;
 171:../../drivers/third_party/ST/STM32L4xx_HAL_Driver/Src/stm32l4xx_hal_flash_ex.c **** 
 172:../../drivers/third_party/ST/STM32L4xx_HAL_Driver/Src/stm32l4xx_hal_flash_ex.c ****     /* Deactivate the cache if they are activated to avoid data misbehavior */
 173:../../drivers/third_party/ST/STM32L4xx_HAL_Driver/Src/stm32l4xx_hal_flash_ex.c ****     if(READ_BIT(FLASH->ACR, FLASH_ACR_ICEN) != RESET)
 174:../../drivers/third_party/ST/STM32L4xx_HAL_Driver/Src/stm32l4xx_hal_flash_ex.c ****     {
 175:../../drivers/third_party/ST/STM32L4xx_HAL_Driver/Src/stm32l4xx_hal_flash_ex.c ****       /* Disable instruction cache  */
 176:../../drivers/third_party/ST/STM32L4xx_HAL_Driver/Src/stm32l4xx_hal_flash_ex.c ****       __HAL_FLASH_INSTRUCTION_CACHE_DISABLE();
 177:../../drivers/third_party/ST/STM32L4xx_HAL_Driver/Src/stm32l4xx_hal_flash_ex.c **** 
 178:../../drivers/third_party/ST/STM32L4xx_HAL_Driver/Src/stm32l4xx_hal_flash_ex.c ****       if(READ_BIT(FLASH->ACR, FLASH_ACR_DCEN) != RESET)
 179:../../drivers/third_party/ST/STM32L4xx_HAL_Driver/Src/stm32l4xx_hal_flash_ex.c ****       {
 180:../../drivers/third_party/ST/STM32L4xx_HAL_Driver/Src/stm32l4xx_hal_flash_ex.c ****         /* Disable data cache  */
 181:../../drivers/third_party/ST/STM32L4xx_HAL_Driver/Src/stm32l4xx_hal_flash_ex.c ****         __HAL_FLASH_DATA_CACHE_DISABLE();
 182:../../drivers/third_party/ST/STM32L4xx_HAL_Driver/Src/stm32l4xx_hal_flash_ex.c ****         pFlash.CacheToReactivate = FLASH_CACHE_ICACHE_DCACHE_ENABLED;
 183:../../drivers/third_party/ST/STM32L4xx_HAL_Driver/Src/stm32l4xx_hal_flash_ex.c ****       }
 184:../../drivers/third_party/ST/STM32L4xx_HAL_Driver/Src/stm32l4xx_hal_flash_ex.c ****       else
 185:../../drivers/third_party/ST/STM32L4xx_HAL_Driver/Src/stm32l4xx_hal_flash_ex.c ****       {
 186:../../drivers/third_party/ST/STM32L4xx_HAL_Driver/Src/stm32l4xx_hal_flash_ex.c ****         pFlash.CacheToReactivate = FLASH_CACHE_ICACHE_ENABLED;
 187:../../drivers/third_party/ST/STM32L4xx_HAL_Driver/Src/stm32l4xx_hal_flash_ex.c ****       }
 188:../../drivers/third_party/ST/STM32L4xx_HAL_Driver/Src/stm32l4xx_hal_flash_ex.c ****     }
 189:../../drivers/third_party/ST/STM32L4xx_HAL_Driver/Src/stm32l4xx_hal_flash_ex.c ****     else if(READ_BIT(FLASH->ACR, FLASH_ACR_DCEN) != RESET)
 190:../../drivers/third_party/ST/STM32L4xx_HAL_Driver/Src/stm32l4xx_hal_flash_ex.c ****     {
 191:../../drivers/third_party/ST/STM32L4xx_HAL_Driver/Src/stm32l4xx_hal_flash_ex.c ****       /* Disable data cache  */
 192:../../drivers/third_party/ST/STM32L4xx_HAL_Driver/Src/stm32l4xx_hal_flash_ex.c ****       __HAL_FLASH_DATA_CACHE_DISABLE();
 193:../../drivers/third_party/ST/STM32L4xx_HAL_Driver/Src/stm32l4xx_hal_flash_ex.c ****       pFlash.CacheToReactivate = FLASH_CACHE_DCACHE_ENABLED;
 194:../../drivers/third_party/ST/STM32L4xx_HAL_Driver/Src/stm32l4xx_hal_flash_ex.c ****     }
 195:../../drivers/third_party/ST/STM32L4xx_HAL_Driver/Src/stm32l4xx_hal_flash_ex.c ****     else
 196:../../drivers/third_party/ST/STM32L4xx_HAL_Driver/Src/stm32l4xx_hal_flash_ex.c ****     {
 197:../../drivers/third_party/ST/STM32L4xx_HAL_Driver/Src/stm32l4xx_hal_flash_ex.c ****       pFlash.CacheToReactivate = FLASH_CACHE_DISABLED;
 198:../../drivers/third_party/ST/STM32L4xx_HAL_Driver/Src/stm32l4xx_hal_flash_ex.c ****     }
 199:../../drivers/third_party/ST/STM32L4xx_HAL_Driver/Src/stm32l4xx_hal_flash_ex.c **** 
 200:../../drivers/third_party/ST/STM32L4xx_HAL_Driver/Src/stm32l4xx_hal_flash_ex.c ****     if (pEraseInit->TypeErase == FLASH_TYPEERASE_MASSERASE)
 201:../../drivers/third_party/ST/STM32L4xx_HAL_Driver/Src/stm32l4xx_hal_flash_ex.c ****     {
 202:../../drivers/third_party/ST/STM32L4xx_HAL_Driver/Src/stm32l4xx_hal_flash_ex.c ****       /* Mass erase to be done */
 203:../../drivers/third_party/ST/STM32L4xx_HAL_Driver/Src/stm32l4xx_hal_flash_ex.c ****       FLASH_MassErase(pEraseInit->Banks);
ARM GAS  C:\Users\LuckyE\AppData\Local\Temp\ccBar2YG.s 			page 5


 204:../../drivers/third_party/ST/STM32L4xx_HAL_Driver/Src/stm32l4xx_hal_flash_ex.c **** 
 205:../../drivers/third_party/ST/STM32L4xx_HAL_Driver/Src/stm32l4xx_hal_flash_ex.c ****       /* Wait for last operation to be completed */
 206:../../drivers/third_party/ST/STM32L4xx_HAL_Driver/Src/stm32l4xx_hal_flash_ex.c ****       status = FLASH_WaitForLastOperation((uint32_t)FLASH_TIMEOUT_VALUE);
 207:../../drivers/third_party/ST/STM32L4xx_HAL_Driver/Src/stm32l4xx_hal_flash_ex.c **** 
 208:../../drivers/third_party/ST/STM32L4xx_HAL_Driver/Src/stm32l4xx_hal_flash_ex.c **** #if defined (STM32L471xx) || defined (STM32L475xx) || defined (STM32L476xx) || defined (STM32L485xx
 209:../../drivers/third_party/ST/STM32L4xx_HAL_Driver/Src/stm32l4xx_hal_flash_ex.c ****     defined (STM32L496xx) || defined (STM32L4A6xx) || \
 210:../../drivers/third_party/ST/STM32L4xx_HAL_Driver/Src/stm32l4xx_hal_flash_ex.c ****     defined (STM32L4R5xx) || defined (STM32L4R7xx) || defined (STM32L4R9xx) || defined (STM32L4S5xx
 211:../../drivers/third_party/ST/STM32L4xx_HAL_Driver/Src/stm32l4xx_hal_flash_ex.c ****       /* If the erase operation is completed, disable the MER1 and MER2 Bits */
 212:../../drivers/third_party/ST/STM32L4xx_HAL_Driver/Src/stm32l4xx_hal_flash_ex.c ****       CLEAR_BIT(FLASH->CR, (FLASH_CR_MER1 | FLASH_CR_MER2));
 213:../../drivers/third_party/ST/STM32L4xx_HAL_Driver/Src/stm32l4xx_hal_flash_ex.c **** #else
 214:../../drivers/third_party/ST/STM32L4xx_HAL_Driver/Src/stm32l4xx_hal_flash_ex.c ****       /* If the erase operation is completed, disable the MER1 Bit */
 215:../../drivers/third_party/ST/STM32L4xx_HAL_Driver/Src/stm32l4xx_hal_flash_ex.c ****       CLEAR_BIT(FLASH->CR, (FLASH_CR_MER1));
 216:../../drivers/third_party/ST/STM32L4xx_HAL_Driver/Src/stm32l4xx_hal_flash_ex.c **** #endif      
 217:../../drivers/third_party/ST/STM32L4xx_HAL_Driver/Src/stm32l4xx_hal_flash_ex.c ****     }
 218:../../drivers/third_party/ST/STM32L4xx_HAL_Driver/Src/stm32l4xx_hal_flash_ex.c ****     else
 219:../../drivers/third_party/ST/STM32L4xx_HAL_Driver/Src/stm32l4xx_hal_flash_ex.c ****     {
 220:../../drivers/third_party/ST/STM32L4xx_HAL_Driver/Src/stm32l4xx_hal_flash_ex.c ****       /*Initialization of PageError variable*/
 221:../../drivers/third_party/ST/STM32L4xx_HAL_Driver/Src/stm32l4xx_hal_flash_ex.c ****       *PageError = 0xFFFFFFFF;
 222:../../drivers/third_party/ST/STM32L4xx_HAL_Driver/Src/stm32l4xx_hal_flash_ex.c ****       
 223:../../drivers/third_party/ST/STM32L4xx_HAL_Driver/Src/stm32l4xx_hal_flash_ex.c ****       for(page_index = pEraseInit->Page; page_index < (pEraseInit->Page + pEraseInit->NbPages); pag
 224:../../drivers/third_party/ST/STM32L4xx_HAL_Driver/Src/stm32l4xx_hal_flash_ex.c ****       {
 225:../../drivers/third_party/ST/STM32L4xx_HAL_Driver/Src/stm32l4xx_hal_flash_ex.c ****         FLASH_PageErase(page_index, pEraseInit->Banks);
 226:../../drivers/third_party/ST/STM32L4xx_HAL_Driver/Src/stm32l4xx_hal_flash_ex.c **** 
 227:../../drivers/third_party/ST/STM32L4xx_HAL_Driver/Src/stm32l4xx_hal_flash_ex.c ****         /* Wait for last operation to be completed */
 228:../../drivers/third_party/ST/STM32L4xx_HAL_Driver/Src/stm32l4xx_hal_flash_ex.c ****         status = FLASH_WaitForLastOperation((uint32_t)FLASH_TIMEOUT_VALUE);
 229:../../drivers/third_party/ST/STM32L4xx_HAL_Driver/Src/stm32l4xx_hal_flash_ex.c **** 
 230:../../drivers/third_party/ST/STM32L4xx_HAL_Driver/Src/stm32l4xx_hal_flash_ex.c ****         /* If the erase operation is completed, disable the PER Bit */
 231:../../drivers/third_party/ST/STM32L4xx_HAL_Driver/Src/stm32l4xx_hal_flash_ex.c ****         CLEAR_BIT(FLASH->CR, (FLASH_CR_PER | FLASH_CR_PNB));
 232:../../drivers/third_party/ST/STM32L4xx_HAL_Driver/Src/stm32l4xx_hal_flash_ex.c **** 
 233:../../drivers/third_party/ST/STM32L4xx_HAL_Driver/Src/stm32l4xx_hal_flash_ex.c ****         if (status != HAL_OK)
 234:../../drivers/third_party/ST/STM32L4xx_HAL_Driver/Src/stm32l4xx_hal_flash_ex.c ****         {
 235:../../drivers/third_party/ST/STM32L4xx_HAL_Driver/Src/stm32l4xx_hal_flash_ex.c ****           /* In case of error, stop erase procedure and return the faulty address */
 236:../../drivers/third_party/ST/STM32L4xx_HAL_Driver/Src/stm32l4xx_hal_flash_ex.c ****           *PageError = page_index;
 237:../../drivers/third_party/ST/STM32L4xx_HAL_Driver/Src/stm32l4xx_hal_flash_ex.c ****           break;
 238:../../drivers/third_party/ST/STM32L4xx_HAL_Driver/Src/stm32l4xx_hal_flash_ex.c ****         }
 239:../../drivers/third_party/ST/STM32L4xx_HAL_Driver/Src/stm32l4xx_hal_flash_ex.c ****       }
 240:../../drivers/third_party/ST/STM32L4xx_HAL_Driver/Src/stm32l4xx_hal_flash_ex.c ****     }
 241:../../drivers/third_party/ST/STM32L4xx_HAL_Driver/Src/stm32l4xx_hal_flash_ex.c ****     
 242:../../drivers/third_party/ST/STM32L4xx_HAL_Driver/Src/stm32l4xx_hal_flash_ex.c ****     /* Flush the caches to be sure of the data consistency */
 243:../../drivers/third_party/ST/STM32L4xx_HAL_Driver/Src/stm32l4xx_hal_flash_ex.c ****     FLASH_FlushCaches();
 244:../../drivers/third_party/ST/STM32L4xx_HAL_Driver/Src/stm32l4xx_hal_flash_ex.c ****   }
 245:../../drivers/third_party/ST/STM32L4xx_HAL_Driver/Src/stm32l4xx_hal_flash_ex.c **** 
 246:../../drivers/third_party/ST/STM32L4xx_HAL_Driver/Src/stm32l4xx_hal_flash_ex.c ****   /* Process Unlocked */
 247:../../drivers/third_party/ST/STM32L4xx_HAL_Driver/Src/stm32l4xx_hal_flash_ex.c ****   __HAL_UNLOCK(&pFlash);
 248:../../drivers/third_party/ST/STM32L4xx_HAL_Driver/Src/stm32l4xx_hal_flash_ex.c **** 
 249:../../drivers/third_party/ST/STM32L4xx_HAL_Driver/Src/stm32l4xx_hal_flash_ex.c ****   return status;
 250:../../drivers/third_party/ST/STM32L4xx_HAL_Driver/Src/stm32l4xx_hal_flash_ex.c **** }
 251:../../drivers/third_party/ST/STM32L4xx_HAL_Driver/Src/stm32l4xx_hal_flash_ex.c **** 
 252:../../drivers/third_party/ST/STM32L4xx_HAL_Driver/Src/stm32l4xx_hal_flash_ex.c **** /**
 253:../../drivers/third_party/ST/STM32L4xx_HAL_Driver/Src/stm32l4xx_hal_flash_ex.c ****   * @brief  Perform a mass erase or erase the specified FLASH memory pages with interrupt enabled.
 254:../../drivers/third_party/ST/STM32L4xx_HAL_Driver/Src/stm32l4xx_hal_flash_ex.c ****   * @param  pEraseInit: pointer to an FLASH_EraseInitTypeDef structure that
 255:../../drivers/third_party/ST/STM32L4xx_HAL_Driver/Src/stm32l4xx_hal_flash_ex.c ****   *         contains the configuration information for the erasing.
 256:../../drivers/third_party/ST/STM32L4xx_HAL_Driver/Src/stm32l4xx_hal_flash_ex.c ****   * 
 257:../../drivers/third_party/ST/STM32L4xx_HAL_Driver/Src/stm32l4xx_hal_flash_ex.c ****   * @retval HAL Status
 258:../../drivers/third_party/ST/STM32L4xx_HAL_Driver/Src/stm32l4xx_hal_flash_ex.c ****   */
 259:../../drivers/third_party/ST/STM32L4xx_HAL_Driver/Src/stm32l4xx_hal_flash_ex.c **** HAL_StatusTypeDef HAL_FLASHEx_Erase_IT(FLASH_EraseInitTypeDef *pEraseInit)
 260:../../drivers/third_party/ST/STM32L4xx_HAL_Driver/Src/stm32l4xx_hal_flash_ex.c **** {
ARM GAS  C:\Users\LuckyE\AppData\Local\Temp\ccBar2YG.s 			page 6


 261:../../drivers/third_party/ST/STM32L4xx_HAL_Driver/Src/stm32l4xx_hal_flash_ex.c ****   HAL_StatusTypeDef status = HAL_OK;
 262:../../drivers/third_party/ST/STM32L4xx_HAL_Driver/Src/stm32l4xx_hal_flash_ex.c **** 
 263:../../drivers/third_party/ST/STM32L4xx_HAL_Driver/Src/stm32l4xx_hal_flash_ex.c ****   /* Process Locked */
 264:../../drivers/third_party/ST/STM32L4xx_HAL_Driver/Src/stm32l4xx_hal_flash_ex.c ****   __HAL_LOCK(&pFlash);
 265:../../drivers/third_party/ST/STM32L4xx_HAL_Driver/Src/stm32l4xx_hal_flash_ex.c **** 
 266:../../drivers/third_party/ST/STM32L4xx_HAL_Driver/Src/stm32l4xx_hal_flash_ex.c ****   /* Check the parameters */
 267:../../drivers/third_party/ST/STM32L4xx_HAL_Driver/Src/stm32l4xx_hal_flash_ex.c ****   assert_param(IS_FLASH_TYPEERASE(pEraseInit->TypeErase));
 268:../../drivers/third_party/ST/STM32L4xx_HAL_Driver/Src/stm32l4xx_hal_flash_ex.c **** 
 269:../../drivers/third_party/ST/STM32L4xx_HAL_Driver/Src/stm32l4xx_hal_flash_ex.c ****   pFlash.ErrorCode = HAL_FLASH_ERROR_NONE;
 270:../../drivers/third_party/ST/STM32L4xx_HAL_Driver/Src/stm32l4xx_hal_flash_ex.c **** 
 271:../../drivers/third_party/ST/STM32L4xx_HAL_Driver/Src/stm32l4xx_hal_flash_ex.c ****   /* Deactivate the cache if they are activated to avoid data misbehavior */
 272:../../drivers/third_party/ST/STM32L4xx_HAL_Driver/Src/stm32l4xx_hal_flash_ex.c ****   if(READ_BIT(FLASH->ACR, FLASH_ACR_ICEN) != RESET)
 273:../../drivers/third_party/ST/STM32L4xx_HAL_Driver/Src/stm32l4xx_hal_flash_ex.c ****   {
 274:../../drivers/third_party/ST/STM32L4xx_HAL_Driver/Src/stm32l4xx_hal_flash_ex.c ****     /* Disable instruction cache  */
 275:../../drivers/third_party/ST/STM32L4xx_HAL_Driver/Src/stm32l4xx_hal_flash_ex.c ****     __HAL_FLASH_INSTRUCTION_CACHE_DISABLE();
 276:../../drivers/third_party/ST/STM32L4xx_HAL_Driver/Src/stm32l4xx_hal_flash_ex.c ****     
 277:../../drivers/third_party/ST/STM32L4xx_HAL_Driver/Src/stm32l4xx_hal_flash_ex.c ****     if(READ_BIT(FLASH->ACR, FLASH_ACR_DCEN) != RESET)
 278:../../drivers/third_party/ST/STM32L4xx_HAL_Driver/Src/stm32l4xx_hal_flash_ex.c ****     {
 279:../../drivers/third_party/ST/STM32L4xx_HAL_Driver/Src/stm32l4xx_hal_flash_ex.c ****       /* Disable data cache  */
 280:../../drivers/third_party/ST/STM32L4xx_HAL_Driver/Src/stm32l4xx_hal_flash_ex.c ****       __HAL_FLASH_DATA_CACHE_DISABLE();
 281:../../drivers/third_party/ST/STM32L4xx_HAL_Driver/Src/stm32l4xx_hal_flash_ex.c ****       pFlash.CacheToReactivate = FLASH_CACHE_ICACHE_DCACHE_ENABLED;
 282:../../drivers/third_party/ST/STM32L4xx_HAL_Driver/Src/stm32l4xx_hal_flash_ex.c ****     }
 283:../../drivers/third_party/ST/STM32L4xx_HAL_Driver/Src/stm32l4xx_hal_flash_ex.c ****     else
 284:../../drivers/third_party/ST/STM32L4xx_HAL_Driver/Src/stm32l4xx_hal_flash_ex.c ****     {
 285:../../drivers/third_party/ST/STM32L4xx_HAL_Driver/Src/stm32l4xx_hal_flash_ex.c ****       pFlash.CacheToReactivate = FLASH_CACHE_ICACHE_ENABLED;
 286:../../drivers/third_party/ST/STM32L4xx_HAL_Driver/Src/stm32l4xx_hal_flash_ex.c ****     }
 287:../../drivers/third_party/ST/STM32L4xx_HAL_Driver/Src/stm32l4xx_hal_flash_ex.c ****   }
 288:../../drivers/third_party/ST/STM32L4xx_HAL_Driver/Src/stm32l4xx_hal_flash_ex.c ****   else if(READ_BIT(FLASH->ACR, FLASH_ACR_DCEN) != RESET)
 289:../../drivers/third_party/ST/STM32L4xx_HAL_Driver/Src/stm32l4xx_hal_flash_ex.c ****   {
 290:../../drivers/third_party/ST/STM32L4xx_HAL_Driver/Src/stm32l4xx_hal_flash_ex.c ****     /* Disable data cache  */
 291:../../drivers/third_party/ST/STM32L4xx_HAL_Driver/Src/stm32l4xx_hal_flash_ex.c ****     __HAL_FLASH_DATA_CACHE_DISABLE();
 292:../../drivers/third_party/ST/STM32L4xx_HAL_Driver/Src/stm32l4xx_hal_flash_ex.c ****     pFlash.CacheToReactivate = FLASH_CACHE_DCACHE_ENABLED;
 293:../../drivers/third_party/ST/STM32L4xx_HAL_Driver/Src/stm32l4xx_hal_flash_ex.c ****   }
 294:../../drivers/third_party/ST/STM32L4xx_HAL_Driver/Src/stm32l4xx_hal_flash_ex.c ****   else
 295:../../drivers/third_party/ST/STM32L4xx_HAL_Driver/Src/stm32l4xx_hal_flash_ex.c ****   {
 296:../../drivers/third_party/ST/STM32L4xx_HAL_Driver/Src/stm32l4xx_hal_flash_ex.c ****     pFlash.CacheToReactivate = FLASH_CACHE_DISABLED;
 297:../../drivers/third_party/ST/STM32L4xx_HAL_Driver/Src/stm32l4xx_hal_flash_ex.c ****   }
 298:../../drivers/third_party/ST/STM32L4xx_HAL_Driver/Src/stm32l4xx_hal_flash_ex.c **** 
 299:../../drivers/third_party/ST/STM32L4xx_HAL_Driver/Src/stm32l4xx_hal_flash_ex.c ****   /* Enable End of Operation and Error interrupts */
 300:../../drivers/third_party/ST/STM32L4xx_HAL_Driver/Src/stm32l4xx_hal_flash_ex.c ****   __HAL_FLASH_ENABLE_IT(FLASH_IT_EOP | FLASH_IT_OPERR);
 301:../../drivers/third_party/ST/STM32L4xx_HAL_Driver/Src/stm32l4xx_hal_flash_ex.c **** 
 302:../../drivers/third_party/ST/STM32L4xx_HAL_Driver/Src/stm32l4xx_hal_flash_ex.c ****   pFlash.Bank = pEraseInit->Banks;
 303:../../drivers/third_party/ST/STM32L4xx_HAL_Driver/Src/stm32l4xx_hal_flash_ex.c **** 
 304:../../drivers/third_party/ST/STM32L4xx_HAL_Driver/Src/stm32l4xx_hal_flash_ex.c ****   if (pEraseInit->TypeErase == FLASH_TYPEERASE_MASSERASE)
 305:../../drivers/third_party/ST/STM32L4xx_HAL_Driver/Src/stm32l4xx_hal_flash_ex.c ****   {
 306:../../drivers/third_party/ST/STM32L4xx_HAL_Driver/Src/stm32l4xx_hal_flash_ex.c ****     /* Mass erase to be done */
 307:../../drivers/third_party/ST/STM32L4xx_HAL_Driver/Src/stm32l4xx_hal_flash_ex.c ****     pFlash.ProcedureOnGoing = FLASH_PROC_MASS_ERASE;
 308:../../drivers/third_party/ST/STM32L4xx_HAL_Driver/Src/stm32l4xx_hal_flash_ex.c ****     FLASH_MassErase(pEraseInit->Banks);
 309:../../drivers/third_party/ST/STM32L4xx_HAL_Driver/Src/stm32l4xx_hal_flash_ex.c ****   }
 310:../../drivers/third_party/ST/STM32L4xx_HAL_Driver/Src/stm32l4xx_hal_flash_ex.c ****   else
 311:../../drivers/third_party/ST/STM32L4xx_HAL_Driver/Src/stm32l4xx_hal_flash_ex.c ****   {
 312:../../drivers/third_party/ST/STM32L4xx_HAL_Driver/Src/stm32l4xx_hal_flash_ex.c ****     /* Erase by page to be done */
 313:../../drivers/third_party/ST/STM32L4xx_HAL_Driver/Src/stm32l4xx_hal_flash_ex.c ****     pFlash.ProcedureOnGoing = FLASH_PROC_PAGE_ERASE;
 314:../../drivers/third_party/ST/STM32L4xx_HAL_Driver/Src/stm32l4xx_hal_flash_ex.c ****     pFlash.NbPagesToErase = pEraseInit->NbPages;
 315:../../drivers/third_party/ST/STM32L4xx_HAL_Driver/Src/stm32l4xx_hal_flash_ex.c ****     pFlash.Page = pEraseInit->Page;
 316:../../drivers/third_party/ST/STM32L4xx_HAL_Driver/Src/stm32l4xx_hal_flash_ex.c **** 
 317:../../drivers/third_party/ST/STM32L4xx_HAL_Driver/Src/stm32l4xx_hal_flash_ex.c ****     /*Erase 1st page and wait for IT */
ARM GAS  C:\Users\LuckyE\AppData\Local\Temp\ccBar2YG.s 			page 7


 318:../../drivers/third_party/ST/STM32L4xx_HAL_Driver/Src/stm32l4xx_hal_flash_ex.c ****     FLASH_PageErase(pEraseInit->Page, pEraseInit->Banks);
 319:../../drivers/third_party/ST/STM32L4xx_HAL_Driver/Src/stm32l4xx_hal_flash_ex.c ****   }
 320:../../drivers/third_party/ST/STM32L4xx_HAL_Driver/Src/stm32l4xx_hal_flash_ex.c ****   
 321:../../drivers/third_party/ST/STM32L4xx_HAL_Driver/Src/stm32l4xx_hal_flash_ex.c ****   return status;
 322:../../drivers/third_party/ST/STM32L4xx_HAL_Driver/Src/stm32l4xx_hal_flash_ex.c **** }
 323:../../drivers/third_party/ST/STM32L4xx_HAL_Driver/Src/stm32l4xx_hal_flash_ex.c **** 
 324:../../drivers/third_party/ST/STM32L4xx_HAL_Driver/Src/stm32l4xx_hal_flash_ex.c **** /**
 325:../../drivers/third_party/ST/STM32L4xx_HAL_Driver/Src/stm32l4xx_hal_flash_ex.c ****   * @brief  Program Option bytes.
 326:../../drivers/third_party/ST/STM32L4xx_HAL_Driver/Src/stm32l4xx_hal_flash_ex.c ****   * @param  pOBInit: pointer to an FLASH_OBInitStruct structure that
 327:../../drivers/third_party/ST/STM32L4xx_HAL_Driver/Src/stm32l4xx_hal_flash_ex.c ****   *         contains the configuration information for the programming.
 328:../../drivers/third_party/ST/STM32L4xx_HAL_Driver/Src/stm32l4xx_hal_flash_ex.c ****   * 
 329:../../drivers/third_party/ST/STM32L4xx_HAL_Driver/Src/stm32l4xx_hal_flash_ex.c ****   * @retval HAL Status
 330:../../drivers/third_party/ST/STM32L4xx_HAL_Driver/Src/stm32l4xx_hal_flash_ex.c ****   */
 331:../../drivers/third_party/ST/STM32L4xx_HAL_Driver/Src/stm32l4xx_hal_flash_ex.c **** HAL_StatusTypeDef HAL_FLASHEx_OBProgram(FLASH_OBProgramInitTypeDef *pOBInit)
 332:../../drivers/third_party/ST/STM32L4xx_HAL_Driver/Src/stm32l4xx_hal_flash_ex.c **** {
 333:../../drivers/third_party/ST/STM32L4xx_HAL_Driver/Src/stm32l4xx_hal_flash_ex.c ****   HAL_StatusTypeDef status = HAL_OK;
 334:../../drivers/third_party/ST/STM32L4xx_HAL_Driver/Src/stm32l4xx_hal_flash_ex.c ****   
 335:../../drivers/third_party/ST/STM32L4xx_HAL_Driver/Src/stm32l4xx_hal_flash_ex.c ****   /* Process Locked */
 336:../../drivers/third_party/ST/STM32L4xx_HAL_Driver/Src/stm32l4xx_hal_flash_ex.c ****   __HAL_LOCK(&pFlash);
 337:../../drivers/third_party/ST/STM32L4xx_HAL_Driver/Src/stm32l4xx_hal_flash_ex.c **** 
 338:../../drivers/third_party/ST/STM32L4xx_HAL_Driver/Src/stm32l4xx_hal_flash_ex.c ****   /* Check the parameters */
 339:../../drivers/third_party/ST/STM32L4xx_HAL_Driver/Src/stm32l4xx_hal_flash_ex.c ****   assert_param(IS_OPTIONBYTE(pOBInit->OptionType));
 340:../../drivers/third_party/ST/STM32L4xx_HAL_Driver/Src/stm32l4xx_hal_flash_ex.c ****   
 341:../../drivers/third_party/ST/STM32L4xx_HAL_Driver/Src/stm32l4xx_hal_flash_ex.c ****   pFlash.ErrorCode = HAL_FLASH_ERROR_NONE;
 342:../../drivers/third_party/ST/STM32L4xx_HAL_Driver/Src/stm32l4xx_hal_flash_ex.c **** 
 343:../../drivers/third_party/ST/STM32L4xx_HAL_Driver/Src/stm32l4xx_hal_flash_ex.c ****   /* Write protection configuration */
 344:../../drivers/third_party/ST/STM32L4xx_HAL_Driver/Src/stm32l4xx_hal_flash_ex.c ****   if((pOBInit->OptionType & OPTIONBYTE_WRP) != RESET)
 345:../../drivers/third_party/ST/STM32L4xx_HAL_Driver/Src/stm32l4xx_hal_flash_ex.c ****   {
 346:../../drivers/third_party/ST/STM32L4xx_HAL_Driver/Src/stm32l4xx_hal_flash_ex.c ****     /* Configure of Write protection on the selected area */
 347:../../drivers/third_party/ST/STM32L4xx_HAL_Driver/Src/stm32l4xx_hal_flash_ex.c ****     if(FLASH_OB_WRPConfig(pOBInit->WRPArea, pOBInit->WRPStartOffset, pOBInit->WRPEndOffset) != HAL_
 348:../../drivers/third_party/ST/STM32L4xx_HAL_Driver/Src/stm32l4xx_hal_flash_ex.c ****     {
 349:../../drivers/third_party/ST/STM32L4xx_HAL_Driver/Src/stm32l4xx_hal_flash_ex.c ****       status = HAL_ERROR;
 350:../../drivers/third_party/ST/STM32L4xx_HAL_Driver/Src/stm32l4xx_hal_flash_ex.c ****     }
 351:../../drivers/third_party/ST/STM32L4xx_HAL_Driver/Src/stm32l4xx_hal_flash_ex.c ****     
 352:../../drivers/third_party/ST/STM32L4xx_HAL_Driver/Src/stm32l4xx_hal_flash_ex.c ****   }
 353:../../drivers/third_party/ST/STM32L4xx_HAL_Driver/Src/stm32l4xx_hal_flash_ex.c ****   
 354:../../drivers/third_party/ST/STM32L4xx_HAL_Driver/Src/stm32l4xx_hal_flash_ex.c ****   /* Read protection configuration */
 355:../../drivers/third_party/ST/STM32L4xx_HAL_Driver/Src/stm32l4xx_hal_flash_ex.c ****   if((pOBInit->OptionType & OPTIONBYTE_RDP) != RESET)
 356:../../drivers/third_party/ST/STM32L4xx_HAL_Driver/Src/stm32l4xx_hal_flash_ex.c ****   {
 357:../../drivers/third_party/ST/STM32L4xx_HAL_Driver/Src/stm32l4xx_hal_flash_ex.c ****     /* Configure the Read protection level */
 358:../../drivers/third_party/ST/STM32L4xx_HAL_Driver/Src/stm32l4xx_hal_flash_ex.c ****     if(FLASH_OB_RDPConfig(pOBInit->RDPLevel) != HAL_OK)
 359:../../drivers/third_party/ST/STM32L4xx_HAL_Driver/Src/stm32l4xx_hal_flash_ex.c ****     {
 360:../../drivers/third_party/ST/STM32L4xx_HAL_Driver/Src/stm32l4xx_hal_flash_ex.c ****       status = HAL_ERROR;
 361:../../drivers/third_party/ST/STM32L4xx_HAL_Driver/Src/stm32l4xx_hal_flash_ex.c ****     }
 362:../../drivers/third_party/ST/STM32L4xx_HAL_Driver/Src/stm32l4xx_hal_flash_ex.c ****   }
 363:../../drivers/third_party/ST/STM32L4xx_HAL_Driver/Src/stm32l4xx_hal_flash_ex.c ****   
 364:../../drivers/third_party/ST/STM32L4xx_HAL_Driver/Src/stm32l4xx_hal_flash_ex.c ****   /* User Configuration */
 365:../../drivers/third_party/ST/STM32L4xx_HAL_Driver/Src/stm32l4xx_hal_flash_ex.c ****   if((pOBInit->OptionType & OPTIONBYTE_USER) != RESET)
 366:../../drivers/third_party/ST/STM32L4xx_HAL_Driver/Src/stm32l4xx_hal_flash_ex.c ****   {
 367:../../drivers/third_party/ST/STM32L4xx_HAL_Driver/Src/stm32l4xx_hal_flash_ex.c ****     /* Configure the user option bytes */
 368:../../drivers/third_party/ST/STM32L4xx_HAL_Driver/Src/stm32l4xx_hal_flash_ex.c ****     if(FLASH_OB_UserConfig(pOBInit->USERType, pOBInit->USERConfig) != HAL_OK)
 369:../../drivers/third_party/ST/STM32L4xx_HAL_Driver/Src/stm32l4xx_hal_flash_ex.c ****     {
 370:../../drivers/third_party/ST/STM32L4xx_HAL_Driver/Src/stm32l4xx_hal_flash_ex.c ****       status = HAL_ERROR;
 371:../../drivers/third_party/ST/STM32L4xx_HAL_Driver/Src/stm32l4xx_hal_flash_ex.c ****     }
 372:../../drivers/third_party/ST/STM32L4xx_HAL_Driver/Src/stm32l4xx_hal_flash_ex.c ****   }
 373:../../drivers/third_party/ST/STM32L4xx_HAL_Driver/Src/stm32l4xx_hal_flash_ex.c ****   
 374:../../drivers/third_party/ST/STM32L4xx_HAL_Driver/Src/stm32l4xx_hal_flash_ex.c ****   /* PCROP Configuration */
ARM GAS  C:\Users\LuckyE\AppData\Local\Temp\ccBar2YG.s 			page 8


 375:../../drivers/third_party/ST/STM32L4xx_HAL_Driver/Src/stm32l4xx_hal_flash_ex.c ****   if((pOBInit->OptionType & OPTIONBYTE_PCROP) != RESET)
 376:../../drivers/third_party/ST/STM32L4xx_HAL_Driver/Src/stm32l4xx_hal_flash_ex.c ****   {
 377:../../drivers/third_party/ST/STM32L4xx_HAL_Driver/Src/stm32l4xx_hal_flash_ex.c ****     if (pOBInit->PCROPStartAddr != pOBInit->PCROPEndAddr)
 378:../../drivers/third_party/ST/STM32L4xx_HAL_Driver/Src/stm32l4xx_hal_flash_ex.c ****     {
 379:../../drivers/third_party/ST/STM32L4xx_HAL_Driver/Src/stm32l4xx_hal_flash_ex.c ****       /* Configure the Proprietary code readout protection */
 380:../../drivers/third_party/ST/STM32L4xx_HAL_Driver/Src/stm32l4xx_hal_flash_ex.c ****       if(FLASH_OB_PCROPConfig(pOBInit->PCROPConfig, pOBInit->PCROPStartAddr, pOBInit->PCROPEndAddr)
 381:../../drivers/third_party/ST/STM32L4xx_HAL_Driver/Src/stm32l4xx_hal_flash_ex.c ****       {
 382:../../drivers/third_party/ST/STM32L4xx_HAL_Driver/Src/stm32l4xx_hal_flash_ex.c ****         status = HAL_ERROR;
 383:../../drivers/third_party/ST/STM32L4xx_HAL_Driver/Src/stm32l4xx_hal_flash_ex.c ****       }
 384:../../drivers/third_party/ST/STM32L4xx_HAL_Driver/Src/stm32l4xx_hal_flash_ex.c ****     }
 385:../../drivers/third_party/ST/STM32L4xx_HAL_Driver/Src/stm32l4xx_hal_flash_ex.c ****   }
 386:../../drivers/third_party/ST/STM32L4xx_HAL_Driver/Src/stm32l4xx_hal_flash_ex.c **** 
 387:../../drivers/third_party/ST/STM32L4xx_HAL_Driver/Src/stm32l4xx_hal_flash_ex.c ****   /* Process Unlocked */
 388:../../drivers/third_party/ST/STM32L4xx_HAL_Driver/Src/stm32l4xx_hal_flash_ex.c ****   __HAL_UNLOCK(&pFlash);
 389:../../drivers/third_party/ST/STM32L4xx_HAL_Driver/Src/stm32l4xx_hal_flash_ex.c **** 
 390:../../drivers/third_party/ST/STM32L4xx_HAL_Driver/Src/stm32l4xx_hal_flash_ex.c ****   return status;
 391:../../drivers/third_party/ST/STM32L4xx_HAL_Driver/Src/stm32l4xx_hal_flash_ex.c **** }
 392:../../drivers/third_party/ST/STM32L4xx_HAL_Driver/Src/stm32l4xx_hal_flash_ex.c **** 
 393:../../drivers/third_party/ST/STM32L4xx_HAL_Driver/Src/stm32l4xx_hal_flash_ex.c **** /**
 394:../../drivers/third_party/ST/STM32L4xx_HAL_Driver/Src/stm32l4xx_hal_flash_ex.c ****   * @brief  Get the Option bytes configuration.
 395:../../drivers/third_party/ST/STM32L4xx_HAL_Driver/Src/stm32l4xx_hal_flash_ex.c ****   * @param  pOBInit: pointer to an FLASH_OBInitStruct structure that contains the 
 396:../../drivers/third_party/ST/STM32L4xx_HAL_Driver/Src/stm32l4xx_hal_flash_ex.c ****   *                  configuration information.
 397:../../drivers/third_party/ST/STM32L4xx_HAL_Driver/Src/stm32l4xx_hal_flash_ex.c ****   * @note   The fields pOBInit->WRPArea and pOBInit->PCROPConfig should indicate 
 398:../../drivers/third_party/ST/STM32L4xx_HAL_Driver/Src/stm32l4xx_hal_flash_ex.c ****   *         which area is requested for the WRP and PCROP, else no information will be returned
 399:../../drivers/third_party/ST/STM32L4xx_HAL_Driver/Src/stm32l4xx_hal_flash_ex.c ****   * 
 400:../../drivers/third_party/ST/STM32L4xx_HAL_Driver/Src/stm32l4xx_hal_flash_ex.c ****   * @retval None
 401:../../drivers/third_party/ST/STM32L4xx_HAL_Driver/Src/stm32l4xx_hal_flash_ex.c ****   */
 402:../../drivers/third_party/ST/STM32L4xx_HAL_Driver/Src/stm32l4xx_hal_flash_ex.c **** void HAL_FLASHEx_OBGetConfig(FLASH_OBProgramInitTypeDef *pOBInit)
 403:../../drivers/third_party/ST/STM32L4xx_HAL_Driver/Src/stm32l4xx_hal_flash_ex.c **** {
 404:../../drivers/third_party/ST/STM32L4xx_HAL_Driver/Src/stm32l4xx_hal_flash_ex.c ****   pOBInit->OptionType = (OPTIONBYTE_RDP | OPTIONBYTE_USER);
 405:../../drivers/third_party/ST/STM32L4xx_HAL_Driver/Src/stm32l4xx_hal_flash_ex.c **** 
 406:../../drivers/third_party/ST/STM32L4xx_HAL_Driver/Src/stm32l4xx_hal_flash_ex.c **** #if defined (STM32L471xx) || defined (STM32L475xx) || defined (STM32L476xx) || defined (STM32L485xx
 407:../../drivers/third_party/ST/STM32L4xx_HAL_Driver/Src/stm32l4xx_hal_flash_ex.c ****     defined (STM32L496xx) || defined (STM32L4A6xx) || \
 408:../../drivers/third_party/ST/STM32L4xx_HAL_Driver/Src/stm32l4xx_hal_flash_ex.c ****     defined (STM32L4R5xx) || defined (STM32L4R7xx) || defined (STM32L4R9xx) || defined (STM32L4S5xx
 409:../../drivers/third_party/ST/STM32L4xx_HAL_Driver/Src/stm32l4xx_hal_flash_ex.c ****   if((pOBInit->WRPArea == OB_WRPAREA_BANK1_AREAA) || (pOBInit->WRPArea == OB_WRPAREA_BANK1_AREAB) |
 410:../../drivers/third_party/ST/STM32L4xx_HAL_Driver/Src/stm32l4xx_hal_flash_ex.c ****      (pOBInit->WRPArea == OB_WRPAREA_BANK2_AREAA) || (pOBInit->WRPArea == OB_WRPAREA_BANK2_AREAB))
 411:../../drivers/third_party/ST/STM32L4xx_HAL_Driver/Src/stm32l4xx_hal_flash_ex.c **** #else
 412:../../drivers/third_party/ST/STM32L4xx_HAL_Driver/Src/stm32l4xx_hal_flash_ex.c ****   if((pOBInit->WRPArea == OB_WRPAREA_BANK1_AREAA) || (pOBInit->WRPArea == OB_WRPAREA_BANK1_AREAB))
 413:../../drivers/third_party/ST/STM32L4xx_HAL_Driver/Src/stm32l4xx_hal_flash_ex.c **** #endif
 414:../../drivers/third_party/ST/STM32L4xx_HAL_Driver/Src/stm32l4xx_hal_flash_ex.c ****   {
 415:../../drivers/third_party/ST/STM32L4xx_HAL_Driver/Src/stm32l4xx_hal_flash_ex.c ****     pOBInit->OptionType |= OPTIONBYTE_WRP;
 416:../../drivers/third_party/ST/STM32L4xx_HAL_Driver/Src/stm32l4xx_hal_flash_ex.c ****     /* Get write protection on the selected area */
 417:../../drivers/third_party/ST/STM32L4xx_HAL_Driver/Src/stm32l4xx_hal_flash_ex.c ****     FLASH_OB_GetWRP(pOBInit->WRPArea, &(pOBInit->WRPStartOffset), &(pOBInit->WRPEndOffset));
 418:../../drivers/third_party/ST/STM32L4xx_HAL_Driver/Src/stm32l4xx_hal_flash_ex.c ****   }
 419:../../drivers/third_party/ST/STM32L4xx_HAL_Driver/Src/stm32l4xx_hal_flash_ex.c ****   
 420:../../drivers/third_party/ST/STM32L4xx_HAL_Driver/Src/stm32l4xx_hal_flash_ex.c ****   /* Get Read protection level */
 421:../../drivers/third_party/ST/STM32L4xx_HAL_Driver/Src/stm32l4xx_hal_flash_ex.c ****   pOBInit->RDPLevel = FLASH_OB_GetRDP();
 422:../../drivers/third_party/ST/STM32L4xx_HAL_Driver/Src/stm32l4xx_hal_flash_ex.c ****   
 423:../../drivers/third_party/ST/STM32L4xx_HAL_Driver/Src/stm32l4xx_hal_flash_ex.c ****   /* Get the user option bytes */
 424:../../drivers/third_party/ST/STM32L4xx_HAL_Driver/Src/stm32l4xx_hal_flash_ex.c ****   pOBInit->USERConfig = FLASH_OB_GetUser();
 425:../../drivers/third_party/ST/STM32L4xx_HAL_Driver/Src/stm32l4xx_hal_flash_ex.c ****   
 426:../../drivers/third_party/ST/STM32L4xx_HAL_Driver/Src/stm32l4xx_hal_flash_ex.c **** #if defined (STM32L471xx) || defined (STM32L475xx) || defined (STM32L476xx) || defined (STM32L485xx
 427:../../drivers/third_party/ST/STM32L4xx_HAL_Driver/Src/stm32l4xx_hal_flash_ex.c ****     defined (STM32L496xx) || defined (STM32L4A6xx) || \
 428:../../drivers/third_party/ST/STM32L4xx_HAL_Driver/Src/stm32l4xx_hal_flash_ex.c ****     defined (STM32L4R5xx) || defined (STM32L4R7xx) || defined (STM32L4R9xx) || defined (STM32L4S5xx
 429:../../drivers/third_party/ST/STM32L4xx_HAL_Driver/Src/stm32l4xx_hal_flash_ex.c ****   if((pOBInit->PCROPConfig == FLASH_BANK_1) || (pOBInit->PCROPConfig == FLASH_BANK_2))
 430:../../drivers/third_party/ST/STM32L4xx_HAL_Driver/Src/stm32l4xx_hal_flash_ex.c **** #else
 431:../../drivers/third_party/ST/STM32L4xx_HAL_Driver/Src/stm32l4xx_hal_flash_ex.c ****   if(pOBInit->PCROPConfig == FLASH_BANK_1)
ARM GAS  C:\Users\LuckyE\AppData\Local\Temp\ccBar2YG.s 			page 9


 432:../../drivers/third_party/ST/STM32L4xx_HAL_Driver/Src/stm32l4xx_hal_flash_ex.c **** #endif    
 433:../../drivers/third_party/ST/STM32L4xx_HAL_Driver/Src/stm32l4xx_hal_flash_ex.c ****   {
 434:../../drivers/third_party/ST/STM32L4xx_HAL_Driver/Src/stm32l4xx_hal_flash_ex.c ****     pOBInit->OptionType |= OPTIONBYTE_PCROP;
 435:../../drivers/third_party/ST/STM32L4xx_HAL_Driver/Src/stm32l4xx_hal_flash_ex.c ****     /* Get the Proprietary code readout protection */
 436:../../drivers/third_party/ST/STM32L4xx_HAL_Driver/Src/stm32l4xx_hal_flash_ex.c ****     FLASH_OB_GetPCROP(&(pOBInit->PCROPConfig), &(pOBInit->PCROPStartAddr), &(pOBInit->PCROPEndAddr)
 437:../../drivers/third_party/ST/STM32L4xx_HAL_Driver/Src/stm32l4xx_hal_flash_ex.c ****   }
 438:../../drivers/third_party/ST/STM32L4xx_HAL_Driver/Src/stm32l4xx_hal_flash_ex.c **** }
 439:../../drivers/third_party/ST/STM32L4xx_HAL_Driver/Src/stm32l4xx_hal_flash_ex.c **** 
 440:../../drivers/third_party/ST/STM32L4xx_HAL_Driver/Src/stm32l4xx_hal_flash_ex.c **** /**
 441:../../drivers/third_party/ST/STM32L4xx_HAL_Driver/Src/stm32l4xx_hal_flash_ex.c ****   * @}
 442:../../drivers/third_party/ST/STM32L4xx_HAL_Driver/Src/stm32l4xx_hal_flash_ex.c ****   */ 
 443:../../drivers/third_party/ST/STM32L4xx_HAL_Driver/Src/stm32l4xx_hal_flash_ex.c **** 
 444:../../drivers/third_party/ST/STM32L4xx_HAL_Driver/Src/stm32l4xx_hal_flash_ex.c **** #if defined (FLASH_CFGR_LVEN)
 445:../../drivers/third_party/ST/STM32L4xx_HAL_Driver/Src/stm32l4xx_hal_flash_ex.c **** /** @defgroup FLASHEx_Exported_Functions_Group2 Extended specific configuration functions
 446:../../drivers/third_party/ST/STM32L4xx_HAL_Driver/Src/stm32l4xx_hal_flash_ex.c ****  *  @brief   Extended specific configuration functions
 447:../../drivers/third_party/ST/STM32L4xx_HAL_Driver/Src/stm32l4xx_hal_flash_ex.c ****  *
 448:../../drivers/third_party/ST/STM32L4xx_HAL_Driver/Src/stm32l4xx_hal_flash_ex.c **** @verbatim
 449:../../drivers/third_party/ST/STM32L4xx_HAL_Driver/Src/stm32l4xx_hal_flash_ex.c ****  ===============================================================================
 450:../../drivers/third_party/ST/STM32L4xx_HAL_Driver/Src/stm32l4xx_hal_flash_ex.c ****                 ##### Extended specific configuration functions #####
 451:../../drivers/third_party/ST/STM32L4xx_HAL_Driver/Src/stm32l4xx_hal_flash_ex.c ****  ===============================================================================
 452:../../drivers/third_party/ST/STM32L4xx_HAL_Driver/Src/stm32l4xx_hal_flash_ex.c ****     [..]
 453:../../drivers/third_party/ST/STM32L4xx_HAL_Driver/Src/stm32l4xx_hal_flash_ex.c ****     This subsection provides a set of functions allowing to manage the Extended FLASH
 454:../../drivers/third_party/ST/STM32L4xx_HAL_Driver/Src/stm32l4xx_hal_flash_ex.c ****     specific configurations.
 455:../../drivers/third_party/ST/STM32L4xx_HAL_Driver/Src/stm32l4xx_hal_flash_ex.c **** 
 456:../../drivers/third_party/ST/STM32L4xx_HAL_Driver/Src/stm32l4xx_hal_flash_ex.c **** @endverbatim
 457:../../drivers/third_party/ST/STM32L4xx_HAL_Driver/Src/stm32l4xx_hal_flash_ex.c ****   * @{
 458:../../drivers/third_party/ST/STM32L4xx_HAL_Driver/Src/stm32l4xx_hal_flash_ex.c ****   */
 459:../../drivers/third_party/ST/STM32L4xx_HAL_Driver/Src/stm32l4xx_hal_flash_ex.c **** 
 460:../../drivers/third_party/ST/STM32L4xx_HAL_Driver/Src/stm32l4xx_hal_flash_ex.c **** /**
 461:../../drivers/third_party/ST/STM32L4xx_HAL_Driver/Src/stm32l4xx_hal_flash_ex.c ****   * @brief  Configuration of the LVE pin of the Flash (managed by power controller
 462:../../drivers/third_party/ST/STM32L4xx_HAL_Driver/Src/stm32l4xx_hal_flash_ex.c ****   *         or forced to low in order to use an external SMPS)
 463:../../drivers/third_party/ST/STM32L4xx_HAL_Driver/Src/stm32l4xx_hal_flash_ex.c ****   * @param  ConfigLVE: Configuration of the LVE pin,
 464:../../drivers/third_party/ST/STM32L4xx_HAL_Driver/Src/stm32l4xx_hal_flash_ex.c ****   *              This parameter can be one of the following values:
 465:../../drivers/third_party/ST/STM32L4xx_HAL_Driver/Src/stm32l4xx_hal_flash_ex.c ****   *                @arg FLASH_LVE_PIN_CTRL: LVE FLASH pin controlled by power controller
 466:../../drivers/third_party/ST/STM32L4xx_HAL_Driver/Src/stm32l4xx_hal_flash_ex.c ****   *                @arg FLASH_LVE_PIN_FORCED: LVE FLASH pin enforced to low (external SMPS used)
 467:../../drivers/third_party/ST/STM32L4xx_HAL_Driver/Src/stm32l4xx_hal_flash_ex.c ****   *
 468:../../drivers/third_party/ST/STM32L4xx_HAL_Driver/Src/stm32l4xx_hal_flash_ex.c ****   * @note   Before enforcing the LVE pin to low, the SOC should be in low voltage
 469:../../drivers/third_party/ST/STM32L4xx_HAL_Driver/Src/stm32l4xx_hal_flash_ex.c ****   *         range 2 and the voltage VDD12 should be higher than 1.08V and SMPS is ON.
 470:../../drivers/third_party/ST/STM32L4xx_HAL_Driver/Src/stm32l4xx_hal_flash_ex.c ****   *
 471:../../drivers/third_party/ST/STM32L4xx_HAL_Driver/Src/stm32l4xx_hal_flash_ex.c ****   * @retval HAL Status
 472:../../drivers/third_party/ST/STM32L4xx_HAL_Driver/Src/stm32l4xx_hal_flash_ex.c ****   */
 473:../../drivers/third_party/ST/STM32L4xx_HAL_Driver/Src/stm32l4xx_hal_flash_ex.c **** HAL_StatusTypeDef HAL_FLASHEx_ConfigLVEPin(uint32_t ConfigLVE)
 474:../../drivers/third_party/ST/STM32L4xx_HAL_Driver/Src/stm32l4xx_hal_flash_ex.c **** {
 475:../../drivers/third_party/ST/STM32L4xx_HAL_Driver/Src/stm32l4xx_hal_flash_ex.c ****   HAL_StatusTypeDef status = HAL_OK;
 476:../../drivers/third_party/ST/STM32L4xx_HAL_Driver/Src/stm32l4xx_hal_flash_ex.c **** 
 477:../../drivers/third_party/ST/STM32L4xx_HAL_Driver/Src/stm32l4xx_hal_flash_ex.c ****   /* Process Locked */
 478:../../drivers/third_party/ST/STM32L4xx_HAL_Driver/Src/stm32l4xx_hal_flash_ex.c ****   __HAL_LOCK(&pFlash);
 479:../../drivers/third_party/ST/STM32L4xx_HAL_Driver/Src/stm32l4xx_hal_flash_ex.c **** 
 480:../../drivers/third_party/ST/STM32L4xx_HAL_Driver/Src/stm32l4xx_hal_flash_ex.c ****   /* Check the parameters */
 481:../../drivers/third_party/ST/STM32L4xx_HAL_Driver/Src/stm32l4xx_hal_flash_ex.c ****   assert_param(IS_FLASH_LVE_PIN(ConfigLVE));
 482:../../drivers/third_party/ST/STM32L4xx_HAL_Driver/Src/stm32l4xx_hal_flash_ex.c **** 
 483:../../drivers/third_party/ST/STM32L4xx_HAL_Driver/Src/stm32l4xx_hal_flash_ex.c ****   /* Wait for last operation to be completed */
 484:../../drivers/third_party/ST/STM32L4xx_HAL_Driver/Src/stm32l4xx_hal_flash_ex.c ****   status = FLASH_WaitForLastOperation((uint32_t)FLASH_TIMEOUT_VALUE);
 485:../../drivers/third_party/ST/STM32L4xx_HAL_Driver/Src/stm32l4xx_hal_flash_ex.c **** 
 486:../../drivers/third_party/ST/STM32L4xx_HAL_Driver/Src/stm32l4xx_hal_flash_ex.c ****   if (status == HAL_OK)
 487:../../drivers/third_party/ST/STM32L4xx_HAL_Driver/Src/stm32l4xx_hal_flash_ex.c ****   {
 488:../../drivers/third_party/ST/STM32L4xx_HAL_Driver/Src/stm32l4xx_hal_flash_ex.c ****     /* Check that the voltage scaling is range 2 */
ARM GAS  C:\Users\LuckyE\AppData\Local\Temp\ccBar2YG.s 			page 10


 489:../../drivers/third_party/ST/STM32L4xx_HAL_Driver/Src/stm32l4xx_hal_flash_ex.c ****     if (HAL_PWREx_GetVoltageRange() == PWR_REGULATOR_VOLTAGE_SCALE2)
 490:../../drivers/third_party/ST/STM32L4xx_HAL_Driver/Src/stm32l4xx_hal_flash_ex.c ****     {
 491:../../drivers/third_party/ST/STM32L4xx_HAL_Driver/Src/stm32l4xx_hal_flash_ex.c ****       /* Configure the LVEN bit */
 492:../../drivers/third_party/ST/STM32L4xx_HAL_Driver/Src/stm32l4xx_hal_flash_ex.c ****       MODIFY_REG(FLASH->CFGR, FLASH_CFGR_LVEN, ConfigLVE);
 493:../../drivers/third_party/ST/STM32L4xx_HAL_Driver/Src/stm32l4xx_hal_flash_ex.c ****  
 494:../../drivers/third_party/ST/STM32L4xx_HAL_Driver/Src/stm32l4xx_hal_flash_ex.c ****       /* Check that the bit has been correctly configured */
 495:../../drivers/third_party/ST/STM32L4xx_HAL_Driver/Src/stm32l4xx_hal_flash_ex.c ****       if (READ_BIT(FLASH->CFGR, FLASH_CFGR_LVEN) != ConfigLVE)
 496:../../drivers/third_party/ST/STM32L4xx_HAL_Driver/Src/stm32l4xx_hal_flash_ex.c ****       {
 497:../../drivers/third_party/ST/STM32L4xx_HAL_Driver/Src/stm32l4xx_hal_flash_ex.c ****         status = HAL_ERROR;
 498:../../drivers/third_party/ST/STM32L4xx_HAL_Driver/Src/stm32l4xx_hal_flash_ex.c ****       }
 499:../../drivers/third_party/ST/STM32L4xx_HAL_Driver/Src/stm32l4xx_hal_flash_ex.c ****     }
 500:../../drivers/third_party/ST/STM32L4xx_HAL_Driver/Src/stm32l4xx_hal_flash_ex.c ****     else
 501:../../drivers/third_party/ST/STM32L4xx_HAL_Driver/Src/stm32l4xx_hal_flash_ex.c ****     {
 502:../../drivers/third_party/ST/STM32L4xx_HAL_Driver/Src/stm32l4xx_hal_flash_ex.c ****       /* Not allow to force Flash LVE pin if not in voltage range 2 */
 503:../../drivers/third_party/ST/STM32L4xx_HAL_Driver/Src/stm32l4xx_hal_flash_ex.c ****       status = HAL_ERROR;
 504:../../drivers/third_party/ST/STM32L4xx_HAL_Driver/Src/stm32l4xx_hal_flash_ex.c ****     }
 505:../../drivers/third_party/ST/STM32L4xx_HAL_Driver/Src/stm32l4xx_hal_flash_ex.c ****   }
 506:../../drivers/third_party/ST/STM32L4xx_HAL_Driver/Src/stm32l4xx_hal_flash_ex.c **** 
 507:../../drivers/third_party/ST/STM32L4xx_HAL_Driver/Src/stm32l4xx_hal_flash_ex.c ****   /* Process Unlocked */
 508:../../drivers/third_party/ST/STM32L4xx_HAL_Driver/Src/stm32l4xx_hal_flash_ex.c ****   __HAL_UNLOCK(&pFlash);
 509:../../drivers/third_party/ST/STM32L4xx_HAL_Driver/Src/stm32l4xx_hal_flash_ex.c **** 
 510:../../drivers/third_party/ST/STM32L4xx_HAL_Driver/Src/stm32l4xx_hal_flash_ex.c ****   return status;
 511:../../drivers/third_party/ST/STM32L4xx_HAL_Driver/Src/stm32l4xx_hal_flash_ex.c **** }
 512:../../drivers/third_party/ST/STM32L4xx_HAL_Driver/Src/stm32l4xx_hal_flash_ex.c **** 
 513:../../drivers/third_party/ST/STM32L4xx_HAL_Driver/Src/stm32l4xx_hal_flash_ex.c **** /**
 514:../../drivers/third_party/ST/STM32L4xx_HAL_Driver/Src/stm32l4xx_hal_flash_ex.c ****   * @}
 515:../../drivers/third_party/ST/STM32L4xx_HAL_Driver/Src/stm32l4xx_hal_flash_ex.c ****   */
 516:../../drivers/third_party/ST/STM32L4xx_HAL_Driver/Src/stm32l4xx_hal_flash_ex.c **** #endif /* FLASH_CFGR_LVEN */
 517:../../drivers/third_party/ST/STM32L4xx_HAL_Driver/Src/stm32l4xx_hal_flash_ex.c **** 
 518:../../drivers/third_party/ST/STM32L4xx_HAL_Driver/Src/stm32l4xx_hal_flash_ex.c **** /**
 519:../../drivers/third_party/ST/STM32L4xx_HAL_Driver/Src/stm32l4xx_hal_flash_ex.c ****   * @}
 520:../../drivers/third_party/ST/STM32L4xx_HAL_Driver/Src/stm32l4xx_hal_flash_ex.c ****   */
 521:../../drivers/third_party/ST/STM32L4xx_HAL_Driver/Src/stm32l4xx_hal_flash_ex.c **** 
 522:../../drivers/third_party/ST/STM32L4xx_HAL_Driver/Src/stm32l4xx_hal_flash_ex.c **** /* Private functions ---------------------------------------------------------*/
 523:../../drivers/third_party/ST/STM32L4xx_HAL_Driver/Src/stm32l4xx_hal_flash_ex.c **** 
 524:../../drivers/third_party/ST/STM32L4xx_HAL_Driver/Src/stm32l4xx_hal_flash_ex.c **** /** @addtogroup FLASHEx_Private_Functions
 525:../../drivers/third_party/ST/STM32L4xx_HAL_Driver/Src/stm32l4xx_hal_flash_ex.c ****   * @{
 526:../../drivers/third_party/ST/STM32L4xx_HAL_Driver/Src/stm32l4xx_hal_flash_ex.c ****   */
 527:../../drivers/third_party/ST/STM32L4xx_HAL_Driver/Src/stm32l4xx_hal_flash_ex.c **** /**
 528:../../drivers/third_party/ST/STM32L4xx_HAL_Driver/Src/stm32l4xx_hal_flash_ex.c ****   * @brief  Mass erase of FLASH memory.
 529:../../drivers/third_party/ST/STM32L4xx_HAL_Driver/Src/stm32l4xx_hal_flash_ex.c ****   * @param  Banks: Banks to be erased
 530:../../drivers/third_party/ST/STM32L4xx_HAL_Driver/Src/stm32l4xx_hal_flash_ex.c ****   *          This parameter can be one of the following values:
 531:../../drivers/third_party/ST/STM32L4xx_HAL_Driver/Src/stm32l4xx_hal_flash_ex.c ****   *            @arg FLASH_BANK_1: Bank1 to be erased
 532:../../drivers/third_party/ST/STM32L4xx_HAL_Driver/Src/stm32l4xx_hal_flash_ex.c ****   *            @arg FLASH_BANK_2: Bank2 to be erased
 533:../../drivers/third_party/ST/STM32L4xx_HAL_Driver/Src/stm32l4xx_hal_flash_ex.c ****   *            @arg FLASH_BANK_BOTH: Bank1 and Bank2 to be erased
 534:../../drivers/third_party/ST/STM32L4xx_HAL_Driver/Src/stm32l4xx_hal_flash_ex.c ****   * @retval None
 535:../../drivers/third_party/ST/STM32L4xx_HAL_Driver/Src/stm32l4xx_hal_flash_ex.c ****   */
 536:../../drivers/third_party/ST/STM32L4xx_HAL_Driver/Src/stm32l4xx_hal_flash_ex.c **** static void FLASH_MassErase(uint32_t Banks)
 537:../../drivers/third_party/ST/STM32L4xx_HAL_Driver/Src/stm32l4xx_hal_flash_ex.c **** {
  27              		.loc 1 537 0
  28              		.cfi_startproc
  29              		@ args = 0, pretend = 0, frame = 0
  30              		@ frame_needed = 0, uses_anonymous_args = 0
  31              		@ link register save eliminated.
  32              	.LVL0:
  33 0000 064B     		ldr	r3, .L6
 538:../../drivers/third_party/ST/STM32L4xx_HAL_Driver/Src/stm32l4xx_hal_flash_ex.c **** #if defined (STM32L4R5xx) || defined (STM32L4R7xx) || defined (STM32L4R9xx) || defined (STM32L4S5xx
ARM GAS  C:\Users\LuckyE\AppData\Local\Temp\ccBar2YG.s 			page 11


 539:../../drivers/third_party/ST/STM32L4xx_HAL_Driver/Src/stm32l4xx_hal_flash_ex.c ****   if (READ_BIT(FLASH->OPTR, FLASH_OPTR_DBANK) != RESET)
 540:../../drivers/third_party/ST/STM32L4xx_HAL_Driver/Src/stm32l4xx_hal_flash_ex.c **** #endif
 541:../../drivers/third_party/ST/STM32L4xx_HAL_Driver/Src/stm32l4xx_hal_flash_ex.c ****   {
 542:../../drivers/third_party/ST/STM32L4xx_HAL_Driver/Src/stm32l4xx_hal_flash_ex.c ****     /* Check the parameters */
 543:../../drivers/third_party/ST/STM32L4xx_HAL_Driver/Src/stm32l4xx_hal_flash_ex.c ****     assert_param(IS_FLASH_BANK(Banks));
 544:../../drivers/third_party/ST/STM32L4xx_HAL_Driver/Src/stm32l4xx_hal_flash_ex.c **** 
 545:../../drivers/third_party/ST/STM32L4xx_HAL_Driver/Src/stm32l4xx_hal_flash_ex.c ****     /* Set the Mass Erase Bit for the bank 1 if requested */
 546:../../drivers/third_party/ST/STM32L4xx_HAL_Driver/Src/stm32l4xx_hal_flash_ex.c ****     if((Banks & FLASH_BANK_1) != RESET)
  34              		.loc 1 546 0
  35 0002 10F0010F 		tst	r0, #1
 547:../../drivers/third_party/ST/STM32L4xx_HAL_Driver/Src/stm32l4xx_hal_flash_ex.c ****     {
 548:../../drivers/third_party/ST/STM32L4xx_HAL_Driver/Src/stm32l4xx_hal_flash_ex.c ****       SET_BIT(FLASH->CR, FLASH_CR_MER1);
  36              		.loc 1 548 0
  37 0006 1EBF     		ittt	ne
  38 0008 5A69     		ldrne	r2, [r3, #20]
  39 000a 42F00402 		orrne	r2, r2, #4
  40 000e 5A61     		strne	r2, [r3, #20]
 549:../../drivers/third_party/ST/STM32L4xx_HAL_Driver/Src/stm32l4xx_hal_flash_ex.c ****     }
 550:../../drivers/third_party/ST/STM32L4xx_HAL_Driver/Src/stm32l4xx_hal_flash_ex.c ****     
 551:../../drivers/third_party/ST/STM32L4xx_HAL_Driver/Src/stm32l4xx_hal_flash_ex.c **** #if defined (STM32L471xx) || defined (STM32L475xx) || defined (STM32L476xx) || defined (STM32L485xx
 552:../../drivers/third_party/ST/STM32L4xx_HAL_Driver/Src/stm32l4xx_hal_flash_ex.c ****     defined (STM32L496xx) || defined (STM32L4A6xx) || \
 553:../../drivers/third_party/ST/STM32L4xx_HAL_Driver/Src/stm32l4xx_hal_flash_ex.c ****     defined (STM32L4R5xx) || defined (STM32L4R7xx) || defined (STM32L4R9xx) || defined (STM32L4S5xx
 554:../../drivers/third_party/ST/STM32L4xx_HAL_Driver/Src/stm32l4xx_hal_flash_ex.c ****     /* Set the Mass Erase Bit for the bank 2 if requested */
 555:../../drivers/third_party/ST/STM32L4xx_HAL_Driver/Src/stm32l4xx_hal_flash_ex.c ****     if((Banks & FLASH_BANK_2) != RESET)
 556:../../drivers/third_party/ST/STM32L4xx_HAL_Driver/Src/stm32l4xx_hal_flash_ex.c ****     {
 557:../../drivers/third_party/ST/STM32L4xx_HAL_Driver/Src/stm32l4xx_hal_flash_ex.c ****       SET_BIT(FLASH->CR, FLASH_CR_MER2);
 558:../../drivers/third_party/ST/STM32L4xx_HAL_Driver/Src/stm32l4xx_hal_flash_ex.c ****     }
 559:../../drivers/third_party/ST/STM32L4xx_HAL_Driver/Src/stm32l4xx_hal_flash_ex.c **** #endif
 560:../../drivers/third_party/ST/STM32L4xx_HAL_Driver/Src/stm32l4xx_hal_flash_ex.c ****   }
 561:../../drivers/third_party/ST/STM32L4xx_HAL_Driver/Src/stm32l4xx_hal_flash_ex.c **** #if defined (STM32L4R5xx) || defined (STM32L4R7xx) || defined (STM32L4R9xx) || defined (STM32L4S5xx
 562:../../drivers/third_party/ST/STM32L4xx_HAL_Driver/Src/stm32l4xx_hal_flash_ex.c ****   else
 563:../../drivers/third_party/ST/STM32L4xx_HAL_Driver/Src/stm32l4xx_hal_flash_ex.c ****   {
 564:../../drivers/third_party/ST/STM32L4xx_HAL_Driver/Src/stm32l4xx_hal_flash_ex.c ****     SET_BIT(FLASH->CR, (FLASH_CR_MER1 | FLASH_CR_MER2));
 565:../../drivers/third_party/ST/STM32L4xx_HAL_Driver/Src/stm32l4xx_hal_flash_ex.c ****   }
 566:../../drivers/third_party/ST/STM32L4xx_HAL_Driver/Src/stm32l4xx_hal_flash_ex.c **** #endif
 567:../../drivers/third_party/ST/STM32L4xx_HAL_Driver/Src/stm32l4xx_hal_flash_ex.c **** 
 568:../../drivers/third_party/ST/STM32L4xx_HAL_Driver/Src/stm32l4xx_hal_flash_ex.c ****   /* Proceed to erase all sectors */
 569:../../drivers/third_party/ST/STM32L4xx_HAL_Driver/Src/stm32l4xx_hal_flash_ex.c ****   SET_BIT(FLASH->CR, FLASH_CR_STRT);
  41              		.loc 1 569 0
  42 0010 5A69     		ldr	r2, [r3, #20]
  43 0012 42F48032 		orr	r2, r2, #65536
  44 0016 5A61     		str	r2, [r3, #20]
 570:../../drivers/third_party/ST/STM32L4xx_HAL_Driver/Src/stm32l4xx_hal_flash_ex.c **** }
  45              		.loc 1 570 0
  46 0018 7047     		bx	lr
  47              	.L7:
  48 001a 00BF     		.align	2
  49              	.L6:
  50 001c 00200240 		.word	1073881088
  51              		.cfi_endproc
  52              	.LFE284:
  54              		.section	.text.HAL_FLASHEx_OBProgram,"ax",%progbits
  55              		.align	1
  56              		.global	HAL_FLASHEx_OBProgram
  57              		.syntax unified
  58              		.thumb
  59              		.thumb_func
ARM GAS  C:\Users\LuckyE\AppData\Local\Temp\ccBar2YG.s 			page 12


  60              		.fpu fpv4-sp-d16
  62              	HAL_FLASHEx_OBProgram:
  63              	.LFB282:
 332:../../drivers/third_party/ST/STM32L4xx_HAL_Driver/Src/stm32l4xx_hal_flash_ex.c ****   HAL_StatusTypeDef status = HAL_OK;
  64              		.loc 1 332 0
  65              		.cfi_startproc
  66              		@ args = 0, pretend = 0, frame = 0
  67              		@ frame_needed = 0, uses_anonymous_args = 0
  68              	.LVL1:
 336:../../drivers/third_party/ST/STM32L4xx_HAL_Driver/Src/stm32l4xx_hal_flash_ex.c **** 
  69              		.loc 1 336 0
  70 0000 8D4B     		ldr	r3, .L94
  71 0002 1A78     		ldrb	r2, [r3]	@ zero_extendqisi2
  72 0004 012A     		cmp	r2, #1
 332:../../drivers/third_party/ST/STM32L4xx_HAL_Driver/Src/stm32l4xx_hal_flash_ex.c ****   HAL_StatusTypeDef status = HAL_OK;
  73              		.loc 1 332 0
  74 0006 2DE9F047 		push	{r4, r5, r6, r7, r8, r9, r10, lr}
  75              	.LCFI0:
  76              		.cfi_def_cfa_offset 32
  77              		.cfi_offset 4, -32
  78              		.cfi_offset 5, -28
  79              		.cfi_offset 6, -24
  80              		.cfi_offset 7, -20
  81              		.cfi_offset 8, -16
  82              		.cfi_offset 9, -12
  83              		.cfi_offset 10, -8
  84              		.cfi_offset 14, -4
 332:../../drivers/third_party/ST/STM32L4xx_HAL_Driver/Src/stm32l4xx_hal_flash_ex.c ****   HAL_StatusTypeDef status = HAL_OK;
  85              		.loc 1 332 0
  86 000a 0646     		mov	r6, r0
  87 000c 9846     		mov	r8, r3
 336:../../drivers/third_party/ST/STM32L4xx_HAL_Driver/Src/stm32l4xx_hal_flash_ex.c **** 
  88              		.loc 1 336 0
  89 000e 00F01181 		beq	.L33
 336:../../drivers/third_party/ST/STM32L4xx_HAL_Driver/Src/stm32l4xx_hal_flash_ex.c **** 
  90              		.loc 1 336 0 is_stmt 0 discriminator 2
  91 0012 0127     		movs	r7, #1
  92 0014 1F70     		strb	r7, [r3]
 341:../../drivers/third_party/ST/STM32L4xx_HAL_Driver/Src/stm32l4xx_hal_flash_ex.c **** 
  93              		.loc 1 341 0 is_stmt 1 discriminator 2
  94 0016 0023     		movs	r3, #0
  95 0018 C8F80430 		str	r3, [r8, #4]
 344:../../drivers/third_party/ST/STM32L4xx_HAL_Driver/Src/stm32l4xx_hal_flash_ex.c ****   {
  96              		.loc 1 344 0 discriminator 2
  97 001c 0368     		ldr	r3, [r0]
  98 001e 3B40     		ands	r3, r3, r7
  99 0020 00F00681 		beq	.L34
 347:../../drivers/third_party/ST/STM32L4xx_HAL_Driver/Src/stm32l4xx_hal_flash_ex.c ****     {
 100              		.loc 1 347 0
 101 0024 D0E901A9 		ldrd	r10, r9, [r0, #4]
 102 0028 C568     		ldr	r5, [r0, #12]
 103              	.LVL2:
 104              	.LBB14:
 105              	.LBB15:
 571:../../drivers/third_party/ST/STM32L4xx_HAL_Driver/Src/stm32l4xx_hal_flash_ex.c **** 
 572:../../drivers/third_party/ST/STM32L4xx_HAL_Driver/Src/stm32l4xx_hal_flash_ex.c **** /**
 573:../../drivers/third_party/ST/STM32L4xx_HAL_Driver/Src/stm32l4xx_hal_flash_ex.c ****   * @brief  Erase the specified FLASH memory page.
ARM GAS  C:\Users\LuckyE\AppData\Local\Temp\ccBar2YG.s 			page 13


 574:../../drivers/third_party/ST/STM32L4xx_HAL_Driver/Src/stm32l4xx_hal_flash_ex.c ****   * @param  Page: FLASH page to erase
 575:../../drivers/third_party/ST/STM32L4xx_HAL_Driver/Src/stm32l4xx_hal_flash_ex.c ****   *         This parameter must be a value between 0 and (max number of pages in the bank - 1)     
 576:../../drivers/third_party/ST/STM32L4xx_HAL_Driver/Src/stm32l4xx_hal_flash_ex.c ****   * @param  Banks: Bank(s) where the page will be erased
 577:../../drivers/third_party/ST/STM32L4xx_HAL_Driver/Src/stm32l4xx_hal_flash_ex.c ****   *          This parameter can be one of the following values:
 578:../../drivers/third_party/ST/STM32L4xx_HAL_Driver/Src/stm32l4xx_hal_flash_ex.c ****   *            @arg FLASH_BANK_1: Page in bank 1 to be erased
 579:../../drivers/third_party/ST/STM32L4xx_HAL_Driver/Src/stm32l4xx_hal_flash_ex.c ****   *            @arg FLASH_BANK_2: Page in bank 2 to be erased
 580:../../drivers/third_party/ST/STM32L4xx_HAL_Driver/Src/stm32l4xx_hal_flash_ex.c ****   * @retval None
 581:../../drivers/third_party/ST/STM32L4xx_HAL_Driver/Src/stm32l4xx_hal_flash_ex.c ****   */
 582:../../drivers/third_party/ST/STM32L4xx_HAL_Driver/Src/stm32l4xx_hal_flash_ex.c **** void FLASH_PageErase(uint32_t Page, uint32_t Banks)
 583:../../drivers/third_party/ST/STM32L4xx_HAL_Driver/Src/stm32l4xx_hal_flash_ex.c **** {
 584:../../drivers/third_party/ST/STM32L4xx_HAL_Driver/Src/stm32l4xx_hal_flash_ex.c ****   /* Check the parameters */
 585:../../drivers/third_party/ST/STM32L4xx_HAL_Driver/Src/stm32l4xx_hal_flash_ex.c ****   assert_param(IS_FLASH_PAGE(Page));
 586:../../drivers/third_party/ST/STM32L4xx_HAL_Driver/Src/stm32l4xx_hal_flash_ex.c **** 
 587:../../drivers/third_party/ST/STM32L4xx_HAL_Driver/Src/stm32l4xx_hal_flash_ex.c **** #if defined (STM32L471xx) || defined (STM32L475xx) || defined (STM32L476xx) || defined (STM32L485xx
 588:../../drivers/third_party/ST/STM32L4xx_HAL_Driver/Src/stm32l4xx_hal_flash_ex.c ****     defined (STM32L496xx) || defined (STM32L4A6xx) || \
 589:../../drivers/third_party/ST/STM32L4xx_HAL_Driver/Src/stm32l4xx_hal_flash_ex.c ****     defined (STM32L4R5xx) || defined (STM32L4R7xx) || defined (STM32L4R9xx) || defined (STM32L4S5xx
 590:../../drivers/third_party/ST/STM32L4xx_HAL_Driver/Src/stm32l4xx_hal_flash_ex.c **** #if defined (STM32L4R5xx) || defined (STM32L4R7xx) || defined (STM32L4R9xx) || defined (STM32L4S5xx
 591:../../drivers/third_party/ST/STM32L4xx_HAL_Driver/Src/stm32l4xx_hal_flash_ex.c ****   if(READ_BIT(FLASH->OPTR, FLASH_OPTR_DBANK) == RESET)
 592:../../drivers/third_party/ST/STM32L4xx_HAL_Driver/Src/stm32l4xx_hal_flash_ex.c ****   {
 593:../../drivers/third_party/ST/STM32L4xx_HAL_Driver/Src/stm32l4xx_hal_flash_ex.c ****     CLEAR_BIT(FLASH->CR, FLASH_CR_BKER);
 594:../../drivers/third_party/ST/STM32L4xx_HAL_Driver/Src/stm32l4xx_hal_flash_ex.c ****   }
 595:../../drivers/third_party/ST/STM32L4xx_HAL_Driver/Src/stm32l4xx_hal_flash_ex.c ****   else
 596:../../drivers/third_party/ST/STM32L4xx_HAL_Driver/Src/stm32l4xx_hal_flash_ex.c **** #endif
 597:../../drivers/third_party/ST/STM32L4xx_HAL_Driver/Src/stm32l4xx_hal_flash_ex.c ****   {
 598:../../drivers/third_party/ST/STM32L4xx_HAL_Driver/Src/stm32l4xx_hal_flash_ex.c ****     assert_param(IS_FLASH_BANK_EXCLUSIVE(Banks));
 599:../../drivers/third_party/ST/STM32L4xx_HAL_Driver/Src/stm32l4xx_hal_flash_ex.c **** 
 600:../../drivers/third_party/ST/STM32L4xx_HAL_Driver/Src/stm32l4xx_hal_flash_ex.c ****     if((Banks & FLASH_BANK_1) != RESET)
 601:../../drivers/third_party/ST/STM32L4xx_HAL_Driver/Src/stm32l4xx_hal_flash_ex.c ****     {
 602:../../drivers/third_party/ST/STM32L4xx_HAL_Driver/Src/stm32l4xx_hal_flash_ex.c ****       CLEAR_BIT(FLASH->CR, FLASH_CR_BKER);
 603:../../drivers/third_party/ST/STM32L4xx_HAL_Driver/Src/stm32l4xx_hal_flash_ex.c ****     }
 604:../../drivers/third_party/ST/STM32L4xx_HAL_Driver/Src/stm32l4xx_hal_flash_ex.c ****     else
 605:../../drivers/third_party/ST/STM32L4xx_HAL_Driver/Src/stm32l4xx_hal_flash_ex.c ****     {
 606:../../drivers/third_party/ST/STM32L4xx_HAL_Driver/Src/stm32l4xx_hal_flash_ex.c ****       SET_BIT(FLASH->CR, FLASH_CR_BKER);
 607:../../drivers/third_party/ST/STM32L4xx_HAL_Driver/Src/stm32l4xx_hal_flash_ex.c ****     }
 608:../../drivers/third_party/ST/STM32L4xx_HAL_Driver/Src/stm32l4xx_hal_flash_ex.c ****   }
 609:../../drivers/third_party/ST/STM32L4xx_HAL_Driver/Src/stm32l4xx_hal_flash_ex.c **** #endif
 610:../../drivers/third_party/ST/STM32L4xx_HAL_Driver/Src/stm32l4xx_hal_flash_ex.c **** 
 611:../../drivers/third_party/ST/STM32L4xx_HAL_Driver/Src/stm32l4xx_hal_flash_ex.c ****   /* Proceed to erase the page */
 612:../../drivers/third_party/ST/STM32L4xx_HAL_Driver/Src/stm32l4xx_hal_flash_ex.c ****   MODIFY_REG(FLASH->CR, FLASH_CR_PNB, (Page << POSITION_VAL(FLASH_CR_PNB)));
 613:../../drivers/third_party/ST/STM32L4xx_HAL_Driver/Src/stm32l4xx_hal_flash_ex.c ****   SET_BIT(FLASH->CR, FLASH_CR_PER);
 614:../../drivers/third_party/ST/STM32L4xx_HAL_Driver/Src/stm32l4xx_hal_flash_ex.c ****   SET_BIT(FLASH->CR, FLASH_CR_STRT);
 615:../../drivers/third_party/ST/STM32L4xx_HAL_Driver/Src/stm32l4xx_hal_flash_ex.c **** }
 616:../../drivers/third_party/ST/STM32L4xx_HAL_Driver/Src/stm32l4xx_hal_flash_ex.c **** 
 617:../../drivers/third_party/ST/STM32L4xx_HAL_Driver/Src/stm32l4xx_hal_flash_ex.c **** /**
 618:../../drivers/third_party/ST/STM32L4xx_HAL_Driver/Src/stm32l4xx_hal_flash_ex.c ****   * @brief  Flush the instruction and data caches.
 619:../../drivers/third_party/ST/STM32L4xx_HAL_Driver/Src/stm32l4xx_hal_flash_ex.c ****   * @retval None
 620:../../drivers/third_party/ST/STM32L4xx_HAL_Driver/Src/stm32l4xx_hal_flash_ex.c ****   */
 621:../../drivers/third_party/ST/STM32L4xx_HAL_Driver/Src/stm32l4xx_hal_flash_ex.c **** void FLASH_FlushCaches(void)
 622:../../drivers/third_party/ST/STM32L4xx_HAL_Driver/Src/stm32l4xx_hal_flash_ex.c **** {
 623:../../drivers/third_party/ST/STM32L4xx_HAL_Driver/Src/stm32l4xx_hal_flash_ex.c ****   /* Flush instruction cache  */
 624:../../drivers/third_party/ST/STM32L4xx_HAL_Driver/Src/stm32l4xx_hal_flash_ex.c ****   if((pFlash.CacheToReactivate == FLASH_CACHE_ICACHE_ENABLED) || 
 625:../../drivers/third_party/ST/STM32L4xx_HAL_Driver/Src/stm32l4xx_hal_flash_ex.c ****      (pFlash.CacheToReactivate == FLASH_CACHE_ICACHE_DCACHE_ENABLED))
 626:../../drivers/third_party/ST/STM32L4xx_HAL_Driver/Src/stm32l4xx_hal_flash_ex.c ****   {
 627:../../drivers/third_party/ST/STM32L4xx_HAL_Driver/Src/stm32l4xx_hal_flash_ex.c ****     /* Reset instruction cache */
 628:../../drivers/third_party/ST/STM32L4xx_HAL_Driver/Src/stm32l4xx_hal_flash_ex.c ****     __HAL_FLASH_INSTRUCTION_CACHE_RESET();
 629:../../drivers/third_party/ST/STM32L4xx_HAL_Driver/Src/stm32l4xx_hal_flash_ex.c ****     /* Enable instruction cache */
 630:../../drivers/third_party/ST/STM32L4xx_HAL_Driver/Src/stm32l4xx_hal_flash_ex.c ****     __HAL_FLASH_INSTRUCTION_CACHE_ENABLE();
ARM GAS  C:\Users\LuckyE\AppData\Local\Temp\ccBar2YG.s 			page 14


 631:../../drivers/third_party/ST/STM32L4xx_HAL_Driver/Src/stm32l4xx_hal_flash_ex.c ****   }
 632:../../drivers/third_party/ST/STM32L4xx_HAL_Driver/Src/stm32l4xx_hal_flash_ex.c ****   
 633:../../drivers/third_party/ST/STM32L4xx_HAL_Driver/Src/stm32l4xx_hal_flash_ex.c ****   /* Flush data cache */
 634:../../drivers/third_party/ST/STM32L4xx_HAL_Driver/Src/stm32l4xx_hal_flash_ex.c ****   if((pFlash.CacheToReactivate == FLASH_CACHE_DCACHE_ENABLED) || 
 635:../../drivers/third_party/ST/STM32L4xx_HAL_Driver/Src/stm32l4xx_hal_flash_ex.c ****      (pFlash.CacheToReactivate == FLASH_CACHE_ICACHE_DCACHE_ENABLED))
 636:../../drivers/third_party/ST/STM32L4xx_HAL_Driver/Src/stm32l4xx_hal_flash_ex.c ****   {
 637:../../drivers/third_party/ST/STM32L4xx_HAL_Driver/Src/stm32l4xx_hal_flash_ex.c ****     /* Reset data cache */
 638:../../drivers/third_party/ST/STM32L4xx_HAL_Driver/Src/stm32l4xx_hal_flash_ex.c ****     __HAL_FLASH_DATA_CACHE_RESET();
 639:../../drivers/third_party/ST/STM32L4xx_HAL_Driver/Src/stm32l4xx_hal_flash_ex.c ****     /* Enable data cache */
 640:../../drivers/third_party/ST/STM32L4xx_HAL_Driver/Src/stm32l4xx_hal_flash_ex.c ****     __HAL_FLASH_DATA_CACHE_ENABLE();
 641:../../drivers/third_party/ST/STM32L4xx_HAL_Driver/Src/stm32l4xx_hal_flash_ex.c ****   }
 642:../../drivers/third_party/ST/STM32L4xx_HAL_Driver/Src/stm32l4xx_hal_flash_ex.c ****   
 643:../../drivers/third_party/ST/STM32L4xx_HAL_Driver/Src/stm32l4xx_hal_flash_ex.c ****   /* Reset internal variable */
 644:../../drivers/third_party/ST/STM32L4xx_HAL_Driver/Src/stm32l4xx_hal_flash_ex.c ****   pFlash.CacheToReactivate = FLASH_CACHE_DISABLED;
 645:../../drivers/third_party/ST/STM32L4xx_HAL_Driver/Src/stm32l4xx_hal_flash_ex.c **** }
 646:../../drivers/third_party/ST/STM32L4xx_HAL_Driver/Src/stm32l4xx_hal_flash_ex.c **** 
 647:../../drivers/third_party/ST/STM32L4xx_HAL_Driver/Src/stm32l4xx_hal_flash_ex.c **** /**
 648:../../drivers/third_party/ST/STM32L4xx_HAL_Driver/Src/stm32l4xx_hal_flash_ex.c ****   * @brief  Configure the write protection of the desired pages.
 649:../../drivers/third_party/ST/STM32L4xx_HAL_Driver/Src/stm32l4xx_hal_flash_ex.c ****   *
 650:../../drivers/third_party/ST/STM32L4xx_HAL_Driver/Src/stm32l4xx_hal_flash_ex.c ****   * @note   When the memory read protection level is selected (RDP level = 1), 
 651:../../drivers/third_party/ST/STM32L4xx_HAL_Driver/Src/stm32l4xx_hal_flash_ex.c ****   *         it is not possible to program or erase Flash memory if the CPU debug 
 652:../../drivers/third_party/ST/STM32L4xx_HAL_Driver/Src/stm32l4xx_hal_flash_ex.c ****   *         features are connected (JTAG or single wire) or boot code is being 
 653:../../drivers/third_party/ST/STM32L4xx_HAL_Driver/Src/stm32l4xx_hal_flash_ex.c ****   *         executed from RAM or System flash, even if WRP is not activated. 
 654:../../drivers/third_party/ST/STM32L4xx_HAL_Driver/Src/stm32l4xx_hal_flash_ex.c ****   * @note   To configure the WRP options, the option lock bit OPTLOCK must be 
 655:../../drivers/third_party/ST/STM32L4xx_HAL_Driver/Src/stm32l4xx_hal_flash_ex.c ****   *         cleared with the call of the HAL_FLASH_OB_Unlock() function.
 656:../../drivers/third_party/ST/STM32L4xx_HAL_Driver/Src/stm32l4xx_hal_flash_ex.c ****   * @note   To validate the WRP options, the option bytes must be reloaded 
 657:../../drivers/third_party/ST/STM32L4xx_HAL_Driver/Src/stm32l4xx_hal_flash_ex.c ****   *         through the call of the HAL_FLASH_OB_Launch() function.
 658:../../drivers/third_party/ST/STM32L4xx_HAL_Driver/Src/stm32l4xx_hal_flash_ex.c ****   *
 659:../../drivers/third_party/ST/STM32L4xx_HAL_Driver/Src/stm32l4xx_hal_flash_ex.c ****   * @param  WRPArea: specifies the area to be configured.
 660:../../drivers/third_party/ST/STM32L4xx_HAL_Driver/Src/stm32l4xx_hal_flash_ex.c ****   *          This parameter can be one of the following values:
 661:../../drivers/third_party/ST/STM32L4xx_HAL_Driver/Src/stm32l4xx_hal_flash_ex.c ****   *            @arg OB_WRPAREA_BANK1_AREAA: Flash Bank 1 Area A                      
 662:../../drivers/third_party/ST/STM32L4xx_HAL_Driver/Src/stm32l4xx_hal_flash_ex.c ****   *            @arg OB_WRPAREA_BANK1_AREAB: Flash Bank 1 Area B                      
 663:../../drivers/third_party/ST/STM32L4xx_HAL_Driver/Src/stm32l4xx_hal_flash_ex.c ****   *            @arg OB_WRPAREA_BANK2_AREAA: Flash Bank 2 Area A  (don't apply for STM32L43x/STM32L4
 664:../../drivers/third_party/ST/STM32L4xx_HAL_Driver/Src/stm32l4xx_hal_flash_ex.c ****   *            @arg OB_WRPAREA_BANK2_AREAB: Flash Bank 2 Area B  (don't apply for STM32L43x/STM32L4
 665:../../drivers/third_party/ST/STM32L4xx_HAL_Driver/Src/stm32l4xx_hal_flash_ex.c ****   *
 666:../../drivers/third_party/ST/STM32L4xx_HAL_Driver/Src/stm32l4xx_hal_flash_ex.c ****   * @param  WRPStartOffset: specifies the start page of the write protected area
 667:../../drivers/third_party/ST/STM32L4xx_HAL_Driver/Src/stm32l4xx_hal_flash_ex.c ****   *          This parameter can be page number between 0 and (max number of pages in the bank - 1) 
 668:../../drivers/third_party/ST/STM32L4xx_HAL_Driver/Src/stm32l4xx_hal_flash_ex.c ****   *
 669:../../drivers/third_party/ST/STM32L4xx_HAL_Driver/Src/stm32l4xx_hal_flash_ex.c ****   * @param  WRDPEndOffset: specifies the end page of the write protected area
 670:../../drivers/third_party/ST/STM32L4xx_HAL_Driver/Src/stm32l4xx_hal_flash_ex.c ****   *          This parameter can be page number between WRPStartOffset and (max number of pages in t
 671:../../drivers/third_party/ST/STM32L4xx_HAL_Driver/Src/stm32l4xx_hal_flash_ex.c ****   *
 672:../../drivers/third_party/ST/STM32L4xx_HAL_Driver/Src/stm32l4xx_hal_flash_ex.c ****   * @retval HAL Status
 673:../../drivers/third_party/ST/STM32L4xx_HAL_Driver/Src/stm32l4xx_hal_flash_ex.c ****   */
 674:../../drivers/third_party/ST/STM32L4xx_HAL_Driver/Src/stm32l4xx_hal_flash_ex.c **** static HAL_StatusTypeDef FLASH_OB_WRPConfig(uint32_t WRPArea, uint32_t WRPStartOffset, uint32_t WRD
 675:../../drivers/third_party/ST/STM32L4xx_HAL_Driver/Src/stm32l4xx_hal_flash_ex.c **** {
 676:../../drivers/third_party/ST/STM32L4xx_HAL_Driver/Src/stm32l4xx_hal_flash_ex.c ****   HAL_StatusTypeDef status = HAL_OK;
 677:../../drivers/third_party/ST/STM32L4xx_HAL_Driver/Src/stm32l4xx_hal_flash_ex.c **** 
 678:../../drivers/third_party/ST/STM32L4xx_HAL_Driver/Src/stm32l4xx_hal_flash_ex.c ****   /* Check the parameters */
 679:../../drivers/third_party/ST/STM32L4xx_HAL_Driver/Src/stm32l4xx_hal_flash_ex.c ****   assert_param(IS_OB_WRPAREA(WRPArea));
 680:../../drivers/third_party/ST/STM32L4xx_HAL_Driver/Src/stm32l4xx_hal_flash_ex.c ****   assert_param(IS_FLASH_PAGE(WRPStartOffset));
 681:../../drivers/third_party/ST/STM32L4xx_HAL_Driver/Src/stm32l4xx_hal_flash_ex.c ****   assert_param(IS_FLASH_PAGE(WRDPEndOffset));
 682:../../drivers/third_party/ST/STM32L4xx_HAL_Driver/Src/stm32l4xx_hal_flash_ex.c **** 
 683:../../drivers/third_party/ST/STM32L4xx_HAL_Driver/Src/stm32l4xx_hal_flash_ex.c ****   /* Wait for last operation to be completed */
 684:../../drivers/third_party/ST/STM32L4xx_HAL_Driver/Src/stm32l4xx_hal_flash_ex.c ****   status = FLASH_WaitForLastOperation((uint32_t)FLASH_TIMEOUT_VALUE);
 106              		.loc 1 684 0
 107 002a 4CF25030 		movw	r0, #50000
 108              	.LVL3:
ARM GAS  C:\Users\LuckyE\AppData\Local\Temp\ccBar2YG.s 			page 15


 109 002e FFF7FEFF 		bl	FLASH_WaitForLastOperation
 110              	.LVL4:
 685:../../drivers/third_party/ST/STM32L4xx_HAL_Driver/Src/stm32l4xx_hal_flash_ex.c **** 
 686:../../drivers/third_party/ST/STM32L4xx_HAL_Driver/Src/stm32l4xx_hal_flash_ex.c ****   if(status == HAL_OK)
 111              		.loc 1 686 0
 112 0032 D8B9     		cbnz	r0, .L10
 113 0034 814C     		ldr	r4, .L94+4
 687:../../drivers/third_party/ST/STM32L4xx_HAL_Driver/Src/stm32l4xx_hal_flash_ex.c ****   {
 688:../../drivers/third_party/ST/STM32L4xx_HAL_Driver/Src/stm32l4xx_hal_flash_ex.c ****     /* Configure the write protected area */
 689:../../drivers/third_party/ST/STM32L4xx_HAL_Driver/Src/stm32l4xx_hal_flash_ex.c ****     if(WRPArea == OB_WRPAREA_BANK1_AREAA)
 114              		.loc 1 689 0
 115 0036 BAF1000F 		cmp	r10, #0
 116 003a 40F0EC80 		bne	.L11
 690:../../drivers/third_party/ST/STM32L4xx_HAL_Driver/Src/stm32l4xx_hal_flash_ex.c ****     {
 691:../../drivers/third_party/ST/STM32L4xx_HAL_Driver/Src/stm32l4xx_hal_flash_ex.c ****       MODIFY_REG(FLASH->WRP1AR, (FLASH_WRP1AR_WRP1A_STRT | FLASH_WRP1AR_WRP1A_END), 
 117              		.loc 1 691 0
 118 003e E36A     		ldr	r3, [r4, #44]
 119 0040 03F0FF23 		and	r3, r3, #-16711936
 120 0044 43EA0903 		orr	r3, r3, r9
 121 0048 43EA0543 		orr	r3, r3, r5, lsl #16
 122 004c E362     		str	r3, [r4, #44]
 123              	.L12:
 692:../../drivers/third_party/ST/STM32L4xx_HAL_Driver/Src/stm32l4xx_hal_flash_ex.c ****                  (WRPStartOffset | (WRDPEndOffset << 16)));
 693:../../drivers/third_party/ST/STM32L4xx_HAL_Driver/Src/stm32l4xx_hal_flash_ex.c ****     }
 694:../../drivers/third_party/ST/STM32L4xx_HAL_Driver/Src/stm32l4xx_hal_flash_ex.c ****     else if(WRPArea == OB_WRPAREA_BANK1_AREAB)
 695:../../drivers/third_party/ST/STM32L4xx_HAL_Driver/Src/stm32l4xx_hal_flash_ex.c ****     {
 696:../../drivers/third_party/ST/STM32L4xx_HAL_Driver/Src/stm32l4xx_hal_flash_ex.c ****       MODIFY_REG(FLASH->WRP1BR, (FLASH_WRP1BR_WRP1B_STRT | FLASH_WRP1BR_WRP1B_END), 
 697:../../drivers/third_party/ST/STM32L4xx_HAL_Driver/Src/stm32l4xx_hal_flash_ex.c ****                  (WRPStartOffset | (WRDPEndOffset << 16)));
 698:../../drivers/third_party/ST/STM32L4xx_HAL_Driver/Src/stm32l4xx_hal_flash_ex.c ****     }
 699:../../drivers/third_party/ST/STM32L4xx_HAL_Driver/Src/stm32l4xx_hal_flash_ex.c **** #if defined (STM32L471xx) || defined (STM32L475xx) || defined (STM32L476xx) || defined (STM32L485xx
 700:../../drivers/third_party/ST/STM32L4xx_HAL_Driver/Src/stm32l4xx_hal_flash_ex.c ****     defined (STM32L496xx) || defined (STM32L4A6xx) || \
 701:../../drivers/third_party/ST/STM32L4xx_HAL_Driver/Src/stm32l4xx_hal_flash_ex.c ****     defined (STM32L4R5xx) || defined (STM32L4R7xx) || defined (STM32L4R9xx) || defined (STM32L4S5xx
 702:../../drivers/third_party/ST/STM32L4xx_HAL_Driver/Src/stm32l4xx_hal_flash_ex.c ****     else if(WRPArea == OB_WRPAREA_BANK2_AREAA)
 703:../../drivers/third_party/ST/STM32L4xx_HAL_Driver/Src/stm32l4xx_hal_flash_ex.c ****     {
 704:../../drivers/third_party/ST/STM32L4xx_HAL_Driver/Src/stm32l4xx_hal_flash_ex.c ****       MODIFY_REG(FLASH->WRP2AR, (FLASH_WRP2AR_WRP2A_STRT | FLASH_WRP2AR_WRP2A_END), 
 705:../../drivers/third_party/ST/STM32L4xx_HAL_Driver/Src/stm32l4xx_hal_flash_ex.c ****                  (WRPStartOffset | (WRDPEndOffset << 16)));
 706:../../drivers/third_party/ST/STM32L4xx_HAL_Driver/Src/stm32l4xx_hal_flash_ex.c ****     }
 707:../../drivers/third_party/ST/STM32L4xx_HAL_Driver/Src/stm32l4xx_hal_flash_ex.c ****     else if(WRPArea == OB_WRPAREA_BANK2_AREAB)
 708:../../drivers/third_party/ST/STM32L4xx_HAL_Driver/Src/stm32l4xx_hal_flash_ex.c ****     {
 709:../../drivers/third_party/ST/STM32L4xx_HAL_Driver/Src/stm32l4xx_hal_flash_ex.c ****       MODIFY_REG(FLASH->WRP2BR, (FLASH_WRP2BR_WRP2B_STRT | FLASH_WRP2BR_WRP2B_END), 
 710:../../drivers/third_party/ST/STM32L4xx_HAL_Driver/Src/stm32l4xx_hal_flash_ex.c ****                  (WRPStartOffset | (WRDPEndOffset << 16)));
 711:../../drivers/third_party/ST/STM32L4xx_HAL_Driver/Src/stm32l4xx_hal_flash_ex.c ****     }
 712:../../drivers/third_party/ST/STM32L4xx_HAL_Driver/Src/stm32l4xx_hal_flash_ex.c **** #endif
 713:../../drivers/third_party/ST/STM32L4xx_HAL_Driver/Src/stm32l4xx_hal_flash_ex.c ****     
 714:../../drivers/third_party/ST/STM32L4xx_HAL_Driver/Src/stm32l4xx_hal_flash_ex.c ****     /* Set OPTSTRT Bit */
 715:../../drivers/third_party/ST/STM32L4xx_HAL_Driver/Src/stm32l4xx_hal_flash_ex.c ****     SET_BIT(FLASH->CR, FLASH_CR_OPTSTRT);
 124              		.loc 1 715 0
 125 004e 6369     		ldr	r3, [r4, #20]
 126 0050 43F40033 		orr	r3, r3, #131072
 127 0054 6361     		str	r3, [r4, #20]
 716:../../drivers/third_party/ST/STM32L4xx_HAL_Driver/Src/stm32l4xx_hal_flash_ex.c ****     
 717:../../drivers/third_party/ST/STM32L4xx_HAL_Driver/Src/stm32l4xx_hal_flash_ex.c ****     /* Wait for last operation to be completed */
 718:../../drivers/third_party/ST/STM32L4xx_HAL_Driver/Src/stm32l4xx_hal_flash_ex.c ****     status = FLASH_WaitForLastOperation((uint32_t)FLASH_TIMEOUT_VALUE);
 128              		.loc 1 718 0
 129 0056 4CF25030 		movw	r0, #50000
 130              	.LVL5:
 131 005a FFF7FEFF 		bl	FLASH_WaitForLastOperation
ARM GAS  C:\Users\LuckyE\AppData\Local\Temp\ccBar2YG.s 			page 16


 132              	.LVL6:
 719:../../drivers/third_party/ST/STM32L4xx_HAL_Driver/Src/stm32l4xx_hal_flash_ex.c **** 
 720:../../drivers/third_party/ST/STM32L4xx_HAL_Driver/Src/stm32l4xx_hal_flash_ex.c ****     /* If the option byte program operation is completed, disable the OPTSTRT Bit */
 721:../../drivers/third_party/ST/STM32L4xx_HAL_Driver/Src/stm32l4xx_hal_flash_ex.c ****     CLEAR_BIT(FLASH->CR, FLASH_CR_OPTSTRT);
 133              		.loc 1 721 0
 134 005e 6369     		ldr	r3, [r4, #20]
 135              	.LBE15:
 136              	.LBE14:
 333:../../drivers/third_party/ST/STM32L4xx_HAL_Driver/Src/stm32l4xx_hal_flash_ex.c ****   
 137              		.loc 1 333 0
 138 0060 071C     		adds	r7, r0, #0
 139              	.LBB18:
 140              	.LBB16:
 141              		.loc 1 721 0
 142 0062 23F40033 		bic	r3, r3, #131072
 143 0066 6361     		str	r3, [r4, #20]
 144              	.LVL7:
 145              	.LBE16:
 146              	.LBE18:
 333:../../drivers/third_party/ST/STM32L4xx_HAL_Driver/Src/stm32l4xx_hal_flash_ex.c ****   
 147              		.loc 1 333 0
 148 0068 18BF     		it	ne
 149 006a 0127     		movne	r7, #1
 150              	.L10:
 151              	.LVL8:
 355:../../drivers/third_party/ST/STM32L4xx_HAL_Driver/Src/stm32l4xx_hal_flash_ex.c ****   {
 152              		.loc 1 355 0
 153 006c 3368     		ldr	r3, [r6]
 154 006e 9D07     		lsls	r5, r3, #30
 155 0070 19D5     		bpl	.L13
 156              	.LBB19:
 157              	.LBB20:
 722:../../drivers/third_party/ST/STM32L4xx_HAL_Driver/Src/stm32l4xx_hal_flash_ex.c ****   }
 723:../../drivers/third_party/ST/STM32L4xx_HAL_Driver/Src/stm32l4xx_hal_flash_ex.c ****   
 724:../../drivers/third_party/ST/STM32L4xx_HAL_Driver/Src/stm32l4xx_hal_flash_ex.c ****   return status;
 725:../../drivers/third_party/ST/STM32L4xx_HAL_Driver/Src/stm32l4xx_hal_flash_ex.c **** }
 726:../../drivers/third_party/ST/STM32L4xx_HAL_Driver/Src/stm32l4xx_hal_flash_ex.c **** 
 727:../../drivers/third_party/ST/STM32L4xx_HAL_Driver/Src/stm32l4xx_hal_flash_ex.c **** /**
 728:../../drivers/third_party/ST/STM32L4xx_HAL_Driver/Src/stm32l4xx_hal_flash_ex.c ****   * @brief  Set the read protection level.
 729:../../drivers/third_party/ST/STM32L4xx_HAL_Driver/Src/stm32l4xx_hal_flash_ex.c ****   *    
 730:../../drivers/third_party/ST/STM32L4xx_HAL_Driver/Src/stm32l4xx_hal_flash_ex.c ****   * @note   To configure the RDP level, the option lock bit OPTLOCK must be 
 731:../../drivers/third_party/ST/STM32L4xx_HAL_Driver/Src/stm32l4xx_hal_flash_ex.c ****   *         cleared with the call of the HAL_FLASH_OB_Unlock() function.
 732:../../drivers/third_party/ST/STM32L4xx_HAL_Driver/Src/stm32l4xx_hal_flash_ex.c ****   * @note   To validate the RDP level, the option bytes must be reloaded 
 733:../../drivers/third_party/ST/STM32L4xx_HAL_Driver/Src/stm32l4xx_hal_flash_ex.c ****   *         through the call of the HAL_FLASH_OB_Launch() function.
 734:../../drivers/third_party/ST/STM32L4xx_HAL_Driver/Src/stm32l4xx_hal_flash_ex.c ****   * @note   !!! Warning : When enabling OB_RDP level 2 it's no more possible 
 735:../../drivers/third_party/ST/STM32L4xx_HAL_Driver/Src/stm32l4xx_hal_flash_ex.c ****   *         to go back to level 1 or 0 !!!
 736:../../drivers/third_party/ST/STM32L4xx_HAL_Driver/Src/stm32l4xx_hal_flash_ex.c ****   *    
 737:../../drivers/third_party/ST/STM32L4xx_HAL_Driver/Src/stm32l4xx_hal_flash_ex.c ****   * @param  RDPLevel: specifies the read protection level.
 738:../../drivers/third_party/ST/STM32L4xx_HAL_Driver/Src/stm32l4xx_hal_flash_ex.c ****   *         This parameter can be one of the following values:
 739:../../drivers/third_party/ST/STM32L4xx_HAL_Driver/Src/stm32l4xx_hal_flash_ex.c ****   *            @arg OB_RDP_LEVEL_0: No protection
 740:../../drivers/third_party/ST/STM32L4xx_HAL_Driver/Src/stm32l4xx_hal_flash_ex.c ****   *            @arg OB_RDP_LEVEL_1: Read protection of the memory
 741:../../drivers/third_party/ST/STM32L4xx_HAL_Driver/Src/stm32l4xx_hal_flash_ex.c ****   *            @arg OB_RDP_LEVEL_2: Full chip protection
 742:../../drivers/third_party/ST/STM32L4xx_HAL_Driver/Src/stm32l4xx_hal_flash_ex.c ****   *   
 743:../../drivers/third_party/ST/STM32L4xx_HAL_Driver/Src/stm32l4xx_hal_flash_ex.c ****   * @retval HAL status
 744:../../drivers/third_party/ST/STM32L4xx_HAL_Driver/Src/stm32l4xx_hal_flash_ex.c ****   */
 745:../../drivers/third_party/ST/STM32L4xx_HAL_Driver/Src/stm32l4xx_hal_flash_ex.c **** static HAL_StatusTypeDef FLASH_OB_RDPConfig(uint32_t RDPLevel)
 746:../../drivers/third_party/ST/STM32L4xx_HAL_Driver/Src/stm32l4xx_hal_flash_ex.c **** {
ARM GAS  C:\Users\LuckyE\AppData\Local\Temp\ccBar2YG.s 			page 17


 747:../../drivers/third_party/ST/STM32L4xx_HAL_Driver/Src/stm32l4xx_hal_flash_ex.c ****   HAL_StatusTypeDef status = HAL_OK;
 748:../../drivers/third_party/ST/STM32L4xx_HAL_Driver/Src/stm32l4xx_hal_flash_ex.c **** 
 749:../../drivers/third_party/ST/STM32L4xx_HAL_Driver/Src/stm32l4xx_hal_flash_ex.c ****   /* Check the parameters */
 750:../../drivers/third_party/ST/STM32L4xx_HAL_Driver/Src/stm32l4xx_hal_flash_ex.c ****   assert_param(IS_OB_RDP_LEVEL(RDPLevel));
 751:../../drivers/third_party/ST/STM32L4xx_HAL_Driver/Src/stm32l4xx_hal_flash_ex.c ****     
 752:../../drivers/third_party/ST/STM32L4xx_HAL_Driver/Src/stm32l4xx_hal_flash_ex.c ****   /* Wait for last operation to be completed */
 753:../../drivers/third_party/ST/STM32L4xx_HAL_Driver/Src/stm32l4xx_hal_flash_ex.c ****   status = FLASH_WaitForLastOperation((uint32_t)FLASH_TIMEOUT_VALUE);
 158              		.loc 1 753 0
 159 0072 4CF25030 		movw	r0, #50000
 160              	.LBE20:
 161              	.LBE19:
 358:../../drivers/third_party/ST/STM32L4xx_HAL_Driver/Src/stm32l4xx_hal_flash_ex.c ****     {
 162              		.loc 1 358 0
 163 0076 3569     		ldr	r5, [r6, #16]
 164              	.LVL9:
 165              	.LBB22:
 166              	.LBB21:
 167              		.loc 1 753 0
 168 0078 FFF7FEFF 		bl	FLASH_WaitForLastOperation
 169              	.LVL10:
 754:../../drivers/third_party/ST/STM32L4xx_HAL_Driver/Src/stm32l4xx_hal_flash_ex.c **** 
 755:../../drivers/third_party/ST/STM32L4xx_HAL_Driver/Src/stm32l4xx_hal_flash_ex.c ****   if(status == HAL_OK)
 170              		.loc 1 755 0
 171 007c 90B9     		cbnz	r0, .L14
 756:../../drivers/third_party/ST/STM32L4xx_HAL_Driver/Src/stm32l4xx_hal_flash_ex.c ****   { 
 757:../../drivers/third_party/ST/STM32L4xx_HAL_Driver/Src/stm32l4xx_hal_flash_ex.c ****     /* Configure the RDP level in the option bytes register */
 758:../../drivers/third_party/ST/STM32L4xx_HAL_Driver/Src/stm32l4xx_hal_flash_ex.c ****     MODIFY_REG(FLASH->OPTR, FLASH_OPTR_RDP, RDPLevel);
 172              		.loc 1 758 0
 173 007e 6F4C     		ldr	r4, .L94+4
 174 0080 236A     		ldr	r3, [r4, #32]
 175 0082 23F0FF03 		bic	r3, r3, #255
 176 0086 2B43     		orrs	r3, r3, r5
 177 0088 2362     		str	r3, [r4, #32]
 759:../../drivers/third_party/ST/STM32L4xx_HAL_Driver/Src/stm32l4xx_hal_flash_ex.c ****     
 760:../../drivers/third_party/ST/STM32L4xx_HAL_Driver/Src/stm32l4xx_hal_flash_ex.c ****     /* Set OPTSTRT Bit */
 761:../../drivers/third_party/ST/STM32L4xx_HAL_Driver/Src/stm32l4xx_hal_flash_ex.c ****     SET_BIT(FLASH->CR, FLASH_CR_OPTSTRT);
 178              		.loc 1 761 0
 179 008a 6369     		ldr	r3, [r4, #20]
 180 008c 43F40033 		orr	r3, r3, #131072
 181 0090 6361     		str	r3, [r4, #20]
 762:../../drivers/third_party/ST/STM32L4xx_HAL_Driver/Src/stm32l4xx_hal_flash_ex.c ****     
 763:../../drivers/third_party/ST/STM32L4xx_HAL_Driver/Src/stm32l4xx_hal_flash_ex.c ****     /* Wait for last operation to be completed */
 764:../../drivers/third_party/ST/STM32L4xx_HAL_Driver/Src/stm32l4xx_hal_flash_ex.c ****     status = FLASH_WaitForLastOperation((uint32_t)FLASH_TIMEOUT_VALUE);
 182              		.loc 1 764 0
 183 0092 4CF25030 		movw	r0, #50000
 184              	.LVL11:
 185 0096 FFF7FEFF 		bl	FLASH_WaitForLastOperation
 186              	.LVL12:
 765:../../drivers/third_party/ST/STM32L4xx_HAL_Driver/Src/stm32l4xx_hal_flash_ex.c **** 
 766:../../drivers/third_party/ST/STM32L4xx_HAL_Driver/Src/stm32l4xx_hal_flash_ex.c ****     /* If the option byte program operation is completed, disable the OPTSTRT Bit */
 767:../../drivers/third_party/ST/STM32L4xx_HAL_Driver/Src/stm32l4xx_hal_flash_ex.c ****     CLEAR_BIT(FLASH->CR, FLASH_CR_OPTSTRT);
 187              		.loc 1 767 0
 188 009a 6369     		ldr	r3, [r4, #20]
 189 009c 23F40033 		bic	r3, r3, #131072
 190 00a0 6361     		str	r3, [r4, #20]
 191              	.LVL13:
 192              	.LBE21:
ARM GAS  C:\Users\LuckyE\AppData\Local\Temp\ccBar2YG.s 			page 18


 193              	.LBE22:
 358:../../drivers/third_party/ST/STM32L4xx_HAL_Driver/Src/stm32l4xx_hal_flash_ex.c ****     {
 194              		.loc 1 358 0
 195 00a2 00B1     		cbz	r0, .L13
 196              	.L14:
 197              	.LVL14:
 360:../../drivers/third_party/ST/STM32L4xx_HAL_Driver/Src/stm32l4xx_hal_flash_ex.c ****     }
 198              		.loc 1 360 0
 199 00a4 0127     		movs	r7, #1
 200              	.LVL15:
 201              	.L13:
 365:../../drivers/third_party/ST/STM32L4xx_HAL_Driver/Src/stm32l4xx_hal_flash_ex.c ****   {
 202              		.loc 1 365 0
 203 00a6 3368     		ldr	r3, [r6]
 204 00a8 5C07     		lsls	r4, r3, #29
 205 00aa 78D5     		bpl	.L15
 206              	.LBB23:
 207              	.LBB24:
 768:../../drivers/third_party/ST/STM32L4xx_HAL_Driver/Src/stm32l4xx_hal_flash_ex.c ****   }
 769:../../drivers/third_party/ST/STM32L4xx_HAL_Driver/Src/stm32l4xx_hal_flash_ex.c **** 
 770:../../drivers/third_party/ST/STM32L4xx_HAL_Driver/Src/stm32l4xx_hal_flash_ex.c ****   return status;            
 771:../../drivers/third_party/ST/STM32L4xx_HAL_Driver/Src/stm32l4xx_hal_flash_ex.c **** }
 772:../../drivers/third_party/ST/STM32L4xx_HAL_Driver/Src/stm32l4xx_hal_flash_ex.c **** 
 773:../../drivers/third_party/ST/STM32L4xx_HAL_Driver/Src/stm32l4xx_hal_flash_ex.c **** /**
 774:../../drivers/third_party/ST/STM32L4xx_HAL_Driver/Src/stm32l4xx_hal_flash_ex.c ****   * @brief  Program the FLASH User Option Byte.    
 775:../../drivers/third_party/ST/STM32L4xx_HAL_Driver/Src/stm32l4xx_hal_flash_ex.c ****   *   
 776:../../drivers/third_party/ST/STM32L4xx_HAL_Driver/Src/stm32l4xx_hal_flash_ex.c ****   * @note   To configure the user option bytes, the option lock bit OPTLOCK must
 777:../../drivers/third_party/ST/STM32L4xx_HAL_Driver/Src/stm32l4xx_hal_flash_ex.c ****   *         be cleared with the call of the HAL_FLASH_OB_Unlock() function.
 778:../../drivers/third_party/ST/STM32L4xx_HAL_Driver/Src/stm32l4xx_hal_flash_ex.c ****   * @note   To validate the user option bytes, the option bytes must be reloaded 
 779:../../drivers/third_party/ST/STM32L4xx_HAL_Driver/Src/stm32l4xx_hal_flash_ex.c ****   *         through the call of the HAL_FLASH_OB_Launch() function.
 780:../../drivers/third_party/ST/STM32L4xx_HAL_Driver/Src/stm32l4xx_hal_flash_ex.c ****   *   
 781:../../drivers/third_party/ST/STM32L4xx_HAL_Driver/Src/stm32l4xx_hal_flash_ex.c ****   * @param  UserType: The FLASH User Option Bytes to be modified 
 782:../../drivers/third_party/ST/STM32L4xx_HAL_Driver/Src/stm32l4xx_hal_flash_ex.c ****   * @param  UserConfig: The FLASH User Option Bytes values: 
 783:../../drivers/third_party/ST/STM32L4xx_HAL_Driver/Src/stm32l4xx_hal_flash_ex.c ****   *         BOR_LEV(Bit8-10), nRST_STOP(Bit12), nRST_STDBY(Bit13), IWDG_SW(Bit16),
 784:../../drivers/third_party/ST/STM32L4xx_HAL_Driver/Src/stm32l4xx_hal_flash_ex.c ****   *         IWDG_STOP(Bit17), IWDG_STDBY(Bit18), WWDG_SW(Bit19), BFB2(Bit20), 
 785:../../drivers/third_party/ST/STM32L4xx_HAL_Driver/Src/stm32l4xx_hal_flash_ex.c ****   *         DUALBANK(Bit21), nBOOT1(Bit23), SRAM2_PE(Bit24) and SRAM2_RST(Bit25). 
 786:../../drivers/third_party/ST/STM32L4xx_HAL_Driver/Src/stm32l4xx_hal_flash_ex.c ****   *   
 787:../../drivers/third_party/ST/STM32L4xx_HAL_Driver/Src/stm32l4xx_hal_flash_ex.c ****   * @retval HAL status
 788:../../drivers/third_party/ST/STM32L4xx_HAL_Driver/Src/stm32l4xx_hal_flash_ex.c ****   */
 789:../../drivers/third_party/ST/STM32L4xx_HAL_Driver/Src/stm32l4xx_hal_flash_ex.c **** static HAL_StatusTypeDef FLASH_OB_UserConfig(uint32_t UserType, uint32_t UserConfig)
 790:../../drivers/third_party/ST/STM32L4xx_HAL_Driver/Src/stm32l4xx_hal_flash_ex.c **** {
 791:../../drivers/third_party/ST/STM32L4xx_HAL_Driver/Src/stm32l4xx_hal_flash_ex.c ****   uint32_t optr_reg_val = 0;
 792:../../drivers/third_party/ST/STM32L4xx_HAL_Driver/Src/stm32l4xx_hal_flash_ex.c ****   uint32_t optr_reg_mask = 0;
 793:../../drivers/third_party/ST/STM32L4xx_HAL_Driver/Src/stm32l4xx_hal_flash_ex.c ****   HAL_StatusTypeDef status = HAL_OK;
 794:../../drivers/third_party/ST/STM32L4xx_HAL_Driver/Src/stm32l4xx_hal_flash_ex.c **** 
 795:../../drivers/third_party/ST/STM32L4xx_HAL_Driver/Src/stm32l4xx_hal_flash_ex.c ****   /* Check the parameters */
 796:../../drivers/third_party/ST/STM32L4xx_HAL_Driver/Src/stm32l4xx_hal_flash_ex.c ****   assert_param(IS_OB_USER_TYPE(UserType));
 797:../../drivers/third_party/ST/STM32L4xx_HAL_Driver/Src/stm32l4xx_hal_flash_ex.c ****   
 798:../../drivers/third_party/ST/STM32L4xx_HAL_Driver/Src/stm32l4xx_hal_flash_ex.c ****   /* Wait for last operation to be completed */
 799:../../drivers/third_party/ST/STM32L4xx_HAL_Driver/Src/stm32l4xx_hal_flash_ex.c ****   status = FLASH_WaitForLastOperation((uint32_t)FLASH_TIMEOUT_VALUE);
 208              		.loc 1 799 0
 209 00ac 4CF25030 		movw	r0, #50000
 210              	.LBE24:
 211              	.LBE23:
 368:../../drivers/third_party/ST/STM32L4xx_HAL_Driver/Src/stm32l4xx_hal_flash_ex.c ****     {
 212              		.loc 1 368 0
 213 00b0 D6E90554 		ldrd	r5, r4, [r6, #20]
ARM GAS  C:\Users\LuckyE\AppData\Local\Temp\ccBar2YG.s 			page 19


 214              	.LVL16:
 215              	.LBB26:
 216              	.LBB25:
 217              		.loc 1 799 0
 218 00b4 FFF7FEFF 		bl	FLASH_WaitForLastOperation
 219              	.LVL17:
 800:../../drivers/third_party/ST/STM32L4xx_HAL_Driver/Src/stm32l4xx_hal_flash_ex.c **** 
 801:../../drivers/third_party/ST/STM32L4xx_HAL_Driver/Src/stm32l4xx_hal_flash_ex.c ****   if(status == HAL_OK)
 220              		.loc 1 801 0
 221 00b8 0028     		cmp	r0, #0
 222 00ba 6FD1     		bne	.L16
 802:../../drivers/third_party/ST/STM32L4xx_HAL_Driver/Src/stm32l4xx_hal_flash_ex.c ****   { 
 803:../../drivers/third_party/ST/STM32L4xx_HAL_Driver/Src/stm32l4xx_hal_flash_ex.c ****     if((UserType & OB_USER_BOR_LEV) != RESET)
 223              		.loc 1 803 0
 224 00bc 15F00103 		ands	r3, r5, #1
 791:../../drivers/third_party/ST/STM32L4xx_HAL_Driver/Src/stm32l4xx_hal_flash_ex.c ****   uint32_t optr_reg_mask = 0;
 225              		.loc 1 791 0
 226 00c0 0EBF     		itee	eq
 227 00c2 1A46     		moveq	r2, r3
 804:../../drivers/third_party/ST/STM32L4xx_HAL_Driver/Src/stm32l4xx_hal_flash_ex.c ****     {
 805:../../drivers/third_party/ST/STM32L4xx_HAL_Driver/Src/stm32l4xx_hal_flash_ex.c ****       /* BOR level option byte should be modified */
 806:../../drivers/third_party/ST/STM32L4xx_HAL_Driver/Src/stm32l4xx_hal_flash_ex.c ****       assert_param(IS_OB_USER_BOR_LEVEL(UserConfig & FLASH_OPTR_BOR_LEV));
 807:../../drivers/third_party/ST/STM32L4xx_HAL_Driver/Src/stm32l4xx_hal_flash_ex.c ****     
 808:../../drivers/third_party/ST/STM32L4xx_HAL_Driver/Src/stm32l4xx_hal_flash_ex.c ****       /* Set value and mask for BOR level option byte */
 809:../../drivers/third_party/ST/STM32L4xx_HAL_Driver/Src/stm32l4xx_hal_flash_ex.c ****       optr_reg_val |= (UserConfig & FLASH_OPTR_BOR_LEV);
 228              		.loc 1 809 0
 229 00c4 04F4E062 		andne	r2, r4, #1792
 230              	.LVL18:
 810:../../drivers/third_party/ST/STM32L4xx_HAL_Driver/Src/stm32l4xx_hal_flash_ex.c ****       optr_reg_mask |= FLASH_OPTR_BOR_LEV;
 231              		.loc 1 810 0
 232 00c8 4FF4E063 		movne	r3, #1792
 233              	.LVL19:
 811:../../drivers/third_party/ST/STM32L4xx_HAL_Driver/Src/stm32l4xx_hal_flash_ex.c ****     }
 812:../../drivers/third_party/ST/STM32L4xx_HAL_Driver/Src/stm32l4xx_hal_flash_ex.c **** 
 813:../../drivers/third_party/ST/STM32L4xx_HAL_Driver/Src/stm32l4xx_hal_flash_ex.c ****     if((UserType & OB_USER_nRST_STOP) != RESET)
 234              		.loc 1 813 0
 235 00cc A807     		lsls	r0, r5, #30
 236              	.LVL20:
 814:../../drivers/third_party/ST/STM32L4xx_HAL_Driver/Src/stm32l4xx_hal_flash_ex.c ****     {
 815:../../drivers/third_party/ST/STM32L4xx_HAL_Driver/Src/stm32l4xx_hal_flash_ex.c ****       /* nRST_STOP option byte should be modified */
 816:../../drivers/third_party/ST/STM32L4xx_HAL_Driver/Src/stm32l4xx_hal_flash_ex.c ****       assert_param(IS_OB_USER_STOP(UserConfig & FLASH_OPTR_nRST_STOP));
 817:../../drivers/third_party/ST/STM32L4xx_HAL_Driver/Src/stm32l4xx_hal_flash_ex.c ****     
 818:../../drivers/third_party/ST/STM32L4xx_HAL_Driver/Src/stm32l4xx_hal_flash_ex.c ****       /* Set value and mask for nRST_STOP option byte */
 819:../../drivers/third_party/ST/STM32L4xx_HAL_Driver/Src/stm32l4xx_hal_flash_ex.c ****       optr_reg_val |= (UserConfig & FLASH_OPTR_nRST_STOP);
 237              		.loc 1 819 0
 238 00ce 42BF     		ittt	mi
 239 00d0 04F48051 		andmi	r1, r4, #4096
 240 00d4 0A43     		orrmi	r2, r2, r1
 241              	.LVL21:
 820:../../drivers/third_party/ST/STM32L4xx_HAL_Driver/Src/stm32l4xx_hal_flash_ex.c ****       optr_reg_mask |= FLASH_OPTR_nRST_STOP;
 242              		.loc 1 820 0
 243 00d6 43F48053 		orrmi	r3, r3, #4096
 244              	.LVL22:
 821:../../drivers/third_party/ST/STM32L4xx_HAL_Driver/Src/stm32l4xx_hal_flash_ex.c ****     }
 822:../../drivers/third_party/ST/STM32L4xx_HAL_Driver/Src/stm32l4xx_hal_flash_ex.c **** 
 823:../../drivers/third_party/ST/STM32L4xx_HAL_Driver/Src/stm32l4xx_hal_flash_ex.c ****     if((UserType & OB_USER_nRST_STDBY) != RESET)
 245              		.loc 1 823 0
ARM GAS  C:\Users\LuckyE\AppData\Local\Temp\ccBar2YG.s 			page 20


 246 00da 6907     		lsls	r1, r5, #29
 824:../../drivers/third_party/ST/STM32L4xx_HAL_Driver/Src/stm32l4xx_hal_flash_ex.c ****     {
 825:../../drivers/third_party/ST/STM32L4xx_HAL_Driver/Src/stm32l4xx_hal_flash_ex.c ****       /* nRST_STDBY option byte should be modified */
 826:../../drivers/third_party/ST/STM32L4xx_HAL_Driver/Src/stm32l4xx_hal_flash_ex.c ****       assert_param(IS_OB_USER_STANDBY(UserConfig & FLASH_OPTR_nRST_STDBY));
 827:../../drivers/third_party/ST/STM32L4xx_HAL_Driver/Src/stm32l4xx_hal_flash_ex.c ****     
 828:../../drivers/third_party/ST/STM32L4xx_HAL_Driver/Src/stm32l4xx_hal_flash_ex.c ****       /* Set value and mask for nRST_STDBY option byte */
 829:../../drivers/third_party/ST/STM32L4xx_HAL_Driver/Src/stm32l4xx_hal_flash_ex.c ****       optr_reg_val |= (UserConfig & FLASH_OPTR_nRST_STDBY);
 247              		.loc 1 829 0
 248 00dc 42BF     		ittt	mi
 249 00de 04F40051 		andmi	r1, r4, #8192
 250 00e2 0A43     		orrmi	r2, r2, r1
 251              	.LVL23:
 830:../../drivers/third_party/ST/STM32L4xx_HAL_Driver/Src/stm32l4xx_hal_flash_ex.c ****       optr_reg_mask |= FLASH_OPTR_nRST_STDBY;
 252              		.loc 1 830 0
 253 00e4 43F40053 		orrmi	r3, r3, #8192
 254              	.LVL24:
 831:../../drivers/third_party/ST/STM32L4xx_HAL_Driver/Src/stm32l4xx_hal_flash_ex.c ****     }
 832:../../drivers/third_party/ST/STM32L4xx_HAL_Driver/Src/stm32l4xx_hal_flash_ex.c **** 
 833:../../drivers/third_party/ST/STM32L4xx_HAL_Driver/Src/stm32l4xx_hal_flash_ex.c ****     if((UserType & OB_USER_nRST_SHDW) != RESET)
 255              		.loc 1 833 0
 256 00e8 E804     		lsls	r0, r5, #19
 834:../../drivers/third_party/ST/STM32L4xx_HAL_Driver/Src/stm32l4xx_hal_flash_ex.c ****     {
 835:../../drivers/third_party/ST/STM32L4xx_HAL_Driver/Src/stm32l4xx_hal_flash_ex.c ****       /* nRST_SHDW option byte should be modified */
 836:../../drivers/third_party/ST/STM32L4xx_HAL_Driver/Src/stm32l4xx_hal_flash_ex.c ****       assert_param(IS_OB_USER_SHUTDOWN(UserConfig & FLASH_OPTR_nRST_SHDW));
 837:../../drivers/third_party/ST/STM32L4xx_HAL_Driver/Src/stm32l4xx_hal_flash_ex.c ****     
 838:../../drivers/third_party/ST/STM32L4xx_HAL_Driver/Src/stm32l4xx_hal_flash_ex.c ****       /* Set value and mask for nRST_SHDW option byte */
 839:../../drivers/third_party/ST/STM32L4xx_HAL_Driver/Src/stm32l4xx_hal_flash_ex.c ****       optr_reg_val |= (UserConfig & FLASH_OPTR_nRST_SHDW);
 257              		.loc 1 839 0
 258 00ea 42BF     		ittt	mi
 259 00ec 04F48041 		andmi	r1, r4, #16384
 260 00f0 0A43     		orrmi	r2, r2, r1
 261              	.LVL25:
 840:../../drivers/third_party/ST/STM32L4xx_HAL_Driver/Src/stm32l4xx_hal_flash_ex.c ****       optr_reg_mask |= FLASH_OPTR_nRST_SHDW;
 262              		.loc 1 840 0
 263 00f2 43F48043 		orrmi	r3, r3, #16384
 264              	.LVL26:
 841:../../drivers/third_party/ST/STM32L4xx_HAL_Driver/Src/stm32l4xx_hal_flash_ex.c ****     }
 842:../../drivers/third_party/ST/STM32L4xx_HAL_Driver/Src/stm32l4xx_hal_flash_ex.c **** 
 843:../../drivers/third_party/ST/STM32L4xx_HAL_Driver/Src/stm32l4xx_hal_flash_ex.c ****     if((UserType & OB_USER_IWDG_SW) != RESET)
 265              		.loc 1 843 0
 266 00f6 2907     		lsls	r1, r5, #28
 844:../../drivers/third_party/ST/STM32L4xx_HAL_Driver/Src/stm32l4xx_hal_flash_ex.c ****     {
 845:../../drivers/third_party/ST/STM32L4xx_HAL_Driver/Src/stm32l4xx_hal_flash_ex.c ****       /* IWDG_SW option byte should be modified */
 846:../../drivers/third_party/ST/STM32L4xx_HAL_Driver/Src/stm32l4xx_hal_flash_ex.c ****       assert_param(IS_OB_USER_IWDG(UserConfig & FLASH_OPTR_IWDG_SW));
 847:../../drivers/third_party/ST/STM32L4xx_HAL_Driver/Src/stm32l4xx_hal_flash_ex.c ****     
 848:../../drivers/third_party/ST/STM32L4xx_HAL_Driver/Src/stm32l4xx_hal_flash_ex.c ****       /* Set value and mask for IWDG_SW option byte */
 849:../../drivers/third_party/ST/STM32L4xx_HAL_Driver/Src/stm32l4xx_hal_flash_ex.c ****       optr_reg_val |= (UserConfig & FLASH_OPTR_IWDG_SW);
 267              		.loc 1 849 0
 268 00f8 42BF     		ittt	mi
 269 00fa 04F48031 		andmi	r1, r4, #65536
 270 00fe 0A43     		orrmi	r2, r2, r1
 271              	.LVL27:
 850:../../drivers/third_party/ST/STM32L4xx_HAL_Driver/Src/stm32l4xx_hal_flash_ex.c ****       optr_reg_mask |= FLASH_OPTR_IWDG_SW;
 272              		.loc 1 850 0
 273 0100 43F48033 		orrmi	r3, r3, #65536
 274              	.LVL28:
 851:../../drivers/third_party/ST/STM32L4xx_HAL_Driver/Src/stm32l4xx_hal_flash_ex.c ****     }
ARM GAS  C:\Users\LuckyE\AppData\Local\Temp\ccBar2YG.s 			page 21


 852:../../drivers/third_party/ST/STM32L4xx_HAL_Driver/Src/stm32l4xx_hal_flash_ex.c **** 
 853:../../drivers/third_party/ST/STM32L4xx_HAL_Driver/Src/stm32l4xx_hal_flash_ex.c ****     if((UserType & OB_USER_IWDG_STOP) != RESET)
 275              		.loc 1 853 0
 276 0104 E806     		lsls	r0, r5, #27
 854:../../drivers/third_party/ST/STM32L4xx_HAL_Driver/Src/stm32l4xx_hal_flash_ex.c ****     {
 855:../../drivers/third_party/ST/STM32L4xx_HAL_Driver/Src/stm32l4xx_hal_flash_ex.c ****       /* IWDG_STOP option byte should be modified */
 856:../../drivers/third_party/ST/STM32L4xx_HAL_Driver/Src/stm32l4xx_hal_flash_ex.c ****       assert_param(IS_OB_USER_IWDG_STOP(UserConfig & FLASH_OPTR_IWDG_STOP));
 857:../../drivers/third_party/ST/STM32L4xx_HAL_Driver/Src/stm32l4xx_hal_flash_ex.c ****     
 858:../../drivers/third_party/ST/STM32L4xx_HAL_Driver/Src/stm32l4xx_hal_flash_ex.c ****       /* Set value and mask for IWDG_STOP option byte */
 859:../../drivers/third_party/ST/STM32L4xx_HAL_Driver/Src/stm32l4xx_hal_flash_ex.c ****       optr_reg_val |= (UserConfig & FLASH_OPTR_IWDG_STOP);
 277              		.loc 1 859 0
 278 0106 42BF     		ittt	mi
 279 0108 04F40031 		andmi	r1, r4, #131072
 280 010c 0A43     		orrmi	r2, r2, r1
 281              	.LVL29:
 860:../../drivers/third_party/ST/STM32L4xx_HAL_Driver/Src/stm32l4xx_hal_flash_ex.c ****       optr_reg_mask |= FLASH_OPTR_IWDG_STOP;
 282              		.loc 1 860 0
 283 010e 43F40033 		orrmi	r3, r3, #131072
 284              	.LVL30:
 861:../../drivers/third_party/ST/STM32L4xx_HAL_Driver/Src/stm32l4xx_hal_flash_ex.c ****     }
 862:../../drivers/third_party/ST/STM32L4xx_HAL_Driver/Src/stm32l4xx_hal_flash_ex.c **** 
 863:../../drivers/third_party/ST/STM32L4xx_HAL_Driver/Src/stm32l4xx_hal_flash_ex.c ****     if((UserType & OB_USER_IWDG_STDBY) != RESET)
 285              		.loc 1 863 0
 286 0112 A906     		lsls	r1, r5, #26
 864:../../drivers/third_party/ST/STM32L4xx_HAL_Driver/Src/stm32l4xx_hal_flash_ex.c ****     {
 865:../../drivers/third_party/ST/STM32L4xx_HAL_Driver/Src/stm32l4xx_hal_flash_ex.c ****       /* IWDG_STDBY option byte should be modified */
 866:../../drivers/third_party/ST/STM32L4xx_HAL_Driver/Src/stm32l4xx_hal_flash_ex.c ****       assert_param(IS_OB_USER_IWDG_STDBY(UserConfig & FLASH_OPTR_IWDG_STDBY));
 867:../../drivers/third_party/ST/STM32L4xx_HAL_Driver/Src/stm32l4xx_hal_flash_ex.c ****     
 868:../../drivers/third_party/ST/STM32L4xx_HAL_Driver/Src/stm32l4xx_hal_flash_ex.c ****       /* Set value and mask for IWDG_STDBY option byte */
 869:../../drivers/third_party/ST/STM32L4xx_HAL_Driver/Src/stm32l4xx_hal_flash_ex.c ****       optr_reg_val |= (UserConfig & FLASH_OPTR_IWDG_STDBY);
 287              		.loc 1 869 0
 288 0114 42BF     		ittt	mi
 289 0116 04F48021 		andmi	r1, r4, #262144
 290 011a 0A43     		orrmi	r2, r2, r1
 291              	.LVL31:
 870:../../drivers/third_party/ST/STM32L4xx_HAL_Driver/Src/stm32l4xx_hal_flash_ex.c ****       optr_reg_mask |= FLASH_OPTR_IWDG_STDBY;
 292              		.loc 1 870 0
 293 011c 43F48023 		orrmi	r3, r3, #262144
 294              	.LVL32:
 871:../../drivers/third_party/ST/STM32L4xx_HAL_Driver/Src/stm32l4xx_hal_flash_ex.c ****     }
 872:../../drivers/third_party/ST/STM32L4xx_HAL_Driver/Src/stm32l4xx_hal_flash_ex.c **** 
 873:../../drivers/third_party/ST/STM32L4xx_HAL_Driver/Src/stm32l4xx_hal_flash_ex.c ****     if((UserType & OB_USER_WWDG_SW) != RESET)
 295              		.loc 1 873 0
 296 0120 6806     		lsls	r0, r5, #25
 874:../../drivers/third_party/ST/STM32L4xx_HAL_Driver/Src/stm32l4xx_hal_flash_ex.c ****     {
 875:../../drivers/third_party/ST/STM32L4xx_HAL_Driver/Src/stm32l4xx_hal_flash_ex.c ****       /* WWDG_SW option byte should be modified */
 876:../../drivers/third_party/ST/STM32L4xx_HAL_Driver/Src/stm32l4xx_hal_flash_ex.c ****       assert_param(IS_OB_USER_WWDG(UserConfig & FLASH_OPTR_WWDG_SW));
 877:../../drivers/third_party/ST/STM32L4xx_HAL_Driver/Src/stm32l4xx_hal_flash_ex.c ****     
 878:../../drivers/third_party/ST/STM32L4xx_HAL_Driver/Src/stm32l4xx_hal_flash_ex.c ****       /* Set value and mask for WWDG_SW option byte */
 879:../../drivers/third_party/ST/STM32L4xx_HAL_Driver/Src/stm32l4xx_hal_flash_ex.c ****       optr_reg_val |= (UserConfig & FLASH_OPTR_WWDG_SW);
 297              		.loc 1 879 0
 298 0122 42BF     		ittt	mi
 299 0124 04F40021 		andmi	r1, r4, #524288
 300 0128 0A43     		orrmi	r2, r2, r1
 301              	.LVL33:
 880:../../drivers/third_party/ST/STM32L4xx_HAL_Driver/Src/stm32l4xx_hal_flash_ex.c ****       optr_reg_mask |= FLASH_OPTR_WWDG_SW;
 302              		.loc 1 880 0
ARM GAS  C:\Users\LuckyE\AppData\Local\Temp\ccBar2YG.s 			page 22


 303 012a 43F40023 		orrmi	r3, r3, #524288
 304              	.LVL34:
 881:../../drivers/third_party/ST/STM32L4xx_HAL_Driver/Src/stm32l4xx_hal_flash_ex.c ****     }
 882:../../drivers/third_party/ST/STM32L4xx_HAL_Driver/Src/stm32l4xx_hal_flash_ex.c **** 
 883:../../drivers/third_party/ST/STM32L4xx_HAL_Driver/Src/stm32l4xx_hal_flash_ex.c **** #if defined (STM32L471xx) || defined (STM32L475xx) || defined (STM32L476xx) || defined (STM32L485xx
 884:../../drivers/third_party/ST/STM32L4xx_HAL_Driver/Src/stm32l4xx_hal_flash_ex.c ****     defined (STM32L496xx) || defined (STM32L4A6xx) || \
 885:../../drivers/third_party/ST/STM32L4xx_HAL_Driver/Src/stm32l4xx_hal_flash_ex.c ****     defined (STM32L4R5xx) || defined (STM32L4R7xx) || defined (STM32L4R9xx) || defined (STM32L4S5xx
 886:../../drivers/third_party/ST/STM32L4xx_HAL_Driver/Src/stm32l4xx_hal_flash_ex.c ****     if((UserType & OB_USER_BFB2) != RESET)
 887:../../drivers/third_party/ST/STM32L4xx_HAL_Driver/Src/stm32l4xx_hal_flash_ex.c ****     {
 888:../../drivers/third_party/ST/STM32L4xx_HAL_Driver/Src/stm32l4xx_hal_flash_ex.c ****       /* BFB2 option byte should be modified */
 889:../../drivers/third_party/ST/STM32L4xx_HAL_Driver/Src/stm32l4xx_hal_flash_ex.c ****       assert_param(IS_OB_USER_BFB2(UserConfig & FLASH_OPTR_BFB2));
 890:../../drivers/third_party/ST/STM32L4xx_HAL_Driver/Src/stm32l4xx_hal_flash_ex.c ****     
 891:../../drivers/third_party/ST/STM32L4xx_HAL_Driver/Src/stm32l4xx_hal_flash_ex.c ****       /* Set value and mask for BFB2 option byte */
 892:../../drivers/third_party/ST/STM32L4xx_HAL_Driver/Src/stm32l4xx_hal_flash_ex.c ****       optr_reg_val |= (UserConfig & FLASH_OPTR_BFB2);
 893:../../drivers/third_party/ST/STM32L4xx_HAL_Driver/Src/stm32l4xx_hal_flash_ex.c ****       optr_reg_mask |= FLASH_OPTR_BFB2;
 894:../../drivers/third_party/ST/STM32L4xx_HAL_Driver/Src/stm32l4xx_hal_flash_ex.c ****     }
 895:../../drivers/third_party/ST/STM32L4xx_HAL_Driver/Src/stm32l4xx_hal_flash_ex.c **** 
 896:../../drivers/third_party/ST/STM32L4xx_HAL_Driver/Src/stm32l4xx_hal_flash_ex.c ****     if((UserType & OB_USER_DUALBANK) != RESET)
 897:../../drivers/third_party/ST/STM32L4xx_HAL_Driver/Src/stm32l4xx_hal_flash_ex.c ****     {
 898:../../drivers/third_party/ST/STM32L4xx_HAL_Driver/Src/stm32l4xx_hal_flash_ex.c **** #if defined (STM32L4R5xx) || defined (STM32L4R7xx) || defined (STM32L4R9xx) || defined (STM32L4S5xx
 899:../../drivers/third_party/ST/STM32L4xx_HAL_Driver/Src/stm32l4xx_hal_flash_ex.c ****       /* DUALBANK option byte should be modified */
 900:../../drivers/third_party/ST/STM32L4xx_HAL_Driver/Src/stm32l4xx_hal_flash_ex.c ****       assert_param(IS_OB_USER_DUALBANK(UserConfig & FLASH_OPTR_DB1M));
 901:../../drivers/third_party/ST/STM32L4xx_HAL_Driver/Src/stm32l4xx_hal_flash_ex.c ****     
 902:../../drivers/third_party/ST/STM32L4xx_HAL_Driver/Src/stm32l4xx_hal_flash_ex.c ****       /* Set value and mask for DUALBANK option byte */
 903:../../drivers/third_party/ST/STM32L4xx_HAL_Driver/Src/stm32l4xx_hal_flash_ex.c ****       optr_reg_val |= (UserConfig & FLASH_OPTR_DB1M);
 904:../../drivers/third_party/ST/STM32L4xx_HAL_Driver/Src/stm32l4xx_hal_flash_ex.c ****       optr_reg_mask |= FLASH_OPTR_DB1M;
 905:../../drivers/third_party/ST/STM32L4xx_HAL_Driver/Src/stm32l4xx_hal_flash_ex.c **** #else
 906:../../drivers/third_party/ST/STM32L4xx_HAL_Driver/Src/stm32l4xx_hal_flash_ex.c ****       /* DUALBANK option byte should be modified */
 907:../../drivers/third_party/ST/STM32L4xx_HAL_Driver/Src/stm32l4xx_hal_flash_ex.c ****       assert_param(IS_OB_USER_DUALBANK(UserConfig & FLASH_OPTR_DUALBANK));
 908:../../drivers/third_party/ST/STM32L4xx_HAL_Driver/Src/stm32l4xx_hal_flash_ex.c ****     
 909:../../drivers/third_party/ST/STM32L4xx_HAL_Driver/Src/stm32l4xx_hal_flash_ex.c ****       /* Set value and mask for DUALBANK option byte */
 910:../../drivers/third_party/ST/STM32L4xx_HAL_Driver/Src/stm32l4xx_hal_flash_ex.c ****       optr_reg_val |= (UserConfig & FLASH_OPTR_DUALBANK);
 911:../../drivers/third_party/ST/STM32L4xx_HAL_Driver/Src/stm32l4xx_hal_flash_ex.c ****       optr_reg_mask |= FLASH_OPTR_DUALBANK;
 912:../../drivers/third_party/ST/STM32L4xx_HAL_Driver/Src/stm32l4xx_hal_flash_ex.c **** #endif
 913:../../drivers/third_party/ST/STM32L4xx_HAL_Driver/Src/stm32l4xx_hal_flash_ex.c ****     }
 914:../../drivers/third_party/ST/STM32L4xx_HAL_Driver/Src/stm32l4xx_hal_flash_ex.c **** #endif
 915:../../drivers/third_party/ST/STM32L4xx_HAL_Driver/Src/stm32l4xx_hal_flash_ex.c ****     
 916:../../drivers/third_party/ST/STM32L4xx_HAL_Driver/Src/stm32l4xx_hal_flash_ex.c ****     if((UserType & OB_USER_nBOOT1) != RESET)
 305              		.loc 1 916 0
 306 012e A905     		lsls	r1, r5, #22
 917:../../drivers/third_party/ST/STM32L4xx_HAL_Driver/Src/stm32l4xx_hal_flash_ex.c ****     {
 918:../../drivers/third_party/ST/STM32L4xx_HAL_Driver/Src/stm32l4xx_hal_flash_ex.c ****       /* nBOOT1 option byte should be modified */
 919:../../drivers/third_party/ST/STM32L4xx_HAL_Driver/Src/stm32l4xx_hal_flash_ex.c ****       assert_param(IS_OB_USER_BOOT1(UserConfig & FLASH_OPTR_nBOOT1));
 920:../../drivers/third_party/ST/STM32L4xx_HAL_Driver/Src/stm32l4xx_hal_flash_ex.c ****     
 921:../../drivers/third_party/ST/STM32L4xx_HAL_Driver/Src/stm32l4xx_hal_flash_ex.c ****       /* Set value and mask for nBOOT1 option byte */
 922:../../drivers/third_party/ST/STM32L4xx_HAL_Driver/Src/stm32l4xx_hal_flash_ex.c ****       optr_reg_val |= (UserConfig & FLASH_OPTR_nBOOT1);
 307              		.loc 1 922 0
 308 0130 42BF     		ittt	mi
 309 0132 04F40001 		andmi	r1, r4, #8388608
 310 0136 0A43     		orrmi	r2, r2, r1
 311              	.LVL35:
 923:../../drivers/third_party/ST/STM32L4xx_HAL_Driver/Src/stm32l4xx_hal_flash_ex.c ****       optr_reg_mask |= FLASH_OPTR_nBOOT1;
 312              		.loc 1 923 0
 313 0138 43F40003 		orrmi	r3, r3, #8388608
 314              	.LVL36:
 924:../../drivers/third_party/ST/STM32L4xx_HAL_Driver/Src/stm32l4xx_hal_flash_ex.c ****     }
 925:../../drivers/third_party/ST/STM32L4xx_HAL_Driver/Src/stm32l4xx_hal_flash_ex.c **** 
ARM GAS  C:\Users\LuckyE\AppData\Local\Temp\ccBar2YG.s 			page 23


 926:../../drivers/third_party/ST/STM32L4xx_HAL_Driver/Src/stm32l4xx_hal_flash_ex.c ****     if((UserType & OB_USER_SRAM2_PE) != RESET)
 315              		.loc 1 926 0
 316 013c 6805     		lsls	r0, r5, #21
 927:../../drivers/third_party/ST/STM32L4xx_HAL_Driver/Src/stm32l4xx_hal_flash_ex.c ****     {
 928:../../drivers/third_party/ST/STM32L4xx_HAL_Driver/Src/stm32l4xx_hal_flash_ex.c ****       /* SRAM2_PE option byte should be modified */
 929:../../drivers/third_party/ST/STM32L4xx_HAL_Driver/Src/stm32l4xx_hal_flash_ex.c ****       assert_param(IS_OB_USER_SRAM2_PARITY(UserConfig & FLASH_OPTR_SRAM2_PE));
 930:../../drivers/third_party/ST/STM32L4xx_HAL_Driver/Src/stm32l4xx_hal_flash_ex.c ****     
 931:../../drivers/third_party/ST/STM32L4xx_HAL_Driver/Src/stm32l4xx_hal_flash_ex.c ****       /* Set value and mask for SRAM2_PE option byte */
 932:../../drivers/third_party/ST/STM32L4xx_HAL_Driver/Src/stm32l4xx_hal_flash_ex.c ****       optr_reg_val |= (UserConfig & FLASH_OPTR_SRAM2_PE);
 317              		.loc 1 932 0
 318 013e 42BF     		ittt	mi
 319 0140 04F08071 		andmi	r1, r4, #16777216
 320 0144 0A43     		orrmi	r2, r2, r1
 321              	.LVL37:
 933:../../drivers/third_party/ST/STM32L4xx_HAL_Driver/Src/stm32l4xx_hal_flash_ex.c ****       optr_reg_mask |= FLASH_OPTR_SRAM2_PE;
 322              		.loc 1 933 0
 323 0146 43F08073 		orrmi	r3, r3, #16777216
 324              	.LVL38:
 934:../../drivers/third_party/ST/STM32L4xx_HAL_Driver/Src/stm32l4xx_hal_flash_ex.c ****     }
 935:../../drivers/third_party/ST/STM32L4xx_HAL_Driver/Src/stm32l4xx_hal_flash_ex.c **** 
 936:../../drivers/third_party/ST/STM32L4xx_HAL_Driver/Src/stm32l4xx_hal_flash_ex.c ****     if((UserType & OB_USER_SRAM2_RST) != RESET)
 325              		.loc 1 936 0
 326 014a 2905     		lsls	r1, r5, #20
 937:../../drivers/third_party/ST/STM32L4xx_HAL_Driver/Src/stm32l4xx_hal_flash_ex.c ****     {
 938:../../drivers/third_party/ST/STM32L4xx_HAL_Driver/Src/stm32l4xx_hal_flash_ex.c ****       /* SRAM2_RST option byte should be modified */
 939:../../drivers/third_party/ST/STM32L4xx_HAL_Driver/Src/stm32l4xx_hal_flash_ex.c ****       assert_param(IS_OB_USER_SRAM2_RST(UserConfig & FLASH_OPTR_SRAM2_RST));
 940:../../drivers/third_party/ST/STM32L4xx_HAL_Driver/Src/stm32l4xx_hal_flash_ex.c ****     
 941:../../drivers/third_party/ST/STM32L4xx_HAL_Driver/Src/stm32l4xx_hal_flash_ex.c ****       /* Set value and mask for SRAM2_RST option byte */
 942:../../drivers/third_party/ST/STM32L4xx_HAL_Driver/Src/stm32l4xx_hal_flash_ex.c ****       optr_reg_val |= (UserConfig & FLASH_OPTR_SRAM2_RST);
 327              		.loc 1 942 0
 328 014c 42BF     		ittt	mi
 329 014e 04F00071 		andmi	r1, r4, #33554432
 330 0152 0A43     		orrmi	r2, r2, r1
 331              	.LVL39:
 943:../../drivers/third_party/ST/STM32L4xx_HAL_Driver/Src/stm32l4xx_hal_flash_ex.c ****       optr_reg_mask |= FLASH_OPTR_SRAM2_RST;
 332              		.loc 1 943 0
 333 0154 43F00073 		orrmi	r3, r3, #33554432
 334              	.LVL40:
 944:../../drivers/third_party/ST/STM32L4xx_HAL_Driver/Src/stm32l4xx_hal_flash_ex.c ****     }
 945:../../drivers/third_party/ST/STM32L4xx_HAL_Driver/Src/stm32l4xx_hal_flash_ex.c **** 
 946:../../drivers/third_party/ST/STM32L4xx_HAL_Driver/Src/stm32l4xx_hal_flash_ex.c **** #if defined (STM32L431xx) || defined (STM32L432xx) || defined (STM32L433xx) || defined (STM32L442xx
 947:../../drivers/third_party/ST/STM32L4xx_HAL_Driver/Src/stm32l4xx_hal_flash_ex.c ****     defined (STM32L443xx) || defined (STM32L451xx) || defined (STM32L452xx) || defined (STM32L462xx
 948:../../drivers/third_party/ST/STM32L4xx_HAL_Driver/Src/stm32l4xx_hal_flash_ex.c ****     defined (STM32L496xx) || defined (STM32L4A6xx) || \
 949:../../drivers/third_party/ST/STM32L4xx_HAL_Driver/Src/stm32l4xx_hal_flash_ex.c ****     defined (STM32L4R5xx) || defined (STM32L4R7xx) || defined (STM32L4R9xx) || defined (STM32L4S5xx
 950:../../drivers/third_party/ST/STM32L4xx_HAL_Driver/Src/stm32l4xx_hal_flash_ex.c ****     if((UserType & OB_USER_nSWBOOT0) != RESET)
 335              		.loc 1 950 0
 336 0158 A804     		lsls	r0, r5, #18
 951:../../drivers/third_party/ST/STM32L4xx_HAL_Driver/Src/stm32l4xx_hal_flash_ex.c ****     {
 952:../../drivers/third_party/ST/STM32L4xx_HAL_Driver/Src/stm32l4xx_hal_flash_ex.c ****       /* nSWBOOT0 option byte should be modified */
 953:../../drivers/third_party/ST/STM32L4xx_HAL_Driver/Src/stm32l4xx_hal_flash_ex.c ****       assert_param(IS_OB_USER_SWBOOT0(UserConfig & FLASH_OPTR_nSWBOOT0));
 954:../../drivers/third_party/ST/STM32L4xx_HAL_Driver/Src/stm32l4xx_hal_flash_ex.c ****     
 955:../../drivers/third_party/ST/STM32L4xx_HAL_Driver/Src/stm32l4xx_hal_flash_ex.c ****       /* Set value and mask for nSWBOOT0 option byte */
 956:../../drivers/third_party/ST/STM32L4xx_HAL_Driver/Src/stm32l4xx_hal_flash_ex.c ****       optr_reg_val |= (UserConfig & FLASH_OPTR_nSWBOOT0);
 337              		.loc 1 956 0
 338 015a 42BF     		ittt	mi
 339 015c 04F08061 		andmi	r1, r4, #67108864
 340 0160 0A43     		orrmi	r2, r2, r1
ARM GAS  C:\Users\LuckyE\AppData\Local\Temp\ccBar2YG.s 			page 24


 341              	.LVL41:
 957:../../drivers/third_party/ST/STM32L4xx_HAL_Driver/Src/stm32l4xx_hal_flash_ex.c ****       optr_reg_mask |= FLASH_OPTR_nSWBOOT0;
 342              		.loc 1 957 0
 343 0162 43F08063 		orrmi	r3, r3, #67108864
 344              	.LVL42:
 958:../../drivers/third_party/ST/STM32L4xx_HAL_Driver/Src/stm32l4xx_hal_flash_ex.c ****     }
 959:../../drivers/third_party/ST/STM32L4xx_HAL_Driver/Src/stm32l4xx_hal_flash_ex.c **** 
 960:../../drivers/third_party/ST/STM32L4xx_HAL_Driver/Src/stm32l4xx_hal_flash_ex.c ****     if((UserType & OB_USER_nBOOT0) != RESET)
 345              		.loc 1 960 0
 346 0166 6904     		lsls	r1, r5, #17
 961:../../drivers/third_party/ST/STM32L4xx_HAL_Driver/Src/stm32l4xx_hal_flash_ex.c ****     {
 962:../../drivers/third_party/ST/STM32L4xx_HAL_Driver/Src/stm32l4xx_hal_flash_ex.c ****       /* nBOOT0 option byte should be modified */
 963:../../drivers/third_party/ST/STM32L4xx_HAL_Driver/Src/stm32l4xx_hal_flash_ex.c ****       assert_param(IS_OB_USER_BOOT0(UserConfig & FLASH_OPTR_nBOOT0));
 964:../../drivers/third_party/ST/STM32L4xx_HAL_Driver/Src/stm32l4xx_hal_flash_ex.c ****     
 965:../../drivers/third_party/ST/STM32L4xx_HAL_Driver/Src/stm32l4xx_hal_flash_ex.c ****       /* Set value and mask for nBOOT0 option byte */
 966:../../drivers/third_party/ST/STM32L4xx_HAL_Driver/Src/stm32l4xx_hal_flash_ex.c ****       optr_reg_val |= (UserConfig & FLASH_OPTR_nBOOT0);
 347              		.loc 1 966 0
 348 0168 44BF     		itt	mi
 349 016a 04F00064 		andmi	r4, r4, #134217728
 350              	.LVL43:
 351 016e 2243     		orrmi	r2, r2, r4
 352              	.LVL44:
 967:../../drivers/third_party/ST/STM32L4xx_HAL_Driver/Src/stm32l4xx_hal_flash_ex.c ****       optr_reg_mask |= FLASH_OPTR_nBOOT0;
 968:../../drivers/third_party/ST/STM32L4xx_HAL_Driver/Src/stm32l4xx_hal_flash_ex.c ****     }
 969:../../drivers/third_party/ST/STM32L4xx_HAL_Driver/Src/stm32l4xx_hal_flash_ex.c **** #endif
 970:../../drivers/third_party/ST/STM32L4xx_HAL_Driver/Src/stm32l4xx_hal_flash_ex.c ****     
 971:../../drivers/third_party/ST/STM32L4xx_HAL_Driver/Src/stm32l4xx_hal_flash_ex.c ****     /* Configure the option bytes register */
 972:../../drivers/third_party/ST/STM32L4xx_HAL_Driver/Src/stm32l4xx_hal_flash_ex.c ****     MODIFY_REG(FLASH->OPTR, optr_reg_mask, optr_reg_val);
 353              		.loc 1 972 0
 354 0170 324C     		ldr	r4, .L94+4
 355 0172 216A     		ldr	r1, [r4, #32]
 967:../../drivers/third_party/ST/STM32L4xx_HAL_Driver/Src/stm32l4xx_hal_flash_ex.c ****       optr_reg_mask |= FLASH_OPTR_nBOOT0;
 356              		.loc 1 967 0
 357 0174 48BF     		it	mi
 358 0176 43F00063 		orrmi	r3, r3, #134217728
 359              	.LVL45:
 360              		.loc 1 972 0
 361 017a 21EA0303 		bic	r3, r1, r3
 362              	.LVL46:
 363 017e 1A43     		orrs	r2, r2, r3
 364              	.LVL47:
 365 0180 2262     		str	r2, [r4, #32]
 973:../../drivers/third_party/ST/STM32L4xx_HAL_Driver/Src/stm32l4xx_hal_flash_ex.c ****     
 974:../../drivers/third_party/ST/STM32L4xx_HAL_Driver/Src/stm32l4xx_hal_flash_ex.c ****     /* Set OPTSTRT Bit */
 975:../../drivers/third_party/ST/STM32L4xx_HAL_Driver/Src/stm32l4xx_hal_flash_ex.c ****     SET_BIT(FLASH->CR, FLASH_CR_OPTSTRT);
 366              		.loc 1 975 0
 367 0182 6369     		ldr	r3, [r4, #20]
 368 0184 43F40033 		orr	r3, r3, #131072
 369 0188 6361     		str	r3, [r4, #20]
 976:../../drivers/third_party/ST/STM32L4xx_HAL_Driver/Src/stm32l4xx_hal_flash_ex.c ****     
 977:../../drivers/third_party/ST/STM32L4xx_HAL_Driver/Src/stm32l4xx_hal_flash_ex.c ****     /* Wait for last operation to be completed */
 978:../../drivers/third_party/ST/STM32L4xx_HAL_Driver/Src/stm32l4xx_hal_flash_ex.c ****     status = FLASH_WaitForLastOperation((uint32_t)FLASH_TIMEOUT_VALUE);
 370              		.loc 1 978 0
 371 018a 4CF25030 		movw	r0, #50000
 372 018e FFF7FEFF 		bl	FLASH_WaitForLastOperation
 373              	.LVL48:
 979:../../drivers/third_party/ST/STM32L4xx_HAL_Driver/Src/stm32l4xx_hal_flash_ex.c **** 
ARM GAS  C:\Users\LuckyE\AppData\Local\Temp\ccBar2YG.s 			page 25


 980:../../drivers/third_party/ST/STM32L4xx_HAL_Driver/Src/stm32l4xx_hal_flash_ex.c ****     /* If the option byte program operation is completed, disable the OPTSTRT Bit */
 981:../../drivers/third_party/ST/STM32L4xx_HAL_Driver/Src/stm32l4xx_hal_flash_ex.c ****     CLEAR_BIT(FLASH->CR, FLASH_CR_OPTSTRT);
 374              		.loc 1 981 0
 375 0192 6369     		ldr	r3, [r4, #20]
 376 0194 23F40033 		bic	r3, r3, #131072
 377 0198 6361     		str	r3, [r4, #20]
 378              	.LVL49:
 379              	.LBE25:
 380              	.LBE26:
 368:../../drivers/third_party/ST/STM32L4xx_HAL_Driver/Src/stm32l4xx_hal_flash_ex.c ****     {
 381              		.loc 1 368 0
 382 019a 00B1     		cbz	r0, .L15
 383              	.L16:
 384              	.LVL50:
 370:../../drivers/third_party/ST/STM32L4xx_HAL_Driver/Src/stm32l4xx_hal_flash_ex.c ****     }
 385              		.loc 1 370 0
 386 019c 0127     		movs	r7, #1
 387              	.LVL51:
 388              	.L15:
 375:../../drivers/third_party/ST/STM32L4xx_HAL_Driver/Src/stm32l4xx_hal_flash_ex.c ****   {
 389              		.loc 1 375 0
 390 019e 3368     		ldr	r3, [r6]
 391 01a0 1A07     		lsls	r2, r3, #28
 392 01a2 32D5     		bpl	.L30
 377:../../drivers/third_party/ST/STM32L4xx_HAL_Driver/Src/stm32l4xx_hal_flash_ex.c ****     {
 393              		.loc 1 377 0
 394 01a4 D6E90894 		ldrd	r9, r4, [r6, #32]
 395 01a8 A145     		cmp	r9, r4
 396 01aa 2ED0     		beq	.L30
 397              	.LBB27:
 398              	.LBB28:
 982:../../drivers/third_party/ST/STM32L4xx_HAL_Driver/Src/stm32l4xx_hal_flash_ex.c ****   }
 983:../../drivers/third_party/ST/STM32L4xx_HAL_Driver/Src/stm32l4xx_hal_flash_ex.c **** 
 984:../../drivers/third_party/ST/STM32L4xx_HAL_Driver/Src/stm32l4xx_hal_flash_ex.c ****   return status;            
 985:../../drivers/third_party/ST/STM32L4xx_HAL_Driver/Src/stm32l4xx_hal_flash_ex.c **** }
 986:../../drivers/third_party/ST/STM32L4xx_HAL_Driver/Src/stm32l4xx_hal_flash_ex.c **** 
 987:../../drivers/third_party/ST/STM32L4xx_HAL_Driver/Src/stm32l4xx_hal_flash_ex.c **** /**
 988:../../drivers/third_party/ST/STM32L4xx_HAL_Driver/Src/stm32l4xx_hal_flash_ex.c ****   * @brief  Configure the Proprietary code readout protection of the desired addresses.
 989:../../drivers/third_party/ST/STM32L4xx_HAL_Driver/Src/stm32l4xx_hal_flash_ex.c ****   *
 990:../../drivers/third_party/ST/STM32L4xx_HAL_Driver/Src/stm32l4xx_hal_flash_ex.c ****   * @note   To configure the PCROP options, the option lock bit OPTLOCK must be 
 991:../../drivers/third_party/ST/STM32L4xx_HAL_Driver/Src/stm32l4xx_hal_flash_ex.c ****   *         cleared with the call of the HAL_FLASH_OB_Unlock() function.
 992:../../drivers/third_party/ST/STM32L4xx_HAL_Driver/Src/stm32l4xx_hal_flash_ex.c ****   * @note   To validate the PCROP options, the option bytes must be reloaded 
 993:../../drivers/third_party/ST/STM32L4xx_HAL_Driver/Src/stm32l4xx_hal_flash_ex.c ****   *         through the call of the HAL_FLASH_OB_Launch() function.
 994:../../drivers/third_party/ST/STM32L4xx_HAL_Driver/Src/stm32l4xx_hal_flash_ex.c ****   *
 995:../../drivers/third_party/ST/STM32L4xx_HAL_Driver/Src/stm32l4xx_hal_flash_ex.c ****   * @param  PCROPConfig: specifies the configuration (Bank to be configured and PCROP_RDP option).
 996:../../drivers/third_party/ST/STM32L4xx_HAL_Driver/Src/stm32l4xx_hal_flash_ex.c ****   *          This parameter must be a combination of FLASH_BANK_1 or FLASH_BANK_2 
 997:../../drivers/third_party/ST/STM32L4xx_HAL_Driver/Src/stm32l4xx_hal_flash_ex.c ****   *          with OB_PCROP_RDP_NOT_ERASE or OB_PCROP_RDP_ERASE
 998:../../drivers/third_party/ST/STM32L4xx_HAL_Driver/Src/stm32l4xx_hal_flash_ex.c ****   *
 999:../../drivers/third_party/ST/STM32L4xx_HAL_Driver/Src/stm32l4xx_hal_flash_ex.c ****   * @param  PCROPStartAddr: specifies the start address of the Proprietary code readout protection
1000:../../drivers/third_party/ST/STM32L4xx_HAL_Driver/Src/stm32l4xx_hal_flash_ex.c ****   *          This parameter can be an address between begin and end of the bank 
1001:../../drivers/third_party/ST/STM32L4xx_HAL_Driver/Src/stm32l4xx_hal_flash_ex.c ****   *
1002:../../drivers/third_party/ST/STM32L4xx_HAL_Driver/Src/stm32l4xx_hal_flash_ex.c ****   * @param  PCROPEndAddr: specifies the end address of the Proprietary code readout protection
1003:../../drivers/third_party/ST/STM32L4xx_HAL_Driver/Src/stm32l4xx_hal_flash_ex.c ****   *          This parameter can be an address between PCROPStartAddr and end of the bank 
1004:../../drivers/third_party/ST/STM32L4xx_HAL_Driver/Src/stm32l4xx_hal_flash_ex.c ****   *
1005:../../drivers/third_party/ST/STM32L4xx_HAL_Driver/Src/stm32l4xx_hal_flash_ex.c ****   * @retval HAL Status
1006:../../drivers/third_party/ST/STM32L4xx_HAL_Driver/Src/stm32l4xx_hal_flash_ex.c ****   */
1007:../../drivers/third_party/ST/STM32L4xx_HAL_Driver/Src/stm32l4xx_hal_flash_ex.c **** static HAL_StatusTypeDef FLASH_OB_PCROPConfig(uint32_t PCROPConfig, uint32_t PCROPStartAddr, uint32
ARM GAS  C:\Users\LuckyE\AppData\Local\Temp\ccBar2YG.s 			page 26


1008:../../drivers/third_party/ST/STM32L4xx_HAL_Driver/Src/stm32l4xx_hal_flash_ex.c **** {
1009:../../drivers/third_party/ST/STM32L4xx_HAL_Driver/Src/stm32l4xx_hal_flash_ex.c ****   HAL_StatusTypeDef status = HAL_OK;
1010:../../drivers/third_party/ST/STM32L4xx_HAL_Driver/Src/stm32l4xx_hal_flash_ex.c ****   uint32_t reg_value = 0;
1011:../../drivers/third_party/ST/STM32L4xx_HAL_Driver/Src/stm32l4xx_hal_flash_ex.c ****   uint32_t bank1_addr;
1012:../../drivers/third_party/ST/STM32L4xx_HAL_Driver/Src/stm32l4xx_hal_flash_ex.c **** #if defined (STM32L471xx) || defined (STM32L475xx) || defined (STM32L476xx) || defined (STM32L485xx
1013:../../drivers/third_party/ST/STM32L4xx_HAL_Driver/Src/stm32l4xx_hal_flash_ex.c ****     defined (STM32L496xx) || defined (STM32L4A6xx) || \
1014:../../drivers/third_party/ST/STM32L4xx_HAL_Driver/Src/stm32l4xx_hal_flash_ex.c ****     defined (STM32L4R5xx) || defined (STM32L4R7xx) || defined (STM32L4R9xx) || defined (STM32L4S5xx
1015:../../drivers/third_party/ST/STM32L4xx_HAL_Driver/Src/stm32l4xx_hal_flash_ex.c ****   uint32_t bank2_addr;
1016:../../drivers/third_party/ST/STM32L4xx_HAL_Driver/Src/stm32l4xx_hal_flash_ex.c **** #endif
1017:../../drivers/third_party/ST/STM32L4xx_HAL_Driver/Src/stm32l4xx_hal_flash_ex.c **** 
1018:../../drivers/third_party/ST/STM32L4xx_HAL_Driver/Src/stm32l4xx_hal_flash_ex.c ****   /* Check the parameters */
1019:../../drivers/third_party/ST/STM32L4xx_HAL_Driver/Src/stm32l4xx_hal_flash_ex.c ****   assert_param(IS_FLASH_BANK_EXCLUSIVE(PCROPConfig & FLASH_BANK_BOTH));
1020:../../drivers/third_party/ST/STM32L4xx_HAL_Driver/Src/stm32l4xx_hal_flash_ex.c ****   assert_param(IS_OB_PCROP_RDP(PCROPConfig & FLASH_PCROP1ER_PCROP_RDP));
1021:../../drivers/third_party/ST/STM32L4xx_HAL_Driver/Src/stm32l4xx_hal_flash_ex.c ****   assert_param(IS_FLASH_MAIN_MEM_ADDRESS(PCROPStartAddr));
1022:../../drivers/third_party/ST/STM32L4xx_HAL_Driver/Src/stm32l4xx_hal_flash_ex.c ****   assert_param(IS_FLASH_MAIN_MEM_ADDRESS(PCROPEndAddr));
1023:../../drivers/third_party/ST/STM32L4xx_HAL_Driver/Src/stm32l4xx_hal_flash_ex.c **** 
1024:../../drivers/third_party/ST/STM32L4xx_HAL_Driver/Src/stm32l4xx_hal_flash_ex.c ****   /* Wait for last operation to be completed */
1025:../../drivers/third_party/ST/STM32L4xx_HAL_Driver/Src/stm32l4xx_hal_flash_ex.c ****   status = FLASH_WaitForLastOperation((uint32_t)FLASH_TIMEOUT_VALUE);
 399              		.loc 1 1025 0
 400 01ac 4CF25030 		movw	r0, #50000
 401              	.LBE28:
 402              	.LBE27:
 380:../../drivers/third_party/ST/STM32L4xx_HAL_Driver/Src/stm32l4xx_hal_flash_ex.c ****       {
 403              		.loc 1 380 0
 404 01b0 F569     		ldr	r5, [r6, #28]
 405              	.LVL52:
 406              	.LBB30:
 407              	.LBB29:
 408              		.loc 1 1025 0
 409 01b2 FFF7FEFF 		bl	FLASH_WaitForLastOperation
 410              	.LVL53:
1026:../../drivers/third_party/ST/STM32L4xx_HAL_Driver/Src/stm32l4xx_hal_flash_ex.c **** 
1027:../../drivers/third_party/ST/STM32L4xx_HAL_Driver/Src/stm32l4xx_hal_flash_ex.c ****   if(status == HAL_OK)
 411              		.loc 1 1027 0
 412 01b6 38BB     		cbnz	r0, .L31
 413              	.LVL54:
1028:../../drivers/third_party/ST/STM32L4xx_HAL_Driver/Src/stm32l4xx_hal_flash_ex.c ****   {
1029:../../drivers/third_party/ST/STM32L4xx_HAL_Driver/Src/stm32l4xx_hal_flash_ex.c **** #if defined (STM32L471xx) || defined (STM32L475xx) || defined (STM32L476xx) || defined (STM32L485xx
1030:../../drivers/third_party/ST/STM32L4xx_HAL_Driver/Src/stm32l4xx_hal_flash_ex.c ****     defined (STM32L496xx) || defined (STM32L4A6xx) || \
1031:../../drivers/third_party/ST/STM32L4xx_HAL_Driver/Src/stm32l4xx_hal_flash_ex.c ****     defined (STM32L4R5xx) || defined (STM32L4R7xx) || defined (STM32L4R9xx) || defined (STM32L4S5xx
1032:../../drivers/third_party/ST/STM32L4xx_HAL_Driver/Src/stm32l4xx_hal_flash_ex.c ****     /* Get the information about the bank swapping */
1033:../../drivers/third_party/ST/STM32L4xx_HAL_Driver/Src/stm32l4xx_hal_flash_ex.c ****     if (READ_BIT(SYSCFG->MEMRMP, SYSCFG_MEMRMP_FB_MODE) == 0)
1034:../../drivers/third_party/ST/STM32L4xx_HAL_Driver/Src/stm32l4xx_hal_flash_ex.c ****     {
1035:../../drivers/third_party/ST/STM32L4xx_HAL_Driver/Src/stm32l4xx_hal_flash_ex.c ****       bank1_addr = FLASH_BASE;
1036:../../drivers/third_party/ST/STM32L4xx_HAL_Driver/Src/stm32l4xx_hal_flash_ex.c ****       bank2_addr = FLASH_BASE + FLASH_BANK_SIZE;
1037:../../drivers/third_party/ST/STM32L4xx_HAL_Driver/Src/stm32l4xx_hal_flash_ex.c ****     }
1038:../../drivers/third_party/ST/STM32L4xx_HAL_Driver/Src/stm32l4xx_hal_flash_ex.c ****     else
1039:../../drivers/third_party/ST/STM32L4xx_HAL_Driver/Src/stm32l4xx_hal_flash_ex.c ****     {
1040:../../drivers/third_party/ST/STM32L4xx_HAL_Driver/Src/stm32l4xx_hal_flash_ex.c ****       bank1_addr = FLASH_BASE + FLASH_BANK_SIZE;
1041:../../drivers/third_party/ST/STM32L4xx_HAL_Driver/Src/stm32l4xx_hal_flash_ex.c ****       bank2_addr = FLASH_BASE;
1042:../../drivers/third_party/ST/STM32L4xx_HAL_Driver/Src/stm32l4xx_hal_flash_ex.c ****     }
1043:../../drivers/third_party/ST/STM32L4xx_HAL_Driver/Src/stm32l4xx_hal_flash_ex.c **** #else
1044:../../drivers/third_party/ST/STM32L4xx_HAL_Driver/Src/stm32l4xx_hal_flash_ex.c ****     bank1_addr = FLASH_BASE;
1045:../../drivers/third_party/ST/STM32L4xx_HAL_Driver/Src/stm32l4xx_hal_flash_ex.c **** #endif
1046:../../drivers/third_party/ST/STM32L4xx_HAL_Driver/Src/stm32l4xx_hal_flash_ex.c ****     
1047:../../drivers/third_party/ST/STM32L4xx_HAL_Driver/Src/stm32l4xx_hal_flash_ex.c **** #if defined (STM32L4R5xx) || defined (STM32L4R7xx) || defined (STM32L4R9xx) || defined (STM32L4S5xx
1048:../../drivers/third_party/ST/STM32L4xx_HAL_Driver/Src/stm32l4xx_hal_flash_ex.c ****     if (READ_BIT(FLASH->OPTR, FLASH_OPTR_DBANK) == RESET)
ARM GAS  C:\Users\LuckyE\AppData\Local\Temp\ccBar2YG.s 			page 27


1049:../../drivers/third_party/ST/STM32L4xx_HAL_Driver/Src/stm32l4xx_hal_flash_ex.c ****     {
1050:../../drivers/third_party/ST/STM32L4xx_HAL_Driver/Src/stm32l4xx_hal_flash_ex.c ****       /* Configure the Proprietary code readout protection */
1051:../../drivers/third_party/ST/STM32L4xx_HAL_Driver/Src/stm32l4xx_hal_flash_ex.c ****       if((PCROPConfig & FLASH_BANK_BOTH) == FLASH_BANK_1)
1052:../../drivers/third_party/ST/STM32L4xx_HAL_Driver/Src/stm32l4xx_hal_flash_ex.c ****       {
1053:../../drivers/third_party/ST/STM32L4xx_HAL_Driver/Src/stm32l4xx_hal_flash_ex.c ****         reg_value = ((PCROPStartAddr - FLASH_BASE) >> 4);
1054:../../drivers/third_party/ST/STM32L4xx_HAL_Driver/Src/stm32l4xx_hal_flash_ex.c ****         MODIFY_REG(FLASH->PCROP1SR, FLASH_PCROP1SR_PCROP1_STRT, reg_value);
1055:../../drivers/third_party/ST/STM32L4xx_HAL_Driver/Src/stm32l4xx_hal_flash_ex.c ****         
1056:../../drivers/third_party/ST/STM32L4xx_HAL_Driver/Src/stm32l4xx_hal_flash_ex.c ****         reg_value = ((PCROPEndAddr - FLASH_BASE) >> 4);
1057:../../drivers/third_party/ST/STM32L4xx_HAL_Driver/Src/stm32l4xx_hal_flash_ex.c ****         MODIFY_REG(FLASH->PCROP1ER, FLASH_PCROP1ER_PCROP1_END, reg_value);
1058:../../drivers/third_party/ST/STM32L4xx_HAL_Driver/Src/stm32l4xx_hal_flash_ex.c ****       }
1059:../../drivers/third_party/ST/STM32L4xx_HAL_Driver/Src/stm32l4xx_hal_flash_ex.c ****       else if((PCROPConfig & FLASH_BANK_BOTH) == FLASH_BANK_2)
1060:../../drivers/third_party/ST/STM32L4xx_HAL_Driver/Src/stm32l4xx_hal_flash_ex.c ****       {
1061:../../drivers/third_party/ST/STM32L4xx_HAL_Driver/Src/stm32l4xx_hal_flash_ex.c ****         reg_value = ((PCROPStartAddr - FLASH_BASE) >> 4);
1062:../../drivers/third_party/ST/STM32L4xx_HAL_Driver/Src/stm32l4xx_hal_flash_ex.c ****         MODIFY_REG(FLASH->PCROP2SR, FLASH_PCROP2SR_PCROP2_STRT, reg_value);
1063:../../drivers/third_party/ST/STM32L4xx_HAL_Driver/Src/stm32l4xx_hal_flash_ex.c ****         
1064:../../drivers/third_party/ST/STM32L4xx_HAL_Driver/Src/stm32l4xx_hal_flash_ex.c ****         reg_value = ((PCROPEndAddr - FLASH_BASE) >> 4);
1065:../../drivers/third_party/ST/STM32L4xx_HAL_Driver/Src/stm32l4xx_hal_flash_ex.c ****         MODIFY_REG(FLASH->PCROP2ER, FLASH_PCROP2ER_PCROP2_END, reg_value);
1066:../../drivers/third_party/ST/STM32L4xx_HAL_Driver/Src/stm32l4xx_hal_flash_ex.c ****       }
1067:../../drivers/third_party/ST/STM32L4xx_HAL_Driver/Src/stm32l4xx_hal_flash_ex.c ****     }
1068:../../drivers/third_party/ST/STM32L4xx_HAL_Driver/Src/stm32l4xx_hal_flash_ex.c ****     else
1069:../../drivers/third_party/ST/STM32L4xx_HAL_Driver/Src/stm32l4xx_hal_flash_ex.c **** #endif
1070:../../drivers/third_party/ST/STM32L4xx_HAL_Driver/Src/stm32l4xx_hal_flash_ex.c ****     {
1071:../../drivers/third_party/ST/STM32L4xx_HAL_Driver/Src/stm32l4xx_hal_flash_ex.c ****       /* Configure the Proprietary code readout protection */
1072:../../drivers/third_party/ST/STM32L4xx_HAL_Driver/Src/stm32l4xx_hal_flash_ex.c ****       if((PCROPConfig & FLASH_BANK_BOTH) == FLASH_BANK_1)
 414              		.loc 1 1072 0
 415 01b8 EB07     		lsls	r3, r5, #31
 416 01ba 10D5     		bpl	.L32
 417              	.LVL55:
1073:../../drivers/third_party/ST/STM32L4xx_HAL_Driver/Src/stm32l4xx_hal_flash_ex.c ****       {
1074:../../drivers/third_party/ST/STM32L4xx_HAL_Driver/Src/stm32l4xx_hal_flash_ex.c ****         reg_value = ((PCROPStartAddr - bank1_addr) >> 3);
1075:../../drivers/third_party/ST/STM32L4xx_HAL_Driver/Src/stm32l4xx_hal_flash_ex.c ****         MODIFY_REG(FLASH->PCROP1SR, FLASH_PCROP1SR_PCROP1_STRT, reg_value);
 418              		.loc 1 1075 0
 419 01bc 1F4B     		ldr	r3, .L94+4
 420 01be 596A     		ldr	r1, [r3, #36]
 421 01c0 A0F58030 		sub	r0, r0, #65536
 422              	.LVL56:
1074:../../drivers/third_party/ST/STM32L4xx_HAL_Driver/Src/stm32l4xx_hal_flash_ex.c ****         MODIFY_REG(FLASH->PCROP1SR, FLASH_PCROP1SR_PCROP1_STRT, reg_value);
 423              		.loc 1 1074 0
 424 01c4 09F17849 		add	r9, r9, #-134217728
 425              	.LVL57:
 426              		.loc 1 1075 0
 427 01c8 0140     		ands	r1, r1, r0
 428 01ca 41EAD901 		orr	r1, r1, r9, lsr #3
 429 01ce 5962     		str	r1, [r3, #36]
 430              	.LVL58:
1076:../../drivers/third_party/ST/STM32L4xx_HAL_Driver/Src/stm32l4xx_hal_flash_ex.c ****         
1077:../../drivers/third_party/ST/STM32L4xx_HAL_Driver/Src/stm32l4xx_hal_flash_ex.c ****         reg_value = ((PCROPEndAddr - bank1_addr) >> 3);
1078:../../drivers/third_party/ST/STM32L4xx_HAL_Driver/Src/stm32l4xx_hal_flash_ex.c ****         MODIFY_REG(FLASH->PCROP1ER, FLASH_PCROP1ER_PCROP1_END, reg_value);
 431              		.loc 1 1078 0
 432 01d0 9A6A     		ldr	r2, [r3, #40]
1077:../../drivers/third_party/ST/STM32L4xx_HAL_Driver/Src/stm32l4xx_hal_flash_ex.c ****         MODIFY_REG(FLASH->PCROP1ER, FLASH_PCROP1ER_PCROP1_END, reg_value);
 433              		.loc 1 1077 0
 434 01d2 04F17844 		add	r4, r4, #-134217728
 435              	.LVL59:
 436              		.loc 1 1078 0
 437 01d6 0240     		ands	r2, r2, r0
 438 01d8 42EAD402 		orr	r2, r2, r4, lsr #3
ARM GAS  C:\Users\LuckyE\AppData\Local\Temp\ccBar2YG.s 			page 28


 439 01dc 9A62     		str	r2, [r3, #40]
 440              	.LVL60:
 441              	.L32:
1079:../../drivers/third_party/ST/STM32L4xx_HAL_Driver/Src/stm32l4xx_hal_flash_ex.c ****       }
1080:../../drivers/third_party/ST/STM32L4xx_HAL_Driver/Src/stm32l4xx_hal_flash_ex.c **** #if defined (STM32L471xx) || defined (STM32L475xx) || defined (STM32L476xx) || defined (STM32L485xx
1081:../../drivers/third_party/ST/STM32L4xx_HAL_Driver/Src/stm32l4xx_hal_flash_ex.c ****     defined (STM32L496xx) || defined (STM32L4A6xx) || \
1082:../../drivers/third_party/ST/STM32L4xx_HAL_Driver/Src/stm32l4xx_hal_flash_ex.c ****     defined (STM32L4R5xx) || defined (STM32L4R7xx) || defined (STM32L4R9xx) || defined (STM32L4S5xx
1083:../../drivers/third_party/ST/STM32L4xx_HAL_Driver/Src/stm32l4xx_hal_flash_ex.c ****       else if((PCROPConfig & FLASH_BANK_BOTH) == FLASH_BANK_2)
1084:../../drivers/third_party/ST/STM32L4xx_HAL_Driver/Src/stm32l4xx_hal_flash_ex.c ****       {
1085:../../drivers/third_party/ST/STM32L4xx_HAL_Driver/Src/stm32l4xx_hal_flash_ex.c ****         reg_value = ((PCROPStartAddr - bank2_addr) >> 3);
1086:../../drivers/third_party/ST/STM32L4xx_HAL_Driver/Src/stm32l4xx_hal_flash_ex.c ****         MODIFY_REG(FLASH->PCROP2SR, FLASH_PCROP2SR_PCROP2_STRT, reg_value);
1087:../../drivers/third_party/ST/STM32L4xx_HAL_Driver/Src/stm32l4xx_hal_flash_ex.c ****         
1088:../../drivers/third_party/ST/STM32L4xx_HAL_Driver/Src/stm32l4xx_hal_flash_ex.c ****         reg_value = ((PCROPEndAddr - bank2_addr) >> 3);
1089:../../drivers/third_party/ST/STM32L4xx_HAL_Driver/Src/stm32l4xx_hal_flash_ex.c ****         MODIFY_REG(FLASH->PCROP2ER, FLASH_PCROP2ER_PCROP2_END, reg_value);
1090:../../drivers/third_party/ST/STM32L4xx_HAL_Driver/Src/stm32l4xx_hal_flash_ex.c ****       }
1091:../../drivers/third_party/ST/STM32L4xx_HAL_Driver/Src/stm32l4xx_hal_flash_ex.c **** #endif
1092:../../drivers/third_party/ST/STM32L4xx_HAL_Driver/Src/stm32l4xx_hal_flash_ex.c ****     }
1093:../../drivers/third_party/ST/STM32L4xx_HAL_Driver/Src/stm32l4xx_hal_flash_ex.c ****     
1094:../../drivers/third_party/ST/STM32L4xx_HAL_Driver/Src/stm32l4xx_hal_flash_ex.c ****     MODIFY_REG(FLASH->PCROP1ER, FLASH_PCROP1ER_PCROP_RDP, (PCROPConfig & FLASH_PCROP1ER_PCROP_RDP))
 442              		.loc 1 1094 0
 443 01de 174C     		ldr	r4, .L94+4
 444 01e0 A36A     		ldr	r3, [r4, #40]
 445 01e2 05F00045 		and	r5, r5, #-2147483648
 446              	.LVL61:
 447 01e6 23F00043 		bic	r3, r3, #-2147483648
 448 01ea 2B43     		orrs	r3, r3, r5
 449 01ec A362     		str	r3, [r4, #40]
1095:../../drivers/third_party/ST/STM32L4xx_HAL_Driver/Src/stm32l4xx_hal_flash_ex.c ****     
1096:../../drivers/third_party/ST/STM32L4xx_HAL_Driver/Src/stm32l4xx_hal_flash_ex.c ****     /* Set OPTSTRT Bit */
1097:../../drivers/third_party/ST/STM32L4xx_HAL_Driver/Src/stm32l4xx_hal_flash_ex.c ****     SET_BIT(FLASH->CR, FLASH_CR_OPTSTRT);
 450              		.loc 1 1097 0
 451 01ee 6369     		ldr	r3, [r4, #20]
 452 01f0 43F40033 		orr	r3, r3, #131072
 453 01f4 6361     		str	r3, [r4, #20]
1098:../../drivers/third_party/ST/STM32L4xx_HAL_Driver/Src/stm32l4xx_hal_flash_ex.c ****     
1099:../../drivers/third_party/ST/STM32L4xx_HAL_Driver/Src/stm32l4xx_hal_flash_ex.c ****     /* Wait for last operation to be completed */
1100:../../drivers/third_party/ST/STM32L4xx_HAL_Driver/Src/stm32l4xx_hal_flash_ex.c ****     status = FLASH_WaitForLastOperation((uint32_t)FLASH_TIMEOUT_VALUE);
 454              		.loc 1 1100 0
 455 01f6 4CF25030 		movw	r0, #50000
 456 01fa FFF7FEFF 		bl	FLASH_WaitForLastOperation
 457              	.LVL62:
1101:../../drivers/third_party/ST/STM32L4xx_HAL_Driver/Src/stm32l4xx_hal_flash_ex.c **** 
1102:../../drivers/third_party/ST/STM32L4xx_HAL_Driver/Src/stm32l4xx_hal_flash_ex.c ****     /* If the option byte program operation is completed, disable the OPTSTRT Bit */
1103:../../drivers/third_party/ST/STM32L4xx_HAL_Driver/Src/stm32l4xx_hal_flash_ex.c ****     CLEAR_BIT(FLASH->CR, FLASH_CR_OPTSTRT);
 458              		.loc 1 1103 0
 459 01fe 6369     		ldr	r3, [r4, #20]
 460 0200 23F40033 		bic	r3, r3, #131072
 461 0204 6361     		str	r3, [r4, #20]
 462              	.LVL63:
 463              	.LBE29:
 464              	.LBE30:
 380:../../drivers/third_party/ST/STM32L4xx_HAL_Driver/Src/stm32l4xx_hal_flash_ex.c ****       {
 465              		.loc 1 380 0
 466 0206 00B1     		cbz	r0, .L30
 467              	.LVL64:
 468              	.L31:
 382:../../drivers/third_party/ST/STM32L4xx_HAL_Driver/Src/stm32l4xx_hal_flash_ex.c ****       }
ARM GAS  C:\Users\LuckyE\AppData\Local\Temp\ccBar2YG.s 			page 29


 469              		.loc 1 382 0
 470 0208 0127     		movs	r7, #1
 471              	.LVL65:
 472              	.L30:
 388:../../drivers/third_party/ST/STM32L4xx_HAL_Driver/Src/stm32l4xx_hal_flash_ex.c **** 
 473              		.loc 1 388 0
 474 020a 0023     		movs	r3, #0
 475 020c 88F80030 		strb	r3, [r8]
 476              	.LVL66:
 477              	.L9:
 391:../../drivers/third_party/ST/STM32L4xx_HAL_Driver/Src/stm32l4xx_hal_flash_ex.c **** 
 478              		.loc 1 391 0
 479 0210 3846     		mov	r0, r7
 480 0212 BDE8F087 		pop	{r4, r5, r6, r7, r8, r9, r10, pc}
 481              	.LVL67:
 482              	.L11:
 483              	.LBB31:
 484              	.LBB17:
 694:../../drivers/third_party/ST/STM32L4xx_HAL_Driver/Src/stm32l4xx_hal_flash_ex.c ****     {
 485              		.loc 1 694 0
 486 0216 BAF1010F 		cmp	r10, #1
 487 021a 7FF418AF 		bne	.L12
 696:../../drivers/third_party/ST/STM32L4xx_HAL_Driver/Src/stm32l4xx_hal_flash_ex.c ****                  (WRPStartOffset | (WRDPEndOffset << 16)));
 488              		.loc 1 696 0
 489 021e 236B     		ldr	r3, [r4, #48]
 490 0220 03F0FF23 		and	r3, r3, #-16711936
 491 0224 43EA0903 		orr	r3, r3, r9
 492 0228 43EA0543 		orr	r3, r3, r5, lsl #16
 493 022c 2363     		str	r3, [r4, #48]
 494 022e 0EE7     		b	.L12
 495              	.LVL68:
 496              	.L34:
 497              	.LBE17:
 498              	.LBE31:
 333:../../drivers/third_party/ST/STM32L4xx_HAL_Driver/Src/stm32l4xx_hal_flash_ex.c ****   
 499              		.loc 1 333 0
 500 0230 1F46     		mov	r7, r3
 501 0232 1BE7     		b	.L10
 502              	.L33:
 336:../../drivers/third_party/ST/STM32L4xx_HAL_Driver/Src/stm32l4xx_hal_flash_ex.c **** 
 503              		.loc 1 336 0
 504 0234 0227     		movs	r7, #2
 505 0236 EBE7     		b	.L9
 506              	.L95:
 507              		.align	2
 508              	.L94:
 509 0238 00000000 		.word	pFlash
 510 023c 00200240 		.word	1073881088
 511              		.cfi_endproc
 512              	.LFE282:
 514              		.section	.text.HAL_FLASHEx_OBGetConfig,"ax",%progbits
 515              		.align	1
 516              		.global	HAL_FLASHEx_OBGetConfig
 517              		.syntax unified
 518              		.thumb
 519              		.thumb_func
 520              		.fpu fpv4-sp-d16
ARM GAS  C:\Users\LuckyE\AppData\Local\Temp\ccBar2YG.s 			page 30


 522              	HAL_FLASHEx_OBGetConfig:
 523              	.LFB283:
 403:../../drivers/third_party/ST/STM32L4xx_HAL_Driver/Src/stm32l4xx_hal_flash_ex.c ****   pOBInit->OptionType = (OPTIONBYTE_RDP | OPTIONBYTE_USER);
 524              		.loc 1 403 0
 525              		.cfi_startproc
 526              		@ args = 0, pretend = 0, frame = 0
 527              		@ frame_needed = 0, uses_anonymous_args = 0
 528              		@ link register save eliminated.
 529              	.LVL69:
 412:../../drivers/third_party/ST/STM32L4xx_HAL_Driver/Src/stm32l4xx_hal_flash_ex.c **** #endif
 530              		.loc 1 412 0
 531 0000 4268     		ldr	r2, [r0, #4]
 404:../../drivers/third_party/ST/STM32L4xx_HAL_Driver/Src/stm32l4xx_hal_flash_ex.c **** 
 532              		.loc 1 404 0
 533 0002 0623     		movs	r3, #6
 412:../../drivers/third_party/ST/STM32L4xx_HAL_Driver/Src/stm32l4xx_hal_flash_ex.c **** #endif
 534              		.loc 1 412 0
 535 0004 012A     		cmp	r2, #1
 404:../../drivers/third_party/ST/STM32L4xx_HAL_Driver/Src/stm32l4xx_hal_flash_ex.c **** 
 536              		.loc 1 404 0
 537 0006 0360     		str	r3, [r0]
 412:../../drivers/third_party/ST/STM32L4xx_HAL_Driver/Src/stm32l4xx_hal_flash_ex.c **** #endif
 538              		.loc 1 412 0
 539 0008 0BD8     		bhi	.L97
 415:../../drivers/third_party/ST/STM32L4xx_HAL_Driver/Src/stm32l4xx_hal_flash_ex.c ****     /* Get write protection on the selected area */
 540              		.loc 1 415 0
 541 000a 0723     		movs	r3, #7
 542 000c 0360     		str	r3, [r0]
 543              	.LVL70:
 544 000e 1E4B     		ldr	r3, .L107
 545              	.LBB40:
 546              	.LBB41:
1104:../../drivers/third_party/ST/STM32L4xx_HAL_Driver/Src/stm32l4xx_hal_flash_ex.c ****   }
1105:../../drivers/third_party/ST/STM32L4xx_HAL_Driver/Src/stm32l4xx_hal_flash_ex.c ****   
1106:../../drivers/third_party/ST/STM32L4xx_HAL_Driver/Src/stm32l4xx_hal_flash_ex.c ****   return status;
1107:../../drivers/third_party/ST/STM32L4xx_HAL_Driver/Src/stm32l4xx_hal_flash_ex.c **** }
1108:../../drivers/third_party/ST/STM32L4xx_HAL_Driver/Src/stm32l4xx_hal_flash_ex.c **** 
1109:../../drivers/third_party/ST/STM32L4xx_HAL_Driver/Src/stm32l4xx_hal_flash_ex.c **** /**
1110:../../drivers/third_party/ST/STM32L4xx_HAL_Driver/Src/stm32l4xx_hal_flash_ex.c ****   * @brief  Return the FLASH Write Protection Option Bytes value.
1111:../../drivers/third_party/ST/STM32L4xx_HAL_Driver/Src/stm32l4xx_hal_flash_ex.c ****   *
1112:../../drivers/third_party/ST/STM32L4xx_HAL_Driver/Src/stm32l4xx_hal_flash_ex.c ****   * @param[in]  WRPArea: specifies the area to be returned.
1113:../../drivers/third_party/ST/STM32L4xx_HAL_Driver/Src/stm32l4xx_hal_flash_ex.c ****   *          This parameter can be one of the following values:
1114:../../drivers/third_party/ST/STM32L4xx_HAL_Driver/Src/stm32l4xx_hal_flash_ex.c ****   *            @arg OB_WRPAREA_BANK1_AREAA: Flash Bank 1 Area A                      
1115:../../drivers/third_party/ST/STM32L4xx_HAL_Driver/Src/stm32l4xx_hal_flash_ex.c ****   *            @arg OB_WRPAREA_BANK1_AREAB: Flash Bank 1 Area B                      
1116:../../drivers/third_party/ST/STM32L4xx_HAL_Driver/Src/stm32l4xx_hal_flash_ex.c ****   *            @arg OB_WRPAREA_BANK2_AREAA: Flash Bank 2 Area A (don't apply to STM32L43x/STM32L44x
1117:../../drivers/third_party/ST/STM32L4xx_HAL_Driver/Src/stm32l4xx_hal_flash_ex.c ****   *            @arg OB_WRPAREA_BANK2_AREAB: Flash Bank 2 Area B (don't apply to STM32L43x/STM32L44x
1118:../../drivers/third_party/ST/STM32L4xx_HAL_Driver/Src/stm32l4xx_hal_flash_ex.c ****   *
1119:../../drivers/third_party/ST/STM32L4xx_HAL_Driver/Src/stm32l4xx_hal_flash_ex.c ****   * @param[out]  WRPStartOffset: specifies the address where to copied the start page 
1120:../../drivers/third_party/ST/STM32L4xx_HAL_Driver/Src/stm32l4xx_hal_flash_ex.c ****   *                         of the write protected area
1121:../../drivers/third_party/ST/STM32L4xx_HAL_Driver/Src/stm32l4xx_hal_flash_ex.c ****   *
1122:../../drivers/third_party/ST/STM32L4xx_HAL_Driver/Src/stm32l4xx_hal_flash_ex.c ****   * @param[out]  WRDPEndOffset: specifies the address where to copied the end page of 
1123:../../drivers/third_party/ST/STM32L4xx_HAL_Driver/Src/stm32l4xx_hal_flash_ex.c ****   *                        the write protected area
1124:../../drivers/third_party/ST/STM32L4xx_HAL_Driver/Src/stm32l4xx_hal_flash_ex.c ****   *
1125:../../drivers/third_party/ST/STM32L4xx_HAL_Driver/Src/stm32l4xx_hal_flash_ex.c ****   * @retval None
1126:../../drivers/third_party/ST/STM32L4xx_HAL_Driver/Src/stm32l4xx_hal_flash_ex.c ****   */
1127:../../drivers/third_party/ST/STM32L4xx_HAL_Driver/Src/stm32l4xx_hal_flash_ex.c **** static void FLASH_OB_GetWRP(uint32_t WRPArea, uint32_t * WRPStartOffset, uint32_t * WRDPEndOffset)
1128:../../drivers/third_party/ST/STM32L4xx_HAL_Driver/Src/stm32l4xx_hal_flash_ex.c **** {
ARM GAS  C:\Users\LuckyE\AppData\Local\Temp\ccBar2YG.s 			page 31


1129:../../drivers/third_party/ST/STM32L4xx_HAL_Driver/Src/stm32l4xx_hal_flash_ex.c ****   /* Get the configuration of the write protected area */
1130:../../drivers/third_party/ST/STM32L4xx_HAL_Driver/Src/stm32l4xx_hal_flash_ex.c ****   if(WRPArea == OB_WRPAREA_BANK1_AREAA)
 547              		.loc 1 1130 0
 548 0010 002A     		cmp	r2, #0
 549 0012 31D1     		bne	.L98
1131:../../drivers/third_party/ST/STM32L4xx_HAL_Driver/Src/stm32l4xx_hal_flash_ex.c ****   {
1132:../../drivers/third_party/ST/STM32L4xx_HAL_Driver/Src/stm32l4xx_hal_flash_ex.c ****     *WRPStartOffset = READ_BIT(FLASH->WRP1AR, FLASH_WRP1AR_WRP1A_STRT);
 550              		.loc 1 1132 0
 551 0014 DA6A     		ldr	r2, [r3, #44]
 552              	.LVL71:
 553 0016 D2B2     		uxtb	r2, r2
 554 0018 8260     		str	r2, [r0, #8]
1133:../../drivers/third_party/ST/STM32L4xx_HAL_Driver/Src/stm32l4xx_hal_flash_ex.c ****     *WRDPEndOffset = (READ_BIT(FLASH->WRP1AR, FLASH_WRP1AR_WRP1A_END) >> 16);
 555              		.loc 1 1133 0
 556 001a DB6A     		ldr	r3, [r3, #44]
 557              	.L106:
1134:../../drivers/third_party/ST/STM32L4xx_HAL_Driver/Src/stm32l4xx_hal_flash_ex.c ****   }
1135:../../drivers/third_party/ST/STM32L4xx_HAL_Driver/Src/stm32l4xx_hal_flash_ex.c ****   else if(WRPArea == OB_WRPAREA_BANK1_AREAB)
1136:../../drivers/third_party/ST/STM32L4xx_HAL_Driver/Src/stm32l4xx_hal_flash_ex.c ****   {
1137:../../drivers/third_party/ST/STM32L4xx_HAL_Driver/Src/stm32l4xx_hal_flash_ex.c ****     *WRPStartOffset = READ_BIT(FLASH->WRP1BR, FLASH_WRP1BR_WRP1B_STRT);
1138:../../drivers/third_party/ST/STM32L4xx_HAL_Driver/Src/stm32l4xx_hal_flash_ex.c ****     *WRDPEndOffset = (READ_BIT(FLASH->WRP1BR, FLASH_WRP1BR_WRP1B_END) >> 16);
 558              		.loc 1 1138 0
 559 001c C3F30743 		ubfx	r3, r3, #16, #8
 560 0020 C360     		str	r3, [r0, #12]
 561              	.LVL72:
 562              	.L97:
 563              	.LBE41:
 564              	.LBE40:
 565              	.LBB43:
 566              	.LBB44:
1139:../../drivers/third_party/ST/STM32L4xx_HAL_Driver/Src/stm32l4xx_hal_flash_ex.c ****   }
1140:../../drivers/third_party/ST/STM32L4xx_HAL_Driver/Src/stm32l4xx_hal_flash_ex.c **** #if defined (STM32L471xx) || defined (STM32L475xx) || defined (STM32L476xx) || defined (STM32L485xx
1141:../../drivers/third_party/ST/STM32L4xx_HAL_Driver/Src/stm32l4xx_hal_flash_ex.c ****     defined (STM32L496xx) || defined (STM32L4A6xx) || \
1142:../../drivers/third_party/ST/STM32L4xx_HAL_Driver/Src/stm32l4xx_hal_flash_ex.c ****     defined (STM32L4R5xx) || defined (STM32L4R7xx) || defined (STM32L4R9xx) || defined (STM32L4S5xx
1143:../../drivers/third_party/ST/STM32L4xx_HAL_Driver/Src/stm32l4xx_hal_flash_ex.c ****   else if(WRPArea == OB_WRPAREA_BANK2_AREAA)
1144:../../drivers/third_party/ST/STM32L4xx_HAL_Driver/Src/stm32l4xx_hal_flash_ex.c ****   {
1145:../../drivers/third_party/ST/STM32L4xx_HAL_Driver/Src/stm32l4xx_hal_flash_ex.c ****     *WRPStartOffset = READ_BIT(FLASH->WRP2AR, FLASH_WRP2AR_WRP2A_STRT);
1146:../../drivers/third_party/ST/STM32L4xx_HAL_Driver/Src/stm32l4xx_hal_flash_ex.c ****     *WRDPEndOffset = (READ_BIT(FLASH->WRP2AR, FLASH_WRP2AR_WRP2A_END) >> 16);
1147:../../drivers/third_party/ST/STM32L4xx_HAL_Driver/Src/stm32l4xx_hal_flash_ex.c ****   }
1148:../../drivers/third_party/ST/STM32L4xx_HAL_Driver/Src/stm32l4xx_hal_flash_ex.c ****   else if(WRPArea == OB_WRPAREA_BANK2_AREAB)
1149:../../drivers/third_party/ST/STM32L4xx_HAL_Driver/Src/stm32l4xx_hal_flash_ex.c ****   {
1150:../../drivers/third_party/ST/STM32L4xx_HAL_Driver/Src/stm32l4xx_hal_flash_ex.c ****     *WRPStartOffset = READ_BIT(FLASH->WRP2BR, FLASH_WRP2BR_WRP2B_STRT);
1151:../../drivers/third_party/ST/STM32L4xx_HAL_Driver/Src/stm32l4xx_hal_flash_ex.c ****     *WRDPEndOffset = (READ_BIT(FLASH->WRP2BR, FLASH_WRP2BR_WRP2B_END) >> 16);
1152:../../drivers/third_party/ST/STM32L4xx_HAL_Driver/Src/stm32l4xx_hal_flash_ex.c ****   }
1153:../../drivers/third_party/ST/STM32L4xx_HAL_Driver/Src/stm32l4xx_hal_flash_ex.c **** #endif
1154:../../drivers/third_party/ST/STM32L4xx_HAL_Driver/Src/stm32l4xx_hal_flash_ex.c **** }
1155:../../drivers/third_party/ST/STM32L4xx_HAL_Driver/Src/stm32l4xx_hal_flash_ex.c **** 
1156:../../drivers/third_party/ST/STM32L4xx_HAL_Driver/Src/stm32l4xx_hal_flash_ex.c **** /**
1157:../../drivers/third_party/ST/STM32L4xx_HAL_Driver/Src/stm32l4xx_hal_flash_ex.c ****   * @brief  Return the FLASH Read Protection level.
1158:../../drivers/third_party/ST/STM32L4xx_HAL_Driver/Src/stm32l4xx_hal_flash_ex.c ****   * @retval FLASH ReadOut Protection Status:
1159:../../drivers/third_party/ST/STM32L4xx_HAL_Driver/Src/stm32l4xx_hal_flash_ex.c ****   *         This return value can be one of the following values:
1160:../../drivers/third_party/ST/STM32L4xx_HAL_Driver/Src/stm32l4xx_hal_flash_ex.c ****   *            @arg OB_RDP_LEVEL_0: No protection
1161:../../drivers/third_party/ST/STM32L4xx_HAL_Driver/Src/stm32l4xx_hal_flash_ex.c ****   *            @arg OB_RDP_LEVEL_1: Read protection of the memory
1162:../../drivers/third_party/ST/STM32L4xx_HAL_Driver/Src/stm32l4xx_hal_flash_ex.c ****   *            @arg OB_RDP_LEVEL_2: Full chip protection
1163:../../drivers/third_party/ST/STM32L4xx_HAL_Driver/Src/stm32l4xx_hal_flash_ex.c ****   */
1164:../../drivers/third_party/ST/STM32L4xx_HAL_Driver/Src/stm32l4xx_hal_flash_ex.c **** static uint32_t FLASH_OB_GetRDP(void)
1165:../../drivers/third_party/ST/STM32L4xx_HAL_Driver/Src/stm32l4xx_hal_flash_ex.c **** {
ARM GAS  C:\Users\LuckyE\AppData\Local\Temp\ccBar2YG.s 			page 32


1166:../../drivers/third_party/ST/STM32L4xx_HAL_Driver/Src/stm32l4xx_hal_flash_ex.c ****   if ((READ_BIT(FLASH->OPTR, FLASH_OPTR_RDP) != OB_RDP_LEVEL_0) && 
 567              		.loc 1 1166 0
 568 0022 194B     		ldr	r3, .L107
 569 0024 1A6A     		ldr	r2, [r3, #32]
 570 0026 D2B2     		uxtb	r2, r2
 571 0028 AA2A     		cmp	r2, #170
 572 002a 03D0     		beq	.L99
1167:../../drivers/third_party/ST/STM32L4xx_HAL_Driver/Src/stm32l4xx_hal_flash_ex.c ****       (READ_BIT(FLASH->OPTR, FLASH_OPTR_RDP) != OB_RDP_LEVEL_2))
 573              		.loc 1 1167 0
 574 002c 1A6A     		ldr	r2, [r3, #32]
 575 002e D2B2     		uxtb	r2, r2
1166:../../drivers/third_party/ST/STM32L4xx_HAL_Driver/Src/stm32l4xx_hal_flash_ex.c ****       (READ_BIT(FLASH->OPTR, FLASH_OPTR_RDP) != OB_RDP_LEVEL_2))
 576              		.loc 1 1166 0
 577 0030 CC2A     		cmp	r2, #204
 578 0032 26D1     		bne	.L102
 579              	.L99:
1168:../../drivers/third_party/ST/STM32L4xx_HAL_Driver/Src/stm32l4xx_hal_flash_ex.c ****   {
1169:../../drivers/third_party/ST/STM32L4xx_HAL_Driver/Src/stm32l4xx_hal_flash_ex.c ****     return (OB_RDP_LEVEL_1);
1170:../../drivers/third_party/ST/STM32L4xx_HAL_Driver/Src/stm32l4xx_hal_flash_ex.c ****   }
1171:../../drivers/third_party/ST/STM32L4xx_HAL_Driver/Src/stm32l4xx_hal_flash_ex.c ****   else
1172:../../drivers/third_party/ST/STM32L4xx_HAL_Driver/Src/stm32l4xx_hal_flash_ex.c ****   {
1173:../../drivers/third_party/ST/STM32L4xx_HAL_Driver/Src/stm32l4xx_hal_flash_ex.c ****     return (READ_BIT(FLASH->OPTR, FLASH_OPTR_RDP));
 580              		.loc 1 1173 0
 581 0034 1A6A     		ldr	r2, [r3, #32]
 582 0036 D2B2     		uxtb	r2, r2
 583              	.L100:
 584              	.LBE44:
 585              	.LBE43:
 421:../../drivers/third_party/ST/STM32L4xx_HAL_Driver/Src/stm32l4xx_hal_flash_ex.c ****   
 586              		.loc 1 421 0
 587 0038 0261     		str	r2, [r0, #16]
 588              	.LBB46:
 589              	.LBB47:
1174:../../drivers/third_party/ST/STM32L4xx_HAL_Driver/Src/stm32l4xx_hal_flash_ex.c ****   }
1175:../../drivers/third_party/ST/STM32L4xx_HAL_Driver/Src/stm32l4xx_hal_flash_ex.c **** }
1176:../../drivers/third_party/ST/STM32L4xx_HAL_Driver/Src/stm32l4xx_hal_flash_ex.c **** 
1177:../../drivers/third_party/ST/STM32L4xx_HAL_Driver/Src/stm32l4xx_hal_flash_ex.c **** /**
1178:../../drivers/third_party/ST/STM32L4xx_HAL_Driver/Src/stm32l4xx_hal_flash_ex.c ****   * @brief  Return the FLASH User Option Byte value.
1179:../../drivers/third_party/ST/STM32L4xx_HAL_Driver/Src/stm32l4xx_hal_flash_ex.c ****   * @retval The FLASH User Option Bytes values: 
1180:../../drivers/third_party/ST/STM32L4xx_HAL_Driver/Src/stm32l4xx_hal_flash_ex.c ****   *      For STM32L47x/STM32L48x devices :
1181:../../drivers/third_party/ST/STM32L4xx_HAL_Driver/Src/stm32l4xx_hal_flash_ex.c ****   *         BOR_LEV(Bit8-10), nRST_STOP(Bit12), nRST_STDBY(Bit13), nRST_SHDW(Bit14), 
1182:../../drivers/third_party/ST/STM32L4xx_HAL_Driver/Src/stm32l4xx_hal_flash_ex.c ****   *         IWDG_SW(Bit16), IWDG_STOP(Bit17), IWDG_STDBY(Bit18), WWDG_SW(Bit19),  
1183:../../drivers/third_party/ST/STM32L4xx_HAL_Driver/Src/stm32l4xx_hal_flash_ex.c ****   *         BFB2(Bit20), DUALBANK(Bit21), nBOOT1(Bit23), SRAM2_PE(Bit24) and SRAM2_RST(Bit25). 
1184:../../drivers/third_party/ST/STM32L4xx_HAL_Driver/Src/stm32l4xx_hal_flash_ex.c ****   *      For STM32L43x/STM32L44x devices :
1185:../../drivers/third_party/ST/STM32L4xx_HAL_Driver/Src/stm32l4xx_hal_flash_ex.c ****   *         BOR_LEV(Bit8-10), nRST_STOP(Bit12), nRST_STDBY(Bit13), nRST_SHDW(Bit14),
1186:../../drivers/third_party/ST/STM32L4xx_HAL_Driver/Src/stm32l4xx_hal_flash_ex.c ****   *         IWDG_SW(Bit16), IWDG_STOP(Bit17), IWDG_STDBY(Bit18), WWDG_SW(Bit19),  
1187:../../drivers/third_party/ST/STM32L4xx_HAL_Driver/Src/stm32l4xx_hal_flash_ex.c ****   *         nBOOT1(Bit23), SRAM2_PE(Bit24), SRAM2_RST(Bit25), nSWBOOT0(Bit26) and nBOOT0(Bit27). 
1188:../../drivers/third_party/ST/STM32L4xx_HAL_Driver/Src/stm32l4xx_hal_flash_ex.c ****   */
1189:../../drivers/third_party/ST/STM32L4xx_HAL_Driver/Src/stm32l4xx_hal_flash_ex.c **** static uint32_t FLASH_OB_GetUser(void)
1190:../../drivers/third_party/ST/STM32L4xx_HAL_Driver/Src/stm32l4xx_hal_flash_ex.c **** {
1191:../../drivers/third_party/ST/STM32L4xx_HAL_Driver/Src/stm32l4xx_hal_flash_ex.c ****   uint32_t user_config = READ_REG(FLASH->OPTR);
 590              		.loc 1 1191 0
 591 003a 1A6A     		ldr	r2, [r3, #32]
1192:../../drivers/third_party/ST/STM32L4xx_HAL_Driver/Src/stm32l4xx_hal_flash_ex.c ****   CLEAR_BIT(user_config, FLASH_OPTR_RDP);
 592              		.loc 1 1192 0
 593 003c 22F0FF02 		bic	r2, r2, #255
 594              	.LBE47:
ARM GAS  C:\Users\LuckyE\AppData\Local\Temp\ccBar2YG.s 			page 33


 595              	.LBE46:
 424:../../drivers/third_party/ST/STM32L4xx_HAL_Driver/Src/stm32l4xx_hal_flash_ex.c ****   
 596              		.loc 1 424 0
 597 0040 8261     		str	r2, [r0, #24]
 431:../../drivers/third_party/ST/STM32L4xx_HAL_Driver/Src/stm32l4xx_hal_flash_ex.c **** #endif    
 598              		.loc 1 431 0
 599 0042 C269     		ldr	r2, [r0, #28]
 600 0044 012A     		cmp	r2, #1
 601 0046 16D1     		bne	.L96
 434:../../drivers/third_party/ST/STM32L4xx_HAL_Driver/Src/stm32l4xx_hal_flash_ex.c ****     /* Get the Proprietary code readout protection */
 602              		.loc 1 434 0
 603 0048 0268     		ldr	r2, [r0]
 604 004a 42F00802 		orr	r2, r2, #8
 605 004e 0260     		str	r2, [r0]
 606              	.LVL73:
 607              	.LBB48:
 608              	.LBB49:
1193:../../drivers/third_party/ST/STM32L4xx_HAL_Driver/Src/stm32l4xx_hal_flash_ex.c ****   
1194:../../drivers/third_party/ST/STM32L4xx_HAL_Driver/Src/stm32l4xx_hal_flash_ex.c ****   return user_config;
1195:../../drivers/third_party/ST/STM32L4xx_HAL_Driver/Src/stm32l4xx_hal_flash_ex.c **** }
1196:../../drivers/third_party/ST/STM32L4xx_HAL_Driver/Src/stm32l4xx_hal_flash_ex.c **** 
1197:../../drivers/third_party/ST/STM32L4xx_HAL_Driver/Src/stm32l4xx_hal_flash_ex.c **** /**
1198:../../drivers/third_party/ST/STM32L4xx_HAL_Driver/Src/stm32l4xx_hal_flash_ex.c ****   * @brief  Return the FLASH Write Protection Option Bytes value.
1199:../../drivers/third_party/ST/STM32L4xx_HAL_Driver/Src/stm32l4xx_hal_flash_ex.c ****   *
1200:../../drivers/third_party/ST/STM32L4xx_HAL_Driver/Src/stm32l4xx_hal_flash_ex.c ****   * @param PCROPConfig [inout]: specifies the configuration (Bank to be configured and PCROP_RDP op
1201:../../drivers/third_party/ST/STM32L4xx_HAL_Driver/Src/stm32l4xx_hal_flash_ex.c ****   *          This parameter must be a combination of FLASH_BANK_1 or FLASH_BANK_2 
1202:../../drivers/third_party/ST/STM32L4xx_HAL_Driver/Src/stm32l4xx_hal_flash_ex.c ****   *          with OB_PCROP_RDP_NOT_ERASE or OB_PCROP_RDP_ERASE
1203:../../drivers/third_party/ST/STM32L4xx_HAL_Driver/Src/stm32l4xx_hal_flash_ex.c ****   *
1204:../../drivers/third_party/ST/STM32L4xx_HAL_Driver/Src/stm32l4xx_hal_flash_ex.c ****   * @param PCROPStartAddr [out]: specifies the address where to copied the start address 
1205:../../drivers/third_party/ST/STM32L4xx_HAL_Driver/Src/stm32l4xx_hal_flash_ex.c ****   *                         of the Proprietary code readout protection
1206:../../drivers/third_party/ST/STM32L4xx_HAL_Driver/Src/stm32l4xx_hal_flash_ex.c ****   *
1207:../../drivers/third_party/ST/STM32L4xx_HAL_Driver/Src/stm32l4xx_hal_flash_ex.c ****   * @param PCROPEndAddr [out]: specifies the address where to copied the end address of 
1208:../../drivers/third_party/ST/STM32L4xx_HAL_Driver/Src/stm32l4xx_hal_flash_ex.c ****   *                       the Proprietary code readout protection
1209:../../drivers/third_party/ST/STM32L4xx_HAL_Driver/Src/stm32l4xx_hal_flash_ex.c ****   *
1210:../../drivers/third_party/ST/STM32L4xx_HAL_Driver/Src/stm32l4xx_hal_flash_ex.c ****   * @retval None
1211:../../drivers/third_party/ST/STM32L4xx_HAL_Driver/Src/stm32l4xx_hal_flash_ex.c ****   */
1212:../../drivers/third_party/ST/STM32L4xx_HAL_Driver/Src/stm32l4xx_hal_flash_ex.c **** static void FLASH_OB_GetPCROP(uint32_t * PCROPConfig, uint32_t * PCROPStartAddr, uint32_t * PCROPEn
1213:../../drivers/third_party/ST/STM32L4xx_HAL_Driver/Src/stm32l4xx_hal_flash_ex.c **** {
1214:../../drivers/third_party/ST/STM32L4xx_HAL_Driver/Src/stm32l4xx_hal_flash_ex.c ****   uint32_t reg_value = 0;
1215:../../drivers/third_party/ST/STM32L4xx_HAL_Driver/Src/stm32l4xx_hal_flash_ex.c ****   uint32_t bank1_addr;
1216:../../drivers/third_party/ST/STM32L4xx_HAL_Driver/Src/stm32l4xx_hal_flash_ex.c **** #if defined (STM32L471xx) || defined (STM32L475xx) || defined (STM32L476xx) || defined (STM32L485xx
1217:../../drivers/third_party/ST/STM32L4xx_HAL_Driver/Src/stm32l4xx_hal_flash_ex.c ****     defined (STM32L496xx) || defined (STM32L4A6xx) || \
1218:../../drivers/third_party/ST/STM32L4xx_HAL_Driver/Src/stm32l4xx_hal_flash_ex.c ****     defined (STM32L4R5xx) || defined (STM32L4R7xx) || defined (STM32L4R9xx) || defined (STM32L4S5xx
1219:../../drivers/third_party/ST/STM32L4xx_HAL_Driver/Src/stm32l4xx_hal_flash_ex.c ****   uint32_t bank2_addr;
1220:../../drivers/third_party/ST/STM32L4xx_HAL_Driver/Src/stm32l4xx_hal_flash_ex.c **** #endif
1221:../../drivers/third_party/ST/STM32L4xx_HAL_Driver/Src/stm32l4xx_hal_flash_ex.c ****   
1222:../../drivers/third_party/ST/STM32L4xx_HAL_Driver/Src/stm32l4xx_hal_flash_ex.c **** #if defined (STM32L471xx) || defined (STM32L475xx) || defined (STM32L476xx) || defined (STM32L485xx
1223:../../drivers/third_party/ST/STM32L4xx_HAL_Driver/Src/stm32l4xx_hal_flash_ex.c ****     defined (STM32L496xx) || defined (STM32L4A6xx) || \
1224:../../drivers/third_party/ST/STM32L4xx_HAL_Driver/Src/stm32l4xx_hal_flash_ex.c ****     defined (STM32L4R5xx) || defined (STM32L4R7xx) || defined (STM32L4R9xx) || defined (STM32L4S5xx
1225:../../drivers/third_party/ST/STM32L4xx_HAL_Driver/Src/stm32l4xx_hal_flash_ex.c ****   /* Get the information about the bank swapping */
1226:../../drivers/third_party/ST/STM32L4xx_HAL_Driver/Src/stm32l4xx_hal_flash_ex.c ****   if (READ_BIT(SYSCFG->MEMRMP, SYSCFG_MEMRMP_FB_MODE) == 0)
1227:../../drivers/third_party/ST/STM32L4xx_HAL_Driver/Src/stm32l4xx_hal_flash_ex.c ****   {
1228:../../drivers/third_party/ST/STM32L4xx_HAL_Driver/Src/stm32l4xx_hal_flash_ex.c ****     bank1_addr = FLASH_BASE;
1229:../../drivers/third_party/ST/STM32L4xx_HAL_Driver/Src/stm32l4xx_hal_flash_ex.c ****     bank2_addr = FLASH_BASE + FLASH_BANK_SIZE;
1230:../../drivers/third_party/ST/STM32L4xx_HAL_Driver/Src/stm32l4xx_hal_flash_ex.c ****   }
1231:../../drivers/third_party/ST/STM32L4xx_HAL_Driver/Src/stm32l4xx_hal_flash_ex.c ****   else
1232:../../drivers/third_party/ST/STM32L4xx_HAL_Driver/Src/stm32l4xx_hal_flash_ex.c ****   {
ARM GAS  C:\Users\LuckyE\AppData\Local\Temp\ccBar2YG.s 			page 34


1233:../../drivers/third_party/ST/STM32L4xx_HAL_Driver/Src/stm32l4xx_hal_flash_ex.c ****     bank1_addr = FLASH_BASE + FLASH_BANK_SIZE;
1234:../../drivers/third_party/ST/STM32L4xx_HAL_Driver/Src/stm32l4xx_hal_flash_ex.c ****     bank2_addr = FLASH_BASE;
1235:../../drivers/third_party/ST/STM32L4xx_HAL_Driver/Src/stm32l4xx_hal_flash_ex.c ****   }
1236:../../drivers/third_party/ST/STM32L4xx_HAL_Driver/Src/stm32l4xx_hal_flash_ex.c **** #else
1237:../../drivers/third_party/ST/STM32L4xx_HAL_Driver/Src/stm32l4xx_hal_flash_ex.c ****   bank1_addr = FLASH_BASE;
1238:../../drivers/third_party/ST/STM32L4xx_HAL_Driver/Src/stm32l4xx_hal_flash_ex.c **** #endif
1239:../../drivers/third_party/ST/STM32L4xx_HAL_Driver/Src/stm32l4xx_hal_flash_ex.c ****   
1240:../../drivers/third_party/ST/STM32L4xx_HAL_Driver/Src/stm32l4xx_hal_flash_ex.c **** #if defined (STM32L4R5xx) || defined (STM32L4R7xx) || defined (STM32L4R9xx) || defined (STM32L4S5xx
1241:../../drivers/third_party/ST/STM32L4xx_HAL_Driver/Src/stm32l4xx_hal_flash_ex.c ****   if (READ_BIT(FLASH->OPTR, FLASH_OPTR_DBANK) == RESET)
1242:../../drivers/third_party/ST/STM32L4xx_HAL_Driver/Src/stm32l4xx_hal_flash_ex.c ****   {
1243:../../drivers/third_party/ST/STM32L4xx_HAL_Driver/Src/stm32l4xx_hal_flash_ex.c ****     if(((*PCROPConfig) & FLASH_BANK_BOTH) == FLASH_BANK_1)
1244:../../drivers/third_party/ST/STM32L4xx_HAL_Driver/Src/stm32l4xx_hal_flash_ex.c ****     {
1245:../../drivers/third_party/ST/STM32L4xx_HAL_Driver/Src/stm32l4xx_hal_flash_ex.c ****       reg_value       = (READ_REG(FLASH->PCROP1SR) & FLASH_PCROP1SR_PCROP1_STRT);
1246:../../drivers/third_party/ST/STM32L4xx_HAL_Driver/Src/stm32l4xx_hal_flash_ex.c ****       *PCROPStartAddr = (reg_value << 4) + FLASH_BASE;
1247:../../drivers/third_party/ST/STM32L4xx_HAL_Driver/Src/stm32l4xx_hal_flash_ex.c ****       
1248:../../drivers/third_party/ST/STM32L4xx_HAL_Driver/Src/stm32l4xx_hal_flash_ex.c ****       reg_value     = (READ_REG(FLASH->PCROP1ER) & FLASH_PCROP1ER_PCROP1_END);
1249:../../drivers/third_party/ST/STM32L4xx_HAL_Driver/Src/stm32l4xx_hal_flash_ex.c ****       *PCROPEndAddr = (reg_value << 4) + FLASH_BASE;
1250:../../drivers/third_party/ST/STM32L4xx_HAL_Driver/Src/stm32l4xx_hal_flash_ex.c ****     }
1251:../../drivers/third_party/ST/STM32L4xx_HAL_Driver/Src/stm32l4xx_hal_flash_ex.c ****     else if(((*PCROPConfig) & FLASH_BANK_BOTH) == FLASH_BANK_2)
1252:../../drivers/third_party/ST/STM32L4xx_HAL_Driver/Src/stm32l4xx_hal_flash_ex.c ****     {
1253:../../drivers/third_party/ST/STM32L4xx_HAL_Driver/Src/stm32l4xx_hal_flash_ex.c ****       reg_value       = (READ_REG(FLASH->PCROP2SR) & FLASH_PCROP2SR_PCROP2_STRT);
1254:../../drivers/third_party/ST/STM32L4xx_HAL_Driver/Src/stm32l4xx_hal_flash_ex.c ****       *PCROPStartAddr = (reg_value << 4) + FLASH_BASE;
1255:../../drivers/third_party/ST/STM32L4xx_HAL_Driver/Src/stm32l4xx_hal_flash_ex.c ****       
1256:../../drivers/third_party/ST/STM32L4xx_HAL_Driver/Src/stm32l4xx_hal_flash_ex.c ****       reg_value     = (READ_REG(FLASH->PCROP2ER) & FLASH_PCROP2ER_PCROP2_END);
1257:../../drivers/third_party/ST/STM32L4xx_HAL_Driver/Src/stm32l4xx_hal_flash_ex.c ****       *PCROPEndAddr = (reg_value << 4) + FLASH_BASE;
1258:../../drivers/third_party/ST/STM32L4xx_HAL_Driver/Src/stm32l4xx_hal_flash_ex.c ****     }
1259:../../drivers/third_party/ST/STM32L4xx_HAL_Driver/Src/stm32l4xx_hal_flash_ex.c ****   }
1260:../../drivers/third_party/ST/STM32L4xx_HAL_Driver/Src/stm32l4xx_hal_flash_ex.c ****   else
1261:../../drivers/third_party/ST/STM32L4xx_HAL_Driver/Src/stm32l4xx_hal_flash_ex.c **** #endif
1262:../../drivers/third_party/ST/STM32L4xx_HAL_Driver/Src/stm32l4xx_hal_flash_ex.c ****   {
1263:../../drivers/third_party/ST/STM32L4xx_HAL_Driver/Src/stm32l4xx_hal_flash_ex.c ****     if(((*PCROPConfig) & FLASH_BANK_BOTH) == FLASH_BANK_1)
1264:../../drivers/third_party/ST/STM32L4xx_HAL_Driver/Src/stm32l4xx_hal_flash_ex.c ****     {
1265:../../drivers/third_party/ST/STM32L4xx_HAL_Driver/Src/stm32l4xx_hal_flash_ex.c ****       reg_value       = (READ_REG(FLASH->PCROP1SR) & FLASH_PCROP1SR_PCROP1_STRT);
 609              		.loc 1 1265 0
 610 0050 596A     		ldr	r1, [r3, #36]
 611              	.LVL74:
1266:../../drivers/third_party/ST/STM32L4xx_HAL_Driver/Src/stm32l4xx_hal_flash_ex.c ****       *PCROPStartAddr = (reg_value << 3) + bank1_addr;
 612              		.loc 1 1266 0
 613 0052 0E4A     		ldr	r2, .L107+4
 614 0054 02EAC101 		and	r1, r2, r1, lsl #3
 615              	.LVL75:
 616 0058 01F10061 		add	r1, r1, #134217728
 617 005c 0162     		str	r1, [r0, #32]
1267:../../drivers/third_party/ST/STM32L4xx_HAL_Driver/Src/stm32l4xx_hal_flash_ex.c ****       
1268:../../drivers/third_party/ST/STM32L4xx_HAL_Driver/Src/stm32l4xx_hal_flash_ex.c ****       reg_value     = (READ_REG(FLASH->PCROP1ER) & FLASH_PCROP1ER_PCROP1_END);
 618              		.loc 1 1268 0
 619 005e 996A     		ldr	r1, [r3, #40]
 620              	.LVL76:
1269:../../drivers/third_party/ST/STM32L4xx_HAL_Driver/Src/stm32l4xx_hal_flash_ex.c ****       *PCROPEndAddr = (reg_value << 3) + bank1_addr;
 621              		.loc 1 1269 0
 622 0060 02EAC102 		and	r2, r2, r1, lsl #3
 623 0064 02F10062 		add	r2, r2, #134217728
 624 0068 4262     		str	r2, [r0, #36]
1270:../../drivers/third_party/ST/STM32L4xx_HAL_Driver/Src/stm32l4xx_hal_flash_ex.c ****     }
1271:../../drivers/third_party/ST/STM32L4xx_HAL_Driver/Src/stm32l4xx_hal_flash_ex.c **** #if defined (STM32L471xx) || defined (STM32L475xx) || defined (STM32L476xx) || defined (STM32L485xx
1272:../../drivers/third_party/ST/STM32L4xx_HAL_Driver/Src/stm32l4xx_hal_flash_ex.c ****     defined (STM32L496xx) || defined (STM32L4A6xx) || \
1273:../../drivers/third_party/ST/STM32L4xx_HAL_Driver/Src/stm32l4xx_hal_flash_ex.c ****     defined (STM32L4R5xx) || defined (STM32L4R7xx) || defined (STM32L4R9xx) || defined (STM32L4S5xx
ARM GAS  C:\Users\LuckyE\AppData\Local\Temp\ccBar2YG.s 			page 35


1274:../../drivers/third_party/ST/STM32L4xx_HAL_Driver/Src/stm32l4xx_hal_flash_ex.c ****     else if(((*PCROPConfig) & FLASH_BANK_BOTH) == FLASH_BANK_2)
1275:../../drivers/third_party/ST/STM32L4xx_HAL_Driver/Src/stm32l4xx_hal_flash_ex.c ****     {
1276:../../drivers/third_party/ST/STM32L4xx_HAL_Driver/Src/stm32l4xx_hal_flash_ex.c ****       reg_value       = (READ_REG(FLASH->PCROP2SR) & FLASH_PCROP2SR_PCROP2_STRT);
1277:../../drivers/third_party/ST/STM32L4xx_HAL_Driver/Src/stm32l4xx_hal_flash_ex.c ****       *PCROPStartAddr = (reg_value << 3) + bank2_addr;
1278:../../drivers/third_party/ST/STM32L4xx_HAL_Driver/Src/stm32l4xx_hal_flash_ex.c ****       
1279:../../drivers/third_party/ST/STM32L4xx_HAL_Driver/Src/stm32l4xx_hal_flash_ex.c ****       reg_value     = (READ_REG(FLASH->PCROP2ER) & FLASH_PCROP2ER_PCROP2_END);
1280:../../drivers/third_party/ST/STM32L4xx_HAL_Driver/Src/stm32l4xx_hal_flash_ex.c ****       *PCROPEndAddr = (reg_value << 3) + bank2_addr;
1281:../../drivers/third_party/ST/STM32L4xx_HAL_Driver/Src/stm32l4xx_hal_flash_ex.c ****     }
1282:../../drivers/third_party/ST/STM32L4xx_HAL_Driver/Src/stm32l4xx_hal_flash_ex.c **** #endif
1283:../../drivers/third_party/ST/STM32L4xx_HAL_Driver/Src/stm32l4xx_hal_flash_ex.c ****   }
1284:../../drivers/third_party/ST/STM32L4xx_HAL_Driver/Src/stm32l4xx_hal_flash_ex.c ****   
1285:../../drivers/third_party/ST/STM32L4xx_HAL_Driver/Src/stm32l4xx_hal_flash_ex.c ****   *PCROPConfig |= (READ_REG(FLASH->PCROP1ER) & FLASH_PCROP1ER_PCROP_RDP);
 625              		.loc 1 1285 0
 626 006a 9B6A     		ldr	r3, [r3, #40]
 627 006c 03F00043 		and	r3, r3, #-2147483648
 628 0070 43F00103 		orr	r3, r3, #1
 629 0074 C361     		str	r3, [r0, #28]
 630              	.LVL77:
 631              	.L96:
 632              	.LBE49:
 633              	.LBE48:
 438:../../drivers/third_party/ST/STM32L4xx_HAL_Driver/Src/stm32l4xx_hal_flash_ex.c **** 
 634              		.loc 1 438 0
 635 0076 7047     		bx	lr
 636              	.LVL78:
 637              	.L98:
 638              	.LBB50:
 639              	.LBB42:
1137:../../drivers/third_party/ST/STM32L4xx_HAL_Driver/Src/stm32l4xx_hal_flash_ex.c ****     *WRDPEndOffset = (READ_BIT(FLASH->WRP1BR, FLASH_WRP1BR_WRP1B_END) >> 16);
 640              		.loc 1 1137 0
 641 0078 1A6B     		ldr	r2, [r3, #48]
 642              	.LVL79:
 643 007a D2B2     		uxtb	r2, r2
 644 007c 8260     		str	r2, [r0, #8]
1138:../../drivers/third_party/ST/STM32L4xx_HAL_Driver/Src/stm32l4xx_hal_flash_ex.c ****   }
 645              		.loc 1 1138 0
 646 007e 1B6B     		ldr	r3, [r3, #48]
 647 0080 CCE7     		b	.L106
 648              	.LVL80:
 649              	.L102:
 650              	.LBE42:
 651              	.LBE50:
 652              	.LBB51:
 653              	.LBB45:
1169:../../drivers/third_party/ST/STM32L4xx_HAL_Driver/Src/stm32l4xx_hal_flash_ex.c ****   }
 654              		.loc 1 1169 0
 655 0082 BB22     		movs	r2, #187
 656 0084 D8E7     		b	.L100
 657              	.L108:
 658 0086 00BF     		.align	2
 659              	.L107:
 660 0088 00200240 		.word	1073881088
 661 008c F8FF0700 		.word	524280
 662              	.LBE45:
 663              	.LBE51:
 664              		.cfi_endproc
 665              	.LFE283:
ARM GAS  C:\Users\LuckyE\AppData\Local\Temp\ccBar2YG.s 			page 36


 667              		.section	.text.FLASH_PageErase,"ax",%progbits
 668              		.align	1
 669              		.global	FLASH_PageErase
 670              		.syntax unified
 671              		.thumb
 672              		.thumb_func
 673              		.fpu fpv4-sp-d16
 675              	FLASH_PageErase:
 676              	.LFB285:
 583:../../drivers/third_party/ST/STM32L4xx_HAL_Driver/Src/stm32l4xx_hal_flash_ex.c ****   /* Check the parameters */
 677              		.loc 1 583 0
 678              		.cfi_startproc
 679              		@ args = 0, pretend = 0, frame = 0
 680              		@ frame_needed = 0, uses_anonymous_args = 0
 681              		@ link register save eliminated.
 682              	.LVL81:
 612:../../drivers/third_party/ST/STM32L4xx_HAL_Driver/Src/stm32l4xx_hal_flash_ex.c ****   SET_BIT(FLASH->CR, FLASH_CR_PER);
 683              		.loc 1 612 0
 684 0000 0A4B     		ldr	r3, .L110
 685              	.LBB52:
 686              	.LBB53:
 687              		.file 2 "../../iot_link/os/liteos/arch/arm/common/cmsis/cmsis_gcc.h"
   1:../../iot_link/os/liteos/arch/arm/common/cmsis/cmsis_gcc.h **** /**************************************************************************//**
   2:../../iot_link/os/liteos/arch/arm/common/cmsis/cmsis_gcc.h ****  * @file     cmsis_gcc.h
   3:../../iot_link/os/liteos/arch/arm/common/cmsis/cmsis_gcc.h ****  * @brief    CMSIS compiler GCC header file
   4:../../iot_link/os/liteos/arch/arm/common/cmsis/cmsis_gcc.h ****  * @version  V5.0.1
   5:../../iot_link/os/liteos/arch/arm/common/cmsis/cmsis_gcc.h ****  * @date     02. February 2017
   6:../../iot_link/os/liteos/arch/arm/common/cmsis/cmsis_gcc.h ****  ******************************************************************************/
   7:../../iot_link/os/liteos/arch/arm/common/cmsis/cmsis_gcc.h **** /*
   8:../../iot_link/os/liteos/arch/arm/common/cmsis/cmsis_gcc.h ****  * Copyright (c) 2009-2017 ARM Limited. All rights reserved.
   9:../../iot_link/os/liteos/arch/arm/common/cmsis/cmsis_gcc.h ****  *
  10:../../iot_link/os/liteos/arch/arm/common/cmsis/cmsis_gcc.h ****  * SPDX-License-Identifier: Apache-2.0
  11:../../iot_link/os/liteos/arch/arm/common/cmsis/cmsis_gcc.h ****  *
  12:../../iot_link/os/liteos/arch/arm/common/cmsis/cmsis_gcc.h ****  * Licensed under the Apache License, Version 2.0 (the License); you may
  13:../../iot_link/os/liteos/arch/arm/common/cmsis/cmsis_gcc.h ****  * not use this file except in compliance with the License.
  14:../../iot_link/os/liteos/arch/arm/common/cmsis/cmsis_gcc.h ****  * You may obtain a copy of the License at
  15:../../iot_link/os/liteos/arch/arm/common/cmsis/cmsis_gcc.h ****  *
  16:../../iot_link/os/liteos/arch/arm/common/cmsis/cmsis_gcc.h ****  * www.apache.org/licenses/LICENSE-2.0
  17:../../iot_link/os/liteos/arch/arm/common/cmsis/cmsis_gcc.h ****  *
  18:../../iot_link/os/liteos/arch/arm/common/cmsis/cmsis_gcc.h ****  * Unless required by applicable law or agreed to in writing, software
  19:../../iot_link/os/liteos/arch/arm/common/cmsis/cmsis_gcc.h ****  * distributed under the License is distributed on an AS IS BASIS, WITHOUT
  20:../../iot_link/os/liteos/arch/arm/common/cmsis/cmsis_gcc.h ****  * WARRANTIES OR CONDITIONS OF ANY KIND, either express or implied.
  21:../../iot_link/os/liteos/arch/arm/common/cmsis/cmsis_gcc.h ****  * See the License for the specific language governing permissions and
  22:../../iot_link/os/liteos/arch/arm/common/cmsis/cmsis_gcc.h ****  * limitations under the License.
  23:../../iot_link/os/liteos/arch/arm/common/cmsis/cmsis_gcc.h ****  */
  24:../../iot_link/os/liteos/arch/arm/common/cmsis/cmsis_gcc.h **** 
  25:../../iot_link/os/liteos/arch/arm/common/cmsis/cmsis_gcc.h **** #ifndef __CMSIS_GCC_H
  26:../../iot_link/os/liteos/arch/arm/common/cmsis/cmsis_gcc.h **** #define __CMSIS_GCC_H
  27:../../iot_link/os/liteos/arch/arm/common/cmsis/cmsis_gcc.h **** 
  28:../../iot_link/os/liteos/arch/arm/common/cmsis/cmsis_gcc.h **** /* ignore some GCC warnings */
  29:../../iot_link/os/liteos/arch/arm/common/cmsis/cmsis_gcc.h **** #pragma GCC diagnostic push
  30:../../iot_link/os/liteos/arch/arm/common/cmsis/cmsis_gcc.h **** #pragma GCC diagnostic ignored "-Wsign-conversion"
  31:../../iot_link/os/liteos/arch/arm/common/cmsis/cmsis_gcc.h **** #pragma GCC diagnostic ignored "-Wconversion"
  32:../../iot_link/os/liteos/arch/arm/common/cmsis/cmsis_gcc.h **** #pragma GCC diagnostic ignored "-Wunused-parameter"
  33:../../iot_link/os/liteos/arch/arm/common/cmsis/cmsis_gcc.h **** 
  34:../../iot_link/os/liteos/arch/arm/common/cmsis/cmsis_gcc.h **** /* CMSIS compiler specific defines */
  35:../../iot_link/os/liteos/arch/arm/common/cmsis/cmsis_gcc.h **** #ifndef   __ASM
ARM GAS  C:\Users\LuckyE\AppData\Local\Temp\ccBar2YG.s 			page 37


  36:../../iot_link/os/liteos/arch/arm/common/cmsis/cmsis_gcc.h ****   #define __ASM                     __asm
  37:../../iot_link/os/liteos/arch/arm/common/cmsis/cmsis_gcc.h **** #endif
  38:../../iot_link/os/liteos/arch/arm/common/cmsis/cmsis_gcc.h **** #ifndef   __INLINE
  39:../../iot_link/os/liteos/arch/arm/common/cmsis/cmsis_gcc.h ****   #define __INLINE                  inline
  40:../../iot_link/os/liteos/arch/arm/common/cmsis/cmsis_gcc.h **** #endif
  41:../../iot_link/os/liteos/arch/arm/common/cmsis/cmsis_gcc.h **** #ifndef   __STATIC_INLINE
  42:../../iot_link/os/liteos/arch/arm/common/cmsis/cmsis_gcc.h ****   #define __STATIC_INLINE           static inline
  43:../../iot_link/os/liteos/arch/arm/common/cmsis/cmsis_gcc.h **** #endif
  44:../../iot_link/os/liteos/arch/arm/common/cmsis/cmsis_gcc.h **** #ifndef   __NO_RETURN
  45:../../iot_link/os/liteos/arch/arm/common/cmsis/cmsis_gcc.h ****   #define __NO_RETURN               __attribute__((noreturn))
  46:../../iot_link/os/liteos/arch/arm/common/cmsis/cmsis_gcc.h **** #endif
  47:../../iot_link/os/liteos/arch/arm/common/cmsis/cmsis_gcc.h **** #ifndef   __USED
  48:../../iot_link/os/liteos/arch/arm/common/cmsis/cmsis_gcc.h ****   #define __USED                    __attribute__((used))
  49:../../iot_link/os/liteos/arch/arm/common/cmsis/cmsis_gcc.h **** #endif
  50:../../iot_link/os/liteos/arch/arm/common/cmsis/cmsis_gcc.h **** #ifndef   __WEAK
  51:../../iot_link/os/liteos/arch/arm/common/cmsis/cmsis_gcc.h ****   #define __WEAK                    __attribute__((weak))
  52:../../iot_link/os/liteos/arch/arm/common/cmsis/cmsis_gcc.h **** #endif
  53:../../iot_link/os/liteos/arch/arm/common/cmsis/cmsis_gcc.h **** #ifndef   __UNALIGNED_UINT32
  54:../../iot_link/os/liteos/arch/arm/common/cmsis/cmsis_gcc.h **** #pragma GCC diagnostic push
  55:../../iot_link/os/liteos/arch/arm/common/cmsis/cmsis_gcc.h **** #pragma GCC diagnostic ignored "-Wpacked"
  56:../../iot_link/os/liteos/arch/arm/common/cmsis/cmsis_gcc.h **** #pragma GCC diagnostic ignored "-Wattributes"
  57:../../iot_link/os/liteos/arch/arm/common/cmsis/cmsis_gcc.h ****   struct __attribute__((packed)) T_UINT32 { uint32_t v; };
  58:../../iot_link/os/liteos/arch/arm/common/cmsis/cmsis_gcc.h **** #pragma GCC diagnostic pop
  59:../../iot_link/os/liteos/arch/arm/common/cmsis/cmsis_gcc.h ****   #define __UNALIGNED_UINT32(x)     (((struct T_UINT32 *)(x))->v)
  60:../../iot_link/os/liteos/arch/arm/common/cmsis/cmsis_gcc.h **** #endif
  61:../../iot_link/os/liteos/arch/arm/common/cmsis/cmsis_gcc.h **** #ifndef   __ALIGNED
  62:../../iot_link/os/liteos/arch/arm/common/cmsis/cmsis_gcc.h ****   #define __ALIGNED(x)              __attribute__((aligned(x)))
  63:../../iot_link/os/liteos/arch/arm/common/cmsis/cmsis_gcc.h **** #endif
  64:../../iot_link/os/liteos/arch/arm/common/cmsis/cmsis_gcc.h **** #ifndef   __PACKED
  65:../../iot_link/os/liteos/arch/arm/common/cmsis/cmsis_gcc.h ****   #define __PACKED                  __attribute__((packed, aligned(1)))
  66:../../iot_link/os/liteos/arch/arm/common/cmsis/cmsis_gcc.h **** #endif
  67:../../iot_link/os/liteos/arch/arm/common/cmsis/cmsis_gcc.h **** #ifndef   __PACKED_STRUCT
  68:../../iot_link/os/liteos/arch/arm/common/cmsis/cmsis_gcc.h ****   #define __PACKED_STRUCT           struct __attribute__((packed, aligned(1)))
  69:../../iot_link/os/liteos/arch/arm/common/cmsis/cmsis_gcc.h **** #endif
  70:../../iot_link/os/liteos/arch/arm/common/cmsis/cmsis_gcc.h **** 
  71:../../iot_link/os/liteos/arch/arm/common/cmsis/cmsis_gcc.h **** 
  72:../../iot_link/os/liteos/arch/arm/common/cmsis/cmsis_gcc.h **** /* ###########################  Core Function Access  ########################### */
  73:../../iot_link/os/liteos/arch/arm/common/cmsis/cmsis_gcc.h **** /** \ingroup  CMSIS_Core_FunctionInterface
  74:../../iot_link/os/liteos/arch/arm/common/cmsis/cmsis_gcc.h ****     \defgroup CMSIS_Core_RegAccFunctions CMSIS Core Register Access Functions
  75:../../iot_link/os/liteos/arch/arm/common/cmsis/cmsis_gcc.h ****   @{
  76:../../iot_link/os/liteos/arch/arm/common/cmsis/cmsis_gcc.h ****  */
  77:../../iot_link/os/liteos/arch/arm/common/cmsis/cmsis_gcc.h **** 
  78:../../iot_link/os/liteos/arch/arm/common/cmsis/cmsis_gcc.h **** /**
  79:../../iot_link/os/liteos/arch/arm/common/cmsis/cmsis_gcc.h ****   \brief   Enable IRQ Interrupts
  80:../../iot_link/os/liteos/arch/arm/common/cmsis/cmsis_gcc.h ****   \details Enables IRQ interrupts by clearing the I-bit in the CPSR.
  81:../../iot_link/os/liteos/arch/arm/common/cmsis/cmsis_gcc.h ****            Can only be executed in Privileged modes.
  82:../../iot_link/os/liteos/arch/arm/common/cmsis/cmsis_gcc.h ****  */
  83:../../iot_link/os/liteos/arch/arm/common/cmsis/cmsis_gcc.h **** __attribute__((always_inline)) __STATIC_INLINE void __enable_irq(void)
  84:../../iot_link/os/liteos/arch/arm/common/cmsis/cmsis_gcc.h **** {
  85:../../iot_link/os/liteos/arch/arm/common/cmsis/cmsis_gcc.h ****   __ASM volatile ("cpsie i" : : : "memory");
  86:../../iot_link/os/liteos/arch/arm/common/cmsis/cmsis_gcc.h **** }
  87:../../iot_link/os/liteos/arch/arm/common/cmsis/cmsis_gcc.h **** 
  88:../../iot_link/os/liteos/arch/arm/common/cmsis/cmsis_gcc.h **** 
  89:../../iot_link/os/liteos/arch/arm/common/cmsis/cmsis_gcc.h **** /**
  90:../../iot_link/os/liteos/arch/arm/common/cmsis/cmsis_gcc.h ****   \brief   Disable IRQ Interrupts
  91:../../iot_link/os/liteos/arch/arm/common/cmsis/cmsis_gcc.h ****   \details Disables IRQ interrupts by setting the I-bit in the CPSR.
  92:../../iot_link/os/liteos/arch/arm/common/cmsis/cmsis_gcc.h ****            Can only be executed in Privileged modes.
ARM GAS  C:\Users\LuckyE\AppData\Local\Temp\ccBar2YG.s 			page 38


  93:../../iot_link/os/liteos/arch/arm/common/cmsis/cmsis_gcc.h ****  */
  94:../../iot_link/os/liteos/arch/arm/common/cmsis/cmsis_gcc.h **** __attribute__((always_inline)) __STATIC_INLINE void __disable_irq(void)
  95:../../iot_link/os/liteos/arch/arm/common/cmsis/cmsis_gcc.h **** {
  96:../../iot_link/os/liteos/arch/arm/common/cmsis/cmsis_gcc.h ****   __ASM volatile ("cpsid i" : : : "memory");
  97:../../iot_link/os/liteos/arch/arm/common/cmsis/cmsis_gcc.h **** }
  98:../../iot_link/os/liteos/arch/arm/common/cmsis/cmsis_gcc.h **** 
  99:../../iot_link/os/liteos/arch/arm/common/cmsis/cmsis_gcc.h **** 
 100:../../iot_link/os/liteos/arch/arm/common/cmsis/cmsis_gcc.h **** /**
 101:../../iot_link/os/liteos/arch/arm/common/cmsis/cmsis_gcc.h ****   \brief   Get Control Register
 102:../../iot_link/os/liteos/arch/arm/common/cmsis/cmsis_gcc.h ****   \details Returns the content of the Control Register.
 103:../../iot_link/os/liteos/arch/arm/common/cmsis/cmsis_gcc.h ****   \return               Control Register value
 104:../../iot_link/os/liteos/arch/arm/common/cmsis/cmsis_gcc.h ****  */
 105:../../iot_link/os/liteos/arch/arm/common/cmsis/cmsis_gcc.h **** __attribute__((always_inline)) __STATIC_INLINE uint32_t __get_CONTROL(void)
 106:../../iot_link/os/liteos/arch/arm/common/cmsis/cmsis_gcc.h **** {
 107:../../iot_link/os/liteos/arch/arm/common/cmsis/cmsis_gcc.h ****   uint32_t result;
 108:../../iot_link/os/liteos/arch/arm/common/cmsis/cmsis_gcc.h **** 
 109:../../iot_link/os/liteos/arch/arm/common/cmsis/cmsis_gcc.h ****   __ASM volatile ("MRS %0, control" : "=r" (result) );
 110:../../iot_link/os/liteos/arch/arm/common/cmsis/cmsis_gcc.h ****   return(result);
 111:../../iot_link/os/liteos/arch/arm/common/cmsis/cmsis_gcc.h **** }
 112:../../iot_link/os/liteos/arch/arm/common/cmsis/cmsis_gcc.h **** 
 113:../../iot_link/os/liteos/arch/arm/common/cmsis/cmsis_gcc.h **** 
 114:../../iot_link/os/liteos/arch/arm/common/cmsis/cmsis_gcc.h **** #if (defined (__ARM_FEATURE_CMSE ) && (__ARM_FEATURE_CMSE == 3))
 115:../../iot_link/os/liteos/arch/arm/common/cmsis/cmsis_gcc.h **** /**
 116:../../iot_link/os/liteos/arch/arm/common/cmsis/cmsis_gcc.h ****   \brief   Get Control Register (non-secure)
 117:../../iot_link/os/liteos/arch/arm/common/cmsis/cmsis_gcc.h ****   \details Returns the content of the non-secure Control Register when in secure mode.
 118:../../iot_link/os/liteos/arch/arm/common/cmsis/cmsis_gcc.h ****   \return               non-secure Control Register value
 119:../../iot_link/os/liteos/arch/arm/common/cmsis/cmsis_gcc.h ****  */
 120:../../iot_link/os/liteos/arch/arm/common/cmsis/cmsis_gcc.h **** __attribute__((always_inline)) __STATIC_INLINE uint32_t __TZ_get_CONTROL_NS(void)
 121:../../iot_link/os/liteos/arch/arm/common/cmsis/cmsis_gcc.h **** {
 122:../../iot_link/os/liteos/arch/arm/common/cmsis/cmsis_gcc.h ****   uint32_t result;
 123:../../iot_link/os/liteos/arch/arm/common/cmsis/cmsis_gcc.h **** 
 124:../../iot_link/os/liteos/arch/arm/common/cmsis/cmsis_gcc.h ****   __ASM volatile ("MRS %0, control_ns" : "=r" (result) );
 125:../../iot_link/os/liteos/arch/arm/common/cmsis/cmsis_gcc.h ****   return(result);
 126:../../iot_link/os/liteos/arch/arm/common/cmsis/cmsis_gcc.h **** }
 127:../../iot_link/os/liteos/arch/arm/common/cmsis/cmsis_gcc.h **** #endif
 128:../../iot_link/os/liteos/arch/arm/common/cmsis/cmsis_gcc.h **** 
 129:../../iot_link/os/liteos/arch/arm/common/cmsis/cmsis_gcc.h **** 
 130:../../iot_link/os/liteos/arch/arm/common/cmsis/cmsis_gcc.h **** /**
 131:../../iot_link/os/liteos/arch/arm/common/cmsis/cmsis_gcc.h ****   \brief   Set Control Register
 132:../../iot_link/os/liteos/arch/arm/common/cmsis/cmsis_gcc.h ****   \details Writes the given value to the Control Register.
 133:../../iot_link/os/liteos/arch/arm/common/cmsis/cmsis_gcc.h ****   \param [in]    control  Control Register value to set
 134:../../iot_link/os/liteos/arch/arm/common/cmsis/cmsis_gcc.h ****  */
 135:../../iot_link/os/liteos/arch/arm/common/cmsis/cmsis_gcc.h **** __attribute__((always_inline)) __STATIC_INLINE void __set_CONTROL(uint32_t control)
 136:../../iot_link/os/liteos/arch/arm/common/cmsis/cmsis_gcc.h **** {
 137:../../iot_link/os/liteos/arch/arm/common/cmsis/cmsis_gcc.h ****   __ASM volatile ("MSR control, %0" : : "r" (control) : "memory");
 138:../../iot_link/os/liteos/arch/arm/common/cmsis/cmsis_gcc.h **** }
 139:../../iot_link/os/liteos/arch/arm/common/cmsis/cmsis_gcc.h **** 
 140:../../iot_link/os/liteos/arch/arm/common/cmsis/cmsis_gcc.h **** 
 141:../../iot_link/os/liteos/arch/arm/common/cmsis/cmsis_gcc.h **** #if (defined (__ARM_FEATURE_CMSE ) && (__ARM_FEATURE_CMSE == 3))
 142:../../iot_link/os/liteos/arch/arm/common/cmsis/cmsis_gcc.h **** /**
 143:../../iot_link/os/liteos/arch/arm/common/cmsis/cmsis_gcc.h ****   \brief   Set Control Register (non-secure)
 144:../../iot_link/os/liteos/arch/arm/common/cmsis/cmsis_gcc.h ****   \details Writes the given value to the non-secure Control Register when in secure state.
 145:../../iot_link/os/liteos/arch/arm/common/cmsis/cmsis_gcc.h ****   \param [in]    control  Control Register value to set
 146:../../iot_link/os/liteos/arch/arm/common/cmsis/cmsis_gcc.h ****  */
 147:../../iot_link/os/liteos/arch/arm/common/cmsis/cmsis_gcc.h **** __attribute__((always_inline)) __STATIC_INLINE void __TZ_set_CONTROL_NS(uint32_t control)
 148:../../iot_link/os/liteos/arch/arm/common/cmsis/cmsis_gcc.h **** {
 149:../../iot_link/os/liteos/arch/arm/common/cmsis/cmsis_gcc.h ****   __ASM volatile ("MSR control_ns, %0" : : "r" (control) : "memory");
ARM GAS  C:\Users\LuckyE\AppData\Local\Temp\ccBar2YG.s 			page 39


 150:../../iot_link/os/liteos/arch/arm/common/cmsis/cmsis_gcc.h **** }
 151:../../iot_link/os/liteos/arch/arm/common/cmsis/cmsis_gcc.h **** #endif
 152:../../iot_link/os/liteos/arch/arm/common/cmsis/cmsis_gcc.h **** 
 153:../../iot_link/os/liteos/arch/arm/common/cmsis/cmsis_gcc.h **** 
 154:../../iot_link/os/liteos/arch/arm/common/cmsis/cmsis_gcc.h **** /**
 155:../../iot_link/os/liteos/arch/arm/common/cmsis/cmsis_gcc.h ****   \brief   Get IPSR Register
 156:../../iot_link/os/liteos/arch/arm/common/cmsis/cmsis_gcc.h ****   \details Returns the content of the IPSR Register.
 157:../../iot_link/os/liteos/arch/arm/common/cmsis/cmsis_gcc.h ****   \return               IPSR Register value
 158:../../iot_link/os/liteos/arch/arm/common/cmsis/cmsis_gcc.h ****  */
 159:../../iot_link/os/liteos/arch/arm/common/cmsis/cmsis_gcc.h **** __attribute__((always_inline)) __STATIC_INLINE uint32_t __get_IPSR(void)
 160:../../iot_link/os/liteos/arch/arm/common/cmsis/cmsis_gcc.h **** {
 161:../../iot_link/os/liteos/arch/arm/common/cmsis/cmsis_gcc.h ****   uint32_t result;
 162:../../iot_link/os/liteos/arch/arm/common/cmsis/cmsis_gcc.h **** 
 163:../../iot_link/os/liteos/arch/arm/common/cmsis/cmsis_gcc.h ****   __ASM volatile ("MRS %0, ipsr" : "=r" (result) );
 164:../../iot_link/os/liteos/arch/arm/common/cmsis/cmsis_gcc.h ****   return(result);
 165:../../iot_link/os/liteos/arch/arm/common/cmsis/cmsis_gcc.h **** }
 166:../../iot_link/os/liteos/arch/arm/common/cmsis/cmsis_gcc.h **** 
 167:../../iot_link/os/liteos/arch/arm/common/cmsis/cmsis_gcc.h **** 
 168:../../iot_link/os/liteos/arch/arm/common/cmsis/cmsis_gcc.h **** /**
 169:../../iot_link/os/liteos/arch/arm/common/cmsis/cmsis_gcc.h ****   \brief   Get APSR Register
 170:../../iot_link/os/liteos/arch/arm/common/cmsis/cmsis_gcc.h ****   \details Returns the content of the APSR Register.
 171:../../iot_link/os/liteos/arch/arm/common/cmsis/cmsis_gcc.h ****   \return               APSR Register value
 172:../../iot_link/os/liteos/arch/arm/common/cmsis/cmsis_gcc.h ****  */
 173:../../iot_link/os/liteos/arch/arm/common/cmsis/cmsis_gcc.h **** __attribute__((always_inline)) __STATIC_INLINE uint32_t __get_APSR(void)
 174:../../iot_link/os/liteos/arch/arm/common/cmsis/cmsis_gcc.h **** {
 175:../../iot_link/os/liteos/arch/arm/common/cmsis/cmsis_gcc.h ****   uint32_t result;
 176:../../iot_link/os/liteos/arch/arm/common/cmsis/cmsis_gcc.h **** 
 177:../../iot_link/os/liteos/arch/arm/common/cmsis/cmsis_gcc.h ****   __ASM volatile ("MRS %0, apsr" : "=r" (result) );
 178:../../iot_link/os/liteos/arch/arm/common/cmsis/cmsis_gcc.h ****   return(result);
 179:../../iot_link/os/liteos/arch/arm/common/cmsis/cmsis_gcc.h **** }
 180:../../iot_link/os/liteos/arch/arm/common/cmsis/cmsis_gcc.h **** 
 181:../../iot_link/os/liteos/arch/arm/common/cmsis/cmsis_gcc.h **** 
 182:../../iot_link/os/liteos/arch/arm/common/cmsis/cmsis_gcc.h **** /**
 183:../../iot_link/os/liteos/arch/arm/common/cmsis/cmsis_gcc.h ****   \brief   Get xPSR Register
 184:../../iot_link/os/liteos/arch/arm/common/cmsis/cmsis_gcc.h ****   \details Returns the content of the xPSR Register.
 185:../../iot_link/os/liteos/arch/arm/common/cmsis/cmsis_gcc.h ****   \return               xPSR Register value
 186:../../iot_link/os/liteos/arch/arm/common/cmsis/cmsis_gcc.h ****  */
 187:../../iot_link/os/liteos/arch/arm/common/cmsis/cmsis_gcc.h **** __attribute__((always_inline)) __STATIC_INLINE uint32_t __get_xPSR(void)
 188:../../iot_link/os/liteos/arch/arm/common/cmsis/cmsis_gcc.h **** {
 189:../../iot_link/os/liteos/arch/arm/common/cmsis/cmsis_gcc.h ****   uint32_t result;
 190:../../iot_link/os/liteos/arch/arm/common/cmsis/cmsis_gcc.h **** 
 191:../../iot_link/os/liteos/arch/arm/common/cmsis/cmsis_gcc.h ****   __ASM volatile ("MRS %0, xpsr" : "=r" (result) );
 192:../../iot_link/os/liteos/arch/arm/common/cmsis/cmsis_gcc.h ****   return(result);
 193:../../iot_link/os/liteos/arch/arm/common/cmsis/cmsis_gcc.h **** }
 194:../../iot_link/os/liteos/arch/arm/common/cmsis/cmsis_gcc.h **** 
 195:../../iot_link/os/liteos/arch/arm/common/cmsis/cmsis_gcc.h **** 
 196:../../iot_link/os/liteos/arch/arm/common/cmsis/cmsis_gcc.h **** /**
 197:../../iot_link/os/liteos/arch/arm/common/cmsis/cmsis_gcc.h ****   \brief   Get Process Stack Pointer
 198:../../iot_link/os/liteos/arch/arm/common/cmsis/cmsis_gcc.h ****   \details Returns the current value of the Process Stack Pointer (PSP).
 199:../../iot_link/os/liteos/arch/arm/common/cmsis/cmsis_gcc.h ****   \return               PSP Register value
 200:../../iot_link/os/liteos/arch/arm/common/cmsis/cmsis_gcc.h ****  */
 201:../../iot_link/os/liteos/arch/arm/common/cmsis/cmsis_gcc.h **** __attribute__((always_inline)) __STATIC_INLINE uint32_t __get_PSP(void)
 202:../../iot_link/os/liteos/arch/arm/common/cmsis/cmsis_gcc.h **** {
 203:../../iot_link/os/liteos/arch/arm/common/cmsis/cmsis_gcc.h ****   register uint32_t result;
 204:../../iot_link/os/liteos/arch/arm/common/cmsis/cmsis_gcc.h **** 
 205:../../iot_link/os/liteos/arch/arm/common/cmsis/cmsis_gcc.h ****   __ASM volatile ("MRS %0, psp"  : "=r" (result) );
 206:../../iot_link/os/liteos/arch/arm/common/cmsis/cmsis_gcc.h ****   return(result);
ARM GAS  C:\Users\LuckyE\AppData\Local\Temp\ccBar2YG.s 			page 40


 207:../../iot_link/os/liteos/arch/arm/common/cmsis/cmsis_gcc.h **** }
 208:../../iot_link/os/liteos/arch/arm/common/cmsis/cmsis_gcc.h **** 
 209:../../iot_link/os/liteos/arch/arm/common/cmsis/cmsis_gcc.h **** 
 210:../../iot_link/os/liteos/arch/arm/common/cmsis/cmsis_gcc.h **** #if (defined (__ARM_FEATURE_CMSE ) && (__ARM_FEATURE_CMSE == 3))
 211:../../iot_link/os/liteos/arch/arm/common/cmsis/cmsis_gcc.h **** /**
 212:../../iot_link/os/liteos/arch/arm/common/cmsis/cmsis_gcc.h ****   \brief   Get Process Stack Pointer (non-secure)
 213:../../iot_link/os/liteos/arch/arm/common/cmsis/cmsis_gcc.h ****   \details Returns the current value of the non-secure Process Stack Pointer (PSP) when in secure s
 214:../../iot_link/os/liteos/arch/arm/common/cmsis/cmsis_gcc.h ****   \return               PSP Register value
 215:../../iot_link/os/liteos/arch/arm/common/cmsis/cmsis_gcc.h ****  */
 216:../../iot_link/os/liteos/arch/arm/common/cmsis/cmsis_gcc.h **** __attribute__((always_inline)) __STATIC_INLINE uint32_t __TZ_get_PSP_NS(void)
 217:../../iot_link/os/liteos/arch/arm/common/cmsis/cmsis_gcc.h **** {
 218:../../iot_link/os/liteos/arch/arm/common/cmsis/cmsis_gcc.h ****   register uint32_t result;
 219:../../iot_link/os/liteos/arch/arm/common/cmsis/cmsis_gcc.h **** 
 220:../../iot_link/os/liteos/arch/arm/common/cmsis/cmsis_gcc.h ****   __ASM volatile ("MRS %0, psp_ns"  : "=r" (result) );
 221:../../iot_link/os/liteos/arch/arm/common/cmsis/cmsis_gcc.h ****   return(result);
 222:../../iot_link/os/liteos/arch/arm/common/cmsis/cmsis_gcc.h **** }
 223:../../iot_link/os/liteos/arch/arm/common/cmsis/cmsis_gcc.h **** #endif
 224:../../iot_link/os/liteos/arch/arm/common/cmsis/cmsis_gcc.h **** 
 225:../../iot_link/os/liteos/arch/arm/common/cmsis/cmsis_gcc.h **** 
 226:../../iot_link/os/liteos/arch/arm/common/cmsis/cmsis_gcc.h **** /**
 227:../../iot_link/os/liteos/arch/arm/common/cmsis/cmsis_gcc.h ****   \brief   Set Process Stack Pointer
 228:../../iot_link/os/liteos/arch/arm/common/cmsis/cmsis_gcc.h ****   \details Assigns the given value to the Process Stack Pointer (PSP).
 229:../../iot_link/os/liteos/arch/arm/common/cmsis/cmsis_gcc.h ****   \param [in]    topOfProcStack  Process Stack Pointer value to set
 230:../../iot_link/os/liteos/arch/arm/common/cmsis/cmsis_gcc.h ****  */
 231:../../iot_link/os/liteos/arch/arm/common/cmsis/cmsis_gcc.h **** __attribute__((always_inline)) __STATIC_INLINE void __set_PSP(uint32_t topOfProcStack)
 232:../../iot_link/os/liteos/arch/arm/common/cmsis/cmsis_gcc.h **** {
 233:../../iot_link/os/liteos/arch/arm/common/cmsis/cmsis_gcc.h ****   __ASM volatile ("MSR psp, %0" : : "r" (topOfProcStack) : );
 234:../../iot_link/os/liteos/arch/arm/common/cmsis/cmsis_gcc.h **** }
 235:../../iot_link/os/liteos/arch/arm/common/cmsis/cmsis_gcc.h **** 
 236:../../iot_link/os/liteos/arch/arm/common/cmsis/cmsis_gcc.h **** 
 237:../../iot_link/os/liteos/arch/arm/common/cmsis/cmsis_gcc.h **** #if (defined (__ARM_FEATURE_CMSE ) && (__ARM_FEATURE_CMSE == 3))
 238:../../iot_link/os/liteos/arch/arm/common/cmsis/cmsis_gcc.h **** /**
 239:../../iot_link/os/liteos/arch/arm/common/cmsis/cmsis_gcc.h ****   \brief   Set Process Stack Pointer (non-secure)
 240:../../iot_link/os/liteos/arch/arm/common/cmsis/cmsis_gcc.h ****   \details Assigns the given value to the non-secure Process Stack Pointer (PSP) when in secure sta
 241:../../iot_link/os/liteos/arch/arm/common/cmsis/cmsis_gcc.h ****   \param [in]    topOfProcStack  Process Stack Pointer value to set
 242:../../iot_link/os/liteos/arch/arm/common/cmsis/cmsis_gcc.h ****  */
 243:../../iot_link/os/liteos/arch/arm/common/cmsis/cmsis_gcc.h **** __attribute__((always_inline)) __STATIC_INLINE void __TZ_set_PSP_NS(uint32_t topOfProcStack)
 244:../../iot_link/os/liteos/arch/arm/common/cmsis/cmsis_gcc.h **** {
 245:../../iot_link/os/liteos/arch/arm/common/cmsis/cmsis_gcc.h ****   __ASM volatile ("MSR psp_ns, %0" : : "r" (topOfProcStack) : );
 246:../../iot_link/os/liteos/arch/arm/common/cmsis/cmsis_gcc.h **** }
 247:../../iot_link/os/liteos/arch/arm/common/cmsis/cmsis_gcc.h **** #endif
 248:../../iot_link/os/liteos/arch/arm/common/cmsis/cmsis_gcc.h **** 
 249:../../iot_link/os/liteos/arch/arm/common/cmsis/cmsis_gcc.h **** 
 250:../../iot_link/os/liteos/arch/arm/common/cmsis/cmsis_gcc.h **** /**
 251:../../iot_link/os/liteos/arch/arm/common/cmsis/cmsis_gcc.h ****   \brief   Get Main Stack Pointer
 252:../../iot_link/os/liteos/arch/arm/common/cmsis/cmsis_gcc.h ****   \details Returns the current value of the Main Stack Pointer (MSP).
 253:../../iot_link/os/liteos/arch/arm/common/cmsis/cmsis_gcc.h ****   \return               MSP Register value
 254:../../iot_link/os/liteos/arch/arm/common/cmsis/cmsis_gcc.h ****  */
 255:../../iot_link/os/liteos/arch/arm/common/cmsis/cmsis_gcc.h **** __attribute__((always_inline)) __STATIC_INLINE uint32_t __get_MSP(void)
 256:../../iot_link/os/liteos/arch/arm/common/cmsis/cmsis_gcc.h **** {
 257:../../iot_link/os/liteos/arch/arm/common/cmsis/cmsis_gcc.h ****   register uint32_t result;
 258:../../iot_link/os/liteos/arch/arm/common/cmsis/cmsis_gcc.h **** 
 259:../../iot_link/os/liteos/arch/arm/common/cmsis/cmsis_gcc.h ****   __ASM volatile ("MRS %0, msp" : "=r" (result) );
 260:../../iot_link/os/liteos/arch/arm/common/cmsis/cmsis_gcc.h ****   return(result);
 261:../../iot_link/os/liteos/arch/arm/common/cmsis/cmsis_gcc.h **** }
 262:../../iot_link/os/liteos/arch/arm/common/cmsis/cmsis_gcc.h **** 
 263:../../iot_link/os/liteos/arch/arm/common/cmsis/cmsis_gcc.h **** 
ARM GAS  C:\Users\LuckyE\AppData\Local\Temp\ccBar2YG.s 			page 41


 264:../../iot_link/os/liteos/arch/arm/common/cmsis/cmsis_gcc.h **** #if (defined (__ARM_FEATURE_CMSE ) && (__ARM_FEATURE_CMSE == 3))
 265:../../iot_link/os/liteos/arch/arm/common/cmsis/cmsis_gcc.h **** /**
 266:../../iot_link/os/liteos/arch/arm/common/cmsis/cmsis_gcc.h ****   \brief   Get Main Stack Pointer (non-secure)
 267:../../iot_link/os/liteos/arch/arm/common/cmsis/cmsis_gcc.h ****   \details Returns the current value of the non-secure Main Stack Pointer (MSP) when in secure stat
 268:../../iot_link/os/liteos/arch/arm/common/cmsis/cmsis_gcc.h ****   \return               MSP Register value
 269:../../iot_link/os/liteos/arch/arm/common/cmsis/cmsis_gcc.h ****  */
 270:../../iot_link/os/liteos/arch/arm/common/cmsis/cmsis_gcc.h **** __attribute__((always_inline)) __STATIC_INLINE uint32_t __TZ_get_MSP_NS(void)
 271:../../iot_link/os/liteos/arch/arm/common/cmsis/cmsis_gcc.h **** {
 272:../../iot_link/os/liteos/arch/arm/common/cmsis/cmsis_gcc.h ****   register uint32_t result;
 273:../../iot_link/os/liteos/arch/arm/common/cmsis/cmsis_gcc.h **** 
 274:../../iot_link/os/liteos/arch/arm/common/cmsis/cmsis_gcc.h ****   __ASM volatile ("MRS %0, msp_ns" : "=r" (result) );
 275:../../iot_link/os/liteos/arch/arm/common/cmsis/cmsis_gcc.h ****   return(result);
 276:../../iot_link/os/liteos/arch/arm/common/cmsis/cmsis_gcc.h **** }
 277:../../iot_link/os/liteos/arch/arm/common/cmsis/cmsis_gcc.h **** #endif
 278:../../iot_link/os/liteos/arch/arm/common/cmsis/cmsis_gcc.h **** 
 279:../../iot_link/os/liteos/arch/arm/common/cmsis/cmsis_gcc.h **** 
 280:../../iot_link/os/liteos/arch/arm/common/cmsis/cmsis_gcc.h **** /**
 281:../../iot_link/os/liteos/arch/arm/common/cmsis/cmsis_gcc.h ****   \brief   Set Main Stack Pointer
 282:../../iot_link/os/liteos/arch/arm/common/cmsis/cmsis_gcc.h ****   \details Assigns the given value to the Main Stack Pointer (MSP).
 283:../../iot_link/os/liteos/arch/arm/common/cmsis/cmsis_gcc.h ****   \param [in]    topOfMainStack  Main Stack Pointer value to set
 284:../../iot_link/os/liteos/arch/arm/common/cmsis/cmsis_gcc.h ****  */
 285:../../iot_link/os/liteos/arch/arm/common/cmsis/cmsis_gcc.h **** __attribute__((always_inline)) __STATIC_INLINE void __set_MSP(uint32_t topOfMainStack)
 286:../../iot_link/os/liteos/arch/arm/common/cmsis/cmsis_gcc.h **** {
 287:../../iot_link/os/liteos/arch/arm/common/cmsis/cmsis_gcc.h ****   __ASM volatile ("MSR msp, %0" : : "r" (topOfMainStack) : );
 288:../../iot_link/os/liteos/arch/arm/common/cmsis/cmsis_gcc.h **** }
 289:../../iot_link/os/liteos/arch/arm/common/cmsis/cmsis_gcc.h **** 
 290:../../iot_link/os/liteos/arch/arm/common/cmsis/cmsis_gcc.h **** 
 291:../../iot_link/os/liteos/arch/arm/common/cmsis/cmsis_gcc.h **** #if (defined (__ARM_FEATURE_CMSE ) && (__ARM_FEATURE_CMSE == 3))
 292:../../iot_link/os/liteos/arch/arm/common/cmsis/cmsis_gcc.h **** /**
 293:../../iot_link/os/liteos/arch/arm/common/cmsis/cmsis_gcc.h ****   \brief   Set Main Stack Pointer (non-secure)
 294:../../iot_link/os/liteos/arch/arm/common/cmsis/cmsis_gcc.h ****   \details Assigns the given value to the non-secure Main Stack Pointer (MSP) when in secure state.
 295:../../iot_link/os/liteos/arch/arm/common/cmsis/cmsis_gcc.h ****   \param [in]    topOfMainStack  Main Stack Pointer value to set
 296:../../iot_link/os/liteos/arch/arm/common/cmsis/cmsis_gcc.h ****  */
 297:../../iot_link/os/liteos/arch/arm/common/cmsis/cmsis_gcc.h **** __attribute__((always_inline)) __STATIC_INLINE void __TZ_set_MSP_NS(uint32_t topOfMainStack)
 298:../../iot_link/os/liteos/arch/arm/common/cmsis/cmsis_gcc.h **** {
 299:../../iot_link/os/liteos/arch/arm/common/cmsis/cmsis_gcc.h ****   __ASM volatile ("MSR msp_ns, %0" : : "r" (topOfMainStack) : );
 300:../../iot_link/os/liteos/arch/arm/common/cmsis/cmsis_gcc.h **** }
 301:../../iot_link/os/liteos/arch/arm/common/cmsis/cmsis_gcc.h **** #endif
 302:../../iot_link/os/liteos/arch/arm/common/cmsis/cmsis_gcc.h **** 
 303:../../iot_link/os/liteos/arch/arm/common/cmsis/cmsis_gcc.h **** 
 304:../../iot_link/os/liteos/arch/arm/common/cmsis/cmsis_gcc.h **** /**
 305:../../iot_link/os/liteos/arch/arm/common/cmsis/cmsis_gcc.h ****   \brief   Get Priority Mask
 306:../../iot_link/os/liteos/arch/arm/common/cmsis/cmsis_gcc.h ****   \details Returns the current state of the priority mask bit from the Priority Mask Register.
 307:../../iot_link/os/liteos/arch/arm/common/cmsis/cmsis_gcc.h ****   \return               Priority Mask value
 308:../../iot_link/os/liteos/arch/arm/common/cmsis/cmsis_gcc.h ****  */
 309:../../iot_link/os/liteos/arch/arm/common/cmsis/cmsis_gcc.h **** __attribute__((always_inline)) __STATIC_INLINE uint32_t __get_PRIMASK(void)
 310:../../iot_link/os/liteos/arch/arm/common/cmsis/cmsis_gcc.h **** {
 311:../../iot_link/os/liteos/arch/arm/common/cmsis/cmsis_gcc.h ****   uint32_t result;
 312:../../iot_link/os/liteos/arch/arm/common/cmsis/cmsis_gcc.h **** 
 313:../../iot_link/os/liteos/arch/arm/common/cmsis/cmsis_gcc.h ****   __ASM volatile ("MRS %0, primask" : "=r" (result) );
 314:../../iot_link/os/liteos/arch/arm/common/cmsis/cmsis_gcc.h ****   return(result);
 315:../../iot_link/os/liteos/arch/arm/common/cmsis/cmsis_gcc.h **** }
 316:../../iot_link/os/liteos/arch/arm/common/cmsis/cmsis_gcc.h **** 
 317:../../iot_link/os/liteos/arch/arm/common/cmsis/cmsis_gcc.h **** 
 318:../../iot_link/os/liteos/arch/arm/common/cmsis/cmsis_gcc.h **** #if (defined (__ARM_FEATURE_CMSE ) && (__ARM_FEATURE_CMSE == 3))
 319:../../iot_link/os/liteos/arch/arm/common/cmsis/cmsis_gcc.h **** /**
 320:../../iot_link/os/liteos/arch/arm/common/cmsis/cmsis_gcc.h ****   \brief   Get Priority Mask (non-secure)
ARM GAS  C:\Users\LuckyE\AppData\Local\Temp\ccBar2YG.s 			page 42


 321:../../iot_link/os/liteos/arch/arm/common/cmsis/cmsis_gcc.h ****   \details Returns the current state of the non-secure priority mask bit from the Priority Mask Reg
 322:../../iot_link/os/liteos/arch/arm/common/cmsis/cmsis_gcc.h ****   \return               Priority Mask value
 323:../../iot_link/os/liteos/arch/arm/common/cmsis/cmsis_gcc.h ****  */
 324:../../iot_link/os/liteos/arch/arm/common/cmsis/cmsis_gcc.h **** __attribute__((always_inline)) __STATIC_INLINE uint32_t __TZ_get_PRIMASK_NS(void)
 325:../../iot_link/os/liteos/arch/arm/common/cmsis/cmsis_gcc.h **** {
 326:../../iot_link/os/liteos/arch/arm/common/cmsis/cmsis_gcc.h ****   uint32_t result;
 327:../../iot_link/os/liteos/arch/arm/common/cmsis/cmsis_gcc.h **** 
 328:../../iot_link/os/liteos/arch/arm/common/cmsis/cmsis_gcc.h ****   __ASM volatile ("MRS %0, primask_ns" : "=r" (result) );
 329:../../iot_link/os/liteos/arch/arm/common/cmsis/cmsis_gcc.h ****   return(result);
 330:../../iot_link/os/liteos/arch/arm/common/cmsis/cmsis_gcc.h **** }
 331:../../iot_link/os/liteos/arch/arm/common/cmsis/cmsis_gcc.h **** #endif
 332:../../iot_link/os/liteos/arch/arm/common/cmsis/cmsis_gcc.h **** 
 333:../../iot_link/os/liteos/arch/arm/common/cmsis/cmsis_gcc.h **** 
 334:../../iot_link/os/liteos/arch/arm/common/cmsis/cmsis_gcc.h **** /**
 335:../../iot_link/os/liteos/arch/arm/common/cmsis/cmsis_gcc.h ****   \brief   Set Priority Mask
 336:../../iot_link/os/liteos/arch/arm/common/cmsis/cmsis_gcc.h ****   \details Assigns the given value to the Priority Mask Register.
 337:../../iot_link/os/liteos/arch/arm/common/cmsis/cmsis_gcc.h ****   \param [in]    priMask  Priority Mask
 338:../../iot_link/os/liteos/arch/arm/common/cmsis/cmsis_gcc.h ****  */
 339:../../iot_link/os/liteos/arch/arm/common/cmsis/cmsis_gcc.h **** __attribute__((always_inline)) __STATIC_INLINE void __set_PRIMASK(uint32_t priMask)
 340:../../iot_link/os/liteos/arch/arm/common/cmsis/cmsis_gcc.h **** {
 341:../../iot_link/os/liteos/arch/arm/common/cmsis/cmsis_gcc.h ****   __ASM volatile ("MSR primask, %0" : : "r" (priMask) : "memory");
 342:../../iot_link/os/liteos/arch/arm/common/cmsis/cmsis_gcc.h **** }
 343:../../iot_link/os/liteos/arch/arm/common/cmsis/cmsis_gcc.h **** 
 344:../../iot_link/os/liteos/arch/arm/common/cmsis/cmsis_gcc.h **** 
 345:../../iot_link/os/liteos/arch/arm/common/cmsis/cmsis_gcc.h **** #if (defined (__ARM_FEATURE_CMSE ) && (__ARM_FEATURE_CMSE == 3))
 346:../../iot_link/os/liteos/arch/arm/common/cmsis/cmsis_gcc.h **** /**
 347:../../iot_link/os/liteos/arch/arm/common/cmsis/cmsis_gcc.h ****   \brief   Set Priority Mask (non-secure)
 348:../../iot_link/os/liteos/arch/arm/common/cmsis/cmsis_gcc.h ****   \details Assigns the given value to the non-secure Priority Mask Register when in secure state.
 349:../../iot_link/os/liteos/arch/arm/common/cmsis/cmsis_gcc.h ****   \param [in]    priMask  Priority Mask
 350:../../iot_link/os/liteos/arch/arm/common/cmsis/cmsis_gcc.h ****  */
 351:../../iot_link/os/liteos/arch/arm/common/cmsis/cmsis_gcc.h **** __attribute__((always_inline)) __STATIC_INLINE void __TZ_set_PRIMASK_NS(uint32_t priMask)
 352:../../iot_link/os/liteos/arch/arm/common/cmsis/cmsis_gcc.h **** {
 353:../../iot_link/os/liteos/arch/arm/common/cmsis/cmsis_gcc.h ****   __ASM volatile ("MSR primask_ns, %0" : : "r" (priMask) : "memory");
 354:../../iot_link/os/liteos/arch/arm/common/cmsis/cmsis_gcc.h **** }
 355:../../iot_link/os/liteos/arch/arm/common/cmsis/cmsis_gcc.h **** #endif
 356:../../iot_link/os/liteos/arch/arm/common/cmsis/cmsis_gcc.h **** 
 357:../../iot_link/os/liteos/arch/arm/common/cmsis/cmsis_gcc.h **** 
 358:../../iot_link/os/liteos/arch/arm/common/cmsis/cmsis_gcc.h **** #if ((defined (__ARM_ARCH_7M__      ) && (__ARM_ARCH_7M__      == 1)) || \
 359:../../iot_link/os/liteos/arch/arm/common/cmsis/cmsis_gcc.h ****      (defined (__ARM_ARCH_7EM__     ) && (__ARM_ARCH_7EM__     == 1)) || \
 360:../../iot_link/os/liteos/arch/arm/common/cmsis/cmsis_gcc.h ****      (defined (__ARM_ARCH_8M_MAIN__ ) && (__ARM_ARCH_8M_MAIN__ == 1))    )
 361:../../iot_link/os/liteos/arch/arm/common/cmsis/cmsis_gcc.h **** /**
 362:../../iot_link/os/liteos/arch/arm/common/cmsis/cmsis_gcc.h ****   \brief   Enable FIQ
 363:../../iot_link/os/liteos/arch/arm/common/cmsis/cmsis_gcc.h ****   \details Enables FIQ interrupts by clearing the F-bit in the CPSR.
 364:../../iot_link/os/liteos/arch/arm/common/cmsis/cmsis_gcc.h ****            Can only be executed in Privileged modes.
 365:../../iot_link/os/liteos/arch/arm/common/cmsis/cmsis_gcc.h ****  */
 366:../../iot_link/os/liteos/arch/arm/common/cmsis/cmsis_gcc.h **** __attribute__((always_inline)) __STATIC_INLINE void __enable_fault_irq(void)
 367:../../iot_link/os/liteos/arch/arm/common/cmsis/cmsis_gcc.h **** {
 368:../../iot_link/os/liteos/arch/arm/common/cmsis/cmsis_gcc.h ****   __ASM volatile ("cpsie f" : : : "memory");
 369:../../iot_link/os/liteos/arch/arm/common/cmsis/cmsis_gcc.h **** }
 370:../../iot_link/os/liteos/arch/arm/common/cmsis/cmsis_gcc.h **** 
 371:../../iot_link/os/liteos/arch/arm/common/cmsis/cmsis_gcc.h **** 
 372:../../iot_link/os/liteos/arch/arm/common/cmsis/cmsis_gcc.h **** /**
 373:../../iot_link/os/liteos/arch/arm/common/cmsis/cmsis_gcc.h ****   \brief   Disable FIQ
 374:../../iot_link/os/liteos/arch/arm/common/cmsis/cmsis_gcc.h ****   \details Disables FIQ interrupts by setting the F-bit in the CPSR.
 375:../../iot_link/os/liteos/arch/arm/common/cmsis/cmsis_gcc.h ****            Can only be executed in Privileged modes.
 376:../../iot_link/os/liteos/arch/arm/common/cmsis/cmsis_gcc.h ****  */
 377:../../iot_link/os/liteos/arch/arm/common/cmsis/cmsis_gcc.h **** __attribute__((always_inline)) __STATIC_INLINE void __disable_fault_irq(void)
ARM GAS  C:\Users\LuckyE\AppData\Local\Temp\ccBar2YG.s 			page 43


 378:../../iot_link/os/liteos/arch/arm/common/cmsis/cmsis_gcc.h **** {
 379:../../iot_link/os/liteos/arch/arm/common/cmsis/cmsis_gcc.h ****   __ASM volatile ("cpsid f" : : : "memory");
 380:../../iot_link/os/liteos/arch/arm/common/cmsis/cmsis_gcc.h **** }
 381:../../iot_link/os/liteos/arch/arm/common/cmsis/cmsis_gcc.h **** 
 382:../../iot_link/os/liteos/arch/arm/common/cmsis/cmsis_gcc.h **** 
 383:../../iot_link/os/liteos/arch/arm/common/cmsis/cmsis_gcc.h **** /**
 384:../../iot_link/os/liteos/arch/arm/common/cmsis/cmsis_gcc.h ****   \brief   Get Base Priority
 385:../../iot_link/os/liteos/arch/arm/common/cmsis/cmsis_gcc.h ****   \details Returns the current value of the Base Priority register.
 386:../../iot_link/os/liteos/arch/arm/common/cmsis/cmsis_gcc.h ****   \return               Base Priority register value
 387:../../iot_link/os/liteos/arch/arm/common/cmsis/cmsis_gcc.h ****  */
 388:../../iot_link/os/liteos/arch/arm/common/cmsis/cmsis_gcc.h **** __attribute__((always_inline)) __STATIC_INLINE uint32_t __get_BASEPRI(void)
 389:../../iot_link/os/liteos/arch/arm/common/cmsis/cmsis_gcc.h **** {
 390:../../iot_link/os/liteos/arch/arm/common/cmsis/cmsis_gcc.h ****   uint32_t result;
 391:../../iot_link/os/liteos/arch/arm/common/cmsis/cmsis_gcc.h **** 
 392:../../iot_link/os/liteos/arch/arm/common/cmsis/cmsis_gcc.h ****   __ASM volatile ("MRS %0, basepri" : "=r" (result) );
 393:../../iot_link/os/liteos/arch/arm/common/cmsis/cmsis_gcc.h ****   return(result);
 394:../../iot_link/os/liteos/arch/arm/common/cmsis/cmsis_gcc.h **** }
 395:../../iot_link/os/liteos/arch/arm/common/cmsis/cmsis_gcc.h **** 
 396:../../iot_link/os/liteos/arch/arm/common/cmsis/cmsis_gcc.h **** 
 397:../../iot_link/os/liteos/arch/arm/common/cmsis/cmsis_gcc.h **** #if (defined (__ARM_FEATURE_CMSE ) && (__ARM_FEATURE_CMSE == 3))
 398:../../iot_link/os/liteos/arch/arm/common/cmsis/cmsis_gcc.h **** /**
 399:../../iot_link/os/liteos/arch/arm/common/cmsis/cmsis_gcc.h ****   \brief   Get Base Priority (non-secure)
 400:../../iot_link/os/liteos/arch/arm/common/cmsis/cmsis_gcc.h ****   \details Returns the current value of the non-secure Base Priority register when in secure state.
 401:../../iot_link/os/liteos/arch/arm/common/cmsis/cmsis_gcc.h ****   \return               Base Priority register value
 402:../../iot_link/os/liteos/arch/arm/common/cmsis/cmsis_gcc.h ****  */
 403:../../iot_link/os/liteos/arch/arm/common/cmsis/cmsis_gcc.h **** __attribute__((always_inline)) __STATIC_INLINE uint32_t __TZ_get_BASEPRI_NS(void)
 404:../../iot_link/os/liteos/arch/arm/common/cmsis/cmsis_gcc.h **** {
 405:../../iot_link/os/liteos/arch/arm/common/cmsis/cmsis_gcc.h ****   uint32_t result;
 406:../../iot_link/os/liteos/arch/arm/common/cmsis/cmsis_gcc.h **** 
 407:../../iot_link/os/liteos/arch/arm/common/cmsis/cmsis_gcc.h ****   __ASM volatile ("MRS %0, basepri_ns" : "=r" (result) );
 408:../../iot_link/os/liteos/arch/arm/common/cmsis/cmsis_gcc.h ****   return(result);
 409:../../iot_link/os/liteos/arch/arm/common/cmsis/cmsis_gcc.h **** }
 410:../../iot_link/os/liteos/arch/arm/common/cmsis/cmsis_gcc.h **** #endif
 411:../../iot_link/os/liteos/arch/arm/common/cmsis/cmsis_gcc.h **** 
 412:../../iot_link/os/liteos/arch/arm/common/cmsis/cmsis_gcc.h **** 
 413:../../iot_link/os/liteos/arch/arm/common/cmsis/cmsis_gcc.h **** /**
 414:../../iot_link/os/liteos/arch/arm/common/cmsis/cmsis_gcc.h ****   \brief   Set Base Priority
 415:../../iot_link/os/liteos/arch/arm/common/cmsis/cmsis_gcc.h ****   \details Assigns the given value to the Base Priority register.
 416:../../iot_link/os/liteos/arch/arm/common/cmsis/cmsis_gcc.h ****   \param [in]    basePri  Base Priority value to set
 417:../../iot_link/os/liteos/arch/arm/common/cmsis/cmsis_gcc.h ****  */
 418:../../iot_link/os/liteos/arch/arm/common/cmsis/cmsis_gcc.h **** __attribute__((always_inline)) __STATIC_INLINE void __set_BASEPRI(uint32_t basePri)
 419:../../iot_link/os/liteos/arch/arm/common/cmsis/cmsis_gcc.h **** {
 420:../../iot_link/os/liteos/arch/arm/common/cmsis/cmsis_gcc.h ****   __ASM volatile ("MSR basepri, %0" : : "r" (basePri) : "memory");
 421:../../iot_link/os/liteos/arch/arm/common/cmsis/cmsis_gcc.h **** }
 422:../../iot_link/os/liteos/arch/arm/common/cmsis/cmsis_gcc.h **** 
 423:../../iot_link/os/liteos/arch/arm/common/cmsis/cmsis_gcc.h **** 
 424:../../iot_link/os/liteos/arch/arm/common/cmsis/cmsis_gcc.h **** #if (defined (__ARM_FEATURE_CMSE ) && (__ARM_FEATURE_CMSE == 3))
 425:../../iot_link/os/liteos/arch/arm/common/cmsis/cmsis_gcc.h **** /**
 426:../../iot_link/os/liteos/arch/arm/common/cmsis/cmsis_gcc.h ****   \brief   Set Base Priority (non-secure)
 427:../../iot_link/os/liteos/arch/arm/common/cmsis/cmsis_gcc.h ****   \details Assigns the given value to the non-secure Base Priority register when in secure state.
 428:../../iot_link/os/liteos/arch/arm/common/cmsis/cmsis_gcc.h ****   \param [in]    basePri  Base Priority value to set
 429:../../iot_link/os/liteos/arch/arm/common/cmsis/cmsis_gcc.h ****  */
 430:../../iot_link/os/liteos/arch/arm/common/cmsis/cmsis_gcc.h **** __attribute__((always_inline)) __STATIC_INLINE void __TZ_set_BASEPRI_NS(uint32_t basePri)
 431:../../iot_link/os/liteos/arch/arm/common/cmsis/cmsis_gcc.h **** {
 432:../../iot_link/os/liteos/arch/arm/common/cmsis/cmsis_gcc.h ****   __ASM volatile ("MSR basepri_ns, %0" : : "r" (basePri) : "memory");
 433:../../iot_link/os/liteos/arch/arm/common/cmsis/cmsis_gcc.h **** }
 434:../../iot_link/os/liteos/arch/arm/common/cmsis/cmsis_gcc.h **** #endif
ARM GAS  C:\Users\LuckyE\AppData\Local\Temp\ccBar2YG.s 			page 44


 435:../../iot_link/os/liteos/arch/arm/common/cmsis/cmsis_gcc.h **** 
 436:../../iot_link/os/liteos/arch/arm/common/cmsis/cmsis_gcc.h **** 
 437:../../iot_link/os/liteos/arch/arm/common/cmsis/cmsis_gcc.h **** /**
 438:../../iot_link/os/liteos/arch/arm/common/cmsis/cmsis_gcc.h ****   \brief   Set Base Priority with condition
 439:../../iot_link/os/liteos/arch/arm/common/cmsis/cmsis_gcc.h ****   \details Assigns the given value to the Base Priority register only if BASEPRI masking is disable
 440:../../iot_link/os/liteos/arch/arm/common/cmsis/cmsis_gcc.h ****            or the new value increases the BASEPRI priority level.
 441:../../iot_link/os/liteos/arch/arm/common/cmsis/cmsis_gcc.h ****   \param [in]    basePri  Base Priority value to set
 442:../../iot_link/os/liteos/arch/arm/common/cmsis/cmsis_gcc.h ****  */
 443:../../iot_link/os/liteos/arch/arm/common/cmsis/cmsis_gcc.h **** __attribute__((always_inline)) __STATIC_INLINE void __set_BASEPRI_MAX(uint32_t basePri)
 444:../../iot_link/os/liteos/arch/arm/common/cmsis/cmsis_gcc.h **** {
 445:../../iot_link/os/liteos/arch/arm/common/cmsis/cmsis_gcc.h ****   __ASM volatile ("MSR basepri_max, %0" : : "r" (basePri) : "memory");
 446:../../iot_link/os/liteos/arch/arm/common/cmsis/cmsis_gcc.h **** }
 447:../../iot_link/os/liteos/arch/arm/common/cmsis/cmsis_gcc.h **** 
 448:../../iot_link/os/liteos/arch/arm/common/cmsis/cmsis_gcc.h **** 
 449:../../iot_link/os/liteos/arch/arm/common/cmsis/cmsis_gcc.h **** /**
 450:../../iot_link/os/liteos/arch/arm/common/cmsis/cmsis_gcc.h ****   \brief   Get Fault Mask
 451:../../iot_link/os/liteos/arch/arm/common/cmsis/cmsis_gcc.h ****   \details Returns the current value of the Fault Mask register.
 452:../../iot_link/os/liteos/arch/arm/common/cmsis/cmsis_gcc.h ****   \return               Fault Mask register value
 453:../../iot_link/os/liteos/arch/arm/common/cmsis/cmsis_gcc.h ****  */
 454:../../iot_link/os/liteos/arch/arm/common/cmsis/cmsis_gcc.h **** __attribute__((always_inline)) __STATIC_INLINE uint32_t __get_FAULTMASK(void)
 455:../../iot_link/os/liteos/arch/arm/common/cmsis/cmsis_gcc.h **** {
 456:../../iot_link/os/liteos/arch/arm/common/cmsis/cmsis_gcc.h ****   uint32_t result;
 457:../../iot_link/os/liteos/arch/arm/common/cmsis/cmsis_gcc.h **** 
 458:../../iot_link/os/liteos/arch/arm/common/cmsis/cmsis_gcc.h ****   __ASM volatile ("MRS %0, faultmask" : "=r" (result) );
 459:../../iot_link/os/liteos/arch/arm/common/cmsis/cmsis_gcc.h ****   return(result);
 460:../../iot_link/os/liteos/arch/arm/common/cmsis/cmsis_gcc.h **** }
 461:../../iot_link/os/liteos/arch/arm/common/cmsis/cmsis_gcc.h **** 
 462:../../iot_link/os/liteos/arch/arm/common/cmsis/cmsis_gcc.h **** 
 463:../../iot_link/os/liteos/arch/arm/common/cmsis/cmsis_gcc.h **** #if (defined (__ARM_FEATURE_CMSE ) && (__ARM_FEATURE_CMSE == 3))
 464:../../iot_link/os/liteos/arch/arm/common/cmsis/cmsis_gcc.h **** /**
 465:../../iot_link/os/liteos/arch/arm/common/cmsis/cmsis_gcc.h ****   \brief   Get Fault Mask (non-secure)
 466:../../iot_link/os/liteos/arch/arm/common/cmsis/cmsis_gcc.h ****   \details Returns the current value of the non-secure Fault Mask register when in secure state.
 467:../../iot_link/os/liteos/arch/arm/common/cmsis/cmsis_gcc.h ****   \return               Fault Mask register value
 468:../../iot_link/os/liteos/arch/arm/common/cmsis/cmsis_gcc.h ****  */
 469:../../iot_link/os/liteos/arch/arm/common/cmsis/cmsis_gcc.h **** __attribute__((always_inline)) __STATIC_INLINE uint32_t __TZ_get_FAULTMASK_NS(void)
 470:../../iot_link/os/liteos/arch/arm/common/cmsis/cmsis_gcc.h **** {
 471:../../iot_link/os/liteos/arch/arm/common/cmsis/cmsis_gcc.h ****   uint32_t result;
 472:../../iot_link/os/liteos/arch/arm/common/cmsis/cmsis_gcc.h **** 
 473:../../iot_link/os/liteos/arch/arm/common/cmsis/cmsis_gcc.h ****   __ASM volatile ("MRS %0, faultmask_ns" : "=r" (result) );
 474:../../iot_link/os/liteos/arch/arm/common/cmsis/cmsis_gcc.h ****   return(result);
 475:../../iot_link/os/liteos/arch/arm/common/cmsis/cmsis_gcc.h **** }
 476:../../iot_link/os/liteos/arch/arm/common/cmsis/cmsis_gcc.h **** #endif
 477:../../iot_link/os/liteos/arch/arm/common/cmsis/cmsis_gcc.h **** 
 478:../../iot_link/os/liteos/arch/arm/common/cmsis/cmsis_gcc.h **** 
 479:../../iot_link/os/liteos/arch/arm/common/cmsis/cmsis_gcc.h **** /**
 480:../../iot_link/os/liteos/arch/arm/common/cmsis/cmsis_gcc.h ****   \brief   Set Fault Mask
 481:../../iot_link/os/liteos/arch/arm/common/cmsis/cmsis_gcc.h ****   \details Assigns the given value to the Fault Mask register.
 482:../../iot_link/os/liteos/arch/arm/common/cmsis/cmsis_gcc.h ****   \param [in]    faultMask  Fault Mask value to set
 483:../../iot_link/os/liteos/arch/arm/common/cmsis/cmsis_gcc.h ****  */
 484:../../iot_link/os/liteos/arch/arm/common/cmsis/cmsis_gcc.h **** __attribute__((always_inline)) __STATIC_INLINE void __set_FAULTMASK(uint32_t faultMask)
 485:../../iot_link/os/liteos/arch/arm/common/cmsis/cmsis_gcc.h **** {
 486:../../iot_link/os/liteos/arch/arm/common/cmsis/cmsis_gcc.h ****   __ASM volatile ("MSR faultmask, %0" : : "r" (faultMask) : "memory");
 487:../../iot_link/os/liteos/arch/arm/common/cmsis/cmsis_gcc.h **** }
 488:../../iot_link/os/liteos/arch/arm/common/cmsis/cmsis_gcc.h **** 
 489:../../iot_link/os/liteos/arch/arm/common/cmsis/cmsis_gcc.h **** 
 490:../../iot_link/os/liteos/arch/arm/common/cmsis/cmsis_gcc.h **** #if (defined (__ARM_FEATURE_CMSE ) && (__ARM_FEATURE_CMSE == 3))
 491:../../iot_link/os/liteos/arch/arm/common/cmsis/cmsis_gcc.h **** /**
ARM GAS  C:\Users\LuckyE\AppData\Local\Temp\ccBar2YG.s 			page 45


 492:../../iot_link/os/liteos/arch/arm/common/cmsis/cmsis_gcc.h ****   \brief   Set Fault Mask (non-secure)
 493:../../iot_link/os/liteos/arch/arm/common/cmsis/cmsis_gcc.h ****   \details Assigns the given value to the non-secure Fault Mask register when in secure state.
 494:../../iot_link/os/liteos/arch/arm/common/cmsis/cmsis_gcc.h ****   \param [in]    faultMask  Fault Mask value to set
 495:../../iot_link/os/liteos/arch/arm/common/cmsis/cmsis_gcc.h ****  */
 496:../../iot_link/os/liteos/arch/arm/common/cmsis/cmsis_gcc.h **** __attribute__((always_inline)) __STATIC_INLINE void __TZ_set_FAULTMASK_NS(uint32_t faultMask)
 497:../../iot_link/os/liteos/arch/arm/common/cmsis/cmsis_gcc.h **** {
 498:../../iot_link/os/liteos/arch/arm/common/cmsis/cmsis_gcc.h ****   __ASM volatile ("MSR faultmask_ns, %0" : : "r" (faultMask) : "memory");
 499:../../iot_link/os/liteos/arch/arm/common/cmsis/cmsis_gcc.h **** }
 500:../../iot_link/os/liteos/arch/arm/common/cmsis/cmsis_gcc.h **** #endif
 501:../../iot_link/os/liteos/arch/arm/common/cmsis/cmsis_gcc.h **** 
 502:../../iot_link/os/liteos/arch/arm/common/cmsis/cmsis_gcc.h **** #endif /* ((defined (__ARM_ARCH_7M__      ) && (__ARM_ARCH_7M__      == 1)) || \
 503:../../iot_link/os/liteos/arch/arm/common/cmsis/cmsis_gcc.h ****            (defined (__ARM_ARCH_7EM__     ) && (__ARM_ARCH_7EM__     == 1)) || \
 504:../../iot_link/os/liteos/arch/arm/common/cmsis/cmsis_gcc.h ****            (defined (__ARM_ARCH_8M_MAIN__ ) && (__ARM_ARCH_8M_MAIN__ == 1))    ) */
 505:../../iot_link/os/liteos/arch/arm/common/cmsis/cmsis_gcc.h **** 
 506:../../iot_link/os/liteos/arch/arm/common/cmsis/cmsis_gcc.h **** 
 507:../../iot_link/os/liteos/arch/arm/common/cmsis/cmsis_gcc.h **** #if ((defined (__ARM_ARCH_8M_MAIN__ ) && (__ARM_ARCH_8M_MAIN__ == 1)) || \
 508:../../iot_link/os/liteos/arch/arm/common/cmsis/cmsis_gcc.h ****      (defined (__ARM_ARCH_8M_BASE__ ) && (__ARM_ARCH_8M_BASE__ == 1))    )
 509:../../iot_link/os/liteos/arch/arm/common/cmsis/cmsis_gcc.h **** 
 510:../../iot_link/os/liteos/arch/arm/common/cmsis/cmsis_gcc.h **** /**
 511:../../iot_link/os/liteos/arch/arm/common/cmsis/cmsis_gcc.h ****   \brief   Get Process Stack Pointer Limit
 512:../../iot_link/os/liteos/arch/arm/common/cmsis/cmsis_gcc.h ****   \details Returns the current value of the Process Stack Pointer Limit (PSPLIM).
 513:../../iot_link/os/liteos/arch/arm/common/cmsis/cmsis_gcc.h ****   \return               PSPLIM Register value
 514:../../iot_link/os/liteos/arch/arm/common/cmsis/cmsis_gcc.h ****  */
 515:../../iot_link/os/liteos/arch/arm/common/cmsis/cmsis_gcc.h **** __attribute__((always_inline)) __STATIC_INLINE uint32_t __get_PSPLIM(void)
 516:../../iot_link/os/liteos/arch/arm/common/cmsis/cmsis_gcc.h **** {
 517:../../iot_link/os/liteos/arch/arm/common/cmsis/cmsis_gcc.h ****   register uint32_t result;
 518:../../iot_link/os/liteos/arch/arm/common/cmsis/cmsis_gcc.h **** 
 519:../../iot_link/os/liteos/arch/arm/common/cmsis/cmsis_gcc.h ****   __ASM volatile ("MRS %0, psplim"  : "=r" (result) );
 520:../../iot_link/os/liteos/arch/arm/common/cmsis/cmsis_gcc.h ****   return(result);
 521:../../iot_link/os/liteos/arch/arm/common/cmsis/cmsis_gcc.h **** }
 522:../../iot_link/os/liteos/arch/arm/common/cmsis/cmsis_gcc.h **** 
 523:../../iot_link/os/liteos/arch/arm/common/cmsis/cmsis_gcc.h **** 
 524:../../iot_link/os/liteos/arch/arm/common/cmsis/cmsis_gcc.h **** #if ((defined (__ARM_FEATURE_CMSE  ) && (__ARM_FEATURE_CMSE   == 3)) && \
 525:../../iot_link/os/liteos/arch/arm/common/cmsis/cmsis_gcc.h ****      (defined (__ARM_ARCH_8M_MAIN__) && (__ARM_ARCH_8M_MAIN__ == 1))    )
 526:../../iot_link/os/liteos/arch/arm/common/cmsis/cmsis_gcc.h **** /**
 527:../../iot_link/os/liteos/arch/arm/common/cmsis/cmsis_gcc.h ****   \brief   Get Process Stack Pointer Limit (non-secure)
 528:../../iot_link/os/liteos/arch/arm/common/cmsis/cmsis_gcc.h ****   \details Returns the current value of the non-secure Process Stack Pointer Limit (PSPLIM) when in
 529:../../iot_link/os/liteos/arch/arm/common/cmsis/cmsis_gcc.h ****   \return               PSPLIM Register value
 530:../../iot_link/os/liteos/arch/arm/common/cmsis/cmsis_gcc.h ****  */
 531:../../iot_link/os/liteos/arch/arm/common/cmsis/cmsis_gcc.h **** __attribute__((always_inline)) __STATIC_INLINE uint32_t __TZ_get_PSPLIM_NS(void)
 532:../../iot_link/os/liteos/arch/arm/common/cmsis/cmsis_gcc.h **** {
 533:../../iot_link/os/liteos/arch/arm/common/cmsis/cmsis_gcc.h ****   register uint32_t result;
 534:../../iot_link/os/liteos/arch/arm/common/cmsis/cmsis_gcc.h **** 
 535:../../iot_link/os/liteos/arch/arm/common/cmsis/cmsis_gcc.h ****   __ASM volatile ("MRS %0, psplim_ns"  : "=r" (result) );
 536:../../iot_link/os/liteos/arch/arm/common/cmsis/cmsis_gcc.h ****   return(result);
 537:../../iot_link/os/liteos/arch/arm/common/cmsis/cmsis_gcc.h **** }
 538:../../iot_link/os/liteos/arch/arm/common/cmsis/cmsis_gcc.h **** #endif
 539:../../iot_link/os/liteos/arch/arm/common/cmsis/cmsis_gcc.h **** 
 540:../../iot_link/os/liteos/arch/arm/common/cmsis/cmsis_gcc.h **** 
 541:../../iot_link/os/liteos/arch/arm/common/cmsis/cmsis_gcc.h **** /**
 542:../../iot_link/os/liteos/arch/arm/common/cmsis/cmsis_gcc.h ****   \brief   Set Process Stack Pointer Limit
 543:../../iot_link/os/liteos/arch/arm/common/cmsis/cmsis_gcc.h ****   \details Assigns the given value to the Process Stack Pointer Limit (PSPLIM).
 544:../../iot_link/os/liteos/arch/arm/common/cmsis/cmsis_gcc.h ****   \param [in]    ProcStackPtrLimit  Process Stack Pointer Limit value to set
 545:../../iot_link/os/liteos/arch/arm/common/cmsis/cmsis_gcc.h ****  */
 546:../../iot_link/os/liteos/arch/arm/common/cmsis/cmsis_gcc.h **** __attribute__((always_inline)) __STATIC_INLINE void __set_PSPLIM(uint32_t ProcStackPtrLimit)
 547:../../iot_link/os/liteos/arch/arm/common/cmsis/cmsis_gcc.h **** {
 548:../../iot_link/os/liteos/arch/arm/common/cmsis/cmsis_gcc.h ****   __ASM volatile ("MSR psplim, %0" : : "r" (ProcStackPtrLimit));
ARM GAS  C:\Users\LuckyE\AppData\Local\Temp\ccBar2YG.s 			page 46


 549:../../iot_link/os/liteos/arch/arm/common/cmsis/cmsis_gcc.h **** }
 550:../../iot_link/os/liteos/arch/arm/common/cmsis/cmsis_gcc.h **** 
 551:../../iot_link/os/liteos/arch/arm/common/cmsis/cmsis_gcc.h **** 
 552:../../iot_link/os/liteos/arch/arm/common/cmsis/cmsis_gcc.h **** #if ((defined (__ARM_FEATURE_CMSE  ) && (__ARM_FEATURE_CMSE   == 3)) && \
 553:../../iot_link/os/liteos/arch/arm/common/cmsis/cmsis_gcc.h ****      (defined (__ARM_ARCH_8M_MAIN__) && (__ARM_ARCH_8M_MAIN__ == 1))    )
 554:../../iot_link/os/liteos/arch/arm/common/cmsis/cmsis_gcc.h **** /**
 555:../../iot_link/os/liteos/arch/arm/common/cmsis/cmsis_gcc.h ****   \brief   Set Process Stack Pointer (non-secure)
 556:../../iot_link/os/liteos/arch/arm/common/cmsis/cmsis_gcc.h ****   \details Assigns the given value to the non-secure Process Stack Pointer Limit (PSPLIM) when in s
 557:../../iot_link/os/liteos/arch/arm/common/cmsis/cmsis_gcc.h ****   \param [in]    ProcStackPtrLimit  Process Stack Pointer Limit value to set
 558:../../iot_link/os/liteos/arch/arm/common/cmsis/cmsis_gcc.h ****  */
 559:../../iot_link/os/liteos/arch/arm/common/cmsis/cmsis_gcc.h **** __attribute__((always_inline)) __STATIC_INLINE void __TZ_set_PSPLIM_NS(uint32_t ProcStackPtrLimit)
 560:../../iot_link/os/liteos/arch/arm/common/cmsis/cmsis_gcc.h **** {
 561:../../iot_link/os/liteos/arch/arm/common/cmsis/cmsis_gcc.h ****   __ASM volatile ("MSR psplim_ns, %0\n" : : "r" (ProcStackPtrLimit));
 562:../../iot_link/os/liteos/arch/arm/common/cmsis/cmsis_gcc.h **** }
 563:../../iot_link/os/liteos/arch/arm/common/cmsis/cmsis_gcc.h **** #endif
 564:../../iot_link/os/liteos/arch/arm/common/cmsis/cmsis_gcc.h **** 
 565:../../iot_link/os/liteos/arch/arm/common/cmsis/cmsis_gcc.h **** 
 566:../../iot_link/os/liteos/arch/arm/common/cmsis/cmsis_gcc.h **** /**
 567:../../iot_link/os/liteos/arch/arm/common/cmsis/cmsis_gcc.h ****   \brief   Get Main Stack Pointer Limit
