ARM GAS  C:\Users\LuckyE\AppData\Local\Temp\ccx4tDom.s 			page 1


   1              		.cpu cortex-m4
   2              		.eabi_attribute 27, 1
   3              		.eabi_attribute 28, 1
   4              		.eabi_attribute 20, 1
   5              		.eabi_attribute 21, 1
   6              		.eabi_attribute 23, 3
   7              		.eabi_attribute 24, 1
   8              		.eabi_attribute 25, 1
   9              		.eabi_attribute 26, 1
  10              		.eabi_attribute 30, 4
  11              		.eabi_attribute 34, 1
  12              		.eabi_attribute 18, 4
  13              		.file	"rbtree.c"
  14              		.text
  15              	.Ltext0:
  16              		.cfi_sections	.debug_frame
  17              		.section	.text.__bit_successor,"ax",%progbits
  18              		.align	1
  19              		.syntax unified
  20              		.thumb
  21              		.thumb_func
  22              		.fpu fpv4-sp-d16
  24              	__bit_successor:
  25              	.LFB6:
  26              		.file 1 "../../iot_link/os/liteos/base/include/__binary_tree.h"
   1:../../iot_link/os/liteos/base/include/__binary_tree.h **** /*----------------------------------------------------------------------------
   2:../../iot_link/os/liteos/base/include/__binary_tree.h ****  * Copyright (c) <2018>, <Huawei Technologies Co., Ltd>
   3:../../iot_link/os/liteos/base/include/__binary_tree.h ****  * All rights reserved.
   4:../../iot_link/os/liteos/base/include/__binary_tree.h ****  * Redistribution and use in source and binary forms, with or without modification,
   5:../../iot_link/os/liteos/base/include/__binary_tree.h ****  * are permitted provided that the following conditions are met:
   6:../../iot_link/os/liteos/base/include/__binary_tree.h ****  * 1. Redistributions of source code must retain the above copyright notice, this list of
   7:../../iot_link/os/liteos/base/include/__binary_tree.h ****  * conditions and the following disclaimer.
   8:../../iot_link/os/liteos/base/include/__binary_tree.h ****  * 2. Redistributions in binary form must reproduce the above copyright notice, this list
   9:../../iot_link/os/liteos/base/include/__binary_tree.h ****  * of conditions and the following disclaimer in the documentation and/or other materials
  10:../../iot_link/os/liteos/base/include/__binary_tree.h ****  * provided with the distribution.
  11:../../iot_link/os/liteos/base/include/__binary_tree.h ****  * 3. Neither the name of the copyright holder nor the names of its contributors may be used
  12:../../iot_link/os/liteos/base/include/__binary_tree.h ****  * to endorse or promote products derived from this software without specific prior written
  13:../../iot_link/os/liteos/base/include/__binary_tree.h ****  * permission.
  14:../../iot_link/os/liteos/base/include/__binary_tree.h ****  * THIS SOFTWARE IS PROVIDED BY THE COPYRIGHT HOLDERS AND CONTRIBUTORS
  15:../../iot_link/os/liteos/base/include/__binary_tree.h ****  * "AS IS" AND ANY EXPRESS OR IMPLIED WARRANTIES, INCLUDING, BUT NOT LIMITED TO,
  16:../../iot_link/os/liteos/base/include/__binary_tree.h ****  * THE IMPLIED WARRANTIES OF MERCHANTABILITY AND FITNESS FOR A PARTICULAR
  17:../../iot_link/os/liteos/base/include/__binary_tree.h ****  * PURPOSE ARE DISCLAIMED. IN NO EVENT SHALL THE COPYRIGHT HOLDER OR
  18:../../iot_link/os/liteos/base/include/__binary_tree.h ****  * CONTRIBUTORS BE LIABLE FOR ANY DIRECT, INDIRECT, INCIDENTAL, SPECIAL,
  19:../../iot_link/os/liteos/base/include/__binary_tree.h ****  * EXEMPLARY, OR CONSEQUENTIAL DAMAGES (INCLUDING, BUT NOT LIMITED TO,
  20:../../iot_link/os/liteos/base/include/__binary_tree.h ****  * PROCUREMENT OF SUBSTITUTE GOODS OR SERVICES; LOSS OF USE, DATA, OR PROFITS;
  21:../../iot_link/os/liteos/base/include/__binary_tree.h ****  * OR BUSINESS INTERRUPTION) HOWEVER CAUSED AND ON ANY THEORY OF LIABILITY,
  22:../../iot_link/os/liteos/base/include/__binary_tree.h ****  * WHETHER IN CONTRACT, STRICT LIABILITY, OR TORT (INCLUDING NEGLIGENCE OR
  23:../../iot_link/os/liteos/base/include/__binary_tree.h ****  * OTHERWISE) ARISING IN ANY WAY OUT OF THE USE OF THIS SOFTWARE, EVEN IF
  24:../../iot_link/os/liteos/base/include/__binary_tree.h ****  * ADVISED OF THE POSSIBILITY OF SUCH DAMAGE.
  25:../../iot_link/os/liteos/base/include/__binary_tree.h ****  *---------------------------------------------------------------------------*/
  26:../../iot_link/os/liteos/base/include/__binary_tree.h **** /*----------------------------------------------------------------------------
  27:../../iot_link/os/liteos/base/include/__binary_tree.h ****  * Notice of Export Control Law
  28:../../iot_link/os/liteos/base/include/__binary_tree.h ****  * ===============================================
  29:../../iot_link/os/liteos/base/include/__binary_tree.h ****  * Huawei LiteOS may be subject to applicable export control laws and regulations, which might
  30:../../iot_link/os/liteos/base/include/__binary_tree.h ****  * include those applicable to Huawei LiteOS of U.S. and the country in which you are located.
  31:../../iot_link/os/liteos/base/include/__binary_tree.h ****  * Import, export and usage of Huawei LiteOS in any manner by you shall be in compliance with such
  32:../../iot_link/os/liteos/base/include/__binary_tree.h ****  * applicable export control laws and regulations.
ARM GAS  C:\Users\LuckyE\AppData\Local\Temp\ccx4tDom.s 			page 2


  33:../../iot_link/os/liteos/base/include/__binary_tree.h ****  *---------------------------------------------------------------------------*/
  34:../../iot_link/os/liteos/base/include/__binary_tree.h **** 
  35:../../iot_link/os/liteos/base/include/__binary_tree.h **** #ifndef __BINARY_TREE_H__
  36:../../iot_link/os/liteos/base/include/__binary_tree.h **** #define __BINARY_TREE_H__
  37:../../iot_link/os/liteos/base/include/__binary_tree.h **** 
  38:../../iot_link/os/liteos/base/include/__binary_tree.h **** #include <stddef.h>
  39:../../iot_link/os/liteos/base/include/__binary_tree.h **** #include <stdint.h>
  40:../../iot_link/os/liteos/base/include/__binary_tree.h **** #include <stdbool.h>
  41:../../iot_link/os/liteos/base/include/__binary_tree.h **** 
  42:../../iot_link/os/liteos/base/include/__binary_tree.h **** #include "los_common.h"
  43:../../iot_link/os/liteos/base/include/__binary_tree.h **** 
  44:../../iot_link/os/liteos/base/include/__binary_tree.h **** typedef struct bi_node
  45:../../iot_link/os/liteos/base/include/__binary_tree.h **** {
  46:../../iot_link/os/liteos/base/include/__binary_tree.h ****     struct bi_node     * p;     /* parent       */
  47:../../iot_link/os/liteos/base/include/__binary_tree.h ****     struct bi_node     * l;     /* left         */
  48:../../iot_link/os/liteos/base/include/__binary_tree.h ****     struct bi_node     * r;     /* right        */
  49:../../iot_link/os/liteos/base/include/__binary_tree.h **** } bi_node_t;
  50:../../iot_link/os/liteos/base/include/__binary_tree.h **** 
  51:../../iot_link/os/liteos/base/include/__binary_tree.h **** typedef struct bi_tree
  52:../../iot_link/os/liteos/base/include/__binary_tree.h **** {
  53:../../iot_link/os/liteos/base/include/__binary_tree.h ****     bi_node_t          * r;     /* root         */
  54:../../iot_link/os/liteos/base/include/__binary_tree.h **** 
  55:../../iot_link/os/liteos/base/include/__binary_tree.h ****     /*
  56:../../iot_link/os/liteos/base/include/__binary_tree.h ****      * compare two nodes or a node with a key to determine which is bigger,
  57:../../iot_link/os/liteos/base/include/__binary_tree.h ****      *
  58:../../iot_link/os/liteos/base/include/__binary_tree.h ****      * returning negative values means 'a < b' or 'n->k < k'
  59:../../iot_link/os/liteos/base/include/__binary_tree.h ****      * returning positive values means 'a > b' or 'n->k > k'
  60:../../iot_link/os/liteos/base/include/__binary_tree.h ****      * returning zero means 'a == b' or 'n->k == k'
  61:../../iot_link/os/liteos/base/include/__binary_tree.h ****      */
  62:../../iot_link/os/liteos/base/include/__binary_tree.h **** 
  63:../../iot_link/os/liteos/base/include/__binary_tree.h ****     int               (* compare_nn) (bi_node_t * a, bi_node_t * b);
  64:../../iot_link/os/liteos/base/include/__binary_tree.h ****     int               (* compare_nk) (bi_node_t * n, uintptr_t k);
  65:../../iot_link/os/liteos/base/include/__binary_tree.h **** } bi_tree_t;
  66:../../iot_link/os/liteos/base/include/__binary_tree.h **** 
  67:../../iot_link/os/liteos/base/include/__binary_tree.h **** /* defines */
  68:../../iot_link/os/liteos/base/include/__binary_tree.h **** 
  69:../../iot_link/os/liteos/base/include/__binary_tree.h **** /**
  70:../../iot_link/os/liteos/base/include/__binary_tree.h ****  * __bit_parent - get the parent for a node, assume n is not NULL
  71:../../iot_link/os/liteos/base/include/__binary_tree.h ****  * @n: the given node
  72:../../iot_link/os/liteos/base/include/__binary_tree.h ****  *
  73:../../iot_link/os/liteos/base/include/__binary_tree.h ****  * return: the parent of the node <n>
  74:../../iot_link/os/liteos/base/include/__binary_tree.h ****  */
  75:../../iot_link/os/liteos/base/include/__binary_tree.h **** 
  76:../../iot_link/os/liteos/base/include/__binary_tree.h **** static inline bi_node_t * __bit_parent (bi_node_t * n)
  77:../../iot_link/os/liteos/base/include/__binary_tree.h **** {
  78:../../iot_link/os/liteos/base/include/__binary_tree.h ****     return n->p;
  79:../../iot_link/os/liteos/base/include/__binary_tree.h **** }
  80:../../iot_link/os/liteos/base/include/__binary_tree.h **** 
  81:../../iot_link/os/liteos/base/include/__binary_tree.h **** /**
  82:../../iot_link/os/liteos/base/include/__binary_tree.h ****  * __bit_set_parent - set the parent for a node, assume n is not NULL
  83:../../iot_link/os/liteos/base/include/__binary_tree.h ****  * @n: the given node
  84:../../iot_link/os/liteos/base/include/__binary_tree.h ****  *
  85:../../iot_link/os/liteos/base/include/__binary_tree.h ****  * return: NA
  86:../../iot_link/os/liteos/base/include/__binary_tree.h ****  */
  87:../../iot_link/os/liteos/base/include/__binary_tree.h **** 
  88:../../iot_link/os/liteos/base/include/__binary_tree.h **** static inline void __bit_set_parent (bi_node_t * n, bi_node_t * p)
  89:../../iot_link/os/liteos/base/include/__binary_tree.h **** {
ARM GAS  C:\Users\LuckyE\AppData\Local\Temp\ccx4tDom.s 			page 3


  90:../../iot_link/os/liteos/base/include/__binary_tree.h ****     n->p = p;
  91:../../iot_link/os/liteos/base/include/__binary_tree.h **** }
  92:../../iot_link/os/liteos/base/include/__binary_tree.h **** 
  93:../../iot_link/os/liteos/base/include/__binary_tree.h **** /**
  94:../../iot_link/os/liteos/base/include/__binary_tree.h ****  * __bit_raw_grand - get the grand parent for a node, assume n and p(n) are not NULL
  95:../../iot_link/os/liteos/base/include/__binary_tree.h ****  * @n: the given node
  96:../../iot_link/os/liteos/base/include/__binary_tree.h ****  *
  97:../../iot_link/os/liteos/base/include/__binary_tree.h ****  * return: the grand parent of the node <n>
  98:../../iot_link/os/liteos/base/include/__binary_tree.h ****  */
  99:../../iot_link/os/liteos/base/include/__binary_tree.h **** 
 100:../../iot_link/os/liteos/base/include/__binary_tree.h **** static inline bi_node_t * __bit_raw_grand (bi_node_t * n)
 101:../../iot_link/os/liteos/base/include/__binary_tree.h **** {
 102:../../iot_link/os/liteos/base/include/__binary_tree.h ****     return __bit_parent (__bit_parent (n));
 103:../../iot_link/os/liteos/base/include/__binary_tree.h **** }
 104:../../iot_link/os/liteos/base/include/__binary_tree.h **** 
 105:../../iot_link/os/liteos/base/include/__binary_tree.h **** /**
 106:../../iot_link/os/liteos/base/include/__binary_tree.h ****  * __bit_grand - get the grand parent for a node
 107:../../iot_link/os/liteos/base/include/__binary_tree.h ****  * @n: the given node
 108:../../iot_link/os/liteos/base/include/__binary_tree.h ****  *
 109:../../iot_link/os/liteos/base/include/__binary_tree.h ****  * return: the grand parent of the node <n>, NULL if n or p(n) is NULL
 110:../../iot_link/os/liteos/base/include/__binary_tree.h ****  */
 111:../../iot_link/os/liteos/base/include/__binary_tree.h **** 
 112:../../iot_link/os/liteos/base/include/__binary_tree.h **** static inline bi_node_t * __bit_grand (bi_node_t * n)
 113:../../iot_link/os/liteos/base/include/__binary_tree.h **** {
 114:../../iot_link/os/liteos/base/include/__binary_tree.h ****     bi_node_t * p;
 115:../../iot_link/os/liteos/base/include/__binary_tree.h **** 
 116:../../iot_link/os/liteos/base/include/__binary_tree.h ****     if ((n == NULL) || ((p = __bit_parent (n)) == NULL))
 117:../../iot_link/os/liteos/base/include/__binary_tree.h ****     {
 118:../../iot_link/os/liteos/base/include/__binary_tree.h ****         return NULL;
 119:../../iot_link/os/liteos/base/include/__binary_tree.h ****     }
 120:../../iot_link/os/liteos/base/include/__binary_tree.h **** 
 121:../../iot_link/os/liteos/base/include/__binary_tree.h ****     return __bit_parent (p);
 122:../../iot_link/os/liteos/base/include/__binary_tree.h **** }
 123:../../iot_link/os/liteos/base/include/__binary_tree.h **** 
 124:../../iot_link/os/liteos/base/include/__binary_tree.h **** /**
 125:../../iot_link/os/liteos/base/include/__binary_tree.h ****  * __bit_raw_uncle - get the uncle for a node, assume n, p(n) and g(n) are not NULL
 126:../../iot_link/os/liteos/base/include/__binary_tree.h ****  * @n: the given node
 127:../../iot_link/os/liteos/base/include/__binary_tree.h ****  *
 128:../../iot_link/os/liteos/base/include/__binary_tree.h ****  * return: the uncle of the node <n>
 129:../../iot_link/os/liteos/base/include/__binary_tree.h ****  */
 130:../../iot_link/os/liteos/base/include/__binary_tree.h **** 
 131:../../iot_link/os/liteos/base/include/__binary_tree.h **** static inline bi_node_t * __bit_raw_uncle (bi_node_t * n)
 132:../../iot_link/os/liteos/base/include/__binary_tree.h **** {
 133:../../iot_link/os/liteos/base/include/__binary_tree.h ****     bi_node_t * p = __bit_parent (n);
 134:../../iot_link/os/liteos/base/include/__binary_tree.h ****     bi_node_t * g = __bit_raw_grand (n);
 135:../../iot_link/os/liteos/base/include/__binary_tree.h **** 
 136:../../iot_link/os/liteos/base/include/__binary_tree.h ****     return p == g->l ? g->r : g->l;
 137:../../iot_link/os/liteos/base/include/__binary_tree.h **** }
 138:../../iot_link/os/liteos/base/include/__binary_tree.h **** 
 139:../../iot_link/os/liteos/base/include/__binary_tree.h **** /**
 140:../../iot_link/os/liteos/base/include/__binary_tree.h ****  * __bit_uncle - get the uncle for a node
 141:../../iot_link/os/liteos/base/include/__binary_tree.h ****  * @n: the given node
 142:../../iot_link/os/liteos/base/include/__binary_tree.h ****  *
 143:../../iot_link/os/liteos/base/include/__binary_tree.h ****  * return: the uncle of the node <n>, NULL if n, p(n) or g(n) is NULL
 144:../../iot_link/os/liteos/base/include/__binary_tree.h ****  */
 145:../../iot_link/os/liteos/base/include/__binary_tree.h **** 
 146:../../iot_link/os/liteos/base/include/__binary_tree.h **** static inline bi_node_t * __bit_uncle (bi_node_t * n)
ARM GAS  C:\Users\LuckyE\AppData\Local\Temp\ccx4tDom.s 			page 4


 147:../../iot_link/os/liteos/base/include/__binary_tree.h **** {
 148:../../iot_link/os/liteos/base/include/__binary_tree.h ****     bi_node_t * p;
 149:../../iot_link/os/liteos/base/include/__binary_tree.h ****     bi_node_t * g;
 150:../../iot_link/os/liteos/base/include/__binary_tree.h **** 
 151:../../iot_link/os/liteos/base/include/__binary_tree.h ****     if (n == NULL)
 152:../../iot_link/os/liteos/base/include/__binary_tree.h ****     {
 153:../../iot_link/os/liteos/base/include/__binary_tree.h ****         return NULL;
 154:../../iot_link/os/liteos/base/include/__binary_tree.h ****     }
 155:../../iot_link/os/liteos/base/include/__binary_tree.h **** 
 156:../../iot_link/os/liteos/base/include/__binary_tree.h ****     if ((p = __bit_parent (n)) == NULL)
 157:../../iot_link/os/liteos/base/include/__binary_tree.h ****     {
 158:../../iot_link/os/liteos/base/include/__binary_tree.h ****         return NULL;
 159:../../iot_link/os/liteos/base/include/__binary_tree.h ****     }
 160:../../iot_link/os/liteos/base/include/__binary_tree.h **** 
 161:../../iot_link/os/liteos/base/include/__binary_tree.h ****     if ((g = __bit_parent (p)) == NULL)
 162:../../iot_link/os/liteos/base/include/__binary_tree.h ****     {
 163:../../iot_link/os/liteos/base/include/__binary_tree.h ****         return NULL;
 164:../../iot_link/os/liteos/base/include/__binary_tree.h ****     }
 165:../../iot_link/os/liteos/base/include/__binary_tree.h **** 
 166:../../iot_link/os/liteos/base/include/__binary_tree.h ****     return p == g->l ? g->r : g->l;
 167:../../iot_link/os/liteos/base/include/__binary_tree.h **** }
 168:../../iot_link/os/liteos/base/include/__binary_tree.h **** 
 169:../../iot_link/os/liteos/base/include/__binary_tree.h **** /**
 170:../../iot_link/os/liteos/base/include/__binary_tree.h ****  * __bit_successor - the successor node of a node
 171:../../iot_link/os/liteos/base/include/__binary_tree.h ****  * @n: the given node
 172:../../iot_link/os/liteos/base/include/__binary_tree.h ****  *
 173:../../iot_link/os/liteos/base/include/__binary_tree.h ****  * return: the successor of <n>
 174:../../iot_link/os/liteos/base/include/__binary_tree.h ****  */
 175:../../iot_link/os/liteos/base/include/__binary_tree.h **** 
 176:../../iot_link/os/liteos/base/include/__binary_tree.h **** static inline bi_node_t * __bit_successor (bi_node_t * n)
 177:../../iot_link/os/liteos/base/include/__binary_tree.h **** {
  27              		.loc 1 177 0
  28              		.cfi_startproc
  29              		@ args = 0, pretend = 0, frame = 0
  30              		@ frame_needed = 0, uses_anonymous_args = 0
  31              		@ link register save eliminated.
  32              	.LVL0:
 178:../../iot_link/os/liteos/base/include/__binary_tree.h ****     bi_node_t * s = n->r;
  33              		.loc 1 178 0
  34 0000 8368     		ldr	r3, [r0, #8]
  35              	.LVL1:
 179:../../iot_link/os/liteos/base/include/__binary_tree.h **** 
 180:../../iot_link/os/liteos/base/include/__binary_tree.h ****     if (s != NULL)
  36              		.loc 1 180 0
  37 0002 3BB9     		cbnz	r3, .L3
  38              	.LVL2:
  39              	.L2:
 181:../../iot_link/os/liteos/base/include/__binary_tree.h ****     {
 182:../../iot_link/os/liteos/base/include/__binary_tree.h ****         while (s->l)
 183:../../iot_link/os/liteos/base/include/__binary_tree.h ****         {
 184:../../iot_link/os/liteos/base/include/__binary_tree.h ****             s = s->l;
 185:../../iot_link/os/liteos/base/include/__binary_tree.h ****         }
 186:../../iot_link/os/liteos/base/include/__binary_tree.h **** 
 187:../../iot_link/os/liteos/base/include/__binary_tree.h ****         return s;
 188:../../iot_link/os/liteos/base/include/__binary_tree.h ****     }
 189:../../iot_link/os/liteos/base/include/__binary_tree.h **** 
 190:../../iot_link/os/liteos/base/include/__binary_tree.h ****     while (n->p && (n == n->p->r))
ARM GAS  C:\Users\LuckyE\AppData\Local\Temp\ccx4tDom.s 			page 5


  40              		.loc 1 190 0
  41 0004 0368     		ldr	r3, [r0]
  42 0006 43B1     		cbz	r3, .L1
  43              		.loc 1 190 0 is_stmt 0 discriminator 1
  44 0008 9A68     		ldr	r2, [r3, #8]
  45 000a 8242     		cmp	r2, r0
  46 000c 05D1     		bne	.L1
  47 000e 1846     		mov	r0, r3
  48              	.LVL3:
  49 0010 F8E7     		b	.L2
  50              	.LVL4:
  51              	.L5:
  52 0012 1346     		mov	r3, r2
  53              	.LVL5:
  54              	.L3:
 182:../../iot_link/os/liteos/base/include/__binary_tree.h ****         {
  55              		.loc 1 182 0 is_stmt 1
  56 0014 5A68     		ldr	r2, [r3, #4]
  57 0016 002A     		cmp	r2, #0
  58 0018 FBD1     		bne	.L5
  59              	.LVL6:
  60              	.L1:
 191:../../iot_link/os/liteos/base/include/__binary_tree.h ****     {
 192:../../iot_link/os/liteos/base/include/__binary_tree.h ****         n = n->p;
 193:../../iot_link/os/liteos/base/include/__binary_tree.h ****     }
 194:../../iot_link/os/liteos/base/include/__binary_tree.h **** 
 195:../../iot_link/os/liteos/base/include/__binary_tree.h ****     return n->p;
 196:../../iot_link/os/liteos/base/include/__binary_tree.h **** }
  61              		.loc 1 196 0
  62 001a 1846     		mov	r0, r3
  63              	.LVL7:
  64 001c 7047     		bx	lr
  65              		.cfi_endproc
  66              	.LFE6:
  68              		.section	.text.__is_black,"ax",%progbits
  69              		.align	1
  70              		.syntax unified
  71              		.thumb
  72              		.thumb_func
  73              		.fpu fpv4-sp-d16
  75              	__is_black:
  76              	.LFB25:
  77              		.file 2 "../../iot_link/os/liteos/utils/rbtree.c"
   1:../../iot_link/os/liteos/utils/rbtree.c **** /*----------------------------------------------------------------------------
   2:../../iot_link/os/liteos/utils/rbtree.c ****  * Copyright (c) <2018>, <Huawei Technologies Co., Ltd>
   3:../../iot_link/os/liteos/utils/rbtree.c ****  * All rights reserved.
   4:../../iot_link/os/liteos/utils/rbtree.c ****  * Redistribution and use in source and binary forms, with or without modification,
   5:../../iot_link/os/liteos/utils/rbtree.c ****  * are permitted provided that the following conditions are met:
   6:../../iot_link/os/liteos/utils/rbtree.c ****  * 1. Redistributions of source code must retain the above copyright notice, this list of
   7:../../iot_link/os/liteos/utils/rbtree.c ****  * conditions and the following disclaimer.
   8:../../iot_link/os/liteos/utils/rbtree.c ****  * 2. Redistributions in binary form must reproduce the above copyright notice, this list
   9:../../iot_link/os/liteos/utils/rbtree.c ****  * of conditions and the following disclaimer in the documentation and/or other materials
  10:../../iot_link/os/liteos/utils/rbtree.c ****  * provided with the distribution.
  11:../../iot_link/os/liteos/utils/rbtree.c ****  * 3. Neither the name of the copyright holder nor the names of its contributors may be used
  12:../../iot_link/os/liteos/utils/rbtree.c ****  * to endorse or promote products derived from this software without specific prior written
  13:../../iot_link/os/liteos/utils/rbtree.c ****  * permission.
  14:../../iot_link/os/liteos/utils/rbtree.c ****  * THIS SOFTWARE IS PROVIDED BY THE COPYRIGHT HOLDERS AND CONTRIBUTORS
ARM GAS  C:\Users\LuckyE\AppData\Local\Temp\ccx4tDom.s 			page 6


  15:../../iot_link/os/liteos/utils/rbtree.c ****  * "AS IS" AND ANY EXPRESS OR IMPLIED WARRANTIES, INCLUDING, BUT NOT LIMITED TO,
  16:../../iot_link/os/liteos/utils/rbtree.c ****  * THE IMPLIED WARRANTIES OF MERCHANTABILITY AND FITNESS FOR A PARTICULAR
  17:../../iot_link/os/liteos/utils/rbtree.c ****  * PURPOSE ARE DISCLAIMED. IN NO EVENT SHALL THE COPYRIGHT HOLDER OR
  18:../../iot_link/os/liteos/utils/rbtree.c ****  * CONTRIBUTORS BE LIABLE FOR ANY DIRECT, INDIRECT, INCIDENTAL, SPECIAL,
  19:../../iot_link/os/liteos/utils/rbtree.c ****  * EXEMPLARY, OR CONSEQUENTIAL DAMAGES (INCLUDING, BUT NOT LIMITED TO,
  20:../../iot_link/os/liteos/utils/rbtree.c ****  * PROCUREMENT OF SUBSTITUTE GOODS OR SERVICES; LOSS OF USE, DATA, OR PROFITS;
  21:../../iot_link/os/liteos/utils/rbtree.c ****  * OR BUSINESS INTERRUPTION) HOWEVER CAUSED AND ON ANY THEORY OF LIABILITY,
  22:../../iot_link/os/liteos/utils/rbtree.c ****  * WHETHER IN CONTRACT, STRICT LIABILITY, OR TORT (INCLUDING NEGLIGENCE OR
  23:../../iot_link/os/liteos/utils/rbtree.c ****  * OTHERWISE) ARISING IN ANY WAY OUT OF THE USE OF THIS SOFTWARE, EVEN IF
  24:../../iot_link/os/liteos/utils/rbtree.c ****  * ADVISED OF THE POSSIBILITY OF SUCH DAMAGE.
  25:../../iot_link/os/liteos/utils/rbtree.c ****  *---------------------------------------------------------------------------*/
  26:../../iot_link/os/liteos/utils/rbtree.c **** /*----------------------------------------------------------------------------
  27:../../iot_link/os/liteos/utils/rbtree.c ****  * Notice of Export Control Law
  28:../../iot_link/os/liteos/utils/rbtree.c ****  * ===============================================
  29:../../iot_link/os/liteos/utils/rbtree.c ****  * Huawei LiteOS may be subject to applicable export control laws and regulations, which might
  30:../../iot_link/os/liteos/utils/rbtree.c ****  * include those applicable to Huawei LiteOS of U.S. and the country in which you are located.
  31:../../iot_link/os/liteos/utils/rbtree.c ****  * Import, export and usage of Huawei LiteOS in any manner by you shall be in compliance with such
  32:../../iot_link/os/liteos/utils/rbtree.c ****  * applicable export control laws and regulations.
  33:../../iot_link/os/liteos/utils/rbtree.c ****  *---------------------------------------------------------------------------*/
  34:../../iot_link/os/liteos/utils/rbtree.c **** 
  35:../../iot_link/os/liteos/utils/rbtree.c **** #include <stdbool.h>
  36:../../iot_link/os/liteos/utils/rbtree.c **** 
  37:../../iot_link/os/liteos/utils/rbtree.c **** #include <rbtree.h>
  38:../../iot_link/os/liteos/utils/rbtree.c **** 
  39:../../iot_link/os/liteos/utils/rbtree.c **** /* defines */
  40:../../iot_link/os/liteos/utils/rbtree.c **** 
  41:../../iot_link/os/liteos/utils/rbtree.c **** /* inlines */
  42:../../iot_link/os/liteos/utils/rbtree.c **** 
  43:../../iot_link/os/liteos/utils/rbtree.c **** /**
  44:../../iot_link/os/liteos/utils/rbtree.c ****  * __color - get the color of a given node
  45:../../iot_link/os/liteos/utils/rbtree.c ****  * @n: the given node
  46:../../iot_link/os/liteos/utils/rbtree.c ****  *
  47:../../iot_link/os/liteos/utils/rbtree.c ****  * return: the color of <n>
  48:../../iot_link/os/liteos/utils/rbtree.c ****  */
  49:../../iot_link/os/liteos/utils/rbtree.c **** 
  50:../../iot_link/os/liteos/utils/rbtree.c **** static inline int __color (rb_node_t * n)
  51:../../iot_link/os/liteos/utils/rbtree.c **** {
  52:../../iot_link/os/liteos/utils/rbtree.c ****     return n->c;
  53:../../iot_link/os/liteos/utils/rbtree.c **** }
  54:../../iot_link/os/liteos/utils/rbtree.c **** 
  55:../../iot_link/os/liteos/utils/rbtree.c **** /**
  56:../../iot_link/os/liteos/utils/rbtree.c ****  * __raw_is_red - check if a node is red, assume <n> is not NULL
  57:../../iot_link/os/liteos/utils/rbtree.c ****  * @n: the given node
  58:../../iot_link/os/liteos/utils/rbtree.c ****  *
  59:../../iot_link/os/liteos/utils/rbtree.c ****  * return: true if <n> is red, false if not.
  60:../../iot_link/os/liteos/utils/rbtree.c ****  */
  61:../../iot_link/os/liteos/utils/rbtree.c **** 
  62:../../iot_link/os/liteos/utils/rbtree.c **** static inline int __raw_is_red (rb_node_t * n)
  63:../../iot_link/os/liteos/utils/rbtree.c **** {
  64:../../iot_link/os/liteos/utils/rbtree.c ****     return __color (n) == RBTREE_RED;
  65:../../iot_link/os/liteos/utils/rbtree.c **** }
  66:../../iot_link/os/liteos/utils/rbtree.c **** 
  67:../../iot_link/os/liteos/utils/rbtree.c **** /**
  68:../../iot_link/os/liteos/utils/rbtree.c ****  * __is_red - check if a node is red
  69:../../iot_link/os/liteos/utils/rbtree.c ****  * @n: the given node
  70:../../iot_link/os/liteos/utils/rbtree.c ****  *
  71:../../iot_link/os/liteos/utils/rbtree.c ****  * return: true if <n> is red, false if not, or <n> is NULL.
ARM GAS  C:\Users\LuckyE\AppData\Local\Temp\ccx4tDom.s 			page 7


  72:../../iot_link/os/liteos/utils/rbtree.c ****  */
  73:../../iot_link/os/liteos/utils/rbtree.c **** 
  74:../../iot_link/os/liteos/utils/rbtree.c **** static inline int __is_red (rb_node_t * n)
  75:../../iot_link/os/liteos/utils/rbtree.c **** {
  76:../../iot_link/os/liteos/utils/rbtree.c ****     return (n != NULL) && __raw_is_red (n);
  77:../../iot_link/os/liteos/utils/rbtree.c **** }
  78:../../iot_link/os/liteos/utils/rbtree.c **** 
  79:../../iot_link/os/liteos/utils/rbtree.c **** /**
  80:../../iot_link/os/liteos/utils/rbtree.c ****  * __raw_is_black - check if a node is black, assume <n> is not NULL
  81:../../iot_link/os/liteos/utils/rbtree.c ****  * @n: the given node
  82:../../iot_link/os/liteos/utils/rbtree.c ****  *
  83:../../iot_link/os/liteos/utils/rbtree.c ****  * return: true if <n> is red, false if not.
  84:../../iot_link/os/liteos/utils/rbtree.c ****  */
  85:../../iot_link/os/liteos/utils/rbtree.c **** 
  86:../../iot_link/os/liteos/utils/rbtree.c **** static inline int __raw_is_black (rb_node_t * n)
  87:../../iot_link/os/liteos/utils/rbtree.c **** {
  88:../../iot_link/os/liteos/utils/rbtree.c ****     return __color (n) == RBTREE_BLACK;
  89:../../iot_link/os/liteos/utils/rbtree.c **** }
  90:../../iot_link/os/liteos/utils/rbtree.c **** 
  91:../../iot_link/os/liteos/utils/rbtree.c **** /**
  92:../../iot_link/os/liteos/utils/rbtree.c ****  * __is_black - check if a node is black
  93:../../iot_link/os/liteos/utils/rbtree.c ****  * @n: the given node
  94:../../iot_link/os/liteos/utils/rbtree.c ****  *
  95:../../iot_link/os/liteos/utils/rbtree.c ****  * return: true if <n> is black or NULL, false otherwise.
  96:../../iot_link/os/liteos/utils/rbtree.c ****  */
  97:../../iot_link/os/liteos/utils/rbtree.c **** 
  98:../../iot_link/os/liteos/utils/rbtree.c **** static inline int __is_black (rb_node_t * n)
  99:../../iot_link/os/liteos/utils/rbtree.c **** {
  78              		.loc 2 99 0
  79              		.cfi_startproc
  80              		@ args = 0, pretend = 0, frame = 0
  81              		@ frame_needed = 0, uses_anonymous_args = 0
  82              		@ link register save eliminated.
  83              	.LVL8:
 100:../../iot_link/os/liteos/utils/rbtree.c ****     return (n == NULL) || __raw_is_black (n);
  84              		.loc 2 100 0
  85 0000 20B1     		cbz	r0, .L14
  86              	.LVL9:
  87 0002 C068     		ldr	r0, [r0, #12]
  88              	.LVL10:
  89 0004 431E     		subs	r3, r0, #1
  90 0006 5842     		rsbs	r0, r3, #0
  91 0008 5841     		adcs	r0, r0, r3
  92 000a 7047     		bx	lr
  93              	.LVL11:
  94              	.L14:
  95 000c 0120     		movs	r0, #1
  96              	.LVL12:
 101:../../iot_link/os/liteos/utils/rbtree.c **** }
  97              		.loc 2 101 0
  98 000e 7047     		bx	lr
  99              		.cfi_endproc
 100              	.LFE25:
 102              		.section	.text.__bit_rotate_right.isra.4,"ax",%progbits
 103              		.align	1
 104              		.syntax unified
 105              		.thumb
ARM GAS  C:\Users\LuckyE\AppData\Local\Temp\ccx4tDom.s 			page 8


 106              		.thumb_func
 107              		.fpu fpv4-sp-d16
 109              	__bit_rotate_right.isra.4:
 110              	.LFB63:
 197:../../iot_link/os/liteos/base/include/__binary_tree.h **** 
 198:../../iot_link/os/liteos/base/include/__binary_tree.h **** /**
 199:../../iot_link/os/liteos/base/include/__binary_tree.h ****  * __bit_predecessor - the predecessor node of a node
 200:../../iot_link/os/liteos/base/include/__binary_tree.h ****  * @n: the given node
 201:../../iot_link/os/liteos/base/include/__binary_tree.h ****  *
 202:../../iot_link/os/liteos/base/include/__binary_tree.h ****  * return: the predecessor of <n>
 203:../../iot_link/os/liteos/base/include/__binary_tree.h ****  */
 204:../../iot_link/os/liteos/base/include/__binary_tree.h **** 
 205:../../iot_link/os/liteos/base/include/__binary_tree.h **** static inline bi_node_t * __bit_predecessor (bi_node_t * n)
 206:../../iot_link/os/liteos/base/include/__binary_tree.h **** {
 207:../../iot_link/os/liteos/base/include/__binary_tree.h ****     bi_node_t * p = n->l;
 208:../../iot_link/os/liteos/base/include/__binary_tree.h **** 
 209:../../iot_link/os/liteos/base/include/__binary_tree.h ****     if (p != NULL)
 210:../../iot_link/os/liteos/base/include/__binary_tree.h ****     {
 211:../../iot_link/os/liteos/base/include/__binary_tree.h ****         while (p->r)
 212:../../iot_link/os/liteos/base/include/__binary_tree.h ****         {
 213:../../iot_link/os/liteos/base/include/__binary_tree.h ****             p = p->r;
 214:../../iot_link/os/liteos/base/include/__binary_tree.h ****         }
 215:../../iot_link/os/liteos/base/include/__binary_tree.h **** 
 216:../../iot_link/os/liteos/base/include/__binary_tree.h ****         return p;
 217:../../iot_link/os/liteos/base/include/__binary_tree.h ****     }
 218:../../iot_link/os/liteos/base/include/__binary_tree.h **** 
 219:../../iot_link/os/liteos/base/include/__binary_tree.h ****     while (n->p && (n == n->p->l))
 220:../../iot_link/os/liteos/base/include/__binary_tree.h ****     {
 221:../../iot_link/os/liteos/base/include/__binary_tree.h ****         n = n->p;
 222:../../iot_link/os/liteos/base/include/__binary_tree.h ****     }
 223:../../iot_link/os/liteos/base/include/__binary_tree.h **** 
 224:../../iot_link/os/liteos/base/include/__binary_tree.h ****     return n->p;
 225:../../iot_link/os/liteos/base/include/__binary_tree.h **** }
 226:../../iot_link/os/liteos/base/include/__binary_tree.h **** 
 227:../../iot_link/os/liteos/base/include/__binary_tree.h **** /**
 228:../../iot_link/os/liteos/base/include/__binary_tree.h ****  * __bit_find_eq - find a given key in a tree
 229:../../iot_link/os/liteos/base/include/__binary_tree.h ****  * @r: the given tree root
 230:../../iot_link/os/liteos/base/include/__binary_tree.h ****  * @k: the key value
 231:../../iot_link/os/liteos/base/include/__binary_tree.h ****  *
 232:../../iot_link/os/liteos/base/include/__binary_tree.h ****  * return: the node with key = <k>, or NULL if key not found.
 233:../../iot_link/os/liteos/base/include/__binary_tree.h ****  */
 234:../../iot_link/os/liteos/base/include/__binary_tree.h **** 
 235:../../iot_link/os/liteos/base/include/__binary_tree.h **** static inline bi_node_t * __bit_find_eq (bi_tree_t * t, uintptr_t k)
 236:../../iot_link/os/liteos/base/include/__binary_tree.h **** {
 237:../../iot_link/os/liteos/base/include/__binary_tree.h ****     bi_node_t * w = t->r;
 238:../../iot_link/os/liteos/base/include/__binary_tree.h **** 
 239:../../iot_link/os/liteos/base/include/__binary_tree.h ****     while (w != NULL)
 240:../../iot_link/os/liteos/base/include/__binary_tree.h ****     {
 241:../../iot_link/os/liteos/base/include/__binary_tree.h ****         int          c = t->compare_nk (w, k);
 242:../../iot_link/os/liteos/base/include/__binary_tree.h **** 
 243:../../iot_link/os/liteos/base/include/__binary_tree.h ****         if (c == 0)
 244:../../iot_link/os/liteos/base/include/__binary_tree.h ****         {
 245:../../iot_link/os/liteos/base/include/__binary_tree.h ****             break;
 246:../../iot_link/os/liteos/base/include/__binary_tree.h ****         }
 247:../../iot_link/os/liteos/base/include/__binary_tree.h **** 
 248:../../iot_link/os/liteos/base/include/__binary_tree.h ****         w = c < 0 ? w->r : w->l;
 249:../../iot_link/os/liteos/base/include/__binary_tree.h ****     }
ARM GAS  C:\Users\LuckyE\AppData\Local\Temp\ccx4tDom.s 			page 9


 250:../../iot_link/os/liteos/base/include/__binary_tree.h **** 
 251:../../iot_link/os/liteos/base/include/__binary_tree.h ****     return w;
 252:../../iot_link/os/liteos/base/include/__binary_tree.h **** }
 253:../../iot_link/os/liteos/base/include/__binary_tree.h **** 
 254:../../iot_link/os/liteos/base/include/__binary_tree.h **** /**
 255:../../iot_link/os/liteos/base/include/__binary_tree.h ****  * __bit_find_cond_xt - find a node that is just greater or less than the given value
 256:../../iot_link/os/liteos/base/include/__binary_tree.h ****  * @t:    the given tree
 257:../../iot_link/os/liteos/base/include/__binary_tree.h ****  * @k:    the key value
 258:../../iot_link/os/liteos/base/include/__binary_tree.h ****  * @cond: the condition, '>' or '<'
 259:../../iot_link/os/liteos/base/include/__binary_tree.h ****  *
 260:../../iot_link/os/liteos/base/include/__binary_tree.h ****  * return: the nearest node with key greater or less than <k>, or NULL if key not found.
 261:../../iot_link/os/liteos/base/include/__binary_tree.h ****  */
 262:../../iot_link/os/liteos/base/include/__binary_tree.h **** 
 263:../../iot_link/os/liteos/base/include/__binary_tree.h **** #define __bit_find_cond_xt(t, k, cond)                  \
 264:../../iot_link/os/liteos/base/include/__binary_tree.h **** do {                                                    \
 265:../../iot_link/os/liteos/base/include/__binary_tree.h ****     bi_node_t * l = NULL; /* last one */                \
 266:../../iot_link/os/liteos/base/include/__binary_tree.h ****     bi_node_t * w = t->r;                               \
 267:../../iot_link/os/liteos/base/include/__binary_tree.h ****                                                         \
 268:../../iot_link/os/liteos/base/include/__binary_tree.h ****     while (w != NULL)                                   \
 269:../../iot_link/os/liteos/base/include/__binary_tree.h ****     {                                               \
 270:../../iot_link/os/liteos/base/include/__binary_tree.h ****         int     c = t->compare_nk (w, k);               \
 271:../../iot_link/os/liteos/base/include/__binary_tree.h ****                                                         \
 272:../../iot_link/os/liteos/base/include/__binary_tree.h ****         if (c cond 0)                                   \
 273:../../iot_link/os/liteos/base/include/__binary_tree.h ****         {                                           \
 274:../../iot_link/os/liteos/base/include/__binary_tree.h ****             l = w;                                      \
 275:../../iot_link/os/liteos/base/include/__binary_tree.h ****         }                                           \
 276:../../iot_link/os/liteos/base/include/__binary_tree.h ****                                                         \
 277:../../iot_link/os/liteos/base/include/__binary_tree.h ****         w = c < 0 ? w->r : w->l;                        \
 278:../../iot_link/os/liteos/base/include/__binary_tree.h ****     }                                               \
 279:../../iot_link/os/liteos/base/include/__binary_tree.h ****                                                         \
 280:../../iot_link/os/liteos/base/include/__binary_tree.h ****     return l;                                           \
 281:../../iot_link/os/liteos/base/include/__binary_tree.h **** } while (0)
 282:../../iot_link/os/liteos/base/include/__binary_tree.h **** 
 283:../../iot_link/os/liteos/base/include/__binary_tree.h **** /**
 284:../../iot_link/os/liteos/base/include/__binary_tree.h ****  * __bit_find_gt - find a node that is just greater to the given value
 285:../../iot_link/os/liteos/base/include/__binary_tree.h ****  * @t: the given tree
 286:../../iot_link/os/liteos/base/include/__binary_tree.h ****  * @k: the key value
 287:../../iot_link/os/liteos/base/include/__binary_tree.h ****  *
 288:../../iot_link/os/liteos/base/include/__binary_tree.h ****  * return: the nearest node with key > <k>, NULL or if key not found.
 289:../../iot_link/os/liteos/base/include/__binary_tree.h ****  */
 290:../../iot_link/os/liteos/base/include/__binary_tree.h **** 
 291:../../iot_link/os/liteos/base/include/__binary_tree.h **** static inline bi_node_t * __bit_find_gt (bi_tree_t * t, uintptr_t k)
 292:../../iot_link/os/liteos/base/include/__binary_tree.h **** {
 293:../../iot_link/os/liteos/base/include/__binary_tree.h ****     __bit_find_cond_xt (t, k, >);
 294:../../iot_link/os/liteos/base/include/__binary_tree.h **** }
 295:../../iot_link/os/liteos/base/include/__binary_tree.h **** 
 296:../../iot_link/os/liteos/base/include/__binary_tree.h **** /**
 297:../../iot_link/os/liteos/base/include/__binary_tree.h ****  * __bit_find_lt - find a node that is just less to the given value
 298:../../iot_link/os/liteos/base/include/__binary_tree.h ****  * @t: the given tree
 299:../../iot_link/os/liteos/base/include/__binary_tree.h ****  * @k: the key value
 300:../../iot_link/os/liteos/base/include/__binary_tree.h ****  *
 301:../../iot_link/os/liteos/base/include/__binary_tree.h ****  * return: the nearest node with key < <k>, NULL or if key not found.
 302:../../iot_link/os/liteos/base/include/__binary_tree.h ****  */
 303:../../iot_link/os/liteos/base/include/__binary_tree.h **** 
 304:../../iot_link/os/liteos/base/include/__binary_tree.h **** static inline bi_node_t * __bit_find_lt (bi_tree_t * t, uintptr_t k)
 305:../../iot_link/os/liteos/base/include/__binary_tree.h **** {
 306:../../iot_link/os/liteos/base/include/__binary_tree.h ****     __bit_find_cond_xt (t, k, <);
ARM GAS  C:\Users\LuckyE\AppData\Local\Temp\ccx4tDom.s 			page 10


 307:../../iot_link/os/liteos/base/include/__binary_tree.h **** }
 308:../../iot_link/os/liteos/base/include/__binary_tree.h **** 
 309:../../iot_link/os/liteos/base/include/__binary_tree.h **** /**
 310:../../iot_link/os/liteos/base/include/__binary_tree.h ****  * __bit_first - find the first node of the tree
 311:../../iot_link/os/liteos/base/include/__binary_tree.h ****  * @t: the given tree
 312:../../iot_link/os/liteos/base/include/__binary_tree.h ****  *
 313:../../iot_link/os/liteos/base/include/__binary_tree.h ****  * return: the first node, or NULL if the tree is empty
 314:../../iot_link/os/liteos/base/include/__binary_tree.h ****  */
 315:../../iot_link/os/liteos/base/include/__binary_tree.h **** 
 316:../../iot_link/os/liteos/base/include/__binary_tree.h **** static inline bi_node_t * __bit_first (bi_tree_t * t)
 317:../../iot_link/os/liteos/base/include/__binary_tree.h **** {
 318:../../iot_link/os/liteos/base/include/__binary_tree.h ****     bi_node_t * n = t->r;
 319:../../iot_link/os/liteos/base/include/__binary_tree.h **** 
 320:../../iot_link/os/liteos/base/include/__binary_tree.h ****     if (n != NULL)
 321:../../iot_link/os/liteos/base/include/__binary_tree.h ****     {
 322:../../iot_link/os/liteos/base/include/__binary_tree.h ****         while (n->l != NULL)
 323:../../iot_link/os/liteos/base/include/__binary_tree.h ****         {
 324:../../iot_link/os/liteos/base/include/__binary_tree.h ****             n = n->l;
 325:../../iot_link/os/liteos/base/include/__binary_tree.h ****         }
 326:../../iot_link/os/liteos/base/include/__binary_tree.h ****     }
 327:../../iot_link/os/liteos/base/include/__binary_tree.h **** 
 328:../../iot_link/os/liteos/base/include/__binary_tree.h ****     return n;
 329:../../iot_link/os/liteos/base/include/__binary_tree.h **** }
 330:../../iot_link/os/liteos/base/include/__binary_tree.h **** 
 331:../../iot_link/os/liteos/base/include/__binary_tree.h **** /**
 332:../../iot_link/os/liteos/base/include/__binary_tree.h ****  * __bit_last - find the last node of the tree
 333:../../iot_link/os/liteos/base/include/__binary_tree.h ****  * @t: the given tree
 334:../../iot_link/os/liteos/base/include/__binary_tree.h ****  *
 335:../../iot_link/os/liteos/base/include/__binary_tree.h ****  * return: the last node, or NULL if the tree is empty
 336:../../iot_link/os/liteos/base/include/__binary_tree.h ****  */
 337:../../iot_link/os/liteos/base/include/__binary_tree.h **** 
 338:../../iot_link/os/liteos/base/include/__binary_tree.h **** static inline bi_node_t * __bit_last (bi_tree_t * t)
 339:../../iot_link/os/liteos/base/include/__binary_tree.h **** {
 340:../../iot_link/os/liteos/base/include/__binary_tree.h ****     bi_node_t * n = t->r;
 341:../../iot_link/os/liteos/base/include/__binary_tree.h **** 
 342:../../iot_link/os/liteos/base/include/__binary_tree.h ****     if (n != NULL)
 343:../../iot_link/os/liteos/base/include/__binary_tree.h ****     {
 344:../../iot_link/os/liteos/base/include/__binary_tree.h ****         while (n->r != NULL)
 345:../../iot_link/os/liteos/base/include/__binary_tree.h ****         {
 346:../../iot_link/os/liteos/base/include/__binary_tree.h ****             n = n->r;
 347:../../iot_link/os/liteos/base/include/__binary_tree.h ****         }
 348:../../iot_link/os/liteos/base/include/__binary_tree.h ****     }
 349:../../iot_link/os/liteos/base/include/__binary_tree.h **** 
 350:../../iot_link/os/liteos/base/include/__binary_tree.h ****     return n;
 351:../../iot_link/os/liteos/base/include/__binary_tree.h **** }
 352:../../iot_link/os/liteos/base/include/__binary_tree.h **** 
 353:../../iot_link/os/liteos/base/include/__binary_tree.h **** /**
 354:../../iot_link/os/liteos/base/include/__binary_tree.h ****  * __bit_find_cond_xe - find a node that is just greater equal or less equal than
 355:../../iot_link/os/liteos/base/include/__binary_tree.h ****  *                      the given value
 356:../../iot_link/os/liteos/base/include/__binary_tree.h ****  * @t:    the given tree
 357:../../iot_link/os/liteos/base/include/__binary_tree.h ****  * @k:    the key value
 358:../../iot_link/os/liteos/base/include/__binary_tree.h ****  * @cond: the condition, '<=' or '>='
 359:../../iot_link/os/liteos/base/include/__binary_tree.h ****  *
 360:../../iot_link/os/liteos/base/include/__binary_tree.h ****  * return: the nearest node with key greater equal or less equal than <k>, or NULL
 361:../../iot_link/os/liteos/base/include/__binary_tree.h ****  *         if key not found.
 362:../../iot_link/os/liteos/base/include/__binary_tree.h ****  */
 363:../../iot_link/os/liteos/base/include/__binary_tree.h **** 
ARM GAS  C:\Users\LuckyE\AppData\Local\Temp\ccx4tDom.s 			page 11


 364:../../iot_link/os/liteos/base/include/__binary_tree.h **** #define __bit_find_cond_xe(t, k, cond)                  \
 365:../../iot_link/os/liteos/base/include/__binary_tree.h **** do {                                                    \
 366:../../iot_link/os/liteos/base/include/__binary_tree.h ****     bi_node_t * l = NULL; /* last one */                \
 367:../../iot_link/os/liteos/base/include/__binary_tree.h ****     bi_node_t * w = t->r;                               \
 368:../../iot_link/os/liteos/base/include/__binary_tree.h ****                                                         \
 369:../../iot_link/os/liteos/base/include/__binary_tree.h ****     while (w != NULL)                                   \
 370:../../iot_link/os/liteos/base/include/__binary_tree.h ****     {                                               \
 371:../../iot_link/os/liteos/base/include/__binary_tree.h ****         int     c = t->compare_nk (w, k);               \
 372:../../iot_link/os/liteos/base/include/__binary_tree.h ****                                                         \
 373:../../iot_link/os/liteos/base/include/__binary_tree.h ****         if (c == 0)                                     \
 374:../../iot_link/os/liteos/base/include/__binary_tree.h ****         {                                           \
 375:../../iot_link/os/liteos/base/include/__binary_tree.h ****             return w;                                   \
 376:../../iot_link/os/liteos/base/include/__binary_tree.h ****         }                                           \
 377:../../iot_link/os/liteos/base/include/__binary_tree.h ****                                                         \
 378:../../iot_link/os/liteos/base/include/__binary_tree.h ****         if (c cond 0)                                   \
 379:../../iot_link/os/liteos/base/include/__binary_tree.h ****         {                                           \
 380:../../iot_link/os/liteos/base/include/__binary_tree.h ****             l = w;                                      \
 381:../../iot_link/os/liteos/base/include/__binary_tree.h ****         }                                           \
 382:../../iot_link/os/liteos/base/include/__binary_tree.h ****                                                         \
 383:../../iot_link/os/liteos/base/include/__binary_tree.h ****         w = c < 0 ? w->r : w->l;                        \
 384:../../iot_link/os/liteos/base/include/__binary_tree.h ****     }                                               \
 385:../../iot_link/os/liteos/base/include/__binary_tree.h ****                                                         \
 386:../../iot_link/os/liteos/base/include/__binary_tree.h ****     return l;                                           \
 387:../../iot_link/os/liteos/base/include/__binary_tree.h **** } while (0)
 388:../../iot_link/os/liteos/base/include/__binary_tree.h **** 
 389:../../iot_link/os/liteos/base/include/__binary_tree.h **** /**
 390:../../iot_link/os/liteos/base/include/__binary_tree.h ****  * __bit_find_ge - find a node that is just greater or equal to the given value
 391:../../iot_link/os/liteos/base/include/__binary_tree.h ****  * @t: the given tree
 392:../../iot_link/os/liteos/base/include/__binary_tree.h ****  * @k: the key value
 393:../../iot_link/os/liteos/base/include/__binary_tree.h ****  *
 394:../../iot_link/os/liteos/base/include/__binary_tree.h ****  * return: the nearest node with key >= <k>, or NULL if key not found.
 395:../../iot_link/os/liteos/base/include/__binary_tree.h ****  */
 396:../../iot_link/os/liteos/base/include/__binary_tree.h **** 
 397:../../iot_link/os/liteos/base/include/__binary_tree.h **** static inline bi_node_t * __bit_find_ge (bi_tree_t * t, uintptr_t k)
 398:../../iot_link/os/liteos/base/include/__binary_tree.h **** {
 399:../../iot_link/os/liteos/base/include/__binary_tree.h ****     __bit_find_cond_xe (t, k, >=);
 400:../../iot_link/os/liteos/base/include/__binary_tree.h **** }
 401:../../iot_link/os/liteos/base/include/__binary_tree.h **** 
 402:../../iot_link/os/liteos/base/include/__binary_tree.h **** /**
 403:../../iot_link/os/liteos/base/include/__binary_tree.h ****  * __bit_find_le - find a node that is just less or equal to the given value
 404:../../iot_link/os/liteos/base/include/__binary_tree.h ****  * @t: the given tree
 405:../../iot_link/os/liteos/base/include/__binary_tree.h ****  * @k: the key value
 406:../../iot_link/os/liteos/base/include/__binary_tree.h ****  *
 407:../../iot_link/os/liteos/base/include/__binary_tree.h ****  * return: the nearest node with key <= <k>, of NULL if key not found.
 408:../../iot_link/os/liteos/base/include/__binary_tree.h ****  */
 409:../../iot_link/os/liteos/base/include/__binary_tree.h **** 
 410:../../iot_link/os/liteos/base/include/__binary_tree.h **** static inline bi_node_t * __bit_find_le (bi_tree_t * t, uintptr_t k)
 411:../../iot_link/os/liteos/base/include/__binary_tree.h **** {
 412:../../iot_link/os/liteos/base/include/__binary_tree.h ****     __bit_find_cond_xe (t, k, <=);
 413:../../iot_link/os/liteos/base/include/__binary_tree.h **** }
 414:../../iot_link/os/liteos/base/include/__binary_tree.h **** 
 415:../../iot_link/os/liteos/base/include/__binary_tree.h **** /**
 416:../../iot_link/os/liteos/base/include/__binary_tree.h ****  * __bit_node_get - find a existing node or create a new one for it
 417:../../iot_link/os/liteos/base/include/__binary_tree.h ****  * @r:      the given tree root
 418:../../iot_link/os/liteos/base/include/__binary_tree.h ****  * @k:      the key value
 419:../../iot_link/os/liteos/base/include/__binary_tree.h ****  * @new:    pointer to a bool value, set to true if node not found and created a
 420:../../iot_link/os/liteos/base/include/__binary_tree.h ****  *          new one
ARM GAS  C:\Users\LuckyE\AppData\Local\Temp\ccx4tDom.s 			page 12


 421:../../iot_link/os/liteos/base/include/__binary_tree.h ****  * @create: the node creating routine, <k> is the seconde argument
 422:../../iot_link/os/liteos/base/include/__binary_tree.h ****  * @arg:    the first argument of the <create> routine
 423:../../iot_link/os/liteos/base/include/__binary_tree.h ****  *
 424:../../iot_link/os/liteos/base/include/__binary_tree.h ****  * return: the node with key = <k>, or NULL if node not found and allocate fail.
 425:../../iot_link/os/liteos/base/include/__binary_tree.h ****  */
 426:../../iot_link/os/liteos/base/include/__binary_tree.h **** 
 427:../../iot_link/os/liteos/base/include/__binary_tree.h **** static inline bi_node_t * __bit_node_get (bi_tree_t * t, uintptr_t k, bool * new,
 428:../../iot_link/os/liteos/base/include/__binary_tree.h ****                                           bi_node_t * (* create) (uintptr_t, uintptr_t),
 429:../../iot_link/os/liteos/base/include/__binary_tree.h ****                                           uintptr_t arg)
 430:../../iot_link/os/liteos/base/include/__binary_tree.h **** {
 431:../../iot_link/os/liteos/base/include/__binary_tree.h ****     bi_node_t *  w = t->r;      /* walker, iterator */
 432:../../iot_link/os/liteos/base/include/__binary_tree.h ****     bi_node_t *  l;             /* last one */
 433:../../iot_link/os/liteos/base/include/__binary_tree.h ****     bi_node_t ** p;
 434:../../iot_link/os/liteos/base/include/__binary_tree.h ****     int          c;
 435:../../iot_link/os/liteos/base/include/__binary_tree.h **** 
 436:../../iot_link/os/liteos/base/include/__binary_tree.h ****     if (w == NULL)
 437:../../iot_link/os/liteos/base/include/__binary_tree.h ****     {
 438:../../iot_link/os/liteos/base/include/__binary_tree.h ****         w = create (k, arg);
 439:../../iot_link/os/liteos/base/include/__binary_tree.h **** 
 440:../../iot_link/os/liteos/base/include/__binary_tree.h ****         w->p = w->l = w->r = NULL;
 441:../../iot_link/os/liteos/base/include/__binary_tree.h ****         t->r = w;
 442:../../iot_link/os/liteos/base/include/__binary_tree.h **** 
 443:../../iot_link/os/liteos/base/include/__binary_tree.h ****         *new = true;
 444:../../iot_link/os/liteos/base/include/__binary_tree.h **** 
 445:../../iot_link/os/liteos/base/include/__binary_tree.h ****         return w;
 446:../../iot_link/os/liteos/base/include/__binary_tree.h ****     }
 447:../../iot_link/os/liteos/base/include/__binary_tree.h **** 
 448:../../iot_link/os/liteos/base/include/__binary_tree.h ****     while (1)
 449:../../iot_link/os/liteos/base/include/__binary_tree.h ****     {
 450:../../iot_link/os/liteos/base/include/__binary_tree.h ****         c = t->compare_nk (w, k);
 451:../../iot_link/os/liteos/base/include/__binary_tree.h **** 
 452:../../iot_link/os/liteos/base/include/__binary_tree.h ****         if (c == 0)
 453:../../iot_link/os/liteos/base/include/__binary_tree.h ****         {
 454:../../iot_link/os/liteos/base/include/__binary_tree.h ****             break;
 455:../../iot_link/os/liteos/base/include/__binary_tree.h ****         }
 456:../../iot_link/os/liteos/base/include/__binary_tree.h **** 
 457:../../iot_link/os/liteos/base/include/__binary_tree.h ****         l = w;
 458:../../iot_link/os/liteos/base/include/__binary_tree.h **** 
 459:../../iot_link/os/liteos/base/include/__binary_tree.h ****         p = c < 0 ? &l->r : &l->l;
 460:../../iot_link/os/liteos/base/include/__binary_tree.h ****         w = *p;
 461:../../iot_link/os/liteos/base/include/__binary_tree.h **** 
 462:../../iot_link/os/liteos/base/include/__binary_tree.h ****         if (w == NULL)
 463:../../iot_link/os/liteos/base/include/__binary_tree.h ****         {
 464:../../iot_link/os/liteos/base/include/__binary_tree.h ****             w = create (k, arg);
 465:../../iot_link/os/liteos/base/include/__binary_tree.h **** 
 466:../../iot_link/os/liteos/base/include/__binary_tree.h ****             if (w != NULL)
 467:../../iot_link/os/liteos/base/include/__binary_tree.h ****             {
 468:../../iot_link/os/liteos/base/include/__binary_tree.h ****                 w->p = l;
 469:../../iot_link/os/liteos/base/include/__binary_tree.h ****                 w->l = w->r = NULL;
 470:../../iot_link/os/liteos/base/include/__binary_tree.h **** 
 471:../../iot_link/os/liteos/base/include/__binary_tree.h ****                 *p   = w;
 472:../../iot_link/os/liteos/base/include/__binary_tree.h **** 
 473:../../iot_link/os/liteos/base/include/__binary_tree.h ****                 *new = true;
 474:../../iot_link/os/liteos/base/include/__binary_tree.h ****             }
 475:../../iot_link/os/liteos/base/include/__binary_tree.h **** 
 476:../../iot_link/os/liteos/base/include/__binary_tree.h ****             break;
 477:../../iot_link/os/liteos/base/include/__binary_tree.h ****         }
ARM GAS  C:\Users\LuckyE\AppData\Local\Temp\ccx4tDom.s 			page 13


 478:../../iot_link/os/liteos/base/include/__binary_tree.h ****     }
 479:../../iot_link/os/liteos/base/include/__binary_tree.h **** 
 480:../../iot_link/os/liteos/base/include/__binary_tree.h ****     return w;
 481:../../iot_link/os/liteos/base/include/__binary_tree.h **** }
 482:../../iot_link/os/liteos/base/include/__binary_tree.h **** 
 483:../../iot_link/os/liteos/base/include/__binary_tree.h **** /**
 484:../../iot_link/os/liteos/base/include/__binary_tree.h ****  * __bit_rotate - rotate a sub-tree from <f> to <t>
 485:../../iot_link/os/liteos/base/include/__binary_tree.h ****  * @T: the given tree
 486:../../iot_link/os/liteos/base/include/__binary_tree.h ****  * @n: the sub-tree
 487:../../iot_link/os/liteos/base/include/__binary_tree.h ****  * @f: the form-side
 488:../../iot_link/os/liteos/base/include/__binary_tree.h ****  * @t: the to-side
 489:../../iot_link/os/liteos/base/include/__binary_tree.h ****  *
 490:../../iot_link/os/liteos/base/include/__binary_tree.h ****  * return: NA
 491:../../iot_link/os/liteos/base/include/__binary_tree.h ****  *
 492:../../iot_link/os/liteos/base/include/__binary_tree.h ****  * see also: __bit_rotate_right, __bit_rotate_left
 493:../../iot_link/os/liteos/base/include/__binary_tree.h ****  */
 494:../../iot_link/os/liteos/base/include/__binary_tree.h **** 
 495:../../iot_link/os/liteos/base/include/__binary_tree.h **** #define __bit_rotate(T, n, f, t)                                        \
 496:../../iot_link/os/liteos/base/include/__binary_tree.h ****     do                                                                  \
 497:../../iot_link/os/liteos/base/include/__binary_tree.h ****     {                                                               \
 498:../../iot_link/os/liteos/base/include/__binary_tree.h ****         bi_node_t * a = n->f;                                           \
 499:../../iot_link/os/liteos/base/include/__binary_tree.h ****         bi_node_t * p = __bit_parent (n);                               \
 500:../../iot_link/os/liteos/base/include/__binary_tree.h ****                                                                         \
 501:../../iot_link/os/liteos/base/include/__binary_tree.h ****         if (a->t)   /* a->t is the 'z' in the comments of */            \
 502:../../iot_link/os/liteos/base/include/__binary_tree.h ****         {       /* __bit_rotate_right and __bit_rotate_left */      \
 503:../../iot_link/os/liteos/base/include/__binary_tree.h ****             __bit_set_parent (a->t, n);                                 \
 504:../../iot_link/os/liteos/base/include/__binary_tree.h ****         }                                                           \
 505:../../iot_link/os/liteos/base/include/__binary_tree.h ****                                                                         \
 506:../../iot_link/os/liteos/base/include/__binary_tree.h ****         __bit_set_parent (n, a);                                        \
 507:../../iot_link/os/liteos/base/include/__binary_tree.h ****         n->f = a->t;                                                    \
 508:../../iot_link/os/liteos/base/include/__binary_tree.h ****         a->t = n;                                                       \
 509:../../iot_link/os/liteos/base/include/__binary_tree.h ****                                                                         \
 510:../../iot_link/os/liteos/base/include/__binary_tree.h ****         __bit_set_parent (a, p);                                        \
 511:../../iot_link/os/liteos/base/include/__binary_tree.h ****                                                                         \
 512:../../iot_link/os/liteos/base/include/__binary_tree.h ****         if (p == NULL)                                                  \
 513:../../iot_link/os/liteos/base/include/__binary_tree.h ****         {                                                           \
 514:../../iot_link/os/liteos/base/include/__binary_tree.h ****             T->r = a;                                                   \
 515:../../iot_link/os/liteos/base/include/__binary_tree.h ****         }                                                           \
 516:../../iot_link/os/liteos/base/include/__binary_tree.h ****         else                                                            \
 517:../../iot_link/os/liteos/base/include/__binary_tree.h ****         {                                                           \
 518:../../iot_link/os/liteos/base/include/__binary_tree.h ****             if (n == p->l)                                              \
 519:../../iot_link/os/liteos/base/include/__binary_tree.h ****             {                                                       \
 520:../../iot_link/os/liteos/base/include/__binary_tree.h ****                 p->l = a;                                               \
 521:../../iot_link/os/liteos/base/include/__binary_tree.h ****             }                                                       \
 522:../../iot_link/os/liteos/base/include/__binary_tree.h ****             else                                                        \
 523:../../iot_link/os/liteos/base/include/__binary_tree.h ****             {                                                       \
 524:../../iot_link/os/liteos/base/include/__binary_tree.h ****                 p->r = a;                                               \
 525:../../iot_link/os/liteos/base/include/__binary_tree.h ****             }                                                       \
 526:../../iot_link/os/liteos/base/include/__binary_tree.h ****         }                                                           \
 527:../../iot_link/os/liteos/base/include/__binary_tree.h ****     } while (0)
 528:../../iot_link/os/liteos/base/include/__binary_tree.h **** 
 529:../../iot_link/os/liteos/base/include/__binary_tree.h **** /**
 530:../../iot_link/os/liteos/base/include/__binary_tree.h ****  * __bit_rotate_right - rotate a sub-tree right
 531:../../iot_link/os/liteos/base/include/__binary_tree.h ****  * @T: the given tree
 532:../../iot_link/os/liteos/base/include/__binary_tree.h ****  * @n: the sub-tree
 533:../../iot_link/os/liteos/base/include/__binary_tree.h ****  *
 534:../../iot_link/os/liteos/base/include/__binary_tree.h ****  *      n              a
ARM GAS  C:\Users\LuckyE\AppData\Local\Temp\ccx4tDom.s 			page 14


 535:../../iot_link/os/liteos/base/include/__binary_tree.h ****  *     / \            / \
 536:../../iot_link/os/liteos/base/include/__binary_tree.h ****  *    a   x    ->    y   n
 537:../../iot_link/os/liteos/base/include/__binary_tree.h ****  *   / \                / \
 538:../../iot_link/os/liteos/base/include/__binary_tree.h ****  *  y   z              z   x
 539:../../iot_link/os/liteos/base/include/__binary_tree.h ****  *
 540:../../iot_link/os/liteos/base/include/__binary_tree.h ****  * return: NA
 541:../../iot_link/os/liteos/base/include/__binary_tree.h ****  */
 542:../../iot_link/os/liteos/base/include/__binary_tree.h **** 
 543:../../iot_link/os/liteos/base/include/__binary_tree.h **** static inline void __bit_rotate_right (bi_tree_t * t, bi_node_t * n)
 111              		.loc 1 543 0
 112              		.cfi_startproc
 113              		@ args = 0, pretend = 0, frame = 0
 114              		@ frame_needed = 0, uses_anonymous_args = 0
 115              	.LVL13:
 116              	.LBB280:
 544:../../iot_link/os/liteos/base/include/__binary_tree.h **** {
 545:../../iot_link/os/liteos/base/include/__binary_tree.h ****     __bit_rotate (t, n, l, r);
 117              		.loc 1 545 0
 118 0000 D1E90023 		ldrd	r2, r3, [r1]
 119              	.LVL14:
 120              	.LBE280:
 543:../../iot_link/os/liteos/base/include/__binary_tree.h **** {
 121              		.loc 1 543 0
 122 0004 10B5     		push	{r4, lr}
 123              	.LCFI0:
 124              		.cfi_def_cfa_offset 8
 125              		.cfi_offset 4, -8
 126              		.cfi_offset 14, -4
 127              	.LBB287:
 128              		.loc 1 545 0
 129 0006 9C68     		ldr	r4, [r3, #8]
 130 0008 04B1     		cbz	r4, .L16
 131              	.LVL15:
 132              	.LBB281:
 133              	.LBB282:
  90:../../iot_link/os/liteos/base/include/__binary_tree.h **** }
 134              		.loc 1 90 0
 135 000a 2160     		str	r1, [r4]
 136              	.LVL16:
 137              	.L16:
 138              	.LBE282:
 139              	.LBE281:
 140              	.LBB283:
 141              	.LBB284:
 142 000c 0B60     		str	r3, [r1]
 143              	.LVL17:
 144              	.LBE284:
 145              	.LBE283:
 146              		.loc 1 545 0
 147 000e 9C68     		ldr	r4, [r3, #8]
 148 0010 4C60     		str	r4, [r1, #4]
 149 0012 9960     		str	r1, [r3, #8]
 150              	.LVL18:
 151              	.LBB285:
 152              	.LBB286:
  90:../../iot_link/os/liteos/base/include/__binary_tree.h **** }
 153              		.loc 1 90 0
ARM GAS  C:\Users\LuckyE\AppData\Local\Temp\ccx4tDom.s 			page 15


 154 0014 1A60     		str	r2, [r3]
 155              	.LVL19:
 156              	.LBE286:
 157              	.LBE285:
 158              		.loc 1 545 0
 159 0016 0AB9     		cbnz	r2, .L17
 160 0018 0360     		str	r3, [r0]
 161              	.L15:
 162              	.LBE287:
 546:../../iot_link/os/liteos/base/include/__binary_tree.h **** }
 163              		.loc 1 546 0
 164 001a 10BD     		pop	{r4, pc}
 165              	.L17:
 166              	.LBB288:
 545:../../iot_link/os/liteos/base/include/__binary_tree.h **** }
 167              		.loc 1 545 0
 168 001c 5068     		ldr	r0, [r2, #4]
 169 001e 8142     		cmp	r1, r0
 170 0020 0CBF     		ite	eq
 171 0022 5360     		streq	r3, [r2, #4]
 172 0024 9360     		strne	r3, [r2, #8]
 173 0026 F8E7     		b	.L15
 174              	.LBE288:
 175              		.cfi_endproc
 176              	.LFE63:
 178              		.section	.text.__bit_rotate_left.isra.5,"ax",%progbits
 179              		.align	1
 180              		.syntax unified
 181              		.thumb
 182              		.thumb_func
 183              		.fpu fpv4-sp-d16
 185              	__bit_rotate_left.isra.5:
 186              	.LFB64:
 547:../../iot_link/os/liteos/base/include/__binary_tree.h **** 
 548:../../iot_link/os/liteos/base/include/__binary_tree.h **** /**
 549:../../iot_link/os/liteos/base/include/__binary_tree.h ****  * __bit_rotate_left - rotate a sub-tree left
 550:../../iot_link/os/liteos/base/include/__binary_tree.h ****  * @T: the given tree
 551:../../iot_link/os/liteos/base/include/__binary_tree.h ****  * @n: the sub-tree
 552:../../iot_link/os/liteos/base/include/__binary_tree.h ****  *
 553:../../iot_link/os/liteos/base/include/__binary_tree.h ****  *    n                  a
 554:../../iot_link/os/liteos/base/include/__binary_tree.h ****  *   / \                / \
 555:../../iot_link/os/liteos/base/include/__binary_tree.h ****  *  x   a      ->      n   y
 556:../../iot_link/os/liteos/base/include/__binary_tree.h ****  *     / \            / \
 557:../../iot_link/os/liteos/base/include/__binary_tree.h ****  *    z   y          x   z
 558:../../iot_link/os/liteos/base/include/__binary_tree.h ****  */
 559:../../iot_link/os/liteos/base/include/__binary_tree.h **** 
 560:../../iot_link/os/liteos/base/include/__binary_tree.h **** static inline void __bit_rotate_left (bi_tree_t * t, bi_node_t * n)
 187              		.loc 1 560 0
 188              		.cfi_startproc
 189              		@ args = 0, pretend = 0, frame = 0
 190              		@ frame_needed = 0, uses_anonymous_args = 0
 191              	.LVL20:
 192              	.LBB289:
 561:../../iot_link/os/liteos/base/include/__binary_tree.h **** {
 562:../../iot_link/os/liteos/base/include/__binary_tree.h ****     __bit_rotate (t, n, r, l);
 193              		.loc 1 562 0
 194 0000 8B68     		ldr	r3, [r1, #8]
ARM GAS  C:\Users\LuckyE\AppData\Local\Temp\ccx4tDom.s 			page 16


 195              	.LVL21:
 196 0002 0A68     		ldr	r2, [r1]
 197              	.LVL22:
 198              	.LBE289:
 560:../../iot_link/os/liteos/base/include/__binary_tree.h **** {
 199              		.loc 1 560 0
 200 0004 10B5     		push	{r4, lr}
 201              	.LCFI1:
 202              		.cfi_def_cfa_offset 8
 203              		.cfi_offset 4, -8
 204              		.cfi_offset 14, -4
 205              	.LBB296:
 206              		.loc 1 562 0
 207 0006 5C68     		ldr	r4, [r3, #4]
 208 0008 04B1     		cbz	r4, .L24
 209              	.LVL23:
 210              	.LBB290:
 211              	.LBB291:
  90:../../iot_link/os/liteos/base/include/__binary_tree.h **** }
 212              		.loc 1 90 0
 213 000a 2160     		str	r1, [r4]
 214              	.LVL24:
 215              	.L24:
 216              	.LBE291:
 217              	.LBE290:
 218              	.LBB292:
 219              	.LBB293:
 220 000c 0B60     		str	r3, [r1]
 221              	.LVL25:
 222              	.LBE293:
 223              	.LBE292:
 224              		.loc 1 562 0
 225 000e 5C68     		ldr	r4, [r3, #4]
 226 0010 8C60     		str	r4, [r1, #8]
 227              	.LBB294:
 228              	.LBB295:
  90:../../iot_link/os/liteos/base/include/__binary_tree.h **** }
 229              		.loc 1 90 0
 230 0012 C3E90021 		strd	r2, r1, [r3]
 231              	.LBE295:
 232              	.LBE294:
 233              		.loc 1 562 0
 234 0016 0AB9     		cbnz	r2, .L25
 235 0018 0360     		str	r3, [r0]
 236              	.L23:
 237              	.LBE296:
 563:../../iot_link/os/liteos/base/include/__binary_tree.h **** }
 238              		.loc 1 563 0
 239 001a 10BD     		pop	{r4, pc}
 240              	.L25:
 241              	.LBB297:
 562:../../iot_link/os/liteos/base/include/__binary_tree.h **** }
 242              		.loc 1 562 0
 243 001c 5068     		ldr	r0, [r2, #4]
 244 001e 8142     		cmp	r1, r0
 245 0020 0CBF     		ite	eq
 246 0022 5360     		streq	r3, [r2, #4]
ARM GAS  C:\Users\LuckyE\AppData\Local\Temp\ccx4tDom.s 			page 17


 247 0024 9360     		strne	r3, [r2, #8]
 248 0026 F8E7     		b	.L23
 249              	.LBE297:
 250              		.cfi_endproc
 251              	.LFE64:
 253              		.section	.text.__rb_insadj,"ax",%progbits
 254              		.align	1
 255              		.syntax unified
 256              		.thumb
 257              		.thumb_func
 258              		.fpu fpv4-sp-d16
 260              	__rb_insadj:
 261              	.LFB53:
 102:../../iot_link/os/liteos/utils/rbtree.c **** 
 103:../../iot_link/os/liteos/utils/rbtree.c **** /**
 104:../../iot_link/os/liteos/utils/rbtree.c ****  * __set_color - set a node's color
 105:../../iot_link/os/liteos/utils/rbtree.c ****  * @n: the given node
 106:../../iot_link/os/liteos/utils/rbtree.c ****  * @c: the new color
 107:../../iot_link/os/liteos/utils/rbtree.c ****  *
 108:../../iot_link/os/liteos/utils/rbtree.c ****  * return: NA
 109:../../iot_link/os/liteos/utils/rbtree.c ****  */
 110:../../iot_link/os/liteos/utils/rbtree.c **** 
 111:../../iot_link/os/liteos/utils/rbtree.c **** static inline void __set_color (rb_node_t * n, int c)
 112:../../iot_link/os/liteos/utils/rbtree.c **** {
 113:../../iot_link/os/liteos/utils/rbtree.c ****     n->c = c;
 114:../../iot_link/os/liteos/utils/rbtree.c **** }
 115:../../iot_link/os/liteos/utils/rbtree.c **** 
 116:../../iot_link/os/liteos/utils/rbtree.c **** /**
 117:../../iot_link/os/liteos/utils/rbtree.c ****  * __set_red - set a node to red
 118:../../iot_link/os/liteos/utils/rbtree.c ****  * @n: the given node
 119:../../iot_link/os/liteos/utils/rbtree.c ****  *
 120:../../iot_link/os/liteos/utils/rbtree.c ****  * return: NA
 121:../../iot_link/os/liteos/utils/rbtree.c ****  */
 122:../../iot_link/os/liteos/utils/rbtree.c **** 
 123:../../iot_link/os/liteos/utils/rbtree.c **** static inline void __set_red (rb_node_t * n)
 124:../../iot_link/os/liteos/utils/rbtree.c **** {
 125:../../iot_link/os/liteos/utils/rbtree.c ****     __set_color (n, RBTREE_RED);
 126:../../iot_link/os/liteos/utils/rbtree.c **** }
 127:../../iot_link/os/liteos/utils/rbtree.c **** 
 128:../../iot_link/os/liteos/utils/rbtree.c **** /**
 129:../../iot_link/os/liteos/utils/rbtree.c ****  * __set_black - set a node to black
 130:../../iot_link/os/liteos/utils/rbtree.c ****  * @n: the given node
 131:../../iot_link/os/liteos/utils/rbtree.c ****  *
 132:../../iot_link/os/liteos/utils/rbtree.c ****  * return: NA
 133:../../iot_link/os/liteos/utils/rbtree.c ****  */
 134:../../iot_link/os/liteos/utils/rbtree.c **** 
 135:../../iot_link/os/liteos/utils/rbtree.c **** static inline void __set_black (rb_node_t * n)
 136:../../iot_link/os/liteos/utils/rbtree.c **** {
 137:../../iot_link/os/liteos/utils/rbtree.c ****     __set_color (n, RBTREE_BLACK);
 138:../../iot_link/os/liteos/utils/rbtree.c **** }
 139:../../iot_link/os/liteos/utils/rbtree.c **** 
 140:../../iot_link/os/liteos/utils/rbtree.c **** /**
 141:../../iot_link/os/liteos/utils/rbtree.c ****  * __parent - get the parent of a node
 142:../../iot_link/os/liteos/utils/rbtree.c ****  * @n: the given node
 143:../../iot_link/os/liteos/utils/rbtree.c ****  *
 144:../../iot_link/os/liteos/utils/rbtree.c ****  * return: NA
 145:../../iot_link/os/liteos/utils/rbtree.c ****  */
ARM GAS  C:\Users\LuckyE\AppData\Local\Temp\ccx4tDom.s 			page 18


 146:../../iot_link/os/liteos/utils/rbtree.c **** 
 147:../../iot_link/os/liteos/utils/rbtree.c **** static inline rb_node_t * __parent (rb_node_t * n)
 148:../../iot_link/os/liteos/utils/rbtree.c **** {
 149:../../iot_link/os/liteos/utils/rbtree.c ****     return container_of (n->bin.p, rb_node_t, bin);
 150:../../iot_link/os/liteos/utils/rbtree.c **** }
 151:../../iot_link/os/liteos/utils/rbtree.c **** 
 152:../../iot_link/os/liteos/utils/rbtree.c **** /**
 153:../../iot_link/os/liteos/utils/rbtree.c ****  * __left - get the left child of a node
 154:../../iot_link/os/liteos/utils/rbtree.c ****  * @n: the given node
 155:../../iot_link/os/liteos/utils/rbtree.c ****  *
 156:../../iot_link/os/liteos/utils/rbtree.c ****  * return: NA
 157:../../iot_link/os/liteos/utils/rbtree.c ****  */
 158:../../iot_link/os/liteos/utils/rbtree.c **** 
 159:../../iot_link/os/liteos/utils/rbtree.c **** static inline rb_node_t * __left (rb_node_t * n)
 160:../../iot_link/os/liteos/utils/rbtree.c **** {
 161:../../iot_link/os/liteos/utils/rbtree.c ****     return container_of (n->bin.l, rb_node_t, bin);
 162:../../iot_link/os/liteos/utils/rbtree.c **** }
 163:../../iot_link/os/liteos/utils/rbtree.c **** /**
 164:../../iot_link/os/liteos/utils/rbtree.c ****  * __right - get the right child of a node
 165:../../iot_link/os/liteos/utils/rbtree.c ****  * @n: the given node
 166:../../iot_link/os/liteos/utils/rbtree.c ****  *
 167:../../iot_link/os/liteos/utils/rbtree.c ****  * return: NA
 168:../../iot_link/os/liteos/utils/rbtree.c ****  */
 169:../../iot_link/os/liteos/utils/rbtree.c **** 
 170:../../iot_link/os/liteos/utils/rbtree.c **** static inline rb_node_t * __right (rb_node_t * n)
 171:../../iot_link/os/liteos/utils/rbtree.c **** {
 172:../../iot_link/os/liteos/utils/rbtree.c ****     return container_of (n->bin.r, rb_node_t, bin);
 173:../../iot_link/os/liteos/utils/rbtree.c **** }
 174:../../iot_link/os/liteos/utils/rbtree.c **** 
 175:../../iot_link/os/liteos/utils/rbtree.c **** /**
 176:../../iot_link/os/liteos/utils/rbtree.c ****  * __root - get the root of a tree
 177:../../iot_link/os/liteos/utils/rbtree.c ****  * @n: the given tree
 178:../../iot_link/os/liteos/utils/rbtree.c ****  *
 179:../../iot_link/os/liteos/utils/rbtree.c ****  * return: NA
 180:../../iot_link/os/liteos/utils/rbtree.c ****  */
 181:../../iot_link/os/liteos/utils/rbtree.c **** 
 182:../../iot_link/os/liteos/utils/rbtree.c **** static inline rb_node_t * __root (rb_tree_t * t)
 183:../../iot_link/os/liteos/utils/rbtree.c **** {
 184:../../iot_link/os/liteos/utils/rbtree.c ****     return container_of (t->bit.r, rb_node_t, bin);
 185:../../iot_link/os/liteos/utils/rbtree.c **** }
 186:../../iot_link/os/liteos/utils/rbtree.c **** 
 187:../../iot_link/os/liteos/utils/rbtree.c **** /**
 188:../../iot_link/os/liteos/utils/rbtree.c ****  * __set_parent - set the parent of a node
 189:../../iot_link/os/liteos/utils/rbtree.c ****  * @n: the given node
 190:../../iot_link/os/liteos/utils/rbtree.c ****  * @p: the new parent
 191:../../iot_link/os/liteos/utils/rbtree.c ****  *
 192:../../iot_link/os/liteos/utils/rbtree.c ****  * return: NA
 193:../../iot_link/os/liteos/utils/rbtree.c ****  */
 194:../../iot_link/os/liteos/utils/rbtree.c **** 
 195:../../iot_link/os/liteos/utils/rbtree.c **** static inline void __set_parent (rb_node_t * n, rb_node_t * p)
 196:../../iot_link/os/liteos/utils/rbtree.c **** {
 197:../../iot_link/os/liteos/utils/rbtree.c ****     n->bin.p = &p->bin;
 198:../../iot_link/os/liteos/utils/rbtree.c **** }
 199:../../iot_link/os/liteos/utils/rbtree.c **** 
 200:../../iot_link/os/liteos/utils/rbtree.c **** /**
 201:../../iot_link/os/liteos/utils/rbtree.c ****  * __set_left - set the left child of a node
 202:../../iot_link/os/liteos/utils/rbtree.c ****  * @n: the given node
ARM GAS  C:\Users\LuckyE\AppData\Local\Temp\ccx4tDom.s 			page 19


 203:../../iot_link/os/liteos/utils/rbtree.c ****  * @l: the new left child
 204:../../iot_link/os/liteos/utils/rbtree.c ****  *
 205:../../iot_link/os/liteos/utils/rbtree.c ****  * return: NA
 206:../../iot_link/os/liteos/utils/rbtree.c ****  */
 207:../../iot_link/os/liteos/utils/rbtree.c **** 
 208:../../iot_link/os/liteos/utils/rbtree.c **** static inline void __set_left (rb_node_t * n, rb_node_t * l)
 209:../../iot_link/os/liteos/utils/rbtree.c **** {
 210:../../iot_link/os/liteos/utils/rbtree.c ****     n->bin.l = &l->bin;
 211:../../iot_link/os/liteos/utils/rbtree.c **** }
 212:../../iot_link/os/liteos/utils/rbtree.c **** 
 213:../../iot_link/os/liteos/utils/rbtree.c **** /**
 214:../../iot_link/os/liteos/utils/rbtree.c ****  * __set_right - set the right child of a node
 215:../../iot_link/os/liteos/utils/rbtree.c ****  * @n: the given node
 216:../../iot_link/os/liteos/utils/rbtree.c ****  * @r: the new right child
 217:../../iot_link/os/liteos/utils/rbtree.c ****  *
 218:../../iot_link/os/liteos/utils/rbtree.c ****  * return: NA
 219:../../iot_link/os/liteos/utils/rbtree.c ****  */
 220:../../iot_link/os/liteos/utils/rbtree.c **** 
 221:../../iot_link/os/liteos/utils/rbtree.c **** static inline void __set_right (rb_node_t * n, rb_node_t * r)
 222:../../iot_link/os/liteos/utils/rbtree.c **** {
 223:../../iot_link/os/liteos/utils/rbtree.c ****     n->bin.r = &r->bin;
 224:../../iot_link/os/liteos/utils/rbtree.c **** }
 225:../../iot_link/os/liteos/utils/rbtree.c **** 
 226:../../iot_link/os/liteos/utils/rbtree.c **** /**
 227:../../iot_link/os/liteos/utils/rbtree.c ****  * __set_root - set the root of a tree
 228:../../iot_link/os/liteos/utils/rbtree.c ****  * @n: the given tree
 229:../../iot_link/os/liteos/utils/rbtree.c ****  * @r: the new root
 230:../../iot_link/os/liteos/utils/rbtree.c ****  *
 231:../../iot_link/os/liteos/utils/rbtree.c ****  * return: NA
 232:../../iot_link/os/liteos/utils/rbtree.c ****  */
 233:../../iot_link/os/liteos/utils/rbtree.c **** 
 234:../../iot_link/os/liteos/utils/rbtree.c **** static inline void __set_root (rb_tree_t * t, rb_node_t * r)
 235:../../iot_link/os/liteos/utils/rbtree.c **** {
 236:../../iot_link/os/liteos/utils/rbtree.c ****     t->bit.r = &r->bin;
 237:../../iot_link/os/liteos/utils/rbtree.c **** }
 238:../../iot_link/os/liteos/utils/rbtree.c **** 
 239:../../iot_link/os/liteos/utils/rbtree.c **** /**
 240:../../iot_link/os/liteos/utils/rbtree.c ****  * __raw_grand - get the grand parent for a node, assume n and p(n) are not NULL
 241:../../iot_link/os/liteos/utils/rbtree.c ****  * @n: the given node
 242:../../iot_link/os/liteos/utils/rbtree.c ****  *
 243:../../iot_link/os/liteos/utils/rbtree.c ****  * return: grand parent of the node <n>
 244:../../iot_link/os/liteos/utils/rbtree.c ****  */
 245:../../iot_link/os/liteos/utils/rbtree.c **** 
 246:../../iot_link/os/liteos/utils/rbtree.c **** static inline rb_node_t * __raw_grand (rb_node_t * n)
 247:../../iot_link/os/liteos/utils/rbtree.c **** {
 248:../../iot_link/os/liteos/utils/rbtree.c ****     return container_of (__bit_raw_grand (&n->bin), rb_node_t, bin);
 249:../../iot_link/os/liteos/utils/rbtree.c **** }
 250:../../iot_link/os/liteos/utils/rbtree.c **** 
 251:../../iot_link/os/liteos/utils/rbtree.c **** /**
 252:../../iot_link/os/liteos/utils/rbtree.c ****  * __raw_uncle - get the uncle for a node, assume n, p(n) and g(n) are not NULL
 253:../../iot_link/os/liteos/utils/rbtree.c ****  * @n: the given node
 254:../../iot_link/os/liteos/utils/rbtree.c ****  *
 255:../../iot_link/os/liteos/utils/rbtree.c ****  * return: uncle of the node <n>
 256:../../iot_link/os/liteos/utils/rbtree.c ****  */
 257:../../iot_link/os/liteos/utils/rbtree.c **** 
 258:../../iot_link/os/liteos/utils/rbtree.c **** static inline rb_node_t * __raw_uncle (rb_node_t * n)
 259:../../iot_link/os/liteos/utils/rbtree.c **** {
ARM GAS  C:\Users\LuckyE\AppData\Local\Temp\ccx4tDom.s 			page 20


 260:../../iot_link/os/liteos/utils/rbtree.c ****     return container_of (__bit_raw_uncle (&n->bin), rb_node_t, bin);
 261:../../iot_link/os/liteos/utils/rbtree.c **** }
 262:../../iot_link/os/liteos/utils/rbtree.c **** 
 263:../../iot_link/os/liteos/utils/rbtree.c **** /**
 264:../../iot_link/os/liteos/utils/rbtree.c ****  * __rotate_right - rotate the sub-tree right
 265:../../iot_link/os/liteos/utils/rbtree.c ****  * @t: the given tree
 266:../../iot_link/os/liteos/utils/rbtree.c ****  * @n: the given node (indcated the sub-tree)
 267:../../iot_link/os/liteos/utils/rbtree.c ****  *
 268:../../iot_link/os/liteos/utils/rbtree.c ****  * return: NA
 269:../../iot_link/os/liteos/utils/rbtree.c ****  */
 270:../../iot_link/os/liteos/utils/rbtree.c **** 
 271:../../iot_link/os/liteos/utils/rbtree.c **** static inline void __rotate_right (rb_tree_t * t, rb_node_t * n)
 272:../../iot_link/os/liteos/utils/rbtree.c **** {
 273:../../iot_link/os/liteos/utils/rbtree.c ****     __bit_rotate_right (&t->bit, &n->bin);
 274:../../iot_link/os/liteos/utils/rbtree.c **** }
 275:../../iot_link/os/liteos/utils/rbtree.c **** 
 276:../../iot_link/os/liteos/utils/rbtree.c **** /**
 277:../../iot_link/os/liteos/utils/rbtree.c ****  * __rotate_left - rotate the sub-tree left
 278:../../iot_link/os/liteos/utils/rbtree.c ****  * @t: the given tree
 279:../../iot_link/os/liteos/utils/rbtree.c ****  * @n: the given node (indcated the sub-tree)
 280:../../iot_link/os/liteos/utils/rbtree.c ****  *
 281:../../iot_link/os/liteos/utils/rbtree.c ****  * return: NA
 282:../../iot_link/os/liteos/utils/rbtree.c ****  */
 283:../../iot_link/os/liteos/utils/rbtree.c **** 
 284:../../iot_link/os/liteos/utils/rbtree.c **** static inline void __rotate_left (rb_tree_t * t, rb_node_t * n)
 285:../../iot_link/os/liteos/utils/rbtree.c **** {
 286:../../iot_link/os/liteos/utils/rbtree.c ****     __bit_rotate_left (&t->bit, &n->bin);
 287:../../iot_link/os/liteos/utils/rbtree.c **** }
 288:../../iot_link/os/liteos/utils/rbtree.c **** 
 289:../../iot_link/os/liteos/utils/rbtree.c **** /**
 290:../../iot_link/os/liteos/utils/rbtree.c ****  * __successor - the successor node of a node
 291:../../iot_link/os/liteos/utils/rbtree.c ****  * @n: the given node
 292:../../iot_link/os/liteos/utils/rbtree.c ****  *
 293:../../iot_link/os/liteos/utils/rbtree.c ****  * return: the successor of <n>
 294:../../iot_link/os/liteos/utils/rbtree.c ****  */
 295:../../iot_link/os/liteos/utils/rbtree.c **** 
 296:../../iot_link/os/liteos/utils/rbtree.c **** static inline rb_node_t * __successor (rb_node_t * n)
 297:../../iot_link/os/liteos/utils/rbtree.c **** {
 298:../../iot_link/os/liteos/utils/rbtree.c ****     return container_of (__bit_successor (&n->bin), rb_node_t, bin);
 299:../../iot_link/os/liteos/utils/rbtree.c **** }
 300:../../iot_link/os/liteos/utils/rbtree.c **** 
 301:../../iot_link/os/liteos/utils/rbtree.c **** /**
 302:../../iot_link/os/liteos/utils/rbtree.c ****  * __predecessor - the predecessor node of a node
 303:../../iot_link/os/liteos/utils/rbtree.c ****  * @n: the given node
 304:../../iot_link/os/liteos/utils/rbtree.c ****  *
 305:../../iot_link/os/liteos/utils/rbtree.c ****  * return: the predecessor of <n>
 306:../../iot_link/os/liteos/utils/rbtree.c ****  */
 307:../../iot_link/os/liteos/utils/rbtree.c **** 
 308:../../iot_link/os/liteos/utils/rbtree.c **** static inline rb_node_t * __predecessor (rb_node_t * n)
 309:../../iot_link/os/liteos/utils/rbtree.c **** {
 310:../../iot_link/os/liteos/utils/rbtree.c ****     return container_of (__bit_predecessor (&n->bin), rb_node_t, bin);
 311:../../iot_link/os/liteos/utils/rbtree.c **** }
 312:../../iot_link/os/liteos/utils/rbtree.c **** 
 313:../../iot_link/os/liteos/utils/rbtree.c **** /**
 314:../../iot_link/os/liteos/utils/rbtree.c ****  * rb_find_eq - find a given key in a rb-tree
 315:../../iot_link/os/liteos/utils/rbtree.c ****  * @t: the given tree
 316:../../iot_link/os/liteos/utils/rbtree.c ****  * @k: the key value
ARM GAS  C:\Users\LuckyE\AppData\Local\Temp\ccx4tDom.s 			page 21


 317:../../iot_link/os/liteos/utils/rbtree.c ****  *
 318:../../iot_link/os/liteos/utils/rbtree.c ****  * return: the node with key = <k>, NULL or key not found.
 319:../../iot_link/os/liteos/utils/rbtree.c ****  */
 320:../../iot_link/os/liteos/utils/rbtree.c **** 
 321:../../iot_link/os/liteos/utils/rbtree.c **** rb_node_t * rb_find_eq (rb_tree_t * t, uintptr_t k)
 322:../../iot_link/os/liteos/utils/rbtree.c **** {
 323:../../iot_link/os/liteos/utils/rbtree.c ****     return container_of (__bit_find_eq (&t->bit, k), rb_node_t, bin);
 324:../../iot_link/os/liteos/utils/rbtree.c **** }
 325:../../iot_link/os/liteos/utils/rbtree.c **** 
 326:../../iot_link/os/liteos/utils/rbtree.c **** /**
 327:../../iot_link/os/liteos/utils/rbtree.c ****  * rb_find_ge - find a node that is just greater or equal to the given value
 328:../../iot_link/os/liteos/utils/rbtree.c ****  * @t: the given tree
 329:../../iot_link/os/liteos/utils/rbtree.c ****  * @k: the key value
 330:../../iot_link/os/liteos/utils/rbtree.c ****  *
 331:../../iot_link/os/liteos/utils/rbtree.c ****  * return: the nearest node with key >= <k>, NULL or key not found.
 332:../../iot_link/os/liteos/utils/rbtree.c ****  */
 333:../../iot_link/os/liteos/utils/rbtree.c **** 
 334:../../iot_link/os/liteos/utils/rbtree.c **** rb_node_t * rb_find_ge (rb_tree_t * t, uintptr_t k)
 335:../../iot_link/os/liteos/utils/rbtree.c **** {
 336:../../iot_link/os/liteos/utils/rbtree.c ****     return container_of (__bit_find_ge (&t->bit, k), rb_node_t, bin);
 337:../../iot_link/os/liteos/utils/rbtree.c **** }
 338:../../iot_link/os/liteos/utils/rbtree.c **** 
 339:../../iot_link/os/liteos/utils/rbtree.c **** /**
 340:../../iot_link/os/liteos/utils/rbtree.c ****  * rb_find_gt - find a node that is just greater to the given value
 341:../../iot_link/os/liteos/utils/rbtree.c ****  * @t: the given tree
 342:../../iot_link/os/liteos/utils/rbtree.c ****  * @k: the key value
 343:../../iot_link/os/liteos/utils/rbtree.c ****  *
 344:../../iot_link/os/liteos/utils/rbtree.c ****  * return: the nearest node with key > <k>, NULL or key not found.
 345:../../iot_link/os/liteos/utils/rbtree.c ****  */
 346:../../iot_link/os/liteos/utils/rbtree.c **** 
 347:../../iot_link/os/liteos/utils/rbtree.c **** rb_node_t * rb_find_gt (rb_tree_t * t, uintptr_t k)
 348:../../iot_link/os/liteos/utils/rbtree.c **** {
 349:../../iot_link/os/liteos/utils/rbtree.c ****     return container_of (__bit_find_gt (&t->bit, k), rb_node_t, bin);
 350:../../iot_link/os/liteos/utils/rbtree.c **** }
 351:../../iot_link/os/liteos/utils/rbtree.c **** 
 352:../../iot_link/os/liteos/utils/rbtree.c **** /**
 353:../../iot_link/os/liteos/utils/rbtree.c ****  * rb_find_le - find a node that is just less or equal to the given value
 354:../../iot_link/os/liteos/utils/rbtree.c ****  * @t: the given tree
 355:../../iot_link/os/liteos/utils/rbtree.c ****  * @k: the key value
 356:../../iot_link/os/liteos/utils/rbtree.c ****  *
 357:../../iot_link/os/liteos/utils/rbtree.c ****  * return: the nearest node with key <= <k>, NULL or key not found.
 358:../../iot_link/os/liteos/utils/rbtree.c ****  */
 359:../../iot_link/os/liteos/utils/rbtree.c **** 
 360:../../iot_link/os/liteos/utils/rbtree.c **** rb_node_t * rb_find_le (rb_tree_t * t, uintptr_t k)
 361:../../iot_link/os/liteos/utils/rbtree.c **** {
 362:../../iot_link/os/liteos/utils/rbtree.c ****     return container_of (__bit_find_le (&t->bit, k), rb_node_t, bin);
 363:../../iot_link/os/liteos/utils/rbtree.c **** }
 364:../../iot_link/os/liteos/utils/rbtree.c **** 
 365:../../iot_link/os/liteos/utils/rbtree.c **** /**
 366:../../iot_link/os/liteos/utils/rbtree.c ****  * rb_find_lt - find a node that is just less to the given value
 367:../../iot_link/os/liteos/utils/rbtree.c ****  * @t: the given tree
 368:../../iot_link/os/liteos/utils/rbtree.c ****  * @k: the key value
 369:../../iot_link/os/liteos/utils/rbtree.c ****  *
 370:../../iot_link/os/liteos/utils/rbtree.c ****  * return: the nearest node with key < <k>, NULL or key not found.
 371:../../iot_link/os/liteos/utils/rbtree.c ****  */
 372:../../iot_link/os/liteos/utils/rbtree.c **** 
 373:../../iot_link/os/liteos/utils/rbtree.c **** rb_node_t * rb_find_lt (rb_tree_t * t, uintptr_t k)
ARM GAS  C:\Users\LuckyE\AppData\Local\Temp\ccx4tDom.s 			page 22


 374:../../iot_link/os/liteos/utils/rbtree.c **** {
 375:../../iot_link/os/liteos/utils/rbtree.c ****     return container_of (__bit_find_lt (&t->bit, k), rb_node_t, bin);
 376:../../iot_link/os/liteos/utils/rbtree.c **** }
 377:../../iot_link/os/liteos/utils/rbtree.c **** 
 378:../../iot_link/os/liteos/utils/rbtree.c **** /**
 379:../../iot_link/os/liteos/utils/rbtree.c ****  * rb_first - find the first node of the tree
 380:../../iot_link/os/liteos/utils/rbtree.c ****  * @t: the given tree
 381:../../iot_link/os/liteos/utils/rbtree.c ****  *
 382:../../iot_link/os/liteos/utils/rbtree.c ****  * return: the first node, or NULL if the tree is empty
 383:../../iot_link/os/liteos/utils/rbtree.c ****  */
 384:../../iot_link/os/liteos/utils/rbtree.c **** 
 385:../../iot_link/os/liteos/utils/rbtree.c **** rb_node_t * rb_first (rb_tree_t * t)
 386:../../iot_link/os/liteos/utils/rbtree.c **** {
 387:../../iot_link/os/liteos/utils/rbtree.c ****     return container_of (__bit_first (&t->bit), rb_node_t, bin);
 388:../../iot_link/os/liteos/utils/rbtree.c **** }
 389:../../iot_link/os/liteos/utils/rbtree.c **** 
 390:../../iot_link/os/liteos/utils/rbtree.c **** /**
 391:../../iot_link/os/liteos/utils/rbtree.c ****  * rb_last - find the last node of the tree
 392:../../iot_link/os/liteos/utils/rbtree.c ****  * @t: the given tree
 393:../../iot_link/os/liteos/utils/rbtree.c ****  *
 394:../../iot_link/os/liteos/utils/rbtree.c ****  * return: the last node, or NULL if the tree is empty
 395:../../iot_link/os/liteos/utils/rbtree.c ****  */
 396:../../iot_link/os/liteos/utils/rbtree.c **** 
 397:../../iot_link/os/liteos/utils/rbtree.c **** rb_node_t * rb_last (rb_tree_t * t)
 398:../../iot_link/os/liteos/utils/rbtree.c **** {
 399:../../iot_link/os/liteos/utils/rbtree.c ****     return container_of (__bit_last (&t->bit), rb_node_t, bin);
 400:../../iot_link/os/liteos/utils/rbtree.c **** }
 401:../../iot_link/os/liteos/utils/rbtree.c **** 
 402:../../iot_link/os/liteos/utils/rbtree.c **** /**
 403:../../iot_link/os/liteos/utils/rbtree.c ****  * rb_next - find the next node
 404:../../iot_link/os/liteos/utils/rbtree.c ****  * @t: the given node
 405:../../iot_link/os/liteos/utils/rbtree.c ****  *
 406:../../iot_link/os/liteos/utils/rbtree.c ****  * return: the next node, or NULL if the node is already last
 407:../../iot_link/os/liteos/utils/rbtree.c ****  */
 408:../../iot_link/os/liteos/utils/rbtree.c **** 
 409:../../iot_link/os/liteos/utils/rbtree.c **** rb_node_t * rb_next (rb_node_t * n)
 410:../../iot_link/os/liteos/utils/rbtree.c **** {
 411:../../iot_link/os/liteos/utils/rbtree.c ****     return __successor (n);
 412:../../iot_link/os/liteos/utils/rbtree.c **** }
 413:../../iot_link/os/liteos/utils/rbtree.c **** 
 414:../../iot_link/os/liteos/utils/rbtree.c **** /**
 415:../../iot_link/os/liteos/utils/rbtree.c ****  * rb_prev - find the prevous node
 416:../../iot_link/os/liteos/utils/rbtree.c ****  * @t: the given node
 417:../../iot_link/os/liteos/utils/rbtree.c ****  *
 418:../../iot_link/os/liteos/utils/rbtree.c ****  * return: the prevous node, or NULL if the node is already first
 419:../../iot_link/os/liteos/utils/rbtree.c ****  */
 420:../../iot_link/os/liteos/utils/rbtree.c **** 
 421:../../iot_link/os/liteos/utils/rbtree.c **** rb_node_t * rb_prev (rb_node_t * n)
 422:../../iot_link/os/liteos/utils/rbtree.c **** {
 423:../../iot_link/os/liteos/utils/rbtree.c ****     return __predecessor (n);
 424:../../iot_link/os/liteos/utils/rbtree.c **** }
 425:../../iot_link/os/liteos/utils/rbtree.c **** 
 426:../../iot_link/os/liteos/utils/rbtree.c **** /**
 427:../../iot_link/os/liteos/utils/rbtree.c ****  * rb_replace - replace a new node in the same place
 428:../../iot_link/os/liteos/utils/rbtree.c ****  * @t: the given tree
 429:../../iot_link/os/liteos/utils/rbtree.c ****  * @o: the old node to be replaced
 430:../../iot_link/os/liteos/utils/rbtree.c ****  * @n: the new node
ARM GAS  C:\Users\LuckyE\AppData\Local\Temp\ccx4tDom.s 			page 23


 431:../../iot_link/os/liteos/utils/rbtree.c ****  *
 432:../../iot_link/os/liteos/utils/rbtree.c ****  * return: the nearest node with key < <k>, NULL or key not found.
 433:../../iot_link/os/liteos/utils/rbtree.c ****  */
 434:../../iot_link/os/liteos/utils/rbtree.c **** 
 435:../../iot_link/os/liteos/utils/rbtree.c **** void rb_replace (rb_tree_t * t, rb_node_t * o, rb_node_t * n)
 436:../../iot_link/os/liteos/utils/rbtree.c **** {
 437:../../iot_link/os/liteos/utils/rbtree.c ****     rb_node_t * p, * l, * r;
 438:../../iot_link/os/liteos/utils/rbtree.c **** 
 439:../../iot_link/os/liteos/utils/rbtree.c ****     *n = *o;
 440:../../iot_link/os/liteos/utils/rbtree.c **** 
 441:../../iot_link/os/liteos/utils/rbtree.c ****     p = __parent (n);
 442:../../iot_link/os/liteos/utils/rbtree.c ****     l = __left (n);
 443:../../iot_link/os/liteos/utils/rbtree.c ****     r = __right (n);
 444:../../iot_link/os/liteos/utils/rbtree.c **** 
 445:../../iot_link/os/liteos/utils/rbtree.c ****     if (l)
 446:../../iot_link/os/liteos/utils/rbtree.c ****     {
 447:../../iot_link/os/liteos/utils/rbtree.c ****         __set_parent (l, n);
 448:../../iot_link/os/liteos/utils/rbtree.c ****     }
 449:../../iot_link/os/liteos/utils/rbtree.c **** 
 450:../../iot_link/os/liteos/utils/rbtree.c ****     if (r)
 451:../../iot_link/os/liteos/utils/rbtree.c ****     {
 452:../../iot_link/os/liteos/utils/rbtree.c ****         __set_parent (r, n);
 453:../../iot_link/os/liteos/utils/rbtree.c ****     }
 454:../../iot_link/os/liteos/utils/rbtree.c **** 
 455:../../iot_link/os/liteos/utils/rbtree.c ****     if (!p)
 456:../../iot_link/os/liteos/utils/rbtree.c ****     {
 457:../../iot_link/os/liteos/utils/rbtree.c ****         t->bit.r = &n->bin;
 458:../../iot_link/os/liteos/utils/rbtree.c ****         return;
 459:../../iot_link/os/liteos/utils/rbtree.c ****     }
 460:../../iot_link/os/liteos/utils/rbtree.c **** 
 461:../../iot_link/os/liteos/utils/rbtree.c ****     if (__left (p) == o)
 462:../../iot_link/os/liteos/utils/rbtree.c ****     {
 463:../../iot_link/os/liteos/utils/rbtree.c ****         __set_left (p, n);
 464:../../iot_link/os/liteos/utils/rbtree.c ****     }
 465:../../iot_link/os/liteos/utils/rbtree.c ****     else
 466:../../iot_link/os/liteos/utils/rbtree.c ****     {
 467:../../iot_link/os/liteos/utils/rbtree.c ****         __set_right (p, n);
 468:../../iot_link/os/liteos/utils/rbtree.c ****     }
 469:../../iot_link/os/liteos/utils/rbtree.c **** }
 470:../../iot_link/os/liteos/utils/rbtree.c **** 
 471:../../iot_link/os/liteos/utils/rbtree.c **** /**
 472:../../iot_link/os/liteos/utils/rbtree.c ****  * __rb_insadj - re-balance the tree after insertion
 473:../../iot_link/os/liteos/utils/rbtree.c ****  * @t: the given tree
 474:../../iot_link/os/liteos/utils/rbtree.c ****  * @n: the new inserted node
 475:../../iot_link/os/liteos/utils/rbtree.c ****  *
 476:../../iot_link/os/liteos/utils/rbtree.c ****  * return: NA
 477:../../iot_link/os/liteos/utils/rbtree.c ****  */
 478:../../iot_link/os/liteos/utils/rbtree.c **** 
 479:../../iot_link/os/liteos/utils/rbtree.c **** static void __rb_insadj (rb_tree_t * t, rb_node_t * n)
 480:../../iot_link/os/liteos/utils/rbtree.c **** {
 262              		.loc 2 480 0
 263              		.cfi_startproc
 264              		@ args = 0, pretend = 0, frame = 0
 265              		@ frame_needed = 0, uses_anonymous_args = 0
 266              	.LVL26:
 267 0000 2DE9F041 		push	{r4, r5, r6, r7, r8, lr}
 268              	.LCFI2:
ARM GAS  C:\Users\LuckyE\AppData\Local\Temp\ccx4tDom.s 			page 24


 269              		.cfi_def_cfa_offset 24
 270              		.cfi_offset 4, -24
 271              		.cfi_offset 5, -20
 272              		.cfi_offset 6, -16
 273              		.cfi_offset 7, -12
 274              		.cfi_offset 8, -8
 275              		.cfi_offset 14, -4
 276              	.LBB336:
 277              	.LBB337:
 278              	.LBB338:
 113:../../iot_link/os/liteos/utils/rbtree.c **** }
 279              		.loc 2 113 0
 280 0004 0122     		movs	r2, #1
 281              	.LBE338:
 282              	.LBE337:
 283              	.LBE336:
 284              		.loc 2 480 0
 285 0006 8046     		mov	r8, r0
 286 0008 0D46     		mov	r5, r1
 287              	.LBB341:
 288              	.LBB342:
 289              	.LBB343:
 113:../../iot_link/os/liteos/utils/rbtree.c **** }
 290              		.loc 2 113 0
 291 000a 0020     		movs	r0, #0
 292              	.LVL27:
 293              	.L36:
 294              	.LBE343:
 295              	.LBE342:
 296              	.LBE341:
 481:../../iot_link/os/liteos/utils/rbtree.c ****     rb_node_t * p, * g, * u;
 482:../../iot_link/os/liteos/utils/rbtree.c **** 
 483:../../iot_link/os/liteos/utils/rbtree.c ****     while (1)
 484:../../iot_link/os/liteos/utils/rbtree.c ****     {
 485:../../iot_link/os/liteos/utils/rbtree.c ****         p = __parent (n);
 297              		.loc 2 485 0
 298 000c 2C68     		ldr	r4, [r5]
 299              	.LVL28:
 486:../../iot_link/os/liteos/utils/rbtree.c **** 
 487:../../iot_link/os/liteos/utils/rbtree.c ****         if (p == NULL)
 300              		.loc 2 487 0
 301 000e 1CB9     		cbnz	r4, .L32
 302              	.LVL29:
 303              	.LBB346:
 304              	.LBB347:
 305              	.LBB348:
 113:../../iot_link/os/liteos/utils/rbtree.c **** }
 306              		.loc 2 113 0
 307 0010 0123     		movs	r3, #1
 308 0012 EB60     		str	r3, [r5, #12]
 309              	.LVL30:
 310              	.L31:
 311              	.LBE348:
 312              	.LBE347:
 313              	.LBE346:
 488:../../iot_link/os/liteos/utils/rbtree.c ****         {
 489:../../iot_link/os/liteos/utils/rbtree.c ****             __set_black (n);
ARM GAS  C:\Users\LuckyE\AppData\Local\Temp\ccx4tDom.s 			page 25


 490:../../iot_link/os/liteos/utils/rbtree.c ****             return;
 491:../../iot_link/os/liteos/utils/rbtree.c ****         }
 492:../../iot_link/os/liteos/utils/rbtree.c **** 
 493:../../iot_link/os/liteos/utils/rbtree.c ****         if (__raw_is_black (p))
 494:../../iot_link/os/liteos/utils/rbtree.c ****         {
 495:../../iot_link/os/liteos/utils/rbtree.c ****             return;
 496:../../iot_link/os/liteos/utils/rbtree.c ****         }
 497:../../iot_link/os/liteos/utils/rbtree.c **** 
 498:../../iot_link/os/liteos/utils/rbtree.c ****         /*
 499:../../iot_link/os/liteos/utils/rbtree.c ****          * when we reach here, the parent is red, so:
 500:../../iot_link/os/liteos/utils/rbtree.c ****          * 1) the parent must not be root
 501:../../iot_link/os/liteos/utils/rbtree.c ****          * 2) the grand father mast not be NULL
 502:../../iot_link/os/liteos/utils/rbtree.c ****          * 3) the grand father must be black
 503:../../iot_link/os/liteos/utils/rbtree.c ****          */
 504:../../iot_link/os/liteos/utils/rbtree.c **** 
 505:../../iot_link/os/liteos/utils/rbtree.c ****         g = __raw_grand (n);
 506:../../iot_link/os/liteos/utils/rbtree.c ****         u = __raw_uncle (n);
 507:../../iot_link/os/liteos/utils/rbtree.c **** 
 508:../../iot_link/os/liteos/utils/rbtree.c ****         /* case 1, 2 and 3 should set grand parent as RED */
 509:../../iot_link/os/liteos/utils/rbtree.c **** 
 510:../../iot_link/os/liteos/utils/rbtree.c ****         __set_red (g);
 511:../../iot_link/os/liteos/utils/rbtree.c **** 
 512:../../iot_link/os/liteos/utils/rbtree.c ****         if (!__is_red (u))
 513:../../iot_link/os/liteos/utils/rbtree.c ****         {
 514:../../iot_link/os/liteos/utils/rbtree.c ****             break;
 515:../../iot_link/os/liteos/utils/rbtree.c ****         }
 516:../../iot_link/os/liteos/utils/rbtree.c **** 
 517:../../iot_link/os/liteos/utils/rbtree.c ****         /* case 1: z's uncle y is red */
 518:../../iot_link/os/liteos/utils/rbtree.c **** 
 519:../../iot_link/os/liteos/utils/rbtree.c ****         __set_black (p);
 520:../../iot_link/os/liteos/utils/rbtree.c ****         __set_black (u);
 521:../../iot_link/os/liteos/utils/rbtree.c **** 
 522:../../iot_link/os/liteos/utils/rbtree.c ****         n = g;
 523:../../iot_link/os/liteos/utils/rbtree.c ****     }
 524:../../iot_link/os/liteos/utils/rbtree.c **** 
 525:../../iot_link/os/liteos/utils/rbtree.c ****     /* case 2 and case 3 */
 526:../../iot_link/os/liteos/utils/rbtree.c **** 
 527:../../iot_link/os/liteos/utils/rbtree.c ****     if (p == __left (g))
 528:../../iot_link/os/liteos/utils/rbtree.c ****     {
 529:../../iot_link/os/liteos/utils/rbtree.c ****         if (n == __right (p))
 530:../../iot_link/os/liteos/utils/rbtree.c ****         {
 531:../../iot_link/os/liteos/utils/rbtree.c ****             __rotate_left (t, p);
 532:../../iot_link/os/liteos/utils/rbtree.c ****         }
 533:../../iot_link/os/liteos/utils/rbtree.c ****         else
 534:../../iot_link/os/liteos/utils/rbtree.c ****         {
 535:../../iot_link/os/liteos/utils/rbtree.c ****             n = p;
 536:../../iot_link/os/liteos/utils/rbtree.c ****         }
 537:../../iot_link/os/liteos/utils/rbtree.c **** 
 538:../../iot_link/os/liteos/utils/rbtree.c ****         __rotate_right (t, g);
 539:../../iot_link/os/liteos/utils/rbtree.c ****     }
 540:../../iot_link/os/liteos/utils/rbtree.c ****     else
 541:../../iot_link/os/liteos/utils/rbtree.c ****     {
 542:../../iot_link/os/liteos/utils/rbtree.c ****         if (n == __left (p))
 543:../../iot_link/os/liteos/utils/rbtree.c ****         {
 544:../../iot_link/os/liteos/utils/rbtree.c ****             __rotate_right (t, p);
 545:../../iot_link/os/liteos/utils/rbtree.c ****         }
 546:../../iot_link/os/liteos/utils/rbtree.c ****         else
ARM GAS  C:\Users\LuckyE\AppData\Local\Temp\ccx4tDom.s 			page 26


 547:../../iot_link/os/liteos/utils/rbtree.c ****         {
 548:../../iot_link/os/liteos/utils/rbtree.c ****             n = p;
 549:../../iot_link/os/liteos/utils/rbtree.c ****         }
 550:../../iot_link/os/liteos/utils/rbtree.c **** 
 551:../../iot_link/os/liteos/utils/rbtree.c ****         __rotate_left (t, g);
 552:../../iot_link/os/liteos/utils/rbtree.c ****     }
 553:../../iot_link/os/liteos/utils/rbtree.c **** 
 554:../../iot_link/os/liteos/utils/rbtree.c ****     __set_black (n);
 555:../../iot_link/os/liteos/utils/rbtree.c **** }
 314              		.loc 2 555 0
 315 0014 BDE8F081 		pop	{r4, r5, r6, r7, r8, pc}
 316              	.LVL31:
 317              	.L32:
 493:../../iot_link/os/liteos/utils/rbtree.c ****         {
 318              		.loc 2 493 0
 319 0018 E368     		ldr	r3, [r4, #12]
 320 001a 012B     		cmp	r3, #1
 321 001c FAD0     		beq	.L31
 322              	.LVL32:
 323              	.LBB349:
 324              	.LBB350:
 325              	.LBB351:
 102:../../iot_link/os/liteos/base/include/__binary_tree.h **** }
 326              		.loc 1 102 0
 327 001e 2768     		ldr	r7, [r4]
 328              	.LVL33:
 329              	.LBE351:
 330              	.LBE350:
 331              	.LBE349:
 332              	.LBB352:
 333              	.LBB353:
 334              	.LBB354:
 136:../../iot_link/os/liteos/base/include/__binary_tree.h **** }
 335              		.loc 1 136 0
 336 0020 7E68     		ldr	r6, [r7, #4]
 337              	.LBE354:
 338              	.LBE353:
 339              	.LBE352:
 340              	.LBB357:
 341              	.LBB345:
 342              	.LBB344:
 113:../../iot_link/os/liteos/utils/rbtree.c **** }
 343              		.loc 2 113 0
 344 0022 F860     		str	r0, [r7, #12]
 345              	.LBE344:
 346              	.LBE345:
 347              	.LBE357:
 348              	.LBB358:
 349              	.LBB356:
 350              	.LBB355:
 136:../../iot_link/os/liteos/base/include/__binary_tree.h **** }
 351              		.loc 1 136 0
 352 0024 B442     		cmp	r4, r6
 353 0026 0CBF     		ite	eq
 354 0028 BB68     		ldreq	r3, [r7, #8]
 355 002a 3346     		movne	r3, r6
 356              	.LVL34:
ARM GAS  C:\Users\LuckyE\AppData\Local\Temp\ccx4tDom.s 			page 27


 357              	.LBE355:
 358              	.LBE356:
 359              	.LBE358:
 360              	.LBB359:
 361              	.LBB360:
  76:../../iot_link/os/liteos/utils/rbtree.c **** }
 362              		.loc 2 76 0
 363 002c 2BB1     		cbz	r3, .L35
 364              	.LVL35:
 365 002e D968     		ldr	r1, [r3, #12]
 366 0030 19B9     		cbnz	r1, .L35
 367              	.LVL36:
 368              	.LBE360:
 369              	.LBE359:
 370              	.LBB361:
 371              	.LBB340:
 372              	.LBB339:
 113:../../iot_link/os/liteos/utils/rbtree.c **** }
 373              		.loc 2 113 0
 374 0032 E260     		str	r2, [r4, #12]
 375              	.LVL37:
 376              	.LBE339:
 377              	.LBE340:
 378              	.LBE361:
 485:../../iot_link/os/liteos/utils/rbtree.c **** 
 379              		.loc 2 485 0
 380 0034 3D46     		mov	r5, r7
 381              	.LVL38:
 382              	.LBB362:
 383              	.LBB363:
 384              	.LBB364:
 113:../../iot_link/os/liteos/utils/rbtree.c **** }
 385              		.loc 2 113 0
 386 0036 DA60     		str	r2, [r3, #12]
 387              	.LVL39:
 388              	.LBE364:
 389              	.LBE363:
 390              	.LBE362:
 485:../../iot_link/os/liteos/utils/rbtree.c **** 
 391              		.loc 2 485 0
 392 0038 E8E7     		b	.L36
 393              	.LVL40:
 394              	.L35:
 527:../../iot_link/os/liteos/utils/rbtree.c ****     {
 395              		.loc 2 527 0
 396 003a B442     		cmp	r4, r6
 397 003c 0FD1     		bne	.L37
 398              	.LVL41:
 529:../../iot_link/os/liteos/utils/rbtree.c ****         {
 399              		.loc 2 529 0
 400 003e B368     		ldr	r3, [r6, #8]
 401 0040 9D42     		cmp	r5, r3
 402 0042 04D1     		bne	.L38
 403              	.LVL42:
 404              	.LBB365:
 405              	.LBB366:
 286:../../iot_link/os/liteos/utils/rbtree.c **** }
ARM GAS  C:\Users\LuckyE\AppData\Local\Temp\ccx4tDom.s 			page 28


 406              		.loc 2 286 0
 407 0044 3146     		mov	r1, r6
 408 0046 4046     		mov	r0, r8
 409 0048 FFF7FEFF 		bl	__bit_rotate_left.isra.5
 410              	.LVL43:
 411 004c 2E46     		mov	r6, r5
 412              	.LVL44:
 413              	.L38:
 414              	.LBE366:
 415              	.LBE365:
 416              	.LBB367:
 417              	.LBB368:
 273:../../iot_link/os/liteos/utils/rbtree.c **** }
 418              		.loc 2 273 0
 419 004e 3946     		mov	r1, r7
 420 0050 4046     		mov	r0, r8
 421 0052 FFF7FEFF 		bl	__bit_rotate_right.isra.4
 422              	.LVL45:
 423 0056 3446     		mov	r4, r6
 424              	.LVL46:
 425              	.L39:
 426              	.LBE368:
 427              	.LBE367:
 428              	.LBB369:
 429              	.LBB370:
 430              	.LBB371:
 113:../../iot_link/os/liteos/utils/rbtree.c **** }
 431              		.loc 2 113 0
 432 0058 0123     		movs	r3, #1
 433 005a E360     		str	r3, [r4, #12]
 434              	.LVL47:
 435 005c DAE7     		b	.L31
 436              	.LVL48:
 437              	.L37:
 438              	.LBE371:
 439              	.LBE370:
 440              	.LBE369:
 542:../../iot_link/os/liteos/utils/rbtree.c ****         {
 441              		.loc 2 542 0
 442 005e 6368     		ldr	r3, [r4, #4]
 443 0060 9D42     		cmp	r5, r3
 444 0062 04D1     		bne	.L40
 445              	.LVL49:
 446              	.LBB372:
 447              	.LBB373:
 273:../../iot_link/os/liteos/utils/rbtree.c **** }
 448              		.loc 2 273 0
 449 0064 2146     		mov	r1, r4
 450 0066 4046     		mov	r0, r8
 451 0068 FFF7FEFF 		bl	__bit_rotate_right.isra.4
 452              	.LVL50:
 453 006c 2C46     		mov	r4, r5
 454              	.LVL51:
 455              	.L40:
 456              	.LBE373:
 457              	.LBE372:
 458              	.LBB374:
ARM GAS  C:\Users\LuckyE\AppData\Local\Temp\ccx4tDom.s 			page 29


 459              	.LBB375:
 286:../../iot_link/os/liteos/utils/rbtree.c **** }
 460              		.loc 2 286 0
 461 006e 3946     		mov	r1, r7
 462 0070 4046     		mov	r0, r8
 463 0072 FFF7FEFF 		bl	__bit_rotate_left.isra.5
 464              	.LVL52:
 465 0076 EFE7     		b	.L39
 466              	.LBE375:
 467              	.LBE374:
 468              		.cfi_endproc
 469              	.LFE53:
 471              		.section	.text.rb_find_eq,"ax",%progbits
 472              		.align	1
 473              		.global	rb_find_eq
 474              		.syntax unified
 475              		.thumb
 476              		.thumb_func
 477              		.fpu fpv4-sp-d16
 479              	rb_find_eq:
 480              	.LFB43:
 322:../../iot_link/os/liteos/utils/rbtree.c ****     return container_of (__bit_find_eq (&t->bit, k), rb_node_t, bin);
 481              		.loc 2 322 0
 482              		.cfi_startproc
 483              		@ args = 0, pretend = 0, frame = 0
 484              		@ frame_needed = 0, uses_anonymous_args = 0
 485              	.LVL53:
 486 0000 70B5     		push	{r4, r5, r6, lr}
 487              	.LCFI3:
 488              		.cfi_def_cfa_offset 16
 489              		.cfi_offset 4, -16
 490              		.cfi_offset 5, -12
 491              		.cfi_offset 6, -8
 492              		.cfi_offset 14, -4
 493              	.LBB379:
 494              	.LBB380:
 237:../../iot_link/os/liteos/base/include/__binary_tree.h **** 
 495              		.loc 1 237 0
 496 0002 0468     		ldr	r4, [r0]
 497              	.LBE380:
 498              	.LBE379:
 322:../../iot_link/os/liteos/utils/rbtree.c ****     return container_of (__bit_find_eq (&t->bit, k), rb_node_t, bin);
 499              		.loc 2 322 0
 500 0004 0546     		mov	r5, r0
 501 0006 0E46     		mov	r6, r1
 502              	.LVL54:
 503              	.L49:
 504              	.LBB384:
 505              	.LBB382:
 239:../../iot_link/os/liteos/base/include/__binary_tree.h ****     {
 506              		.loc 1 239 0
 507 0008 0CB9     		cbnz	r4, .L52
 508              	.L48:
 509              	.LBE382:
 510              	.LBE384:
 324:../../iot_link/os/liteos/utils/rbtree.c **** 
 511              		.loc 2 324 0
ARM GAS  C:\Users\LuckyE\AppData\Local\Temp\ccx4tDom.s 			page 30


 512 000a 2046     		mov	r0, r4
 513 000c 70BD     		pop	{r4, r5, r6, pc}
 514              	.LVL55:
 515              	.L52:
 516              	.LBB385:
 517              	.LBB383:
 518              	.LBB381:
 241:../../iot_link/os/liteos/base/include/__binary_tree.h **** 
 519              		.loc 1 241 0
 520 000e AB68     		ldr	r3, [r5, #8]
 521 0010 3146     		mov	r1, r6
 522 0012 2046     		mov	r0, r4
 523 0014 9847     		blx	r3
 524              	.LVL56:
 243:../../iot_link/os/liteos/base/include/__binary_tree.h ****         {
 525              		.loc 1 243 0
 526 0016 0028     		cmp	r0, #0
 527 0018 F7D0     		beq	.L48
 248:../../iot_link/os/liteos/base/include/__binary_tree.h ****     }
 528              		.loc 1 248 0
 529 001a D4E90132 		ldrd	r3, r2, [r4, #4]
 530 001e B8BF     		it	lt
 531 0020 1346     		movlt	r3, r2
 532 0022 1C46     		mov	r4, r3
 533              	.LVL57:
 534 0024 F0E7     		b	.L49
 535              	.LBE381:
 536              	.LBE383:
 537              	.LBE385:
 538              		.cfi_endproc
 539              	.LFE43:
 541              		.section	.text.rb_find_ge,"ax",%progbits
 542              		.align	1
 543              		.global	rb_find_ge
 544              		.syntax unified
 545              		.thumb
 546              		.thumb_func
 547              		.fpu fpv4-sp-d16
 549              	rb_find_ge:
 550              	.LFB44:
 335:../../iot_link/os/liteos/utils/rbtree.c ****     return container_of (__bit_find_ge (&t->bit, k), rb_node_t, bin);
 551              		.loc 2 335 0
 552              		.cfi_startproc
 553              		@ args = 0, pretend = 0, frame = 0
 554              		@ frame_needed = 0, uses_anonymous_args = 0
 555              	.LVL58:
 556 0000 F8B5     		push	{r3, r4, r5, r6, r7, lr}
 557              	.LCFI4:
 558              		.cfi_def_cfa_offset 24
 559              		.cfi_offset 3, -24
 560              		.cfi_offset 4, -20
 561              		.cfi_offset 5, -16
 562              		.cfi_offset 6, -12
 563              		.cfi_offset 7, -8
 564              		.cfi_offset 14, -4
 565              	.LBB390:
 566              	.LBB391:
ARM GAS  C:\Users\LuckyE\AppData\Local\Temp\ccx4tDom.s 			page 31


 399:../../iot_link/os/liteos/base/include/__binary_tree.h **** }
 567              		.loc 1 399 0
 568 0002 0468     		ldr	r4, [r0]
 569              	.LBE391:
 570              	.LBE390:
 335:../../iot_link/os/liteos/utils/rbtree.c ****     return container_of (__bit_find_ge (&t->bit, k), rb_node_t, bin);
 571              		.loc 2 335 0
 572 0004 0646     		mov	r6, r0
 573 0006 0F46     		mov	r7, r1
 574              	.LVL59:
 575              	.LBB395:
 576              	.LBB393:
 399:../../iot_link/os/liteos/base/include/__binary_tree.h **** }
 577              		.loc 1 399 0
 578 0008 0025     		movs	r5, #0
 579              	.LVL60:
 580              	.L57:
 581 000a 14B9     		cbnz	r4, .L60
 582 000c 2C46     		mov	r4, r5
 583              	.LVL61:
 584              	.L56:
 585              	.LBE393:
 586              	.LBE395:
 337:../../iot_link/os/liteos/utils/rbtree.c **** 
 587              		.loc 2 337 0
 588 000e 2046     		mov	r0, r4
 589 0010 F8BD     		pop	{r3, r4, r5, r6, r7, pc}
 590              	.LVL62:
 591              	.L60:
 592              	.LBB396:
 593              	.LBB394:
 594              	.LBB392:
 399:../../iot_link/os/liteos/base/include/__binary_tree.h **** }
 595              		.loc 1 399 0
 596 0012 B368     		ldr	r3, [r6, #8]
 597 0014 3946     		mov	r1, r7
 598 0016 2046     		mov	r0, r4
 599 0018 9847     		blx	r3
 600              	.LVL63:
 601 001a 0028     		cmp	r0, #0
 602 001c F7D0     		beq	.L56
 603 001e D4E90132 		ldrd	r3, r2, [r4, #4]
 604 0022 BCBF     		itt	lt
 605 0024 2C46     		movlt	r4, r5
 606              	.LVL64:
 607 0026 1346     		movlt	r3, r2
 608 0028 2546     		mov	r5, r4
 609              	.LVL65:
 610 002a 1C46     		mov	r4, r3
 611 002c EDE7     		b	.L57
 612              	.LBE392:
 613              	.LBE394:
 614              	.LBE396:
 615              		.cfi_endproc
 616              	.LFE44:
 618              		.section	.text.rb_find_gt,"ax",%progbits
 619              		.align	1
ARM GAS  C:\Users\LuckyE\AppData\Local\Temp\ccx4tDom.s 			page 32


 620              		.global	rb_find_gt
 621              		.syntax unified
 622              		.thumb
 623              		.thumb_func
 624              		.fpu fpv4-sp-d16
 626              	rb_find_gt:
 627              	.LFB45:
 348:../../iot_link/os/liteos/utils/rbtree.c ****     return container_of (__bit_find_gt (&t->bit, k), rb_node_t, bin);
 628              		.loc 2 348 0
 629              		.cfi_startproc
 630              		@ args = 0, pretend = 0, frame = 0
 631              		@ frame_needed = 0, uses_anonymous_args = 0
 632              	.LVL66:
 633 0000 F8B5     		push	{r3, r4, r5, r6, r7, lr}
 634              	.LCFI5:
 635              		.cfi_def_cfa_offset 24
 636              		.cfi_offset 3, -24
 637              		.cfi_offset 4, -20
 638              		.cfi_offset 5, -16
 639              		.cfi_offset 6, -12
 640              		.cfi_offset 7, -8
 641              		.cfi_offset 14, -4
 642              	.LBB401:
 643              	.LBB402:
 293:../../iot_link/os/liteos/base/include/__binary_tree.h **** }
 644              		.loc 1 293 0
 645 0002 0468     		ldr	r4, [r0]
 646              	.LBE402:
 647              	.LBE401:
 348:../../iot_link/os/liteos/utils/rbtree.c ****     return container_of (__bit_find_gt (&t->bit, k), rb_node_t, bin);
 648              		.loc 2 348 0
 649 0004 0646     		mov	r6, r0
 650 0006 0F46     		mov	r7, r1
 651              	.LVL67:
 652              	.LBB406:
 653              	.LBB404:
 293:../../iot_link/os/liteos/base/include/__binary_tree.h **** }
 654              		.loc 1 293 0
 655 0008 0025     		movs	r5, #0
 656              	.LVL68:
 657              	.L65:
 658 000a 0CB9     		cbnz	r4, .L68
 659              	.LVL69:
 660              	.LBE404:
 661              	.LBE406:
 350:../../iot_link/os/liteos/utils/rbtree.c **** 
 662              		.loc 2 350 0
 663 000c 2846     		mov	r0, r5
 664 000e F8BD     		pop	{r3, r4, r5, r6, r7, pc}
 665              	.LVL70:
 666              	.L68:
 667              	.LBB407:
 668              	.LBB405:
 669              	.LBB403:
 293:../../iot_link/os/liteos/base/include/__binary_tree.h **** }
 670              		.loc 1 293 0
 671 0010 B368     		ldr	r3, [r6, #8]
ARM GAS  C:\Users\LuckyE\AppData\Local\Temp\ccx4tDom.s 			page 33


 672 0012 3946     		mov	r1, r7
 673 0014 2046     		mov	r0, r4
 674 0016 9847     		blx	r3
 675              	.LVL71:
 676 0018 0028     		cmp	r0, #0
 677 001a 02DC     		bgt	.L69
 678 001c 02D0     		beq	.L66
 679 001e A468     		ldr	r4, [r4, #8]
 680              	.LVL72:
 681 0020 F3E7     		b	.L65
 682              	.LVL73:
 683              	.L69:
 684 0022 2546     		mov	r5, r4
 685              	.L66:
 686 0024 6468     		ldr	r4, [r4, #4]
 687              	.LVL74:
 688 0026 F0E7     		b	.L65
 689              	.LBE403:
 690              	.LBE405:
 691              	.LBE407:
 692              		.cfi_endproc
 693              	.LFE45:
 695              		.section	.text.rb_find_le,"ax",%progbits
 696              		.align	1
 697              		.global	rb_find_le
 698              		.syntax unified
 699              		.thumb
 700              		.thumb_func
 701              		.fpu fpv4-sp-d16
 703              	rb_find_le:
 704              	.LFB46:
 361:../../iot_link/os/liteos/utils/rbtree.c ****     return container_of (__bit_find_le (&t->bit, k), rb_node_t, bin);
 705              		.loc 2 361 0
 706              		.cfi_startproc
 707              		@ args = 0, pretend = 0, frame = 0
 708              		@ frame_needed = 0, uses_anonymous_args = 0
 709              	.LVL75:
 710 0000 F8B5     		push	{r3, r4, r5, r6, r7, lr}
 711              	.LCFI6:
 712              		.cfi_def_cfa_offset 24
 713              		.cfi_offset 3, -24
 714              		.cfi_offset 4, -20
 715              		.cfi_offset 5, -16
 716              		.cfi_offset 6, -12
 717              		.cfi_offset 7, -8
 718              		.cfi_offset 14, -4
 719              	.LBB412:
 720              	.LBB413:
 412:../../iot_link/os/liteos/base/include/__binary_tree.h **** }
 721              		.loc 1 412 0
 722 0002 0468     		ldr	r4, [r0]
 723              	.LBE413:
 724              	.LBE412:
 361:../../iot_link/os/liteos/utils/rbtree.c ****     return container_of (__bit_find_le (&t->bit, k), rb_node_t, bin);
 725              		.loc 2 361 0
 726 0004 0646     		mov	r6, r0
 727 0006 0F46     		mov	r7, r1
ARM GAS  C:\Users\LuckyE\AppData\Local\Temp\ccx4tDom.s 			page 34


 728              	.LVL76:
 729              	.LBB417:
 730              	.LBB415:
 412:../../iot_link/os/liteos/base/include/__binary_tree.h **** }
 731              		.loc 1 412 0
 732 0008 0025     		movs	r5, #0
 733              	.LVL77:
 734              	.L71:
 735 000a 14B9     		cbnz	r4, .L74
 736 000c 2C46     		mov	r4, r5
 737              	.LVL78:
 738              	.L70:
 739              	.LBE415:
 740              	.LBE417:
 363:../../iot_link/os/liteos/utils/rbtree.c **** 
 741              		.loc 2 363 0
 742 000e 2046     		mov	r0, r4
 743 0010 F8BD     		pop	{r3, r4, r5, r6, r7, pc}
 744              	.LVL79:
 745              	.L74:
 746              	.LBB418:
 747              	.LBB416:
 748              	.LBB414:
 412:../../iot_link/os/liteos/base/include/__binary_tree.h **** }
 749              		.loc 1 412 0
 750 0012 B368     		ldr	r3, [r6, #8]
 751 0014 3946     		mov	r1, r7
 752 0016 2046     		mov	r0, r4
 753 0018 9847     		blx	r3
 754              	.LVL80:
 755 001a 0028     		cmp	r0, #0
 756 001c F7D0     		beq	.L70
 757 001e D4E90123 		ldrd	r2, r3, [r4, #4]
 758 0022 C4BF     		itt	gt
 759 0024 2C46     		movgt	r4, r5
 760              	.LVL81:
 761 0026 1346     		movgt	r3, r2
 762 0028 2546     		mov	r5, r4
 763              	.LVL82:
 764 002a 1C46     		mov	r4, r3
 765 002c EDE7     		b	.L71
 766              	.LBE414:
 767              	.LBE416:
 768              	.LBE418:
 769              		.cfi_endproc
 770              	.LFE46:
 772              		.section	.text.rb_find_lt,"ax",%progbits
 773              		.align	1
 774              		.global	rb_find_lt
 775              		.syntax unified
 776              		.thumb
 777              		.thumb_func
 778              		.fpu fpv4-sp-d16
 780              	rb_find_lt:
 781              	.LFB47:
 374:../../iot_link/os/liteos/utils/rbtree.c ****     return container_of (__bit_find_lt (&t->bit, k), rb_node_t, bin);
 782              		.loc 2 374 0
ARM GAS  C:\Users\LuckyE\AppData\Local\Temp\ccx4tDom.s 			page 35


 783              		.cfi_startproc
 784              		@ args = 0, pretend = 0, frame = 0
 785              		@ frame_needed = 0, uses_anonymous_args = 0
 786              	.LVL83:
 787 0000 F8B5     		push	{r3, r4, r5, r6, r7, lr}
 788              	.LCFI7:
 789              		.cfi_def_cfa_offset 24
 790              		.cfi_offset 3, -24
 791              		.cfi_offset 4, -20
 792              		.cfi_offset 5, -16
 793              		.cfi_offset 6, -12
 794              		.cfi_offset 7, -8
 795              		.cfi_offset 14, -4
 796              	.LBB423:
 797              	.LBB424:
 306:../../iot_link/os/liteos/base/include/__binary_tree.h **** }
 798              		.loc 1 306 0
 799 0002 0468     		ldr	r4, [r0]
 800              	.LBE424:
 801              	.LBE423:
 374:../../iot_link/os/liteos/utils/rbtree.c ****     return container_of (__bit_find_lt (&t->bit, k), rb_node_t, bin);
 802              		.loc 2 374 0
 803 0004 0646     		mov	r6, r0
 804 0006 0F46     		mov	r7, r1
 805              	.LVL84:
 806              	.LBB428:
 807              	.LBB426:
 306:../../iot_link/os/liteos/base/include/__binary_tree.h **** }
 808              		.loc 1 306 0
 809 0008 0025     		movs	r5, #0
 810              	.LVL85:
 811              	.L79:
 812 000a 0CB9     		cbnz	r4, .L81
 813              	.LVL86:
 814              	.LBE426:
 815              	.LBE428:
 376:../../iot_link/os/liteos/utils/rbtree.c **** 
 816              		.loc 2 376 0
 817 000c 2846     		mov	r0, r5
 818 000e F8BD     		pop	{r3, r4, r5, r6, r7, pc}
 819              	.LVL87:
 820              	.L81:
 821              	.LBB429:
 822              	.LBB427:
 823              	.LBB425:
 306:../../iot_link/os/liteos/base/include/__binary_tree.h **** }
 824              		.loc 1 306 0
 825 0010 2046     		mov	r0, r4
 826 0012 B368     		ldr	r3, [r6, #8]
 827 0014 3946     		mov	r1, r7
 828 0016 9847     		blx	r3
 829              	.LVL88:
 830 0018 D4E90132 		ldrd	r3, r2, [r4, #4]
 831 001c 0028     		cmp	r0, #0
 832 001e B6BF     		itet	lt
 833 0020 2546     		movlt	r5, r4
 834              	.LVL89:
ARM GAS  C:\Users\LuckyE\AppData\Local\Temp\ccx4tDom.s 			page 36


 835 0022 1C46     		movge	r4, r3
 836              	.LVL90:
 837 0024 1446     		movlt	r4, r2
 838 0026 F0E7     		b	.L79
 839              	.LBE425:
 840              	.LBE427:
 841              	.LBE429:
 842              		.cfi_endproc
 843              	.LFE47:
 845              		.section	.text.rb_first,"ax",%progbits
 846              		.align	1
 847              		.global	rb_first
 848              		.syntax unified
 849              		.thumb
 850              		.thumb_func
 851              		.fpu fpv4-sp-d16
 853              	rb_first:
 854              	.LFB48:
 386:../../iot_link/os/liteos/utils/rbtree.c ****     return container_of (__bit_first (&t->bit), rb_node_t, bin);
 855              		.loc 2 386 0
 856              		.cfi_startproc
 857              		@ args = 0, pretend = 0, frame = 0
 858              		@ frame_needed = 0, uses_anonymous_args = 0
 859              		@ link register save eliminated.
 860              	.LVL91:
 387:../../iot_link/os/liteos/utils/rbtree.c **** }
 861              		.loc 2 387 0
 862 0000 0068     		ldr	r0, [r0]
 863              	.LVL92:
 864              	.LBB432:
 865              	.LBB433:
 320:../../iot_link/os/liteos/base/include/__binary_tree.h ****     {
 866              		.loc 1 320 0
 867 0002 08B9     		cbnz	r0, .L84
 868 0004 7047     		bx	lr
 869              	.L85:
 322:../../iot_link/os/liteos/base/include/__binary_tree.h ****         {
 870              		.loc 1 322 0
 871 0006 1846     		mov	r0, r3
 872              	.LVL93:
 873              	.L84:
 874 0008 4368     		ldr	r3, [r0, #4]
 875 000a 002B     		cmp	r3, #0
 876 000c FBD1     		bne	.L85
 877              	.LBE433:
 878              	.LBE432:
 388:../../iot_link/os/liteos/utils/rbtree.c **** 
 879              		.loc 2 388 0
 880 000e 7047     		bx	lr
 881              		.cfi_endproc
 882              	.LFE48:
 884              		.section	.text.rb_last,"ax",%progbits
 885              		.align	1
 886              		.global	rb_last
 887              		.syntax unified
 888              		.thumb
 889              		.thumb_func
ARM GAS  C:\Users\LuckyE\AppData\Local\Temp\ccx4tDom.s 			page 37


 890              		.fpu fpv4-sp-d16
 892              	rb_last:
 893              	.LFB49:
 398:../../iot_link/os/liteos/utils/rbtree.c ****     return container_of (__bit_last (&t->bit), rb_node_t, bin);
 894              		.loc 2 398 0
 895              		.cfi_startproc
 896              		@ args = 0, pretend = 0, frame = 0
 897              		@ frame_needed = 0, uses_anonymous_args = 0
 898              		@ link register save eliminated.
 899              	.LVL94:
 399:../../iot_link/os/liteos/utils/rbtree.c **** }
 900              		.loc 2 399 0
 901 0000 0068     		ldr	r0, [r0]
 902              	.LVL95:
 903              	.LBB436:
 904              	.LBB437:
 342:../../iot_link/os/liteos/base/include/__binary_tree.h ****     {
 905              		.loc 1 342 0
 906 0002 08B9     		cbnz	r0, .L91
 907 0004 7047     		bx	lr
 908              	.L92:
 344:../../iot_link/os/liteos/base/include/__binary_tree.h ****         {
 909              		.loc 1 344 0
 910 0006 1846     		mov	r0, r3
 911              	.LVL96:
 912              	.L91:
 913 0008 8368     		ldr	r3, [r0, #8]
 914 000a 002B     		cmp	r3, #0
 915 000c FBD1     		bne	.L92
 916              	.LBE437:
 917              	.LBE436:
 400:../../iot_link/os/liteos/utils/rbtree.c **** 
 918              		.loc 2 400 0
 919 000e 7047     		bx	lr
 920              		.cfi_endproc
 921              	.LFE49:
 923              		.section	.text.rb_next,"ax",%progbits
 924              		.align	1
 925              		.global	rb_next
 926              		.syntax unified
 927              		.thumb
 928              		.thumb_func
 929              		.fpu fpv4-sp-d16
 931              	rb_next:
 932              	.LFB50:
 410:../../iot_link/os/liteos/utils/rbtree.c ****     return __successor (n);
 933              		.loc 2 410 0
 934              		.cfi_startproc
 935              		@ args = 0, pretend = 0, frame = 0
 936              		@ frame_needed = 0, uses_anonymous_args = 0
 937              		@ link register save eliminated.
 938              	.LVL97:
 939              	.LBB438:
 940              	.LBB439:
 298:../../iot_link/os/liteos/utils/rbtree.c **** }
 941              		.loc 2 298 0
 942 0000 FFF7FEBF 		b	__bit_successor
ARM GAS  C:\Users\LuckyE\AppData\Local\Temp\ccx4tDom.s 			page 38


 943              	.LVL98:
 944              	.LBE439:
 945              	.LBE438:
 946              		.cfi_endproc
 947              	.LFE50:
 949              		.section	.text.rb_prev,"ax",%progbits
 950              		.align	1
 951              		.global	rb_prev
 952              		.syntax unified
 953              		.thumb
 954              		.thumb_func
 955              		.fpu fpv4-sp-d16
 957              	rb_prev:
 958              	.LFB51:
 422:../../iot_link/os/liteos/utils/rbtree.c ****     return __predecessor (n);
 959              		.loc 2 422 0
 960              		.cfi_startproc
 961              		@ args = 0, pretend = 0, frame = 0
 962              		@ frame_needed = 0, uses_anonymous_args = 0
 963              		@ link register save eliminated.
 964              	.LVL99:
 965              	.LBB444:
 966              	.LBB445:
 967              	.LBB446:
 968              	.LBB447:
 207:../../iot_link/os/liteos/base/include/__binary_tree.h **** 
 969              		.loc 1 207 0
 970 0000 4368     		ldr	r3, [r0, #4]
 971              	.LVL100:
 209:../../iot_link/os/liteos/base/include/__binary_tree.h ****     {
 972              		.loc 1 209 0
 973 0002 3BB9     		cbnz	r3, .L99
 974              	.LVL101:
 975              	.L101:
 219:../../iot_link/os/liteos/base/include/__binary_tree.h ****     {
 976              		.loc 1 219 0
 977 0004 0368     		ldr	r3, [r0]
 978 0006 43B1     		cbz	r3, .L97
 979 0008 5A68     		ldr	r2, [r3, #4]
 980 000a 9042     		cmp	r0, r2
 981 000c 05D1     		bne	.L97
 982 000e 1846     		mov	r0, r3
 983              	.LVL102:
 984 0010 F8E7     		b	.L101
 985              	.LVL103:
 986              	.L102:
 211:../../iot_link/os/liteos/base/include/__binary_tree.h ****         {
 987              		.loc 1 211 0
 988 0012 1346     		mov	r3, r2
 989              	.LVL104:
 990              	.L99:
 991 0014 9A68     		ldr	r2, [r3, #8]
 992 0016 002A     		cmp	r2, #0
 993 0018 FBD1     		bne	.L102
 994              	.LVL105:
 995              	.L97:
 996              	.LBE447:
ARM GAS  C:\Users\LuckyE\AppData\Local\Temp\ccx4tDom.s 			page 39


 997              	.LBE446:
 998              	.LBE445:
 999              	.LBE444:
 424:../../iot_link/os/liteos/utils/rbtree.c **** 
 1000              		.loc 2 424 0
 1001 001a 1846     		mov	r0, r3
 1002 001c 7047     		bx	lr
 1003              		.cfi_endproc
 1004              	.LFE51:
 1006              		.section	.text.rb_replace,"ax",%progbits
 1007              		.align	1
 1008              		.global	rb_replace
 1009              		.syntax unified
 1010              		.thumb
 1011              		.thumb_func
 1012              		.fpu fpv4-sp-d16
 1014              	rb_replace:
 1015              	.LFB52:
 436:../../iot_link/os/liteos/utils/rbtree.c ****     rb_node_t * p, * l, * r;
 1016              		.loc 2 436 0
 1017              		.cfi_startproc
 1018              		@ args = 0, pretend = 0, frame = 0
 1019              		@ frame_needed = 0, uses_anonymous_args = 0
 1020              	.LVL106:
 1021 0000 70B5     		push	{r4, r5, r6, lr}
 1022              	.LCFI8:
 1023              		.cfi_def_cfa_offset 16
 1024              		.cfi_offset 4, -16
 1025              		.cfi_offset 5, -12
 1026              		.cfi_offset 6, -8
 1027              		.cfi_offset 14, -4
 436:../../iot_link/os/liteos/utils/rbtree.c ****     rb_node_t * p, * l, * r;
 1028              		.loc 2 436 0
 1029 0002 1446     		mov	r4, r2
 1030 0004 0646     		mov	r6, r0
 1031 0006 0D46     		mov	r5, r1
 439:../../iot_link/os/liteos/utils/rbtree.c **** 
 1032              		.loc 2 439 0
 1033 0008 0FC9     		ldm	r1, {r0, r1, r2, r3}
 1034              	.LVL107:
 1035 000a 84E80F00 		stm	r4, {r0, r1, r2, r3}
 1036              	.LVL108:
 445:../../iot_link/os/liteos/utils/rbtree.c ****     {
 1037              		.loc 2 445 0
 1038 000e 01B1     		cbz	r1, .L108
 1039              	.LVL109:
 1040              	.LBB448:
 1041              	.LBB449:
 197:../../iot_link/os/liteos/utils/rbtree.c **** }
 1042              		.loc 2 197 0
 1043 0010 0C60     		str	r4, [r1]
 1044              	.LVL110:
 1045              	.L108:
 1046              	.LBE449:
 1047              	.LBE448:
 450:../../iot_link/os/liteos/utils/rbtree.c ****     {
 1048              		.loc 2 450 0
ARM GAS  C:\Users\LuckyE\AppData\Local\Temp\ccx4tDom.s 			page 40


 1049 0012 02B1     		cbz	r2, .L109
 1050              	.LVL111:
 1051              	.LBB450:
 1052              	.LBB451:
 197:../../iot_link/os/liteos/utils/rbtree.c **** }
 1053              		.loc 2 197 0
 1054 0014 1460     		str	r4, [r2]
 1055              	.LVL112:
 1056              	.L109:
 1057              	.LBE451:
 1058              	.LBE450:
 455:../../iot_link/os/liteos/utils/rbtree.c ****     {
 1059              		.loc 2 455 0
 1060 0016 08B9     		cbnz	r0, .L110
 457:../../iot_link/os/liteos/utils/rbtree.c ****         return;
 1061              		.loc 2 457 0
 1062 0018 3460     		str	r4, [r6]
 1063              	.L107:
 469:../../iot_link/os/liteos/utils/rbtree.c **** 
 1064              		.loc 2 469 0
 1065 001a 70BD     		pop	{r4, r5, r6, pc}
 1066              	.LVL113:
 1067              	.L110:
 461:../../iot_link/os/liteos/utils/rbtree.c ****     {
 1068              		.loc 2 461 0
 1069 001c 4368     		ldr	r3, [r0, #4]
 1070 001e 9D42     		cmp	r5, r3
 1071              	.LVL114:
 1072              	.LBB452:
 1073              	.LBB453:
 210:../../iot_link/os/liteos/utils/rbtree.c **** }
 1074              		.loc 2 210 0
 1075 0020 0CBF     		ite	eq
 1076 0022 4460     		streq	r4, [r0, #4]
 1077              	.LVL115:
 1078              	.LBE453:
 1079              	.LBE452:
 1080              	.LBB454:
 1081              	.LBB455:
 223:../../iot_link/os/liteos/utils/rbtree.c **** }
 1082              		.loc 2 223 0
 1083 0024 8460     		strne	r4, [r0, #8]
 1084 0026 F8E7     		b	.L107
 1085              	.LBE455:
 1086              	.LBE454:
 1087              		.cfi_endproc
 1088              	.LFE52:
 1090              		.section	.text.rb_insert,"ax",%progbits
 1091              		.align	1
 1092              		.global	rb_insert
 1093              		.syntax unified
 1094              		.thumb
 1095              		.thumb_func
 1096              		.fpu fpv4-sp-d16
 1098              	rb_insert:
 1099              	.LFB54:
 556:../../iot_link/os/liteos/utils/rbtree.c **** 
ARM GAS  C:\Users\LuckyE\AppData\Local\Temp\ccx4tDom.s 			page 41


 557:../../iot_link/os/liteos/utils/rbtree.c **** /**
 558:../../iot_link/os/liteos/utils/rbtree.c ****  * rb_insert - insert a new node into a tree
 559:../../iot_link/os/liteos/utils/rbtree.c ****  * @t: the given tree
 560:../../iot_link/os/liteos/utils/rbtree.c ****  * @n: the new inserted node
 561:../../iot_link/os/liteos/utils/rbtree.c ****  *
 562:../../iot_link/os/liteos/utils/rbtree.c ****  * return: 0 insert done, -1 insert fail (for double insertion)
 563:../../iot_link/os/liteos/utils/rbtree.c ****  */
 564:../../iot_link/os/liteos/utils/rbtree.c **** 
 565:../../iot_link/os/liteos/utils/rbtree.c **** int rb_insert (rb_tree_t * t, rb_node_t * n)
 566:../../iot_link/os/liteos/utils/rbtree.c **** {
 1100              		.loc 2 566 0
 1101              		.cfi_startproc
 1102              		@ args = 0, pretend = 0, frame = 0
 1103              		@ frame_needed = 0, uses_anonymous_args = 0
 1104              	.LVL116:
 1105 0000 70B5     		push	{r4, r5, r6, lr}
 1106              	.LCFI9:
 1107              		.cfi_def_cfa_offset 16
 1108              		.cfi_offset 4, -16
 1109              		.cfi_offset 5, -12
 1110              		.cfi_offset 6, -8
 1111              		.cfi_offset 14, -4
 1112              	.LBB462:
 1113              	.LBB463:
 564:../../iot_link/os/liteos/base/include/__binary_tree.h **** 
 565:../../iot_link/os/liteos/base/include/__binary_tree.h **** /**
 566:../../iot_link/os/liteos/base/include/__binary_tree.h ****  * __bit_insert - insert a new node into a tree
 567:../../iot_link/os/liteos/base/include/__binary_tree.h ****  * @t: the given tree
 568:../../iot_link/os/liteos/base/include/__binary_tree.h ****  * @n: the new inserted node
 569:../../iot_link/os/liteos/base/include/__binary_tree.h ****  *
 570:../../iot_link/os/liteos/base/include/__binary_tree.h ****  * return: 0 insert done, -1 insert fail
 571:../../iot_link/os/liteos/base/include/__binary_tree.h ****  */
 572:../../iot_link/os/liteos/base/include/__binary_tree.h **** 
 573:../../iot_link/os/liteos/base/include/__binary_tree.h **** static inline int __bit_insert (bi_tree_t * t, bi_node_t * n)
 574:../../iot_link/os/liteos/base/include/__binary_tree.h **** {
 575:../../iot_link/os/liteos/base/include/__binary_tree.h ****     bi_node_t * p = t->r;
 1114              		.loc 1 575 0
 1115 0002 0568     		ldr	r5, [r0]
 1116              	.LBE463:
 1117              	.LBE462:
 1118              	.LBB468:
 1119              	.LBB469:
 1120              	.LBB470:
 113:../../iot_link/os/liteos/utils/rbtree.c **** }
 1121              		.loc 2 113 0
 1122 0004 0023     		movs	r3, #0
 1123              	.LBE470:
 1124              	.LBE469:
 1125              	.LBE468:
 1126              		.loc 2 566 0
 1127 0006 0646     		mov	r6, r0
 1128 0008 0C46     		mov	r4, r1
 1129              	.LBB473:
 1130              	.LBB472:
 1131              	.LBB471:
 113:../../iot_link/os/liteos/utils/rbtree.c **** }
 1132              		.loc 2 113 0
ARM GAS  C:\Users\LuckyE\AppData\Local\Temp\ccx4tDom.s 			page 42


 1133 000a CB60     		str	r3, [r1, #12]
 1134              	.LVL117:
 1135              	.LBE471:
 1136              	.LBE472:
 1137              	.LBE473:
 1138              	.LBB474:
 1139              	.LBB466:
 576:../../iot_link/os/liteos/base/include/__binary_tree.h **** 
 577:../../iot_link/os/liteos/base/include/__binary_tree.h ****     n->r = n->l = NULL;
 1140              		.loc 1 577 0
 1141 000c C1E90133 		strd	r3, r3, [r1, #4]
 578:../../iot_link/os/liteos/base/include/__binary_tree.h **** 
 579:../../iot_link/os/liteos/base/include/__binary_tree.h ****     if (p == NULL)
 1142              		.loc 1 579 0
 1143 0010 5DB9     		cbnz	r5, .L120
 580:../../iot_link/os/liteos/base/include/__binary_tree.h ****     {
 581:../../iot_link/os/liteos/base/include/__binary_tree.h ****         n->p = (bi_node_t *) NULL;
 1144              		.loc 1 581 0
 1145 0012 0D60     		str	r5, [r1]
 582:../../iot_link/os/liteos/base/include/__binary_tree.h ****         t->r = n;
 1146              		.loc 1 582 0
 1147 0014 3160     		str	r1, [r6]
 1148              	.LVL118:
 1149              	.L121:
 1150              	.LBE466:
 1151              	.LBE474:
 567:../../iot_link/os/liteos/utils/rbtree.c ****     __set_red (n);
 568:../../iot_link/os/liteos/utils/rbtree.c **** 
 569:../../iot_link/os/liteos/utils/rbtree.c ****     if (__bit_insert (&t->bit, &n->bin) < 0)
 570:../../iot_link/os/liteos/utils/rbtree.c ****     {
 571:../../iot_link/os/liteos/utils/rbtree.c ****         return -1;
 572:../../iot_link/os/liteos/utils/rbtree.c ****     }
 573:../../iot_link/os/liteos/utils/rbtree.c **** 
 574:../../iot_link/os/liteos/utils/rbtree.c **** #ifdef RBTREE_DEBUG
 575:../../iot_link/os/liteos/utils/rbtree.c ****     t->nodes++;
 1152              		.loc 2 575 0
 1153 0016 F368     		ldr	r3, [r6, #12]
 1154 0018 0133     		adds	r3, r3, #1
 576:../../iot_link/os/liteos/utils/rbtree.c **** #endif
 577:../../iot_link/os/liteos/utils/rbtree.c **** 
 578:../../iot_link/os/liteos/utils/rbtree.c ****     __rb_insadj (t, n);
 1155              		.loc 2 578 0
 1156 001a 3046     		mov	r0, r6
 575:../../iot_link/os/liteos/utils/rbtree.c **** #endif
 1157              		.loc 2 575 0
 1158 001c F360     		str	r3, [r6, #12]
 1159              		.loc 2 578 0
 1160 001e 2146     		mov	r1, r4
 1161 0020 FFF7FEFF 		bl	__rb_insadj
 1162              	.LVL119:
 579:../../iot_link/os/liteos/utils/rbtree.c **** 
 580:../../iot_link/os/liteos/utils/rbtree.c ****     return 0;
 1163              		.loc 2 580 0
 1164 0024 0020     		movs	r0, #0
 1165              	.L119:
 581:../../iot_link/os/liteos/utils/rbtree.c **** }
 1166              		.loc 2 581 0
ARM GAS  C:\Users\LuckyE\AppData\Local\Temp\ccx4tDom.s 			page 43


 1167 0026 70BD     		pop	{r4, r5, r6, pc}
 1168              	.LVL120:
 1169              	.L124:
 566:../../iot_link/os/liteos/utils/rbtree.c ****     __set_red (n);
 1170              		.loc 2 566 0
 1171 0028 1D46     		mov	r5, r3
 1172              	.LVL121:
 1173              	.L120:
 1174              	.LBB475:
 1175              	.LBB467:
 1176              	.LBB464:
 583:../../iot_link/os/liteos/base/include/__binary_tree.h **** 
 584:../../iot_link/os/liteos/base/include/__binary_tree.h ****         return 0;
 585:../../iot_link/os/liteos/base/include/__binary_tree.h ****     }
 586:../../iot_link/os/liteos/base/include/__binary_tree.h **** 
 587:../../iot_link/os/liteos/base/include/__binary_tree.h ****     while (1)
 588:../../iot_link/os/liteos/base/include/__binary_tree.h ****     {
 589:../../iot_link/os/liteos/base/include/__binary_tree.h ****         int c = t->compare_nn (n, p);
 1177              		.loc 1 589 0
 1178 002a 7368     		ldr	r3, [r6, #4]
 1179 002c 2946     		mov	r1, r5
 1180 002e 2046     		mov	r0, r4
 1181 0030 9847     		blx	r3
 1182              	.LVL122:
 590:../../iot_link/os/liteos/base/include/__binary_tree.h **** 
 591:../../iot_link/os/liteos/base/include/__binary_tree.h ****         if (c == 0)
 1183              		.loc 1 591 0
 1184 0032 0028     		cmp	r0, #0
 1185 0034 0BD0     		beq	.L126
 592:../../iot_link/os/liteos/base/include/__binary_tree.h ****         {
 593:../../iot_link/os/liteos/base/include/__binary_tree.h ****             return -1;
 594:../../iot_link/os/liteos/base/include/__binary_tree.h ****         }
 595:../../iot_link/os/liteos/base/include/__binary_tree.h **** 
 596:../../iot_link/os/liteos/base/include/__binary_tree.h ****         if (c > 0)
 1186              		.loc 1 596 0
 1187 0036 05DD     		ble	.L123
 597:../../iot_link/os/liteos/base/include/__binary_tree.h ****         {
 598:../../iot_link/os/liteos/base/include/__binary_tree.h ****             if (p->r == NULL)
 1188              		.loc 1 598 0
 1189 0038 AB68     		ldr	r3, [r5, #8]
 1190 003a 002B     		cmp	r3, #0
 1191 003c F4D1     		bne	.L124
 599:../../iot_link/os/liteos/base/include/__binary_tree.h ****             {
 600:../../iot_link/os/liteos/base/include/__binary_tree.h ****                 p->r = n;
 1192              		.loc 1 600 0
 1193 003e AC60     		str	r4, [r5, #8]
 1194              	.L125:
 1195              	.LBE464:
 601:../../iot_link/os/liteos/base/include/__binary_tree.h ****                 break;
 602:../../iot_link/os/liteos/base/include/__binary_tree.h ****             }
 603:../../iot_link/os/liteos/base/include/__binary_tree.h **** 
 604:../../iot_link/os/liteos/base/include/__binary_tree.h ****             p = p->r;
 605:../../iot_link/os/liteos/base/include/__binary_tree.h ****         }
 606:../../iot_link/os/liteos/base/include/__binary_tree.h ****         else
 607:../../iot_link/os/liteos/base/include/__binary_tree.h ****         {
 608:../../iot_link/os/liteos/base/include/__binary_tree.h ****             if (p->l == NULL)
 609:../../iot_link/os/liteos/base/include/__binary_tree.h ****             {
ARM GAS  C:\Users\LuckyE\AppData\Local\Temp\ccx4tDom.s 			page 44


 610:../../iot_link/os/liteos/base/include/__binary_tree.h ****                 p->l = n;
 611:../../iot_link/os/liteos/base/include/__binary_tree.h ****                 break;
 612:../../iot_link/os/liteos/base/include/__binary_tree.h ****             }
 613:../../iot_link/os/liteos/base/include/__binary_tree.h **** 
 614:../../iot_link/os/liteos/base/include/__binary_tree.h ****             p = p->l;
 615:../../iot_link/os/liteos/base/include/__binary_tree.h ****         }
 616:../../iot_link/os/liteos/base/include/__binary_tree.h ****     }
 617:../../iot_link/os/liteos/base/include/__binary_tree.h **** 
 618:../../iot_link/os/liteos/base/include/__binary_tree.h ****     n->p = p;
 1196              		.loc 1 618 0
 1197 0040 2560     		str	r5, [r4]
 1198              	.LVL123:
 1199 0042 E8E7     		b	.L121
 1200              	.LVL124:
 1201              	.L123:
 1202              	.LBB465:
 608:../../iot_link/os/liteos/base/include/__binary_tree.h ****             {
 1203              		.loc 1 608 0
 1204 0044 6B68     		ldr	r3, [r5, #4]
 1205 0046 002B     		cmp	r3, #0
 1206 0048 EED1     		bne	.L124
 610:../../iot_link/os/liteos/base/include/__binary_tree.h ****                 break;
 1207              		.loc 1 610 0
 1208 004a 6C60     		str	r4, [r5, #4]
 1209 004c F8E7     		b	.L125
 1210              	.L126:
 1211              	.LBE465:
 1212              	.LBE467:
 1213              	.LBE475:
 571:../../iot_link/os/liteos/utils/rbtree.c ****     }
 1214              		.loc 2 571 0
 1215 004e 4FF0FF30 		mov	r0, #-1
 1216              	.LVL125:
 1217 0052 E8E7     		b	.L119
 1218              		.cfi_endproc
 1219              	.LFE54:
 1221              		.section	.text.rb_node_get,"ax",%progbits
 1222              		.align	1
 1223              		.global	rb_node_get
 1224              		.syntax unified
 1225              		.thumb
 1226              		.thumb_func
 1227              		.fpu fpv4-sp-d16
 1229              	rb_node_get:
 1230              	.LFB55:
 582:../../iot_link/os/liteos/utils/rbtree.c **** 
 583:../../iot_link/os/liteos/utils/rbtree.c **** /**
 584:../../iot_link/os/liteos/utils/rbtree.c ****  * rb_node_get - find a existing node or create a new one for it
 585:../../iot_link/os/liteos/utils/rbtree.c ****  * @r:      the given tree root
 586:../../iot_link/os/liteos/utils/rbtree.c ****  * @k:      the key value
 587:../../iot_link/os/liteos/utils/rbtree.c ****  * @new:    pointer to a bool value, set to true if node not found and created a
 588:../../iot_link/os/liteos/utils/rbtree.c ****  *          new one
 589:../../iot_link/os/liteos/utils/rbtree.c ****  * @create: the node creating routine, <k> is the seconde argument
 590:../../iot_link/os/liteos/utils/rbtree.c ****  * @arg:    the first argument of the <create> routine
 591:../../iot_link/os/liteos/utils/rbtree.c ****  *
 592:../../iot_link/os/liteos/utils/rbtree.c ****  * return: the node with key = <k>, or NULL if node not found and allocate fail.
 593:../../iot_link/os/liteos/utils/rbtree.c ****  */
ARM GAS  C:\Users\LuckyE\AppData\Local\Temp\ccx4tDom.s 			page 45


 594:../../iot_link/os/liteos/utils/rbtree.c **** 
 595:../../iot_link/os/liteos/utils/rbtree.c **** rb_node_t * rb_node_get (rb_tree_t * t, uintptr_t k,
 596:../../iot_link/os/liteos/utils/rbtree.c ****                          bi_node_t * (* create) (uintptr_t, uintptr_t),
 597:../../iot_link/os/liteos/utils/rbtree.c ****                          uintptr_t arg)
 598:../../iot_link/os/liteos/utils/rbtree.c **** {
 1231              		.loc 2 598 0
 1232              		.cfi_startproc
 1233              		@ args = 0, pretend = 0, frame = 0
 1234              		@ frame_needed = 0, uses_anonymous_args = 0
 1235              	.LVL126:
 1236 0000 2DE9F047 		push	{r4, r5, r6, r7, r8, r9, r10, lr}
 1237              	.LCFI10:
 1238              		.cfi_def_cfa_offset 32
 1239              		.cfi_offset 4, -32
 1240              		.cfi_offset 5, -28
 1241              		.cfi_offset 6, -24
 1242              		.cfi_offset 7, -20
 1243              		.cfi_offset 8, -16
 1244              		.cfi_offset 9, -12
 1245              		.cfi_offset 10, -8
 1246              		.cfi_offset 14, -4
 1247              	.LBB481:
 1248              	.LBB482:
 431:../../iot_link/os/liteos/base/include/__binary_tree.h ****     bi_node_t *  l;             /* last one */
 1249              		.loc 1 431 0
 1250 0004 0568     		ldr	r5, [r0]
 1251              	.LBE482:
 1252              	.LBE481:
 1253              		.loc 2 598 0
 1254 0006 0646     		mov	r6, r0
 1255 0008 0C46     		mov	r4, r1
 1256              	.LVL127:
 1257 000a 9146     		mov	r9, r2
 1258 000c 9A46     		mov	r10, r3
 1259              	.LBB485:
 1260              	.LBB483:
 436:../../iot_link/os/liteos/base/include/__binary_tree.h ****     {
 1261              		.loc 1 436 0
 1262 000e A5B9     		cbnz	r5, .L129
 438:../../iot_link/os/liteos/base/include/__binary_tree.h **** 
 1263              		.loc 1 438 0
 1264 0010 2046     		mov	r0, r4
 1265              	.LVL128:
 1266 0012 1946     		mov	r1, r3
 1267              	.LVL129:
 1268 0014 9047     		blx	r2
 1269              	.LVL130:
 440:../../iot_link/os/liteos/base/include/__binary_tree.h ****         t->r = w;
 1270              		.loc 1 440 0
 1271 0016 C0E90155 		strd	r5, r5, [r0, #4]
 1272 001a 0560     		str	r5, [r0]
 438:../../iot_link/os/liteos/base/include/__binary_tree.h **** 
 1273              		.loc 1 438 0
 1274 001c 0446     		mov	r4, r0
 1275              	.LVL131:
 441:../../iot_link/os/liteos/base/include/__binary_tree.h **** 
 1276              		.loc 1 441 0
ARM GAS  C:\Users\LuckyE\AppData\Local\Temp\ccx4tDom.s 			page 46


 1277 001e 3060     		str	r0, [r6]
 1278              	.LVL132:
 1279              	.L130:
 1280              	.LBE483:
 1281              	.LBE485:
 1282              	.LBB486:
 1283              	.LBB487:
 1284              	.LBB488:
 113:../../iot_link/os/liteos/utils/rbtree.c **** }
 1285              		.loc 2 113 0
 1286 0020 0023     		movs	r3, #0
 1287 0022 E360     		str	r3, [r4, #12]
 1288              	.LVL133:
 1289              	.LBE488:
 1290              	.LBE487:
 1291              	.LBE486:
 599:../../iot_link/os/liteos/utils/rbtree.c ****     rb_node_t * n;
 600:../../iot_link/os/liteos/utils/rbtree.c ****     bool        new = false;
 601:../../iot_link/os/liteos/utils/rbtree.c **** 
 602:../../iot_link/os/liteos/utils/rbtree.c ****     n = container_of (__bit_node_get (&t->bit, k, &new, create, arg),
 603:../../iot_link/os/liteos/utils/rbtree.c ****                       rb_node_t, bin);
 604:../../iot_link/os/liteos/utils/rbtree.c **** 
 605:../../iot_link/os/liteos/utils/rbtree.c ****     if (new)
 606:../../iot_link/os/liteos/utils/rbtree.c ****     {
 607:../../iot_link/os/liteos/utils/rbtree.c ****         __set_red (n);
 608:../../iot_link/os/liteos/utils/rbtree.c ****         __rb_insadj (t, n);
 1292              		.loc 2 608 0
 1293 0024 2146     		mov	r1, r4
 1294 0026 3046     		mov	r0, r6
 1295 0028 FFF7FEFF 		bl	__rb_insadj
 1296              	.LVL134:
 609:../../iot_link/os/liteos/utils/rbtree.c **** 
 610:../../iot_link/os/liteos/utils/rbtree.c **** #ifdef RBTREE_DEBUG
 611:../../iot_link/os/liteos/utils/rbtree.c ****         t->nodes++;
 1297              		.loc 2 611 0
 1298 002c F368     		ldr	r3, [r6, #12]
 1299 002e 0133     		adds	r3, r3, #1
 1300 0030 F360     		str	r3, [r6, #12]
 1301              	.LVL135:
 1302              	.L128:
 612:../../iot_link/os/liteos/utils/rbtree.c **** #endif
 613:../../iot_link/os/liteos/utils/rbtree.c ****     }
 614:../../iot_link/os/liteos/utils/rbtree.c **** 
 615:../../iot_link/os/liteos/utils/rbtree.c ****     return n;
 616:../../iot_link/os/liteos/utils/rbtree.c **** }
 1303              		.loc 2 616 0
 1304 0032 2046     		mov	r0, r4
 1305 0034 BDE8F087 		pop	{r4, r5, r6, r7, r8, r9, r10, pc}
 1306              	.LVL136:
 1307              	.L135:
 1308              	.LBB489:
 1309              	.LBB484:
 462:../../iot_link/os/liteos/base/include/__binary_tree.h ****         {
 1310              		.loc 1 462 0
 1311 0038 3D46     		mov	r5, r7
 1312              	.LVL137:
 1313              	.L129:
ARM GAS  C:\Users\LuckyE\AppData\Local\Temp\ccx4tDom.s 			page 47


 450:../../iot_link/os/liteos/base/include/__binary_tree.h **** 
 1314              		.loc 1 450 0
 1315 003a B368     		ldr	r3, [r6, #8]
 1316 003c 2146     		mov	r1, r4
 1317 003e 2846     		mov	r0, r5
 1318 0040 9847     		blx	r3
 1319              	.LVL138:
 452:../../iot_link/os/liteos/base/include/__binary_tree.h ****         {
 1320              		.loc 1 452 0
 1321 0042 0028     		cmp	r0, #0
 1322 0044 14D0     		beq	.L134
 1323              	.LVL139:
 459:../../iot_link/os/liteos/base/include/__binary_tree.h ****         w = *p;
 1324              		.loc 1 459 0
 1325 0046 B5BF     		itete	lt
 1326 0048 AF68     		ldrlt	r7, [r5, #8]
 1327 004a 6F68     		ldrge	r7, [r5, #4]
 1328              	.LVL140:
 1329 004c 05F10808 		addlt	r8, r5, #8
 1330 0050 05F10408 		addge	r8, r5, #4
 462:../../iot_link/os/liteos/base/include/__binary_tree.h ****         {
 1331              		.loc 1 462 0
 1332 0054 002F     		cmp	r7, #0
 1333 0056 EFD1     		bne	.L135
 464:../../iot_link/os/liteos/base/include/__binary_tree.h **** 
 1334              		.loc 1 464 0
 1335 0058 2046     		mov	r0, r4
 1336              	.LVL141:
 1337 005a 5146     		mov	r1, r10
 1338 005c C847     		blx	r9
 1339              	.LVL142:
 466:../../iot_link/os/liteos/base/include/__binary_tree.h ****             {
 1340              		.loc 1 466 0
 1341 005e 0446     		mov	r4, r0
 1342              	.LVL143:
 1343 0060 0028     		cmp	r0, #0
 1344 0062 E6D0     		beq	.L128
 468:../../iot_link/os/liteos/base/include/__binary_tree.h ****                 w->l = w->r = NULL;
 1345              		.loc 1 468 0
 1346 0064 0560     		str	r5, [r0]
 469:../../iot_link/os/liteos/base/include/__binary_tree.h **** 
 1347              		.loc 1 469 0
 1348 0066 C0E90177 		strd	r7, r7, [r0, #4]
 471:../../iot_link/os/liteos/base/include/__binary_tree.h **** 
 1349              		.loc 1 471 0
 1350 006a C8F80000 		str	r0, [r8]
 1351              	.LVL144:
 1352 006e D7E7     		b	.L130
 1353              	.LVL145:
 1354              	.L134:
 452:../../iot_link/os/liteos/base/include/__binary_tree.h ****         {
 1355              		.loc 1 452 0
 1356 0070 2C46     		mov	r4, r5
 1357              	.LVL146:
 1358              	.LBE484:
 1359              	.LBE489:
 615:../../iot_link/os/liteos/utils/rbtree.c **** }
ARM GAS  C:\Users\LuckyE\AppData\Local\Temp\ccx4tDom.s 			page 48


 1360              		.loc 2 615 0
 1361 0072 DEE7     		b	.L128
 1362              		.cfi_endproc
 1363              	.LFE55:
 1365              		.section	.text.rb_delete,"ax",%progbits
 1366              		.align	1
 1367              		.global	rb_delete
 1368              		.syntax unified
 1369              		.thumb
 1370              		.thumb_func
 1371              		.fpu fpv4-sp-d16
 1373              	rb_delete:
 1374              	.LFB57:
 617:../../iot_link/os/liteos/utils/rbtree.c **** 
 618:../../iot_link/os/liteos/utils/rbtree.c **** /**
 619:../../iot_link/os/liteos/utils/rbtree.c ****  * __rb_deladj - re-balance a tree after deleting a black leaf
 620:../../iot_link/os/liteos/utils/rbtree.c ****  * @t: the given tree
 621:../../iot_link/os/liteos/utils/rbtree.c ****  * @p: the parent node of the deleted leaf
 622:../../iot_link/os/liteos/utils/rbtree.c ****  * @n: the double colored node
 623:../../iot_link/os/liteos/utils/rbtree.c ****  *
 624:../../iot_link/os/liteos/utils/rbtree.c ****  * return: NA
 625:../../iot_link/os/liteos/utils/rbtree.c ****  */
 626:../../iot_link/os/liteos/utils/rbtree.c **** 
 627:../../iot_link/os/liteos/utils/rbtree.c **** static void __rb_deladj (rb_tree_t * t, rb_node_t * p, rb_node_t * n)
 628:../../iot_link/os/liteos/utils/rbtree.c **** {
 629:../../iot_link/os/liteos/utils/rbtree.c **** 
 630:../../iot_link/os/liteos/utils/rbtree.c ****     /*
 631:../../iot_link/os/liteos/utils/rbtree.c ****      * for a non-root black node, there must be a sibling for it, so must a parent
 632:../../iot_link/os/liteos/utils/rbtree.c ****      * for it
 633:../../iot_link/os/liteos/utils/rbtree.c ****      */
 634:../../iot_link/os/liteos/utils/rbtree.c **** 
 635:../../iot_link/os/liteos/utils/rbtree.c ****     while (__is_black (n) && (n != __root (t)))
 636:../../iot_link/os/liteos/utils/rbtree.c ****     {
 637:../../iot_link/os/liteos/utils/rbtree.c ****         rb_node_t * w;
 638:../../iot_link/os/liteos/utils/rbtree.c **** 
 639:../../iot_link/os/liteos/utils/rbtree.c ****         /*
 640:../../iot_link/os/liteos/utils/rbtree.c ****          * n should be double colored, so black hight for it's sibling tree
 641:../../iot_link/os/liteos/utils/rbtree.c ****          * must be great than 0, so it sibling must not be NULL
 642:../../iot_link/os/liteos/utils/rbtree.c ****          */
 643:../../iot_link/os/liteos/utils/rbtree.c **** 
 644:../../iot_link/os/liteos/utils/rbtree.c ****         if (__left (p) == n)
 645:../../iot_link/os/liteos/utils/rbtree.c ****         {
 646:../../iot_link/os/liteos/utils/rbtree.c ****             w = __right (p);
 647:../../iot_link/os/liteos/utils/rbtree.c **** 
 648:../../iot_link/os/liteos/utils/rbtree.c ****             if (__raw_is_red (w))
 649:../../iot_link/os/liteos/utils/rbtree.c ****             {
 650:../../iot_link/os/liteos/utils/rbtree.c **** 
 651:../../iot_link/os/liteos/utils/rbtree.c ****                 /*
 652:../../iot_link/os/liteos/utils/rbtree.c ****                  * case 1: n's sibling w is red
 653:../../iot_link/os/liteos/utils/rbtree.c ****                  *
 654:../../iot_link/os/liteos/utils/rbtree.c ****                  * w's child must be black and not NULL
 655:../../iot_link/os/liteos/utils/rbtree.c ****                  */
 656:../../iot_link/os/liteos/utils/rbtree.c **** 
 657:../../iot_link/os/liteos/utils/rbtree.c ****                 __set_black (w);
 658:../../iot_link/os/liteos/utils/rbtree.c ****                 __set_red (p);
 659:../../iot_link/os/liteos/utils/rbtree.c **** 
 660:../../iot_link/os/liteos/utils/rbtree.c ****                 w = __left (w);
ARM GAS  C:\Users\LuckyE\AppData\Local\Temp\ccx4tDom.s 			page 49


 661:../../iot_link/os/liteos/utils/rbtree.c **** 
 662:../../iot_link/os/liteos/utils/rbtree.c ****                 __rotate_left (t, p);
 663:../../iot_link/os/liteos/utils/rbtree.c ****             }
 664:../../iot_link/os/liteos/utils/rbtree.c **** 
 665:../../iot_link/os/liteos/utils/rbtree.c ****             /* now n is double black, and w is black */
 666:../../iot_link/os/liteos/utils/rbtree.c **** 
 667:../../iot_link/os/liteos/utils/rbtree.c ****             if (__is_black (__right (w)))
 668:../../iot_link/os/liteos/utils/rbtree.c ****             {
 669:../../iot_link/os/liteos/utils/rbtree.c ****                 if (__is_black (__left (w)))
 670:../../iot_link/os/liteos/utils/rbtree.c ****                 {
 671:../../iot_link/os/liteos/utils/rbtree.c **** 
 672:../../iot_link/os/liteos/utils/rbtree.c ****                     /*
 673:../../iot_link/os/liteos/utils/rbtree.c ****                      * case 2: n's sibling w is black, and both of w's children
 674:../../iot_link/os/liteos/utils/rbtree.c ****                      *         are black
 675:../../iot_link/os/liteos/utils/rbtree.c ****                      */
 676:../../iot_link/os/liteos/utils/rbtree.c **** 
 677:../../iot_link/os/liteos/utils/rbtree.c ****                     __set_red (w);
 678:../../iot_link/os/liteos/utils/rbtree.c ****                     n = p;
 679:../../iot_link/os/liteos/utils/rbtree.c ****                     p = __parent (p);
 680:../../iot_link/os/liteos/utils/rbtree.c **** 
 681:../../iot_link/os/liteos/utils/rbtree.c ****                     continue;
 682:../../iot_link/os/liteos/utils/rbtree.c ****                 }
 683:../../iot_link/os/liteos/utils/rbtree.c ****                 else
 684:../../iot_link/os/liteos/utils/rbtree.c ****                 {
 685:../../iot_link/os/liteos/utils/rbtree.c **** 
 686:../../iot_link/os/liteos/utils/rbtree.c ****                     /*
 687:../../iot_link/os/liteos/utils/rbtree.c ****                      * case 3: n's sibling w is black, w's left child is red,
 688:../../iot_link/os/liteos/utils/rbtree.c ****                      *         and w's right child is black
 689:../../iot_link/os/liteos/utils/rbtree.c ****                      */
 690:../../iot_link/os/liteos/utils/rbtree.c **** 
 691:../../iot_link/os/liteos/utils/rbtree.c ****                     __rotate_right (t, w);
 692:../../iot_link/os/liteos/utils/rbtree.c ****                     w = __parent (w);
 693:../../iot_link/os/liteos/utils/rbtree.c **** 
 694:../../iot_link/os/liteos/utils/rbtree.c ****                     /* fall thru to case 4 */
 695:../../iot_link/os/liteos/utils/rbtree.c ****                 }
 696:../../iot_link/os/liteos/utils/rbtree.c ****             }
 697:../../iot_link/os/liteos/utils/rbtree.c **** 
 698:../../iot_link/os/liteos/utils/rbtree.c ****             /*
 699:../../iot_link/os/liteos/utils/rbtree.c ****              * case 4: n's sibling w is black, and w's right child is red
 700:../../iot_link/os/liteos/utils/rbtree.c ****              */
 701:../../iot_link/os/liteos/utils/rbtree.c **** 
 702:../../iot_link/os/liteos/utils/rbtree.c ****             __set_color (w, __color (p));
 703:../../iot_link/os/liteos/utils/rbtree.c ****             __set_black (p);
 704:../../iot_link/os/liteos/utils/rbtree.c ****             __set_black (__right (w));
 705:../../iot_link/os/liteos/utils/rbtree.c ****             __rotate_left (t, p);
 706:../../iot_link/os/liteos/utils/rbtree.c ****         }
 707:../../iot_link/os/liteos/utils/rbtree.c ****         else
 708:../../iot_link/os/liteos/utils/rbtree.c ****         {
 709:../../iot_link/os/liteos/utils/rbtree.c ****             w = __left (p);
 710:../../iot_link/os/liteos/utils/rbtree.c **** 
 711:../../iot_link/os/liteos/utils/rbtree.c ****             if (__raw_is_red (w))
 712:../../iot_link/os/liteos/utils/rbtree.c ****             {
 713:../../iot_link/os/liteos/utils/rbtree.c **** 
 714:../../iot_link/os/liteos/utils/rbtree.c ****                 /*
 715:../../iot_link/os/liteos/utils/rbtree.c ****                  * case 1: n's sibling w is red
 716:../../iot_link/os/liteos/utils/rbtree.c ****                  *
 717:../../iot_link/os/liteos/utils/rbtree.c ****                  * w's child must be black and not NULL
ARM GAS  C:\Users\LuckyE\AppData\Local\Temp\ccx4tDom.s 			page 50


 718:../../iot_link/os/liteos/utils/rbtree.c ****                  */
 719:../../iot_link/os/liteos/utils/rbtree.c **** 
 720:../../iot_link/os/liteos/utils/rbtree.c ****                 __set_black (w);
 721:../../iot_link/os/liteos/utils/rbtree.c ****                 __set_red (p);
 722:../../iot_link/os/liteos/utils/rbtree.c **** 
 723:../../iot_link/os/liteos/utils/rbtree.c ****                 w = __right (w);
 724:../../iot_link/os/liteos/utils/rbtree.c **** 
 725:../../iot_link/os/liteos/utils/rbtree.c ****                 __rotate_right (t, p);
 726:../../iot_link/os/liteos/utils/rbtree.c ****             }
 727:../../iot_link/os/liteos/utils/rbtree.c **** 
 728:../../iot_link/os/liteos/utils/rbtree.c ****             /* now n is double black, and w is black */
 729:../../iot_link/os/liteos/utils/rbtree.c **** 
 730:../../iot_link/os/liteos/utils/rbtree.c ****             if (__is_black (__left (w)))
 731:../../iot_link/os/liteos/utils/rbtree.c ****             {
 732:../../iot_link/os/liteos/utils/rbtree.c ****                 if (__is_black (__right (w)))
 733:../../iot_link/os/liteos/utils/rbtree.c ****                 {
 734:../../iot_link/os/liteos/utils/rbtree.c **** 
 735:../../iot_link/os/liteos/utils/rbtree.c ****                     /*
 736:../../iot_link/os/liteos/utils/rbtree.c ****                      * case 2: n's sibling w is black, and both of w's children
 737:../../iot_link/os/liteos/utils/rbtree.c ****                      *         are black
 738:../../iot_link/os/liteos/utils/rbtree.c ****                      */
 739:../../iot_link/os/liteos/utils/rbtree.c **** 
 740:../../iot_link/os/liteos/utils/rbtree.c ****                     __set_red (w);
 741:../../iot_link/os/liteos/utils/rbtree.c ****                     n = p;
 742:../../iot_link/os/liteos/utils/rbtree.c ****                     p = __parent (p);
 743:../../iot_link/os/liteos/utils/rbtree.c **** 
 744:../../iot_link/os/liteos/utils/rbtree.c ****                     continue;
 745:../../iot_link/os/liteos/utils/rbtree.c ****                 }
 746:../../iot_link/os/liteos/utils/rbtree.c ****                 else
 747:../../iot_link/os/liteos/utils/rbtree.c ****                 {
 748:../../iot_link/os/liteos/utils/rbtree.c **** 
 749:../../iot_link/os/liteos/utils/rbtree.c ****                     /*
 750:../../iot_link/os/liteos/utils/rbtree.c ****                      * case 3: n's sibling w is black, w's left child is red,
 751:../../iot_link/os/liteos/utils/rbtree.c ****                      *         and w's right child is black
 752:../../iot_link/os/liteos/utils/rbtree.c ****                      */
 753:../../iot_link/os/liteos/utils/rbtree.c **** 
 754:../../iot_link/os/liteos/utils/rbtree.c ****                     __rotate_left (t, w);
 755:../../iot_link/os/liteos/utils/rbtree.c ****                     w = __parent (w);
 756:../../iot_link/os/liteos/utils/rbtree.c **** 
 757:../../iot_link/os/liteos/utils/rbtree.c ****                     /* fall thru to case 4 */
 758:../../iot_link/os/liteos/utils/rbtree.c ****                 }
 759:../../iot_link/os/liteos/utils/rbtree.c ****             }
 760:../../iot_link/os/liteos/utils/rbtree.c **** 
 761:../../iot_link/os/liteos/utils/rbtree.c ****             /*
 762:../../iot_link/os/liteos/utils/rbtree.c ****              * case 4: n's sibling w is black, and w's right child is red
 763:../../iot_link/os/liteos/utils/rbtree.c ****              */
 764:../../iot_link/os/liteos/utils/rbtree.c **** 
 765:../../iot_link/os/liteos/utils/rbtree.c ****             __set_color (w, __color (p));
 766:../../iot_link/os/liteos/utils/rbtree.c ****             __set_black (p);
 767:../../iot_link/os/liteos/utils/rbtree.c ****             __set_black (__left (w));
 768:../../iot_link/os/liteos/utils/rbtree.c ****             __rotate_right (t, p);
 769:../../iot_link/os/liteos/utils/rbtree.c ****         }
 770:../../iot_link/os/liteos/utils/rbtree.c **** 
 771:../../iot_link/os/liteos/utils/rbtree.c ****         n = __root (t);
 772:../../iot_link/os/liteos/utils/rbtree.c ****     }
 773:../../iot_link/os/liteos/utils/rbtree.c **** 
 774:../../iot_link/os/liteos/utils/rbtree.c ****     if (n)
ARM GAS  C:\Users\LuckyE\AppData\Local\Temp\ccx4tDom.s 			page 51


 775:../../iot_link/os/liteos/utils/rbtree.c ****     {
 776:../../iot_link/os/liteos/utils/rbtree.c ****         __set_black (n);
 777:../../iot_link/os/liteos/utils/rbtree.c ****     }
 778:../../iot_link/os/liteos/utils/rbtree.c **** }
 779:../../iot_link/os/liteos/utils/rbtree.c **** 
 780:../../iot_link/os/liteos/utils/rbtree.c **** /**
 781:../../iot_link/os/liteos/utils/rbtree.c ****  * rb_delete - delete a node from a tree
 782:../../iot_link/os/liteos/utils/rbtree.c ****  * @t: the given tree
 783:../../iot_link/os/liteos/utils/rbtree.c ****  * @n: the node to be deleted
 784:../../iot_link/os/liteos/utils/rbtree.c ****  *
 785:../../iot_link/os/liteos/utils/rbtree.c ****  * return: NA
 786:../../iot_link/os/liteos/utils/rbtree.c ****  */
 787:../../iot_link/os/liteos/utils/rbtree.c **** 
 788:../../iot_link/os/liteos/utils/rbtree.c **** void rb_delete (rb_tree_t * t, rb_node_t * n)
 789:../../iot_link/os/liteos/utils/rbtree.c **** {
 1375              		.loc 2 789 0
 1376              		.cfi_startproc
 1377              		@ args = 0, pretend = 0, frame = 0
 1378              		@ frame_needed = 0, uses_anonymous_args = 0
 1379              	.LVL147:
 1380 0000 2DE9F843 		push	{r3, r4, r5, r6, r7, r8, r9, lr}
 1381              	.LCFI11:
 1382              		.cfi_def_cfa_offset 32
 1383              		.cfi_offset 3, -32
 1384              		.cfi_offset 4, -28
 1385              		.cfi_offset 5, -24
 1386              		.cfi_offset 6, -20
 1387              		.cfi_offset 7, -16
 1388              		.cfi_offset 8, -12
 1389              		.cfi_offset 9, -8
 1390              		.cfi_offset 14, -4
 1391              		.loc 2 789 0
 1392 0004 0F46     		mov	r7, r1
 790:../../iot_link/os/liteos/utils/rbtree.c ****     rb_node_t * p;
 791:../../iot_link/os/liteos/utils/rbtree.c ****     rb_node_t * c;
 792:../../iot_link/os/liteos/utils/rbtree.c ****     rb_node_t * o = n;
 793:../../iot_link/os/liteos/utils/rbtree.c ****     bool        two_child = false;
 794:../../iot_link/os/liteos/utils/rbtree.c ****     bool        adj;
 795:../../iot_link/os/liteos/utils/rbtree.c **** 
 796:../../iot_link/os/liteos/utils/rbtree.c ****     if ((t == NULL) || (n == NULL))
 1393              		.loc 2 796 0
 1394 0006 8046     		mov	r8, r0
 1395 0008 0028     		cmp	r0, #0
 1396 000a 4AD0     		beq	.L140
 1397              		.loc 2 796 0 is_stmt 0 discriminator 1
 1398 000c 0029     		cmp	r1, #0
 1399 000e 48D0     		beq	.L140
 1400 0010 D1E90162 		ldrd	r6, r2, [r1, #4]
 797:../../iot_link/os/liteos/utils/rbtree.c ****     {
 798:../../iot_link/os/liteos/utils/rbtree.c ****         return;
 799:../../iot_link/os/liteos/utils/rbtree.c ****     }
 800:../../iot_link/os/liteos/utils/rbtree.c **** 
 801:../../iot_link/os/liteos/utils/rbtree.c ****     /* find the real 'n' to be deleted, and its child */
 802:../../iot_link/os/liteos/utils/rbtree.c **** 
 803:../../iot_link/os/liteos/utils/rbtree.c ****     if (__right (n) == NULL)
 1401              		.loc 2 803 0 is_stmt 1
 1402 0014 002A     		cmp	r2, #0
ARM GAS  C:\Users\LuckyE\AppData\Local\Temp\ccx4tDom.s 			page 52


 1403 0016 46D0     		beq	.L166
 1404              	.LVL148:
 804:../../iot_link/os/liteos/utils/rbtree.c ****     {
 805:../../iot_link/os/liteos/utils/rbtree.c ****         c = __left (n);
 806:../../iot_link/os/liteos/utils/rbtree.c ****     }
 807:../../iot_link/os/liteos/utils/rbtree.c ****     else if (__left (n) == NULL)
 1405              		.loc 2 807 0
 1406 0018 002E     		cmp	r6, #0
 1407 001a 46D0     		beq	.L167
 1408              	.LVL149:
 1409              	.LBB567:
 1410              	.LBB568:
 298:../../iot_link/os/liteos/utils/rbtree.c **** }
 1411              		.loc 2 298 0
 1412 001c 0846     		mov	r0, r1
 1413              	.LVL150:
 1414 001e FFF7FEFF 		bl	__bit_successor
 1415              	.LVL151:
 1416              	.LBE568:
 1417              	.LBE567:
 808:../../iot_link/os/liteos/utils/rbtree.c ****     {
 809:../../iot_link/os/liteos/utils/rbtree.c ****         c = __right (n);
 810:../../iot_link/os/liteos/utils/rbtree.c ****     }
 811:../../iot_link/os/liteos/utils/rbtree.c ****     else
 812:../../iot_link/os/liteos/utils/rbtree.c ****     {
 813:../../iot_link/os/liteos/utils/rbtree.c ****         two_child = true;
 814:../../iot_link/os/liteos/utils/rbtree.c **** 
 815:../../iot_link/os/liteos/utils/rbtree.c ****         n = __successor (n);
 816:../../iot_link/os/liteos/utils/rbtree.c **** 
 817:../../iot_link/os/liteos/utils/rbtree.c ****         /* n->left must be NIL, so n's child must be right (also may be NIL) */
 818:../../iot_link/os/liteos/utils/rbtree.c **** 
 819:../../iot_link/os/liteos/utils/rbtree.c ****         c = __right (n);
 1418              		.loc 2 819 0
 1419 0022 8668     		ldr	r6, [r0, #8]
 1420              	.LBB570:
 1421              	.LBB569:
 298:../../iot_link/os/liteos/utils/rbtree.c **** }
 1422              		.loc 2 298 0
 1423 0024 0546     		mov	r5, r0
 1424              	.LVL152:
 1425              	.LBE569:
 1426              	.LBE570:
 813:../../iot_link/os/liteos/utils/rbtree.c **** 
 1427              		.loc 2 813 0
 1428 0026 0122     		movs	r2, #1
 1429              	.LVL153:
 1430              	.L142:
 820:../../iot_link/os/liteos/utils/rbtree.c ****     }
 821:../../iot_link/os/liteos/utils/rbtree.c **** 
 822:../../iot_link/os/liteos/utils/rbtree.c ****     p   = __parent (n);
 823:../../iot_link/os/liteos/utils/rbtree.c ****     adj = __is_black (n);
 1431              		.loc 2 823 0
 1432 0028 2846     		mov	r0, r5
 1433 002a FFF7FEFF 		bl	__is_black
 1434              	.LVL154:
 822:../../iot_link/os/liteos/utils/rbtree.c ****     adj = __is_black (n);
 1435              		.loc 2 822 0
ARM GAS  C:\Users\LuckyE\AppData\Local\Temp\ccx4tDom.s 			page 53


 1436 002e 2C68     		ldr	r4, [r5]
 1437              	.LVL155:
 1438              		.loc 2 823 0
 1439 0030 8646     		mov	lr, r0
 1440              	.LVL156:
 824:../../iot_link/os/liteos/utils/rbtree.c **** 
 825:../../iot_link/os/liteos/utils/rbtree.c ****     if ((c != NULL) && (p != o))
 1441              		.loc 2 825 0
 1442 0032 16B1     		cbz	r6, .L143
 1443              		.loc 2 825 0 is_stmt 0 discriminator 1
 1444 0034 A742     		cmp	r7, r4
 1445 0036 3CD0     		beq	.L144
 1446              	.LVL157:
 1447              	.LBB571:
 1448              	.LBB572:
 197:../../iot_link/os/liteos/utils/rbtree.c **** }
 1449              		.loc 2 197 0 is_stmt 1
 1450 0038 3460     		str	r4, [r6]
 1451              	.LVL158:
 1452              	.L143:
 1453              	.LBE572:
 1454              	.LBE571:
 826:../../iot_link/os/liteos/utils/rbtree.c ****     {
 827:../../iot_link/os/liteos/utils/rbtree.c ****         __set_parent (c, p);
 828:../../iot_link/os/liteos/utils/rbtree.c ****     }
 829:../../iot_link/os/liteos/utils/rbtree.c **** 
 830:../../iot_link/os/liteos/utils/rbtree.c ****     if (p == NULL)
 1455              		.loc 2 830 0
 1456 003a 002C     		cmp	r4, #0
 1457 003c 39D1     		bne	.L144
 1458              	.LVL159:
 1459              	.LBB573:
 1460              	.LBB574:
 236:../../iot_link/os/liteos/utils/rbtree.c **** }
 1461              		.loc 2 236 0
 1462 003e C8F80060 		str	r6, [r8]
 1463              	.LVL160:
 1464              	.L145:
 1465              	.LBE574:
 1466              	.LBE573:
 831:../../iot_link/os/liteos/utils/rbtree.c ****     {
 832:../../iot_link/os/liteos/utils/rbtree.c ****         __set_root (t, c);
 833:../../iot_link/os/liteos/utils/rbtree.c ****     }
 834:../../iot_link/os/liteos/utils/rbtree.c ****     else if (__left (p) == n)
 835:../../iot_link/os/liteos/utils/rbtree.c ****     {
 836:../../iot_link/os/liteos/utils/rbtree.c ****         __set_left (p, c);      /* set even p == o */
 837:../../iot_link/os/liteos/utils/rbtree.c ****     }
 838:../../iot_link/os/liteos/utils/rbtree.c ****     else
 839:../../iot_link/os/liteos/utils/rbtree.c ****     {
 840:../../iot_link/os/liteos/utils/rbtree.c ****         __set_right (p, c);     /* set even p == o */
 841:../../iot_link/os/liteos/utils/rbtree.c ****     }
 842:../../iot_link/os/liteos/utils/rbtree.c **** 
 843:../../iot_link/os/liteos/utils/rbtree.c ****     if (two_child)
 1467              		.loc 2 843 0
 1468 0042 C2B1     		cbz	r2, .L147
 1469              	.LBB575:
 844:../../iot_link/os/liteos/utils/rbtree.c ****     {
ARM GAS  C:\Users\LuckyE\AppData\Local\Temp\ccx4tDom.s 			page 54


 845:../../iot_link/os/liteos/utils/rbtree.c ****         rb_node_t * op = __parent (o);
 846:../../iot_link/os/liteos/utils/rbtree.c **** 
 847:../../iot_link/os/liteos/utils/rbtree.c ****         /* 'n' will take the place of the old node 'o' */
 848:../../iot_link/os/liteos/utils/rbtree.c **** 
 849:../../iot_link/os/liteos/utils/rbtree.c ****         *n = *o;
 1470              		.loc 2 849 0
 1471 0044 97E80F00 		ldm	r7, {r0, r1, r2, r3}
 1472              	.LVL161:
 845:../../iot_link/os/liteos/utils/rbtree.c **** 
 1473              		.loc 2 845 0
 1474 0048 D7F800C0 		ldr	ip, [r7]
 1475              	.LVL162:
 1476              		.loc 2 849 0
 1477 004c 85E80F00 		stm	r5, {r0, r1, r2, r3}
 850:../../iot_link/os/liteos/utils/rbtree.c **** 
 851:../../iot_link/os/liteos/utils/rbtree.c ****         if (op != NULL)
 1478              		.loc 2 851 0
 1479 0050 BCF1000F 		cmp	ip, #0
 1480 0054 33D0     		beq	.L148
 1481              	.LVL163:
 852:../../iot_link/os/liteos/utils/rbtree.c ****         {
 853:../../iot_link/os/liteos/utils/rbtree.c ****             if (__left (op) == o)
 1482              		.loc 2 853 0
 1483 0056 DCF80430 		ldr	r3, [ip, #4]
 1484 005a 9F42     		cmp	r7, r3
 1485              	.LVL164:
 1486              	.LBB576:
 1487              	.LBB577:
 210:../../iot_link/os/liteos/utils/rbtree.c **** }
 1488              		.loc 2 210 0
 1489 005c 0CBF     		ite	eq
 1490 005e CCF80450 		streq	r5, [ip, #4]
 1491              	.LVL165:
 1492              	.LBE577:
 1493              	.LBE576:
 1494              	.LBB578:
 1495              	.LBB579:
 223:../../iot_link/os/liteos/utils/rbtree.c **** }
 1496              		.loc 2 223 0
 1497 0062 CCF80850 		strne	r5, [ip, #8]
 1498              	.LVL166:
 1499              	.L150:
 1500              	.LBE579:
 1501              	.LBE578:
 854:../../iot_link/os/liteos/utils/rbtree.c ****             {
 855:../../iot_link/os/liteos/utils/rbtree.c ****                 __set_left (op, n);
 856:../../iot_link/os/liteos/utils/rbtree.c ****             }
 857:../../iot_link/os/liteos/utils/rbtree.c ****             else
 858:../../iot_link/os/liteos/utils/rbtree.c ****             {
 859:../../iot_link/os/liteos/utils/rbtree.c ****                 __set_right (op, n);
 860:../../iot_link/os/liteos/utils/rbtree.c ****             }
 861:../../iot_link/os/liteos/utils/rbtree.c ****         }
 862:../../iot_link/os/liteos/utils/rbtree.c ****         else
 863:../../iot_link/os/liteos/utils/rbtree.c ****         {
 864:../../iot_link/os/liteos/utils/rbtree.c ****             __set_root (t, n);
 865:../../iot_link/os/liteos/utils/rbtree.c ****         }
 866:../../iot_link/os/liteos/utils/rbtree.c **** 
ARM GAS  C:\Users\LuckyE\AppData\Local\Temp\ccx4tDom.s 			page 55


 867:../../iot_link/os/liteos/utils/rbtree.c ****         __set_parent (__left (n), n);
 1502              		.loc 2 867 0
 1503 0066 6B68     		ldr	r3, [r5, #4]
 1504              	.LVL167:
 1505              	.LBB580:
 1506              	.LBB581:
 197:../../iot_link/os/liteos/utils/rbtree.c **** }
 1507              		.loc 2 197 0
 1508 0068 1D60     		str	r5, [r3]
 1509              	.LVL168:
 1510              	.LBE581:
 1511              	.LBE580:
 868:../../iot_link/os/liteos/utils/rbtree.c **** 
 869:../../iot_link/os/liteos/utils/rbtree.c ****         /*
 870:../../iot_link/os/liteos/utils/rbtree.c ****          * __right (n) will be NULL when:
 871:../../iot_link/os/liteos/utils/rbtree.c ****          *
 872:../../iot_link/os/liteos/utils/rbtree.c ****          *     p == o
 873:../../iot_link/os/liteos/utils/rbtree.c ****          *     n->r == NULL
 874:../../iot_link/os/liteos/utils/rbtree.c ****          *
 875:../../iot_link/os/liteos/utils/rbtree.c ****          *    op
 876:../../iot_link/os/liteos/utils/rbtree.c ****          *    /\
 877:../../iot_link/os/liteos/utils/rbtree.c ****          *   ?  o (p)
 878:../../iot_link/os/liteos/utils/rbtree.c ****          *     / \
 879:../../iot_link/os/liteos/utils/rbtree.c ****          *    ?   n
 880:../../iot_link/os/liteos/utils/rbtree.c ****          *       / \
 881:../../iot_link/os/liteos/utils/rbtree.c ****          *      NIL NIL (c)
 882:../../iot_link/os/liteos/utils/rbtree.c ****          */
 883:../../iot_link/os/liteos/utils/rbtree.c **** 
 884:../../iot_link/os/liteos/utils/rbtree.c ****         if (__right (n) != NULL)
 1512              		.loc 2 884 0
 1513 006a AB68     		ldr	r3, [r5, #8]
 1514              	.LVL169:
 1515 006c 03B1     		cbz	r3, .L151
 1516              	.LVL170:
 1517              	.LBB582:
 1518              	.LBB583:
 197:../../iot_link/os/liteos/utils/rbtree.c **** }
 1519              		.loc 2 197 0
 1520 006e 1D60     		str	r5, [r3]
 1521              	.LVL171:
 1522              	.L151:
 1523              	.LBE583:
 1524              	.LBE582:
 1525 0070 A742     		cmp	r7, r4
 1526 0072 08BF     		it	eq
 1527 0074 2C46     		moveq	r4, r5
 1528              	.LVL172:
 1529              	.L147:
 1530              	.LBE575:
 885:../../iot_link/os/liteos/utils/rbtree.c ****         {
 886:../../iot_link/os/liteos/utils/rbtree.c ****             __set_parent (__right (n), n);
 887:../../iot_link/os/liteos/utils/rbtree.c ****         }
 888:../../iot_link/os/liteos/utils/rbtree.c **** 
 889:../../iot_link/os/liteos/utils/rbtree.c ****         if (p == o)
 890:../../iot_link/os/liteos/utils/rbtree.c ****         {
 891:../../iot_link/os/liteos/utils/rbtree.c ****             p = n;
 892:../../iot_link/os/liteos/utils/rbtree.c ****         }
ARM GAS  C:\Users\LuckyE\AppData\Local\Temp\ccx4tDom.s 			page 56


 893:../../iot_link/os/liteos/utils/rbtree.c ****     }
 894:../../iot_link/os/liteos/utils/rbtree.c **** 
 895:../../iot_link/os/liteos/utils/rbtree.c ****     if (adj)
 1531              		.loc 2 895 0
 1532 0076 BEF1000F 		cmp	lr, #0
 1533 007a 0DD0     		beq	.L153
 1534              	.LBB586:
 1535              	.LBB587:
 1536              	.LBB588:
 1537              	.LBB589:
 1538              	.LBB590:
 1539              	.LBB591:
 113:../../iot_link/os/liteos/utils/rbtree.c **** }
 1540              		.loc 2 113 0
 1541 007c 0127     		movs	r7, #1
 1542              	.LVL173:
 1543              	.LBE591:
 1544              	.LBE590:
 1545              	.LBE589:
 1546              	.LBB594:
 1547              	.LBB595:
 1548              	.LBB596:
 1549 007e 4FF00009 		mov	r9, #0
 1550              	.LVL174:
 1551              	.L152:
 1552              	.LBE596:
 1553              	.LBE595:
 1554              	.LBE594:
 1555              	.LBE588:
 635:../../iot_link/os/liteos/utils/rbtree.c ****     {
 1556              		.loc 2 635 0
 1557 0082 3046     		mov	r0, r6
 1558 0084 FFF7FEFF 		bl	__is_black
 1559              	.LVL175:
 1560 0088 18B1     		cbz	r0, .L163
 1561              	.LVL176:
 1562 008a D8F80030 		ldr	r3, [r8]
 1563 008e 9E42     		cmp	r6, r3
 1564 0090 18D1     		bne	.L164
 1565              	.LVL177:
 1566              	.L163:
 774:../../iot_link/os/liteos/utils/rbtree.c ****     {
 1567              		.loc 2 774 0
 1568 0092 0EB1     		cbz	r6, .L153
 1569              	.LVL178:
 1570              	.LBB656:
 1571              	.LBB657:
 1572              	.LBB658:
 113:../../iot_link/os/liteos/utils/rbtree.c **** }
 1573              		.loc 2 113 0
 1574 0094 0123     		movs	r3, #1
 1575 0096 F360     		str	r3, [r6, #12]
 1576              	.LVL179:
 1577              	.L153:
 1578              	.LBE658:
 1579              	.LBE657:
 1580              	.LBE656:
ARM GAS  C:\Users\LuckyE\AppData\Local\Temp\ccx4tDom.s 			page 57


 1581              	.LBE587:
 1582              	.LBE586:
 896:../../iot_link/os/liteos/utils/rbtree.c ****     {
 897:../../iot_link/os/liteos/utils/rbtree.c ****         __rb_deladj (t, p, c);
 898:../../iot_link/os/liteos/utils/rbtree.c ****     }
 899:../../iot_link/os/liteos/utils/rbtree.c **** 
 900:../../iot_link/os/liteos/utils/rbtree.c **** #ifdef RBTREE_DEBUG
 901:../../iot_link/os/liteos/utils/rbtree.c ****     t->nodes--;
 1583              		.loc 2 901 0
 1584 0098 D8F80C30 		ldr	r3, [r8, #12]
 1585 009c 013B     		subs	r3, r3, #1
 1586 009e C8F80C30 		str	r3, [r8, #12]
 1587              	.L140:
 902:../../iot_link/os/liteos/utils/rbtree.c **** #endif
 903:../../iot_link/os/liteos/utils/rbtree.c **** }
 1588              		.loc 2 903 0
 1589 00a2 BDE8F883 		pop	{r3, r4, r5, r6, r7, r8, r9, pc}
 1590              	.LVL180:
 1591              	.L166:
 1592 00a6 0D46     		mov	r5, r1
 1593 00a8 BEE7     		b	.L142
 1594              	.LVL181:
 1595              	.L167:
 1596 00aa 1646     		mov	r6, r2
 1597 00ac 0D46     		mov	r5, r1
 793:../../iot_link/os/liteos/utils/rbtree.c ****     bool        adj;
 1598              		.loc 2 793 0
 1599 00ae 0022     		movs	r2, #0
 1600 00b0 BAE7     		b	.L142
 1601              	.LVL182:
 1602              	.L144:
 834:../../iot_link/os/liteos/utils/rbtree.c ****     {
 1603              		.loc 2 834 0
 1604 00b2 6368     		ldr	r3, [r4, #4]
 1605 00b4 9D42     		cmp	r5, r3
 1606              	.LVL183:
 1607              	.LBB661:
 1608              	.LBB662:
 210:../../iot_link/os/liteos/utils/rbtree.c **** }
 1609              		.loc 2 210 0
 1610 00b6 0CBF     		ite	eq
 1611 00b8 6660     		streq	r6, [r4, #4]
 1612              	.LVL184:
 1613              	.LBE662:
 1614              	.LBE661:
 1615              	.LBB663:
 1616              	.LBB664:
 223:../../iot_link/os/liteos/utils/rbtree.c **** }
 1617              		.loc 2 223 0
 1618 00ba A660     		strne	r6, [r4, #8]
 1619 00bc C1E7     		b	.L145
 1620              	.LVL185:
 1621              	.L148:
 1622              	.LBE664:
 1623              	.LBE663:
 1624              	.LBB665:
 1625              	.LBB584:
ARM GAS  C:\Users\LuckyE\AppData\Local\Temp\ccx4tDom.s 			page 58


 1626              	.LBB585:
 236:../../iot_link/os/liteos/utils/rbtree.c **** }
 1627              		.loc 2 236 0
 1628 00be C8F80050 		str	r5, [r8]
 1629 00c2 D0E7     		b	.L150
 1630              	.LVL186:
 1631              	.L164:
 1632              	.LBE585:
 1633              	.LBE584:
 1634              	.LBE665:
 1635              	.LBB666:
 1636              	.LBB660:
 1637              	.LBB659:
 644:../../iot_link/os/liteos/utils/rbtree.c ****         {
 1638              		.loc 2 644 0
 1639 00c4 6568     		ldr	r5, [r4, #4]
 1640              	.LVL187:
 1641 00c6 B542     		cmp	r5, r6
 1642 00c8 29D1     		bne	.L154
 646:../../iot_link/os/liteos/utils/rbtree.c **** 
 1643              		.loc 2 646 0
 1644 00ca A568     		ldr	r5, [r4, #8]
 1645              	.LVL188:
 648:../../iot_link/os/liteos/utils/rbtree.c ****             {
 1646              		.loc 2 648 0
 1647 00cc EB68     		ldr	r3, [r5, #12]
 1648 00ce 33B9     		cbnz	r3, .L155
 1649              	.LVL189:
 1650              	.LBB599:
 1651              	.LBB600:
 1652              	.LBB601:
 113:../../iot_link/os/liteos/utils/rbtree.c **** }
 1653              		.loc 2 113 0
 1654 00d0 EF60     		str	r7, [r5, #12]
 1655              	.LVL190:
 1656              	.LBE601:
 1657              	.LBE600:
 1658              	.LBE599:
 1659              	.LBB602:
 1660              	.LBB603:
 286:../../iot_link/os/liteos/utils/rbtree.c **** }
 1661              		.loc 2 286 0
 1662 00d2 2146     		mov	r1, r4
 1663              	.LBE603:
 1664              	.LBE602:
 1665              	.LBB606:
 1666              	.LBB607:
 1667              	.LBB608:
 113:../../iot_link/os/liteos/utils/rbtree.c **** }
 1668              		.loc 2 113 0
 1669 00d4 E360     		str	r3, [r4, #12]
 1670              	.LVL191:
 1671              	.LBE608:
 1672              	.LBE607:
 1673              	.LBE606:
 1674              	.LBB609:
 1675              	.LBB604:
ARM GAS  C:\Users\LuckyE\AppData\Local\Temp\ccx4tDom.s 			page 59


 286:../../iot_link/os/liteos/utils/rbtree.c **** }
 1676              		.loc 2 286 0
 1677 00d6 4046     		mov	r0, r8
 1678              	.LBE604:
 1679              	.LBE609:
 660:../../iot_link/os/liteos/utils/rbtree.c **** 
 1680              		.loc 2 660 0
 1681 00d8 6D68     		ldr	r5, [r5, #4]
 1682              	.LVL192:
 1683              	.LBB610:
 1684              	.LBB605:
 286:../../iot_link/os/liteos/utils/rbtree.c **** }
 1685              		.loc 2 286 0
 1686 00da FFF7FEFF 		bl	__bit_rotate_left.isra.5
 1687              	.LVL193:
 1688              	.L155:
 1689              	.LBE605:
 1690              	.LBE610:
 667:../../iot_link/os/liteos/utils/rbtree.c ****             {
 1691              		.loc 2 667 0
 1692 00de A868     		ldr	r0, [r5, #8]
 1693 00e0 FFF7FEFF 		bl	__is_black
 1694              	.LVL194:
 1695 00e4 70B1     		cbz	r0, .L156
 1696              	.LVL195:
 669:../../iot_link/os/liteos/utils/rbtree.c ****                 {
 1697              		.loc 2 669 0
 1698 00e6 6868     		ldr	r0, [r5, #4]
 1699 00e8 FFF7FEFF 		bl	__is_black
 1700              	.LVL196:
 1701 00ec 28B1     		cbz	r0, .L157
 1702              	.LVL197:
 1703              	.L197:
 742:../../iot_link/os/liteos/utils/rbtree.c **** 
 1704              		.loc 2 742 0
 1705 00ee 2368     		ldr	r3, [r4]
 1706              	.LBB611:
 1707              	.LBB598:
 1708              	.LBB597:
 113:../../iot_link/os/liteos/utils/rbtree.c **** }
 1709              		.loc 2 113 0
 1710 00f0 C5F80C90 		str	r9, [r5, #12]
 1711              	.LVL198:
 1712              	.L158:
 1713              	.LBE597:
 1714              	.LBE598:
 1715              	.LBE611:
 771:../../iot_link/os/liteos/utils/rbtree.c ****     }
 1716              		.loc 2 771 0
 1717 00f4 2646     		mov	r6, r4
 1718 00f6 1C46     		mov	r4, r3
 1719 00f8 C3E7     		b	.L152
 1720              	.LVL199:
 1721              	.L157:
 1722              	.LBB612:
 1723              	.LBB613:
 273:../../iot_link/os/liteos/utils/rbtree.c **** }
ARM GAS  C:\Users\LuckyE\AppData\Local\Temp\ccx4tDom.s 			page 60


 1724              		.loc 2 273 0
 1725 00fa 2946     		mov	r1, r5
 1726 00fc 4046     		mov	r0, r8
 1727 00fe FFF7FEFF 		bl	__bit_rotate_right.isra.4
 1728              	.LVL200:
 1729              	.LBE613:
 1730              	.LBE612:
 692:../../iot_link/os/liteos/utils/rbtree.c **** 
 1731              		.loc 2 692 0
 1732 0102 2D68     		ldr	r5, [r5]
 1733              	.LVL201:
 1734              	.L156:
 702:../../iot_link/os/liteos/utils/rbtree.c ****             __set_black (p);
 1735              		.loc 2 702 0
 1736 0104 E368     		ldr	r3, [r4, #12]
 1737              	.LVL202:
 1738              	.LBB614:
 1739              	.LBB615:
 113:../../iot_link/os/liteos/utils/rbtree.c **** }
 1740              		.loc 2 113 0
 1741 0106 EB60     		str	r3, [r5, #12]
 1742              	.LVL203:
 1743              	.LBE615:
 1744              	.LBE614:
 1745              	.LBB616:
 1746              	.LBB617:
 1747              	.LBB618:
 1748 0108 AB68     		ldr	r3, [r5, #8]
 1749              	.LBE618:
 1750              	.LBE617:
 1751              	.LBE616:
 1752              	.LBB621:
 1753              	.LBB622:
 1754              	.LBB623:
 1755 010a E760     		str	r7, [r4, #12]
 1756              	.LVL204:
 1757              	.LBE623:
 1758              	.LBE622:
 1759              	.LBE621:
 1760              	.LBB624:
 1761              	.LBB625:
 286:../../iot_link/os/liteos/utils/rbtree.c **** }
 1762              		.loc 2 286 0
 1763 010c 2146     		mov	r1, r4
 1764              	.LBE625:
 1765              	.LBE624:
 1766              	.LBB627:
 1767              	.LBB620:
 1768              	.LBB619:
 113:../../iot_link/os/liteos/utils/rbtree.c **** }
 1769              		.loc 2 113 0
 1770 010e DF60     		str	r7, [r3, #12]
 1771              	.LVL205:
 1772              	.LBE619:
 1773              	.LBE620:
 1774              	.LBE627:
 1775              	.LBB628:
ARM GAS  C:\Users\LuckyE\AppData\Local\Temp\ccx4tDom.s 			page 61


 1776              	.LBB626:
 286:../../iot_link/os/liteos/utils/rbtree.c **** }
 1777              		.loc 2 286 0
 1778 0110 4046     		mov	r0, r8
 1779 0112 FFF7FEFF 		bl	__bit_rotate_left.isra.5
 1780              	.LVL206:
 1781              	.L159:
 1782              	.LBE626:
 1783              	.LBE628:
 771:../../iot_link/os/liteos/utils/rbtree.c ****     }
 1784              		.loc 2 771 0
 1785 0116 2346     		mov	r3, r4
 1786 0118 D8F80040 		ldr	r4, [r8]
 1787 011c EAE7     		b	.L158
 1788              	.LVL207:
 1789              	.L154:
 711:../../iot_link/os/liteos/utils/rbtree.c ****             {
 1790              		.loc 2 711 0
 1791 011e EB68     		ldr	r3, [r5, #12]
 1792 0120 33B9     		cbnz	r3, .L160
 1793              	.LVL208:
 1794              	.LBB629:
 1795              	.LBB630:
 1796              	.LBB631:
 113:../../iot_link/os/liteos/utils/rbtree.c **** }
 1797              		.loc 2 113 0
 1798 0122 EF60     		str	r7, [r5, #12]
 1799              	.LVL209:
 1800              	.LBE631:
 1801              	.LBE630:
 1802              	.LBE629:
 1803              	.LBB632:
 1804              	.LBB633:
 273:../../iot_link/os/liteos/utils/rbtree.c **** }
 1805              		.loc 2 273 0
 1806 0124 2146     		mov	r1, r4
 1807              	.LBE633:
 1808              	.LBE632:
 1809              	.LBB636:
 1810              	.LBB637:
 1811              	.LBB638:
 113:../../iot_link/os/liteos/utils/rbtree.c **** }
 1812              		.loc 2 113 0
 1813 0126 E360     		str	r3, [r4, #12]
 1814              	.LVL210:
 1815              	.LBE638:
 1816              	.LBE637:
 1817              	.LBE636:
 1818              	.LBB639:
 1819              	.LBB634:
 273:../../iot_link/os/liteos/utils/rbtree.c **** }
 1820              		.loc 2 273 0
 1821 0128 4046     		mov	r0, r8
 1822              	.LBE634:
 1823              	.LBE639:
 723:../../iot_link/os/liteos/utils/rbtree.c **** 
 1824              		.loc 2 723 0
ARM GAS  C:\Users\LuckyE\AppData\Local\Temp\ccx4tDom.s 			page 62


 1825 012a AD68     		ldr	r5, [r5, #8]
 1826              	.LVL211:
 1827              	.LBB640:
 1828              	.LBB635:
 273:../../iot_link/os/liteos/utils/rbtree.c **** }
 1829              		.loc 2 273 0
 1830 012c FFF7FEFF 		bl	__bit_rotate_right.isra.4
 1831              	.LVL212:
 1832              	.L160:
 1833              	.LBE635:
 1834              	.LBE640:
 730:../../iot_link/os/liteos/utils/rbtree.c ****             {
 1835              		.loc 2 730 0
 1836 0130 6868     		ldr	r0, [r5, #4]
 1837 0132 FFF7FEFF 		bl	__is_black
 1838              	.LVL213:
 1839 0136 48B1     		cbz	r0, .L161
 1840              	.LVL214:
 732:../../iot_link/os/liteos/utils/rbtree.c ****                 {
 1841              		.loc 2 732 0
 1842 0138 A868     		ldr	r0, [r5, #8]
 1843 013a FFF7FEFF 		bl	__is_black
 1844              	.LVL215:
 1845 013e 0028     		cmp	r0, #0
 1846 0140 D5D1     		bne	.L197
 1847              	.LVL216:
 1848              	.LBB641:
 1849              	.LBB642:
 286:../../iot_link/os/liteos/utils/rbtree.c **** }
 1850              		.loc 2 286 0
 1851 0142 2946     		mov	r1, r5
 1852 0144 4046     		mov	r0, r8
 1853 0146 FFF7FEFF 		bl	__bit_rotate_left.isra.5
 1854              	.LVL217:
 1855              	.LBE642:
 1856              	.LBE641:
 755:../../iot_link/os/liteos/utils/rbtree.c **** 
 1857              		.loc 2 755 0
 1858 014a 2D68     		ldr	r5, [r5]
 1859              	.LVL218:
 1860              	.L161:
 765:../../iot_link/os/liteos/utils/rbtree.c ****             __set_black (p);
 1861              		.loc 2 765 0
 1862 014c E368     		ldr	r3, [r4, #12]
 1863              	.LVL219:
 1864              	.LBB643:
 1865              	.LBB644:
 113:../../iot_link/os/liteos/utils/rbtree.c **** }
 1866              		.loc 2 113 0
 1867 014e EB60     		str	r3, [r5, #12]
 1868              	.LVL220:
 1869              	.LBE644:
 1870              	.LBE643:
 1871              	.LBB645:
 1872              	.LBB646:
 1873              	.LBB647:
 1874 0150 6B68     		ldr	r3, [r5, #4]
ARM GAS  C:\Users\LuckyE\AppData\Local\Temp\ccx4tDom.s 			page 63


 1875              	.LBE647:
 1876              	.LBE646:
 1877              	.LBE645:
 1878              	.LBB650:
 1879              	.LBB593:
 1880              	.LBB592:
 1881 0152 E760     		str	r7, [r4, #12]
 1882              	.LVL221:
 1883              	.LBE592:
 1884              	.LBE593:
 1885              	.LBE650:
 1886              	.LBB651:
 1887              	.LBB652:
 273:../../iot_link/os/liteos/utils/rbtree.c **** }
 1888              		.loc 2 273 0
 1889 0154 2146     		mov	r1, r4
 1890              	.LBE652:
 1891              	.LBE651:
 1892              	.LBB654:
 1893              	.LBB649:
 1894              	.LBB648:
 113:../../iot_link/os/liteos/utils/rbtree.c **** }
 1895              		.loc 2 113 0
 1896 0156 DF60     		str	r7, [r3, #12]
 1897              	.LVL222:
 1898              	.LBE648:
 1899              	.LBE649:
 1900              	.LBE654:
 1901              	.LBB655:
 1902              	.LBB653:
 273:../../iot_link/os/liteos/utils/rbtree.c **** }
 1903              		.loc 2 273 0
 1904 0158 4046     		mov	r0, r8
 1905 015a FFF7FEFF 		bl	__bit_rotate_right.isra.4
 1906              	.LVL223:
 1907 015e DAE7     		b	.L159
 1908              	.LBE653:
 1909              	.LBE655:
 1910              	.LBE659:
 1911              	.LBE660:
 1912              	.LBE666:
 1913              		.cfi_endproc
 1914              	.LFE57:
 1916              		.section	.text.rb_init,"ax",%progbits
 1917              		.align	1
 1918              		.global	rb_init
 1919              		.syntax unified
 1920              		.thumb
 1921              		.thumb_func
 1922              		.fpu fpv4-sp-d16
 1924              	rb_init:
 1925              	.LFB58:
 904:../../iot_link/os/liteos/utils/rbtree.c **** 
 905:../../iot_link/os/liteos/utils/rbtree.c **** /**
 906:../../iot_link/os/liteos/utils/rbtree.c ****  * rb_init - init a rb-tree
 907:../../iot_link/os/liteos/utils/rbtree.c ****  * @t: the given tree
 908:../../iot_link/os/liteos/utils/rbtree.c ****  * @c: the comparison method
ARM GAS  C:\Users\LuckyE\AppData\Local\Temp\ccx4tDom.s 			page 64


 909:../../iot_link/os/liteos/utils/rbtree.c ****  * @k: the method to get the key of a node
 910:../../iot_link/os/liteos/utils/rbtree.c ****  *
 911:../../iot_link/os/liteos/utils/rbtree.c ****  * return: NA
 912:../../iot_link/os/liteos/utils/rbtree.c ****  */
 913:../../iot_link/os/liteos/utils/rbtree.c **** 
 914:../../iot_link/os/liteos/utils/rbtree.c **** void rb_init (rb_tree_t * t,
 915:../../iot_link/os/liteos/utils/rbtree.c ****               int (* compare_nn) (bi_node_t *, bi_node_t *),
 916:../../iot_link/os/liteos/utils/rbtree.c ****               int (* compare_nk) (bi_node_t *, uintptr_t))
 917:../../iot_link/os/liteos/utils/rbtree.c **** {
 1926              		.loc 2 917 0
 1927              		.cfi_startproc
 1928              		@ args = 0, pretend = 0, frame = 0
 1929              		@ frame_needed = 0, uses_anonymous_args = 0
 1930              		@ link register save eliminated.
 1931              	.LVL224:
 1932              	.LBB669:
 1933              	.LBB670:
 619:../../iot_link/os/liteos/base/include/__binary_tree.h **** 
 620:../../iot_link/os/liteos/base/include/__binary_tree.h ****     return 0;
 621:../../iot_link/os/liteos/base/include/__binary_tree.h **** }
 622:../../iot_link/os/liteos/base/include/__binary_tree.h **** 
 623:../../iot_link/os/liteos/base/include/__binary_tree.h **** /**
 624:../../iot_link/os/liteos/base/include/__binary_tree.h ****  * __bit_for_each - iterate over a binary search tree from most left to most right
 625:../../iot_link/os/liteos/base/include/__binary_tree.h ****  * @t:   the given tree
 626:../../iot_link/os/liteos/base/include/__binary_tree.h ****  * @pfn: the callback function for each found node, when pfn return non-zero value
 627:../../iot_link/os/liteos/base/include/__binary_tree.h ****  *       the loop end
 628:../../iot_link/os/liteos/base/include/__binary_tree.h ****  *
 629:../../iot_link/os/liteos/base/include/__binary_tree.h ****  * return: NA
 630:../../iot_link/os/liteos/base/include/__binary_tree.h ****  */
 631:../../iot_link/os/liteos/base/include/__binary_tree.h **** 
 632:../../iot_link/os/liteos/base/include/__binary_tree.h **** static inline void __bit_for_each (bi_tree_t * t, int (* pfn) (bi_node_t *))
 633:../../iot_link/os/liteos/base/include/__binary_tree.h **** {
 634:../../iot_link/os/liteos/base/include/__binary_tree.h ****     bi_node_t * n = t->r;
 635:../../iot_link/os/liteos/base/include/__binary_tree.h **** 
 636:../../iot_link/os/liteos/base/include/__binary_tree.h ****     if (n == NULL)
 637:../../iot_link/os/liteos/base/include/__binary_tree.h ****     {
 638:../../iot_link/os/liteos/base/include/__binary_tree.h ****         return;
 639:../../iot_link/os/liteos/base/include/__binary_tree.h ****     }
 640:../../iot_link/os/liteos/base/include/__binary_tree.h **** 
 641:../../iot_link/os/liteos/base/include/__binary_tree.h ****     while (1)
 642:../../iot_link/os/liteos/base/include/__binary_tree.h ****     {
 643:../../iot_link/os/liteos/base/include/__binary_tree.h ****         while (n->l != NULL)
 644:../../iot_link/os/liteos/base/include/__binary_tree.h ****         {
 645:../../iot_link/os/liteos/base/include/__binary_tree.h ****             n = n->l;
 646:../../iot_link/os/liteos/base/include/__binary_tree.h ****         }
 647:../../iot_link/os/liteos/base/include/__binary_tree.h **** 
 648:../../iot_link/os/liteos/base/include/__binary_tree.h ****         while (1)
 649:../../iot_link/os/liteos/base/include/__binary_tree.h ****         {
 650:../../iot_link/os/liteos/base/include/__binary_tree.h ****             if (pfn (n))
 651:../../iot_link/os/liteos/base/include/__binary_tree.h ****             {
 652:../../iot_link/os/liteos/base/include/__binary_tree.h ****                 return;
 653:../../iot_link/os/liteos/base/include/__binary_tree.h ****             }
 654:../../iot_link/os/liteos/base/include/__binary_tree.h **** 
 655:../../iot_link/os/liteos/base/include/__binary_tree.h ****             if (n->r != NULL)
 656:../../iot_link/os/liteos/base/include/__binary_tree.h ****             {
 657:../../iot_link/os/liteos/base/include/__binary_tree.h ****                 n = n->r;
 658:../../iot_link/os/liteos/base/include/__binary_tree.h ****                 break;
ARM GAS  C:\Users\LuckyE\AppData\Local\Temp\ccx4tDom.s 			page 65


 659:../../iot_link/os/liteos/base/include/__binary_tree.h ****             }
 660:../../iot_link/os/liteos/base/include/__binary_tree.h **** 
 661:../../iot_link/os/liteos/base/include/__binary_tree.h ****             while (1)
 662:../../iot_link/os/liteos/base/include/__binary_tree.h ****             {
 663:../../iot_link/os/liteos/base/include/__binary_tree.h ****                 if (n->p == NULL)
 664:../../iot_link/os/liteos/base/include/__binary_tree.h ****                 {
 665:../../iot_link/os/liteos/base/include/__binary_tree.h ****                     return;
 666:../../iot_link/os/liteos/base/include/__binary_tree.h ****                 }
 667:../../iot_link/os/liteos/base/include/__binary_tree.h **** 
 668:../../iot_link/os/liteos/base/include/__binary_tree.h ****                 if (n == n->p->l)
 669:../../iot_link/os/liteos/base/include/__binary_tree.h ****                 {
 670:../../iot_link/os/liteos/base/include/__binary_tree.h ****                     n = n->p;
 671:../../iot_link/os/liteos/base/include/__binary_tree.h ****                     break;
 672:../../iot_link/os/liteos/base/include/__binary_tree.h ****                 }
 673:../../iot_link/os/liteos/base/include/__binary_tree.h **** 
 674:../../iot_link/os/liteos/base/include/__binary_tree.h ****                 n = n->p;
 675:../../iot_link/os/liteos/base/include/__binary_tree.h ****             }
 676:../../iot_link/os/liteos/base/include/__binary_tree.h ****         }
 677:../../iot_link/os/liteos/base/include/__binary_tree.h ****     }
 678:../../iot_link/os/liteos/base/include/__binary_tree.h **** }
 679:../../iot_link/os/liteos/base/include/__binary_tree.h **** 
 680:../../iot_link/os/liteos/base/include/__binary_tree.h **** /**
 681:../../iot_link/os/liteos/base/include/__binary_tree.h ****  * __bit_init - init a bit-tree
 682:../../iot_link/os/liteos/base/include/__binary_tree.h ****  * @t: the given tree
 683:../../iot_link/os/liteos/base/include/__binary_tree.h ****  * @c: the comparison method
 684:../../iot_link/os/liteos/base/include/__binary_tree.h ****  * @k: the method to get the key of a node
 685:../../iot_link/os/liteos/base/include/__binary_tree.h ****  *
 686:../../iot_link/os/liteos/base/include/__binary_tree.h ****  * return: 0 on success, -1 on error
 687:../../iot_link/os/liteos/base/include/__binary_tree.h ****  */
 688:../../iot_link/os/liteos/base/include/__binary_tree.h **** 
 689:../../iot_link/os/liteos/base/include/__binary_tree.h **** static inline int __bit_init (bi_tree_t * t,
 690:../../iot_link/os/liteos/base/include/__binary_tree.h ****                               int (* compare_nn) (bi_node_t *, bi_node_t *),
 691:../../iot_link/os/liteos/base/include/__binary_tree.h ****                               int (* compare_nk) (bi_node_t *, uintptr_t))
 692:../../iot_link/os/liteos/base/include/__binary_tree.h **** {
 693:../../iot_link/os/liteos/base/include/__binary_tree.h ****     t->r = NULL;
 1934              		.loc 1 693 0
 1935 0000 0023     		movs	r3, #0
 1936 0002 0360     		str	r3, [r0]
 694:../../iot_link/os/liteos/base/include/__binary_tree.h **** 
 695:../../iot_link/os/liteos/base/include/__binary_tree.h ****     if (!compare_nn || !compare_nk)
 1937              		.loc 1 695 0
 1938 0004 11B1     		cbz	r1, .L199
 1939 0006 0AB1     		cbz	r2, .L199
 696:../../iot_link/os/liteos/base/include/__binary_tree.h ****     {
 697:../../iot_link/os/liteos/base/include/__binary_tree.h ****         return -1;
 698:../../iot_link/os/liteos/base/include/__binary_tree.h ****     }
 699:../../iot_link/os/liteos/base/include/__binary_tree.h **** 
 700:../../iot_link/os/liteos/base/include/__binary_tree.h ****     t->compare_nn = compare_nn;
 701:../../iot_link/os/liteos/base/include/__binary_tree.h ****     t->compare_nk = compare_nk;
 1940              		.loc 1 701 0
 1941 0008 C0E90112 		strd	r1, r2, [r0, #4]
 1942              	.L199:
 1943              	.LVL225:
 1944              	.LBE670:
 1945              	.LBE669:
 918:../../iot_link/os/liteos/utils/rbtree.c ****     __bit_init (&t->bit, compare_nn, compare_nk);
 919:../../iot_link/os/liteos/utils/rbtree.c **** 
ARM GAS  C:\Users\LuckyE\AppData\Local\Temp\ccx4tDom.s 			page 66


 920:../../iot_link/os/liteos/utils/rbtree.c **** #ifdef RBTREE_DEBUG
 921:../../iot_link/os/liteos/utils/rbtree.c ****     t->nodes = 0;
 1946              		.loc 2 921 0
 1947 000c C360     		str	r3, [r0, #12]
 922:../../iot_link/os/liteos/utils/rbtree.c **** #endif
 923:../../iot_link/os/liteos/utils/rbtree.c **** }
 1948              		.loc 2 923 0
 1949 000e 7047     		bx	lr
 1950              		.cfi_endproc
 1951              	.LFE58:
 1953              		.text
 1954              	.Letext0:
 1955              		.file 3 "c:\\bearpi\\developtools\\gnu tools arm embedded\\7 2018-q2-update\\arm-none-eabi\\includ
 1956              		.file 4 "c:\\bearpi\\developtools\\gnu tools arm embedded\\7 2018-q2-update\\arm-none-eabi\\includ
 1957              		.file 5 "../../iot_link/os/liteos/base/include/rbtree.h"
ARM GAS  C:\Users\LuckyE\AppData\Local\Temp\ccx4tDom.s 			page 67

