ARM GAS  C:\Users\LuckyE\AppData\Local\Temp\ccK6ohhW.s 			page 1


   1              		.cpu cortex-m4
   2              		.eabi_attribute 27, 1
   3              		.eabi_attribute 28, 1
   4              		.eabi_attribute 20, 1
   5              		.eabi_attribute 21, 1
   6              		.eabi_attribute 23, 3
   7              		.eabi_attribute 24, 1
   8              		.eabi_attribute 25, 1
   9              		.eabi_attribute 26, 1
  10              		.eabi_attribute 30, 4
  11              		.eabi_attribute 34, 1
  12              		.eabi_attribute 18, 4
  13              		.file	"los_task.c"
  14              		.text
  15              	.Ltext0:
  16              		.cfi_sections	.debug_frame
  17              		.section	.text.LOS_ListDelete,"ax",%progbits
  18              		.align	1
  19              		.syntax unified
  20              		.thumb
  21              		.thumb_func
  22              		.fpu fpv4-sp-d16
  24              	LOS_ListDelete:
  25              	.LFB283:
  26              		.file 1 "../../iot_link/os/liteos/include/los_list.h"
   1:../../iot_link/os/liteos/include/los_list.h **** /*----------------------------------------------------------------------------
   2:../../iot_link/os/liteos/include/los_list.h ****  * Copyright (c) <2013-2015>, <Huawei Technologies Co., Ltd>
   3:../../iot_link/os/liteos/include/los_list.h ****  * All rights reserved.
   4:../../iot_link/os/liteos/include/los_list.h ****  * Redistribution and use in source and binary forms, with or without modification,
   5:../../iot_link/os/liteos/include/los_list.h ****  * are permitted provided that the following conditions are met:
   6:../../iot_link/os/liteos/include/los_list.h ****  * 1. Redistributions of source code must retain the above copyright notice, this list of
   7:../../iot_link/os/liteos/include/los_list.h ****  * conditions and the following disclaimer.
   8:../../iot_link/os/liteos/include/los_list.h ****  * 2. Redistributions in binary form must reproduce the above copyright notice, this list
   9:../../iot_link/os/liteos/include/los_list.h ****  * of conditions and the following disclaimer in the documentation and/or other materials
  10:../../iot_link/os/liteos/include/los_list.h ****  * provided with the distribution.
  11:../../iot_link/os/liteos/include/los_list.h ****  * 3. Neither the name of the copyright holder nor the names of its contributors may be used
  12:../../iot_link/os/liteos/include/los_list.h ****  * to endorse or promote products derived from this software without specific prior written
  13:../../iot_link/os/liteos/include/los_list.h ****  * permission.
  14:../../iot_link/os/liteos/include/los_list.h ****  * THIS SOFTWARE IS PROVIDED BY THE COPYRIGHT HOLDERS AND CONTRIBUTORS
  15:../../iot_link/os/liteos/include/los_list.h ****  * "AS IS" AND ANY EXPRESS OR IMPLIED WARRANTIES, INCLUDING, BUT NOT LIMITED TO,
  16:../../iot_link/os/liteos/include/los_list.h ****  * THE IMPLIED WARRANTIES OF MERCHANTABILITY AND FITNESS FOR A PARTICULAR
  17:../../iot_link/os/liteos/include/los_list.h ****  * PURPOSE ARE DISCLAIMED. IN NO EVENT SHALL THE COPYRIGHT HOLDER OR
  18:../../iot_link/os/liteos/include/los_list.h ****  * CONTRIBUTORS BE LIABLE FOR ANY DIRECT, INDIRECT, INCIDENTAL, SPECIAL,
  19:../../iot_link/os/liteos/include/los_list.h ****  * EXEMPLARY, OR CONSEQUENTIAL DAMAGES (INCLUDING, BUT NOT LIMITED TO,
  20:../../iot_link/os/liteos/include/los_list.h ****  * PROCUREMENT OF SUBSTITUTE GOODS OR SERVICES; LOSS OF USE, DATA, OR PROFITS;
  21:../../iot_link/os/liteos/include/los_list.h ****  * OR BUSINESS INTERRUPTION) HOWEVER CAUSED AND ON ANY THEORY OF LIABILITY,
  22:../../iot_link/os/liteos/include/los_list.h ****  * WHETHER IN CONTRACT, STRICT LIABILITY, OR TORT (INCLUDING NEGLIGENCE OR
  23:../../iot_link/os/liteos/include/los_list.h ****  * OTHERWISE) ARISING IN ANY WAY OUT OF THE USE OF THIS SOFTWARE, EVEN IF
  24:../../iot_link/os/liteos/include/los_list.h ****  * ADVISED OF THE POSSIBILITY OF SUCH DAMAGE.
  25:../../iot_link/os/liteos/include/los_list.h ****  *---------------------------------------------------------------------------*/
  26:../../iot_link/os/liteos/include/los_list.h **** /*----------------------------------------------------------------------------
  27:../../iot_link/os/liteos/include/los_list.h ****  * Notice of Export Control Law
  28:../../iot_link/os/liteos/include/los_list.h ****  * ===============================================
  29:../../iot_link/os/liteos/include/los_list.h ****  * Huawei LiteOS may be subject to applicable export control laws and regulations, which might
  30:../../iot_link/os/liteos/include/los_list.h ****  * include those applicable to Huawei LiteOS of U.S. and the country in which you are located.
  31:../../iot_link/os/liteos/include/los_list.h ****  * Import, export and usage of Huawei LiteOS in any manner by you shall be in compliance with such
  32:../../iot_link/os/liteos/include/los_list.h ****  * applicable export control laws and regulations.
ARM GAS  C:\Users\LuckyE\AppData\Local\Temp\ccK6ohhW.s 			page 2


  33:../../iot_link/os/liteos/include/los_list.h ****  *---------------------------------------------------------------------------*/
  34:../../iot_link/os/liteos/include/los_list.h **** 
  35:../../iot_link/os/liteos/include/los_list.h ****  /** @defgroup los_list Doubly linked list
  36:../../iot_link/os/liteos/include/los_list.h ****  * @ingroup kernel
  37:../../iot_link/os/liteos/include/los_list.h ****  */
  38:../../iot_link/os/liteos/include/los_list.h **** 
  39:../../iot_link/os/liteos/include/los_list.h **** #ifndef _LOS_LIST_H
  40:../../iot_link/os/liteos/include/los_list.h **** #define _LOS_LIST_H
  41:../../iot_link/os/liteos/include/los_list.h **** 
  42:../../iot_link/os/liteos/include/los_list.h **** #include "los_typedef.h"
  43:../../iot_link/os/liteos/include/los_list.h **** 
  44:../../iot_link/os/liteos/include/los_list.h **** #ifdef __cplusplus
  45:../../iot_link/os/liteos/include/los_list.h **** #if __cplusplus
  46:../../iot_link/os/liteos/include/los_list.h **** extern "C" {
  47:../../iot_link/os/liteos/include/los_list.h **** #endif /* __cplusplus */
  48:../../iot_link/os/liteos/include/los_list.h **** #endif /* __cplusplus */
  49:../../iot_link/os/liteos/include/los_list.h **** 
  50:../../iot_link/os/liteos/include/los_list.h **** 
  51:../../iot_link/os/liteos/include/los_list.h **** /**
  52:../../iot_link/os/liteos/include/los_list.h ****  *@ingroup los_list
  53:../../iot_link/os/liteos/include/los_list.h ****  *Structure of a node in a doubly linked list.
  54:../../iot_link/os/liteos/include/los_list.h ****  */
  55:../../iot_link/os/liteos/include/los_list.h **** typedef struct LOS_DL_LIST
  56:../../iot_link/os/liteos/include/los_list.h **** {
  57:../../iot_link/os/liteos/include/los_list.h ****     struct LOS_DL_LIST *pstPrev;            /**< Current node's pointer to the previous node*/
  58:../../iot_link/os/liteos/include/los_list.h ****     struct LOS_DL_LIST *pstNext;            /**< Current node's pointer to the next node*/
  59:../../iot_link/os/liteos/include/los_list.h **** } LOS_DL_LIST;
  60:../../iot_link/os/liteos/include/los_list.h **** 
  61:../../iot_link/os/liteos/include/los_list.h **** /**
  62:../../iot_link/os/liteos/include/los_list.h ****  *@ingroup los_list
  63:../../iot_link/os/liteos/include/los_list.h ****  *@brief Initialize a doubly linked list.
  64:../../iot_link/os/liteos/include/los_list.h ****  *
  65:../../iot_link/os/liteos/include/los_list.h ****  *@par Description:
  66:../../iot_link/os/liteos/include/los_list.h ****  *This API is used to initialize a doubly linked list.
  67:../../iot_link/os/liteos/include/los_list.h ****  *@attention
  68:../../iot_link/os/liteos/include/los_list.h ****  *<ul>
  69:../../iot_link/os/liteos/include/los_list.h ****  *<li>The parameter passed in should be ensured to be a legal pointer.</li>
  70:../../iot_link/os/liteos/include/los_list.h ****  *</ul>
  71:../../iot_link/os/liteos/include/los_list.h ****  *
  72:../../iot_link/os/liteos/include/los_list.h ****  *@param pstList    [IN] Node in a doubly linked list.
  73:../../iot_link/os/liteos/include/los_list.h ****  *
  74:../../iot_link/os/liteos/include/los_list.h ****  *@retval None.
  75:../../iot_link/os/liteos/include/los_list.h ****  *@par Dependency:
  76:../../iot_link/os/liteos/include/los_list.h ****  *<ul><li>los_list.h: the header file that contains the API declaration.</li></ul>
  77:../../iot_link/os/liteos/include/los_list.h ****  *@see
  78:../../iot_link/os/liteos/include/los_list.h ****  *@since Huawei LiteOS V100R001C00
  79:../../iot_link/os/liteos/include/los_list.h ****  */
  80:../../iot_link/os/liteos/include/los_list.h **** LITE_OS_SEC_ALW_INLINE STATIC_INLINE VOID LOS_ListInit(LOS_DL_LIST *pstList)
  81:../../iot_link/os/liteos/include/los_list.h **** {
  82:../../iot_link/os/liteos/include/los_list.h ****     pstList->pstNext = pstList;
  83:../../iot_link/os/liteos/include/los_list.h ****     pstList->pstPrev = pstList;
  84:../../iot_link/os/liteos/include/los_list.h **** }
  85:../../iot_link/os/liteos/include/los_list.h **** 
  86:../../iot_link/os/liteos/include/los_list.h **** /**
  87:../../iot_link/os/liteos/include/los_list.h ****  *@ingroup los_list
  88:../../iot_link/os/liteos/include/los_list.h ****  *@brief Point to the next node pointed to by the current node.
  89:../../iot_link/os/liteos/include/los_list.h ****  *
ARM GAS  C:\Users\LuckyE\AppData\Local\Temp\ccK6ohhW.s 			page 3


  90:../../iot_link/os/liteos/include/los_list.h ****  *@par Description:
  91:../../iot_link/os/liteos/include/los_list.h ****  *<ul>
  92:../../iot_link/os/liteos/include/los_list.h ****  *<li>This API is used to point to the next node pointed to by the current node.</li>
  93:../../iot_link/os/liteos/include/los_list.h ****  *</ul>
  94:../../iot_link/os/liteos/include/los_list.h ****  *@attention
  95:../../iot_link/os/liteos/include/los_list.h ****  *<ul>
  96:../../iot_link/os/liteos/include/los_list.h ****  *<li>None.</li>
  97:../../iot_link/os/liteos/include/los_list.h ****  *</ul>
  98:../../iot_link/os/liteos/include/los_list.h ****  *
  99:../../iot_link/os/liteos/include/los_list.h ****  *@param pstObject  [IN] Node in the doubly linked list.
 100:../../iot_link/os/liteos/include/los_list.h ****  *
 101:../../iot_link/os/liteos/include/los_list.h ****  *@retval None.
 102:../../iot_link/os/liteos/include/los_list.h ****  *@par Dependency:
 103:../../iot_link/os/liteos/include/los_list.h ****  *<ul><li>los_list.h: the header file that contains the API declaration.</li></ul>
 104:../../iot_link/os/liteos/include/los_list.h ****  *@see
 105:../../iot_link/os/liteos/include/los_list.h ****  *@since Huawei LiteOS V100R001C00
 106:../../iot_link/os/liteos/include/los_list.h ****  */
 107:../../iot_link/os/liteos/include/los_list.h **** #define LOS_DL_LIST_FIRST(pstObject) ((pstObject)->pstNext)
 108:../../iot_link/os/liteos/include/los_list.h **** 
 109:../../iot_link/os/liteos/include/los_list.h **** /**
 110:../../iot_link/os/liteos/include/los_list.h ****  *@ingroup los_list
 111:../../iot_link/os/liteos/include/los_list.h ****  *@brief Insert a new node to a doubly linked list.
 112:../../iot_link/os/liteos/include/los_list.h ****  *
 113:../../iot_link/os/liteos/include/los_list.h ****  *@par Description:
 114:../../iot_link/os/liteos/include/los_list.h ****  *This API is used to insert a new node to a doubly linked list.
 115:../../iot_link/os/liteos/include/los_list.h ****  *@attention
 116:../../iot_link/os/liteos/include/los_list.h ****  *<ul>
 117:../../iot_link/os/liteos/include/los_list.h ****  *<li>The parameters passed in should be ensured to be legal pointers.</li>
 118:../../iot_link/os/liteos/include/los_list.h ****  *</ul>
 119:../../iot_link/os/liteos/include/los_list.h ****  *
 120:../../iot_link/os/liteos/include/los_list.h ****  *@param pstList    [IN]   Doubly linked list where the new node is inserted.
 121:../../iot_link/os/liteos/include/los_list.h ****  *@param pstNode    [IN]   New node to be inserted.
 122:../../iot_link/os/liteos/include/los_list.h ****  *
 123:../../iot_link/os/liteos/include/los_list.h ****  *@retval None
 124:../../iot_link/os/liteos/include/los_list.h ****  *@par Dependency:
 125:../../iot_link/os/liteos/include/los_list.h ****  *<ul><li>los_list.h: the header file that contains the API declaration.</li></ul>
 126:../../iot_link/os/liteos/include/los_list.h ****  *@see LOS_ListDelete
 127:../../iot_link/os/liteos/include/los_list.h ****  *@since Huawei LiteOS V100R001C00
 128:../../iot_link/os/liteos/include/los_list.h ****  */
 129:../../iot_link/os/liteos/include/los_list.h **** LITE_OS_SEC_ALW_INLINE STATIC_INLINE VOID LOS_ListAdd(LOS_DL_LIST *pstList, LOS_DL_LIST *pstNode)
 130:../../iot_link/os/liteos/include/los_list.h **** {
 131:../../iot_link/os/liteos/include/los_list.h ****     pstNode->pstNext = pstList->pstNext;
 132:../../iot_link/os/liteos/include/los_list.h ****     pstNode->pstPrev = pstList;
 133:../../iot_link/os/liteos/include/los_list.h ****     pstList->pstNext->pstPrev = pstNode;
 134:../../iot_link/os/liteos/include/los_list.h ****     pstList->pstNext = pstNode;
 135:../../iot_link/os/liteos/include/los_list.h **** }
 136:../../iot_link/os/liteos/include/los_list.h **** 
 137:../../iot_link/os/liteos/include/los_list.h **** /**
 138:../../iot_link/os/liteos/include/los_list.h ****  *@ingroup los_list
 139:../../iot_link/os/liteos/include/los_list.h ****  *@brief Insert a node to the tail of a doubly linked list.
 140:../../iot_link/os/liteos/include/los_list.h ****  *
 141:../../iot_link/os/liteos/include/los_list.h ****  *@par Description:
 142:../../iot_link/os/liteos/include/los_list.h ****  *This API is used to insert a new node to the tail of a doubly linked list.
 143:../../iot_link/os/liteos/include/los_list.h ****  *@attention
 144:../../iot_link/os/liteos/include/los_list.h ****  *<ul>
 145:../../iot_link/os/liteos/include/los_list.h ****  *<li>The parameters passed in should be ensured to be legal pointers.</li>
 146:../../iot_link/os/liteos/include/los_list.h ****  *</ul>
ARM GAS  C:\Users\LuckyE\AppData\Local\Temp\ccK6ohhW.s 			page 4


 147:../../iot_link/os/liteos/include/los_list.h ****  *
 148:../../iot_link/os/liteos/include/los_list.h ****  *@param pstList     [IN] Doubly linked list where the new node is inserted.
 149:../../iot_link/os/liteos/include/los_list.h ****  *@param pstNode     [IN] New node to be inserted.
 150:../../iot_link/os/liteos/include/los_list.h ****  *
 151:../../iot_link/os/liteos/include/los_list.h ****  *@retval None.
 152:../../iot_link/os/liteos/include/los_list.h ****  *@par Dependency:
 153:../../iot_link/os/liteos/include/los_list.h ****  *<ul><li>los_list.h: the header file that contains the API declaration.</li></ul>
 154:../../iot_link/os/liteos/include/los_list.h ****  *@see LOS_ListAdd | LOS_ListHeadInsert
 155:../../iot_link/os/liteos/include/los_list.h ****  *@since Huawei LiteOS V100R001C00
 156:../../iot_link/os/liteos/include/los_list.h ****  */
 157:../../iot_link/os/liteos/include/los_list.h **** LITE_OS_SEC_ALW_INLINE STATIC_INLINE VOID LOS_ListTailInsert(LOS_DL_LIST *pstList, LOS_DL_LIST *pst
 158:../../iot_link/os/liteos/include/los_list.h **** {
 159:../../iot_link/os/liteos/include/los_list.h ****     LOS_ListAdd(pstList->pstPrev, pstNode);
 160:../../iot_link/os/liteos/include/los_list.h **** }
 161:../../iot_link/os/liteos/include/los_list.h **** 
 162:../../iot_link/os/liteos/include/los_list.h **** /**
 163:../../iot_link/os/liteos/include/los_list.h ****  *@ingroup los_list
 164:../../iot_link/os/liteos/include/los_list.h ****  *@brief Delete a specified node from a doubly linked list.
 165:../../iot_link/os/liteos/include/los_list.h ****  *
 166:../../iot_link/os/liteos/include/los_list.h ****  *@par Description:
 167:../../iot_link/os/liteos/include/los_list.h ****  *<ul>
 168:../../iot_link/os/liteos/include/los_list.h ****  *<li>This API is used to delete a specified node from a doubly linked list.</li>
 169:../../iot_link/os/liteos/include/los_list.h ****  *</ul>
 170:../../iot_link/os/liteos/include/los_list.h ****  *@attention
 171:../../iot_link/os/liteos/include/los_list.h ****  *<ul>
 172:../../iot_link/os/liteos/include/los_list.h ****  *<li>The parameter passed in should be ensured to be a legal pointer.</li>
 173:../../iot_link/os/liteos/include/los_list.h ****  *</ul>
 174:../../iot_link/os/liteos/include/los_list.h ****  *
 175:../../iot_link/os/liteos/include/los_list.h ****  *@param pstNode    [IN] Node to be deleted.
 176:../../iot_link/os/liteos/include/los_list.h ****  *
 177:../../iot_link/os/liteos/include/los_list.h ****  *@retval None.
 178:../../iot_link/os/liteos/include/los_list.h ****  *@par Dependency:
 179:../../iot_link/os/liteos/include/los_list.h ****  *<ul><li>los_list.h: the header file that contains the API declaration.</li></ul>
 180:../../iot_link/os/liteos/include/los_list.h ****  *@see LOS_ListAdd
 181:../../iot_link/os/liteos/include/los_list.h ****  *@since Huawei LiteOS V100R001C00
 182:../../iot_link/os/liteos/include/los_list.h ****  */
 183:../../iot_link/os/liteos/include/los_list.h **** LITE_OS_SEC_ALW_INLINE STATIC_INLINE VOID LOS_ListDelete(LOS_DL_LIST *pstNode)
 184:../../iot_link/os/liteos/include/los_list.h **** {
  27              		.loc 1 184 0
  28              		.cfi_startproc
  29              		@ args = 0, pretend = 0, frame = 0
  30              		@ frame_needed = 0, uses_anonymous_args = 0
  31              		@ link register save eliminated.
  32              	.LVL0:
 185:../../iot_link/os/liteos/include/los_list.h ****     pstNode->pstNext->pstPrev = pstNode->pstPrev;
  33              		.loc 1 185 0
  34 0000 D0E90023 		ldrd	r2, r3, [r0]
  35 0004 1A60     		str	r2, [r3]
 186:../../iot_link/os/liteos/include/los_list.h ****     pstNode->pstPrev->pstNext = pstNode->pstNext;
  36              		.loc 1 186 0
  37 0006 0268     		ldr	r2, [r0]
  38 0008 5360     		str	r3, [r2, #4]
 187:../../iot_link/os/liteos/include/los_list.h ****     pstNode->pstNext = (LOS_DL_LIST *)NULL;
  39              		.loc 1 187 0
  40 000a 0023     		movs	r3, #0
 188:../../iot_link/os/liteos/include/los_list.h ****     pstNode->pstPrev = (LOS_DL_LIST *)NULL;
  41              		.loc 1 188 0
ARM GAS  C:\Users\LuckyE\AppData\Local\Temp\ccK6ohhW.s 			page 5


  42 000c C0E90033 		strd	r3, r3, [r0]
 189:../../iot_link/os/liteos/include/los_list.h **** }
  43              		.loc 1 189 0
  44 0010 7047     		bx	lr
  45              		.cfi_endproc
  46              	.LFE283:
  48              		.section	.text.osIdleTask,"ax",%progbits
  49              		.align	1
  50              		.weak	osIdleTask
  51              		.syntax unified
  52              		.thumb
  53              		.thumb_func
  54              		.fpu fpv4-sp-d16
  56              	osIdleTask:
  57              	.LFB287:
  58              		.file 2 "../../iot_link/os/liteos/base/core/los_task.c"
   1:../../iot_link/os/liteos/base/core/los_task.c **** /*----------------------------------------------------------------------------
   2:../../iot_link/os/liteos/base/core/los_task.c ****  * Copyright (c) <2013-2015>, <Huawei Technologies Co., Ltd>
   3:../../iot_link/os/liteos/base/core/los_task.c ****  * All rights reserved.
   4:../../iot_link/os/liteos/base/core/los_task.c ****  * Redistribution and use in source and binary forms, with or without modification,
   5:../../iot_link/os/liteos/base/core/los_task.c ****  * are permitted provided that the following conditions are met:
   6:../../iot_link/os/liteos/base/core/los_task.c ****  * 1. Redistributions of source code must retain the above copyright notice, this list of
   7:../../iot_link/os/liteos/base/core/los_task.c ****  * conditions and the following disclaimer.
   8:../../iot_link/os/liteos/base/core/los_task.c ****  * 2. Redistributions in binary form must reproduce the above copyright notice, this list
   9:../../iot_link/os/liteos/base/core/los_task.c ****  * of conditions and the following disclaimer in the documentation and/or other materials
  10:../../iot_link/os/liteos/base/core/los_task.c ****  * provided with the distribution.
  11:../../iot_link/os/liteos/base/core/los_task.c ****  * 3. Neither the name of the copyright holder nor the names of its contributors may be used
  12:../../iot_link/os/liteos/base/core/los_task.c ****  * to endorse or promote products derived from this software without specific prior written
  13:../../iot_link/os/liteos/base/core/los_task.c ****  * permission.
  14:../../iot_link/os/liteos/base/core/los_task.c ****  * THIS SOFTWARE IS PROVIDED BY THE COPYRIGHT HOLDERS AND CONTRIBUTORS
  15:../../iot_link/os/liteos/base/core/los_task.c ****  * "AS IS" AND ANY EXPRESS OR IMPLIED WARRANTIES, INCLUDING, BUT NOT LIMITED TO,
  16:../../iot_link/os/liteos/base/core/los_task.c ****  * THE IMPLIED WARRANTIES OF MERCHANTABILITY AND FITNESS FOR A PARTICULAR
  17:../../iot_link/os/liteos/base/core/los_task.c ****  * PURPOSE ARE DISCLAIMED. IN NO EVENT SHALL THE COPYRIGHT HOLDER OR
  18:../../iot_link/os/liteos/base/core/los_task.c ****  * CONTRIBUTORS BE LIABLE FOR ANY DIRECT, INDIRECT, INCIDENTAL, SPECIAL,
  19:../../iot_link/os/liteos/base/core/los_task.c ****  * EXEMPLARY, OR CONSEQUENTIAL DAMAGES (INCLUDING, BUT NOT LIMITED TO,
  20:../../iot_link/os/liteos/base/core/los_task.c ****  * PROCUREMENT OF SUBSTITUTE GOODS OR SERVICES; LOSS OF USE, DATA, OR PROFITS;
  21:../../iot_link/os/liteos/base/core/los_task.c ****  * OR BUSINESS INTERRUPTION) HOWEVER CAUSED AND ON ANY THEORY OF LIABILITY,
  22:../../iot_link/os/liteos/base/core/los_task.c ****  * WHETHER IN CONTRACT, STRICT LIABILITY, OR TORT (INCLUDING NEGLIGENCE OR
  23:../../iot_link/os/liteos/base/core/los_task.c ****  * OTHERWISE) ARISING IN ANY WAY OUT OF THE USE OF THIS SOFTWARE, EVEN IF
  24:../../iot_link/os/liteos/base/core/los_task.c ****  * ADVISED OF THE POSSIBILITY OF SUCH DAMAGE.
  25:../../iot_link/os/liteos/base/core/los_task.c ****  *---------------------------------------------------------------------------*/
  26:../../iot_link/os/liteos/base/core/los_task.c **** /*----------------------------------------------------------------------------
  27:../../iot_link/os/liteos/base/core/los_task.c ****  * Notice of Export Control Law
  28:../../iot_link/os/liteos/base/core/los_task.c ****  * ===============================================
  29:../../iot_link/os/liteos/base/core/los_task.c ****  * Huawei LiteOS may be subject to applicable export control laws and regulations, which might
  30:../../iot_link/os/liteos/base/core/los_task.c ****  * include those applicable to Huawei LiteOS of U.S. and the country in which you are located.
  31:../../iot_link/os/liteos/base/core/los_task.c ****  * Import, export and usage of Huawei LiteOS in any manner by you shall be in compliance with such
  32:../../iot_link/os/liteos/base/core/los_task.c ****  * applicable export control laws and regulations.
  33:../../iot_link/os/liteos/base/core/los_task.c ****  *---------------------------------------------------------------------------*/
  34:../../iot_link/os/liteos/base/core/los_task.c **** #include "string.h"
  35:../../iot_link/os/liteos/base/core/los_task.c **** #include "los_task.inc"
  36:../../iot_link/os/liteos/base/core/los_task.c **** #include "los_base.ph"
  37:../../iot_link/os/liteos/base/core/los_task.c **** #include "los_memory.ph"
  38:../../iot_link/os/liteos/base/core/los_task.c **** #include "los_memstat.ph"
  39:../../iot_link/os/liteos/base/core/los_task.c **** #include "los_priqueue.ph"
  40:../../iot_link/os/liteos/base/core/los_task.c **** #include "los_sem.ph"
  41:../../iot_link/os/liteos/base/core/los_task.c **** #include "los_mux.ph"
ARM GAS  C:\Users\LuckyE\AppData\Local\Temp\ccK6ohhW.s 			page 6


  42:../../iot_link/os/liteos/base/core/los_task.c **** #if (LOSCFG_PLATFORM_EXC == YES)
  43:../../iot_link/os/liteos/base/core/los_task.c **** #include "los_exc.ph"
  44:../../iot_link/os/liteos/base/core/los_task.c **** #endif
  45:../../iot_link/os/liteos/base/core/los_task.c **** #if (LOSCFG_KERNEL_TICKLESS == YES)
  46:../../iot_link/os/liteos/base/core/los_task.c **** #include "los_tickless.ph"
  47:../../iot_link/os/liteos/base/core/los_task.c **** #endif
  48:../../iot_link/os/liteos/base/core/los_task.c **** #if (LOSCFG_BASE_CORE_CPUP == YES)
  49:../../iot_link/os/liteos/base/core/los_task.c **** #include "los_cpup.ph"
  50:../../iot_link/os/liteos/base/core/los_task.c **** #endif
  51:../../iot_link/os/liteos/base/core/los_task.c **** #include "los_hw.h"
  52:../../iot_link/os/liteos/base/core/los_task.c **** #if (LOSCFG_ENABLE_MPU == YES)
  53:../../iot_link/os/liteos/base/core/los_task.c **** #include "los_mpu.h"
  54:../../iot_link/os/liteos/base/core/los_task.c **** #endif
  55:../../iot_link/os/liteos/base/core/los_task.c **** 
  56:../../iot_link/os/liteos/base/core/los_task.c **** #ifdef __cplusplus
  57:../../iot_link/os/liteos/base/core/los_task.c **** #if __cplusplus
  58:../../iot_link/os/liteos/base/core/los_task.c **** extern "C" {
  59:../../iot_link/os/liteos/base/core/los_task.c **** #endif /* __cplusplus */
  60:../../iot_link/os/liteos/base/core/los_task.c **** #endif /* __cplusplus */
  61:../../iot_link/os/liteos/base/core/los_task.c **** 
  62:../../iot_link/os/liteos/base/core/los_task.c **** 
  63:../../iot_link/os/liteos/base/core/los_task.c **** #if (LOSCFG_STATIC_TASK == YES)
  64:../../iot_link/os/liteos/base/core/los_task.c **** LITE_OS_SEC_BSS LOS_TASK_CB                          *g_apstTaskCBArray[LOSCFG_BASE_CORE_TSK_LIMIT 
  65:../../iot_link/os/liteos/base/core/los_task.c **** #else
  66:../../iot_link/os/liteos/base/core/los_task.c **** LITE_OS_SEC_BSS  LOS_TASK_CB                         *g_pstTaskCBArray;
  67:../../iot_link/os/liteos/base/core/los_task.c **** LITE_OS_SEC_BSS  LOS_DL_LIST                         g_stLosFreeTask;
  68:../../iot_link/os/liteos/base/core/los_task.c **** LITE_OS_SEC_BSS  LOS_DL_LIST                         g_stTskRecyleList;
  69:../../iot_link/os/liteos/base/core/los_task.c **** 
  70:../../iot_link/os/liteos/base/core/los_task.c **** #endif
  71:../../iot_link/os/liteos/base/core/los_task.c **** 
  72:../../iot_link/os/liteos/base/core/los_task.c **** 
  73:../../iot_link/os/liteos/base/core/los_task.c **** LITE_OS_SEC_BSS  ST_LOS_TASK                         g_stLosTask;
  74:../../iot_link/os/liteos/base/core/los_task.c **** LITE_OS_SEC_BSS  UINT16                              g_usLosTaskLock;
  75:../../iot_link/os/liteos/base/core/los_task.c **** 
  76:../../iot_link/os/liteos/base/core/los_task.c **** 
  77:../../iot_link/os/liteos/base/core/los_task.c **** LITE_OS_SEC_BSS  UINT32                              g_uwTskMaxNum;
  78:../../iot_link/os/liteos/base/core/los_task.c **** LITE_OS_SEC_BSS  UINT32                              g_uwIdleTaskID;
  79:../../iot_link/os/liteos/base/core/los_task.c **** LITE_OS_SEC_BSS  UINT32                              g_uwSwtmrTaskID;
  80:../../iot_link/os/liteos/base/core/los_task.c **** LITE_OS_SEC_BSS  LOS_DL_LIST                         g_stTaskTimerList;
  81:../../iot_link/os/liteos/base/core/los_task.c **** LITE_OS_SEC_BSS  TSK_SORTLINK_ATTRIBUTE_S            g_stTskSortLink;
  82:../../iot_link/os/liteos/base/core/los_task.c **** LITE_OS_SEC_BSS  BOOL                                g_bTaskScheduled;
  83:../../iot_link/os/liteos/base/core/los_task.c **** 
  84:../../iot_link/os/liteos/base/core/los_task.c **** LITE_OS_SEC_DATA_INIT TSKSWITCHHOOK g_pfnTskSwitchHook = (TSKSWITCHHOOK)NULL; /*lint !e611*/
  85:../../iot_link/os/liteos/base/core/los_task.c **** #if (LOSCFG_LIB_LIBC_NEWLIB_REENT == YES)
  86:../../iot_link/os/liteos/base/core/los_task.c **** LITE_OS_SEC_DATA_INIT TSKSWITCHHOOK g_pfnTskSwitchImpurePtrHook = (TSKSWITCHHOOK)NULL; /*lint !e611
  87:../../iot_link/os/liteos/base/core/los_task.c **** #endif
  88:../../iot_link/os/liteos/base/core/los_task.c **** #if (LOSCFG_BASE_CORE_TSK_MONITOR == YES)
  89:../../iot_link/os/liteos/base/core/los_task.c **** LITE_OS_SEC_DATA_INIT TSKSWITCHHOOK g_pfnUsrTskSwitchHook = (TSKSWITCHHOOK)NULL; /*lint !e611*/
  90:../../iot_link/os/liteos/base/core/los_task.c **** #endif /* LOSCFG_BASE_CORE_TSK_MONITOR == YES */
  91:../../iot_link/os/liteos/base/core/los_task.c **** 
  92:../../iot_link/os/liteos/base/core/los_task.c **** #if (LOSCFG_BASE_CORE_EXC_TSK_SWITCH == YES)
  93:../../iot_link/os/liteos/base/core/los_task.c **** LITE_OS_SEC_BSS OS_TASK_SWITCH_INFO g_astTskSwitchInfo;
  94:../../iot_link/os/liteos/base/core/los_task.c **** #endif
  95:../../iot_link/os/liteos/base/core/los_task.c **** 
  96:../../iot_link/os/liteos/base/core/los_task.c **** #define CHECK_TASKID(uwTaskID)\
  97:../../iot_link/os/liteos/base/core/los_task.c **** {\
  98:../../iot_link/os/liteos/base/core/los_task.c ****    if (uwTaskID == g_uwIdleTaskID)\
ARM GAS  C:\Users\LuckyE\AppData\Local\Temp\ccK6ohhW.s 			page 7


  99:../../iot_link/os/liteos/base/core/los_task.c ****    {\
 100:../../iot_link/os/liteos/base/core/los_task.c ****        return LOS_ERRNO_TSK_OPERATE_IDLE;\
 101:../../iot_link/os/liteos/base/core/los_task.c ****    }\
 102:../../iot_link/os/liteos/base/core/los_task.c ****    else if (uwTaskID == g_uwSwtmrTaskID)\
 103:../../iot_link/os/liteos/base/core/los_task.c ****    {\
 104:../../iot_link/os/liteos/base/core/los_task.c ****        return LOS_ERRNO_TSK_SUSPEND_SWTMR_NOT_ALLOWED;\
 105:../../iot_link/os/liteos/base/core/los_task.c ****    }\
 106:../../iot_link/os/liteos/base/core/los_task.c ****    else if (OS_TSK_GET_INDEX(uwTaskID) >= g_uwTskMaxNum)\
 107:../../iot_link/os/liteos/base/core/los_task.c ****    {\
 108:../../iot_link/os/liteos/base/core/los_task.c ****        return LOS_ERRNO_TSK_ID_INVALID;\
 109:../../iot_link/os/liteos/base/core/los_task.c ****    }\
 110:../../iot_link/os/liteos/base/core/los_task.c **** }
 111:../../iot_link/os/liteos/base/core/los_task.c **** 
 112:../../iot_link/os/liteos/base/core/los_task.c **** #if (LOSCFG_KERNEL_TICKLESS == YES)
 113:../../iot_link/os/liteos/base/core/los_task.c **** LITE_OS_SEC_TEXT_MINOR UINT32 osTaskNextSwitchTimeGet(VOID)
 114:../../iot_link/os/liteos/base/core/los_task.c **** {
 115:../../iot_link/os/liteos/base/core/los_task.c ****     LOS_TASK_CB *pstTaskCB;
 116:../../iot_link/os/liteos/base/core/los_task.c ****     UINT32 uwTaskSortLinkTick = 0;
 117:../../iot_link/os/liteos/base/core/los_task.c ****     LOS_DL_LIST *pstListObject;
 118:../../iot_link/os/liteos/base/core/los_task.c ****     UINT32 uwTempTicks = 0;
 119:../../iot_link/os/liteos/base/core/los_task.c ****     UINT32 uwIndex =0;
 120:../../iot_link/os/liteos/base/core/los_task.c **** 
 121:../../iot_link/os/liteos/base/core/los_task.c ****     for (uwIndex = 0; uwIndex < OS_TSK_SORTLINK_LEN; uwIndex++)
 122:../../iot_link/os/liteos/base/core/los_task.c ****     {
 123:../../iot_link/os/liteos/base/core/los_task.c ****         pstListObject = g_stTskSortLink.pstSortLink + (g_stTskSortLink.usCursor + uwIndex)%OS_TSK_S
 124:../../iot_link/os/liteos/base/core/los_task.c ****         if (pstListObject->pstNext != pstListObject)
 125:../../iot_link/os/liteos/base/core/los_task.c ****         {
 126:../../iot_link/os/liteos/base/core/los_task.c ****             pstTaskCB = LOS_DL_LIST_ENTRY((pstListObject)->pstNext, LOS_TASK_CB, stTimerList);
 127:../../iot_link/os/liteos/base/core/los_task.c ****             uwTempTicks = (uwIndex == 0) ? OS_TSK_SORTLINK_LEN : uwIndex;
 128:../../iot_link/os/liteos/base/core/los_task.c ****             uwTempTicks += (UINT32)(UWROLLNUM(pstTaskCB->uwIdxRollNum) * OS_TSK_SORTLINK_LEN);
 129:../../iot_link/os/liteos/base/core/los_task.c ****             if(uwTaskSortLinkTick == 0 || uwTaskSortLinkTick > uwTempTicks)
 130:../../iot_link/os/liteos/base/core/los_task.c ****             {
 131:../../iot_link/os/liteos/base/core/los_task.c ****                uwTaskSortLinkTick = uwTempTicks;
 132:../../iot_link/os/liteos/base/core/los_task.c ****             }
 133:../../iot_link/os/liteos/base/core/los_task.c ****         }
 134:../../iot_link/os/liteos/base/core/los_task.c ****     }
 135:../../iot_link/os/liteos/base/core/los_task.c **** 
 136:../../iot_link/os/liteos/base/core/los_task.c ****     return uwTaskSortLinkTick;
 137:../../iot_link/os/liteos/base/core/los_task.c **** }
 138:../../iot_link/os/liteos/base/core/los_task.c **** #endif
 139:../../iot_link/os/liteos/base/core/los_task.c **** 
 140:../../iot_link/os/liteos/base/core/los_task.c **** /*****************************************************************************
 141:../../iot_link/os/liteos/base/core/los_task.c ****  Function : osTskIdleBGD
 142:../../iot_link/os/liteos/base/core/los_task.c ****  Description : Idle background.
 143:../../iot_link/os/liteos/base/core/los_task.c ****  Input       : None
 144:../../iot_link/os/liteos/base/core/los_task.c ****  Output      : None
 145:../../iot_link/os/liteos/base/core/los_task.c ****  Return      : None
 146:../../iot_link/os/liteos/base/core/los_task.c ****  *****************************************************************************/
 147:../../iot_link/os/liteos/base/core/los_task.c **** LITE_OS_SEC_TEXT WEAK VOID osIdleTask(VOID)
 148:../../iot_link/os/liteos/base/core/los_task.c **** {
  59              		.loc 2 148 0
  60              		.cfi_startproc
  61              		@ args = 0, pretend = 0, frame = 0
  62              		@ frame_needed = 0, uses_anonymous_args = 0
  63              		@ link register save eliminated.
  64              	.L3:
  65 0000 FEE7     		b	.L3
ARM GAS  C:\Users\LuckyE\AppData\Local\Temp\ccK6ohhW.s 			page 8


  66              		.cfi_endproc
  67              	.LFE287:
  69              		.section	.text.osTaskSwitchCheck,"ax",%progbits
  70              		.align	1
  71              		.global	osTaskSwitchCheck
  72              		.syntax unified
  73              		.thumb
  74              		.thumb_func
  75              		.fpu fpv4-sp-d16
  77              	osTaskSwitchCheck:
  78              	.LFB300:
 149:../../iot_link/os/liteos/base/core/los_task.c ****     while (1)
 150:../../iot_link/os/liteos/base/core/los_task.c ****     {
 151:../../iot_link/os/liteos/base/core/los_task.c **** #if (LOSCFG_KERNEL_TICKLESS == YES)
 152:../../iot_link/os/liteos/base/core/los_task.c ****         osTicklessHandler();
 153:../../iot_link/os/liteos/base/core/los_task.c **** #else
 154:../../iot_link/os/liteos/base/core/los_task.c ****     #if (LOSCFG_KERNEL_RUNSTOP == YES)
 155:../../iot_link/os/liteos/base/core/los_task.c ****         osEnterSleep();
 156:../../iot_link/os/liteos/base/core/los_task.c ****     #endif
 157:../../iot_link/os/liteos/base/core/los_task.c **** #endif
 158:../../iot_link/os/liteos/base/core/los_task.c ****     }
 159:../../iot_link/os/liteos/base/core/los_task.c **** }
 160:../../iot_link/os/liteos/base/core/los_task.c **** 
 161:../../iot_link/os/liteos/base/core/los_task.c **** /*****************************************************************************
 162:../../iot_link/os/liteos/base/core/los_task.c ****  Function : osTaskPriModify
 163:../../iot_link/os/liteos/base/core/los_task.c ****  Description : Change task priority.
 164:../../iot_link/os/liteos/base/core/los_task.c ****  Input       : pstTaskCB    --- task control block
 165:../../iot_link/os/liteos/base/core/los_task.c ****                  usPriority      --- priority
 166:../../iot_link/os/liteos/base/core/los_task.c ****  Output      : None
 167:../../iot_link/os/liteos/base/core/los_task.c ****  Return      : None
 168:../../iot_link/os/liteos/base/core/los_task.c ****  *****************************************************************************/
 169:../../iot_link/os/liteos/base/core/los_task.c **** LITE_OS_SEC_TEXT_MINOR VOID osTaskPriModify(LOS_TASK_CB *pstTaskCB, UINT16 usPriority)
 170:../../iot_link/os/liteos/base/core/los_task.c **** {
 171:../../iot_link/os/liteos/base/core/los_task.c ****     if (pstTaskCB->usTaskStatus & OS_TASK_STATUS_READY)
 172:../../iot_link/os/liteos/base/core/los_task.c ****     {
 173:../../iot_link/os/liteos/base/core/los_task.c ****         osPriqueueDequeue(&pstTaskCB->stPendList);
 174:../../iot_link/os/liteos/base/core/los_task.c ****         pstTaskCB->usTaskStatus &= (~OS_TASK_STATUS_READY);
 175:../../iot_link/os/liteos/base/core/los_task.c ****         pstTaskCB->usPriority = usPriority;
 176:../../iot_link/os/liteos/base/core/los_task.c ****         pstTaskCB->usTaskStatus |= OS_TASK_STATUS_READY;
 177:../../iot_link/os/liteos/base/core/los_task.c ****         osPriqueueEnqueue(&pstTaskCB->stPendList, pstTaskCB->usPriority);
 178:../../iot_link/os/liteos/base/core/los_task.c ****     }
 179:../../iot_link/os/liteos/base/core/los_task.c ****     else
 180:../../iot_link/os/liteos/base/core/los_task.c ****     {
 181:../../iot_link/os/liteos/base/core/los_task.c ****         pstTaskCB->usPriority = usPriority;
 182:../../iot_link/os/liteos/base/core/los_task.c ****     }
 183:../../iot_link/os/liteos/base/core/los_task.c **** }
 184:../../iot_link/os/liteos/base/core/los_task.c **** 
 185:../../iot_link/os/liteos/base/core/los_task.c **** /*****************************************************************************
 186:../../iot_link/os/liteos/base/core/los_task.c ****  Function : osTaskAdd2TimerList
 187:../../iot_link/os/liteos/base/core/los_task.c ****  Description : Add task to sorted delay list.
 188:../../iot_link/os/liteos/base/core/los_task.c ****  Input       : pstTaskCB    --- task control block
 189:../../iot_link/os/liteos/base/core/los_task.c ****                uwTimeout    --- wait time, ticks
 190:../../iot_link/os/liteos/base/core/los_task.c ****  Output      : None
 191:../../iot_link/os/liteos/base/core/los_task.c ****  Return      : None
 192:../../iot_link/os/liteos/base/core/los_task.c ****  *****************************************************************************/
 193:../../iot_link/os/liteos/base/core/los_task.c **** LITE_OS_SEC_TEXT VOID osTaskAdd2TimerList(LOS_TASK_CB *pstTaskCB, UINT32 uwTimeout)
 194:../../iot_link/os/liteos/base/core/los_task.c **** {
ARM GAS  C:\Users\LuckyE\AppData\Local\Temp\ccK6ohhW.s 			page 9


 195:../../iot_link/os/liteos/base/core/los_task.c ****     LOS_TASK_CB *pstTskDelay;
 196:../../iot_link/os/liteos/base/core/los_task.c ****     LOS_DL_LIST *pstListObject;
 197:../../iot_link/os/liteos/base/core/los_task.c ****     UINT32 uwSortIndex;
 198:../../iot_link/os/liteos/base/core/los_task.c ****     UINT32 uwRollNum;
 199:../../iot_link/os/liteos/base/core/los_task.c **** 
 200:../../iot_link/os/liteos/base/core/los_task.c ****     uwSortIndex = uwTimeout & OS_TSK_SORTLINK_MASK;
 201:../../iot_link/os/liteos/base/core/los_task.c ****     uwRollNum = (uwTimeout >> OS_TSK_SORTLINK_LOGLEN);
 202:../../iot_link/os/liteos/base/core/los_task.c ****     (uwSortIndex > 0) ? 0 : (uwRollNum--);
 203:../../iot_link/os/liteos/base/core/los_task.c ****     EVALUATE_L(pstTaskCB->uwIdxRollNum, uwRollNum);
 204:../../iot_link/os/liteos/base/core/los_task.c ****     uwSortIndex = (uwSortIndex + g_stTskSortLink.usCursor);
 205:../../iot_link/os/liteos/base/core/los_task.c ****     uwSortIndex = uwSortIndex & OS_TSK_SORTLINK_MASK;
 206:../../iot_link/os/liteos/base/core/los_task.c ****     EVALUATE_H(pstTaskCB->uwIdxRollNum, uwSortIndex);
 207:../../iot_link/os/liteos/base/core/los_task.c ****     pstListObject = g_stTskSortLink.pstSortLink + uwSortIndex;
 208:../../iot_link/os/liteos/base/core/los_task.c ****     if (pstListObject->pstNext == pstListObject)
 209:../../iot_link/os/liteos/base/core/los_task.c ****     {
 210:../../iot_link/os/liteos/base/core/los_task.c ****         LOS_ListTailInsert(pstListObject, &pstTaskCB->stTimerList);
 211:../../iot_link/os/liteos/base/core/los_task.c ****     }
 212:../../iot_link/os/liteos/base/core/los_task.c ****     else
 213:../../iot_link/os/liteos/base/core/los_task.c ****     {
 214:../../iot_link/os/liteos/base/core/los_task.c ****         pstTskDelay = LOS_DL_LIST_ENTRY((pstListObject)->pstNext, LOS_TASK_CB, stTimerList); /*lint
 215:../../iot_link/os/liteos/base/core/los_task.c ****         do
 216:../../iot_link/os/liteos/base/core/los_task.c ****         {
 217:../../iot_link/os/liteos/base/core/los_task.c ****             if (UWROLLNUM(pstTskDelay->uwIdxRollNum) <= UWROLLNUM(pstTaskCB->uwIdxRollNum))
 218:../../iot_link/os/liteos/base/core/los_task.c ****             {
 219:../../iot_link/os/liteos/base/core/los_task.c ****                 UWROLLNUMSUB(pstTaskCB->uwIdxRollNum, pstTskDelay->uwIdxRollNum);
 220:../../iot_link/os/liteos/base/core/los_task.c ****             }
 221:../../iot_link/os/liteos/base/core/los_task.c ****             else
 222:../../iot_link/os/liteos/base/core/los_task.c ****             {
 223:../../iot_link/os/liteos/base/core/los_task.c ****                 UWROLLNUMSUB(pstTskDelay->uwIdxRollNum, pstTaskCB->uwIdxRollNum);
 224:../../iot_link/os/liteos/base/core/los_task.c ****                 break;
 225:../../iot_link/os/liteos/base/core/los_task.c ****             }
 226:../../iot_link/os/liteos/base/core/los_task.c **** 
 227:../../iot_link/os/liteos/base/core/los_task.c ****             pstTskDelay = LOS_DL_LIST_ENTRY(pstTskDelay->stTimerList.pstNext, LOS_TASK_CB, stTimerL
 228:../../iot_link/os/liteos/base/core/los_task.c ****         } while (&pstTskDelay->stTimerList != (pstListObject));
 229:../../iot_link/os/liteos/base/core/los_task.c **** 
 230:../../iot_link/os/liteos/base/core/los_task.c ****         LOS_ListTailInsert(&pstTskDelay->stTimerList, &pstTaskCB->stTimerList);
 231:../../iot_link/os/liteos/base/core/los_task.c ****     }
 232:../../iot_link/os/liteos/base/core/los_task.c **** }
 233:../../iot_link/os/liteos/base/core/los_task.c **** 
 234:../../iot_link/os/liteos/base/core/los_task.c **** 
 235:../../iot_link/os/liteos/base/core/los_task.c **** LITE_OS_SEC_TEXT VOID osTimerListDelete(LOS_TASK_CB *pstTaskCB)
 236:../../iot_link/os/liteos/base/core/los_task.c **** {
 237:../../iot_link/os/liteos/base/core/los_task.c ****     LOS_DL_LIST  *pstListObject;
 238:../../iot_link/os/liteos/base/core/los_task.c ****     LOS_TASK_CB  *pstNextTask;
 239:../../iot_link/os/liteos/base/core/los_task.c ****     UINT32 uwSortIndex;
 240:../../iot_link/os/liteos/base/core/los_task.c **** 
 241:../../iot_link/os/liteos/base/core/los_task.c ****     uwSortIndex = UWSORTINDEX(pstTaskCB->uwIdxRollNum);
 242:../../iot_link/os/liteos/base/core/los_task.c ****     pstListObject = g_stTskSortLink.pstSortLink + uwSortIndex;
 243:../../iot_link/os/liteos/base/core/los_task.c **** 
 244:../../iot_link/os/liteos/base/core/los_task.c ****     if (pstListObject != pstTaskCB->stTimerList.pstNext)
 245:../../iot_link/os/liteos/base/core/los_task.c ****     {
 246:../../iot_link/os/liteos/base/core/los_task.c ****         pstNextTask = LOS_DL_LIST_ENTRY(pstTaskCB->stTimerList.pstNext, LOS_TASK_CB, stTimerList); 
 247:../../iot_link/os/liteos/base/core/los_task.c ****         UWROLLNUMADD(pstNextTask->uwIdxRollNum, pstTaskCB->uwIdxRollNum);
 248:../../iot_link/os/liteos/base/core/los_task.c ****     }
 249:../../iot_link/os/liteos/base/core/los_task.c **** 
 250:../../iot_link/os/liteos/base/core/los_task.c ****     LOS_ListDelete(&pstTaskCB->stTimerList);
 251:../../iot_link/os/liteos/base/core/los_task.c **** }
ARM GAS  C:\Users\LuckyE\AppData\Local\Temp\ccK6ohhW.s 			page 10


 252:../../iot_link/os/liteos/base/core/los_task.c **** 
 253:../../iot_link/os/liteos/base/core/los_task.c **** LITE_OS_SEC_TEXT VOID osTaskScan(VOID)
 254:../../iot_link/os/liteos/base/core/los_task.c **** {
 255:../../iot_link/os/liteos/base/core/los_task.c ****     LOS_TASK_CB *pstTaskCB;
 256:../../iot_link/os/liteos/base/core/los_task.c ****     BOOL bNeedSchedule = FALSE;
 257:../../iot_link/os/liteos/base/core/los_task.c ****     LOS_DL_LIST *pstListObject;
 258:../../iot_link/os/liteos/base/core/los_task.c ****     UINT16 usTempStatus;
 259:../../iot_link/os/liteos/base/core/los_task.c **** 
 260:../../iot_link/os/liteos/base/core/los_task.c ****     g_stTskSortLink.usCursor = (g_stTskSortLink.usCursor + 1) % OS_TSK_SORTLINK_LEN;
 261:../../iot_link/os/liteos/base/core/los_task.c ****     pstListObject = g_stTskSortLink.pstSortLink + g_stTskSortLink.usCursor;
 262:../../iot_link/os/liteos/base/core/los_task.c ****     if (pstListObject->pstNext == pstListObject)
 263:../../iot_link/os/liteos/base/core/los_task.c ****     {
 264:../../iot_link/os/liteos/base/core/los_task.c ****         return;
 265:../../iot_link/os/liteos/base/core/los_task.c ****     }
 266:../../iot_link/os/liteos/base/core/los_task.c **** 
 267:../../iot_link/os/liteos/base/core/los_task.c ****     for (pstTaskCB = LOS_DL_LIST_ENTRY((pstListObject)->pstNext, LOS_TASK_CB, stTimerList);&pstTask
 268:../../iot_link/os/liteos/base/core/los_task.c ****     {
 269:../../iot_link/os/liteos/base/core/los_task.c ****         usTempStatus = pstTaskCB->usTaskStatus;
 270:../../iot_link/os/liteos/base/core/los_task.c ****         if (UWROLLNUM(pstTaskCB->uwIdxRollNum) > 0)
 271:../../iot_link/os/liteos/base/core/los_task.c ****         {
 272:../../iot_link/os/liteos/base/core/los_task.c ****             UWROLLNUMDEC(pstTaskCB->uwIdxRollNum);
 273:../../iot_link/os/liteos/base/core/los_task.c ****             break;
 274:../../iot_link/os/liteos/base/core/los_task.c ****         }
 275:../../iot_link/os/liteos/base/core/los_task.c **** 
 276:../../iot_link/os/liteos/base/core/los_task.c ****         LOS_ListDelete(&pstTaskCB->stTimerList);
 277:../../iot_link/os/liteos/base/core/los_task.c ****         if (OS_TASK_STATUS_PEND & usTempStatus)
 278:../../iot_link/os/liteos/base/core/los_task.c ****         {
 279:../../iot_link/os/liteos/base/core/los_task.c ****             pstTaskCB->usTaskStatus &= ~(OS_TASK_STATUS_PEND);
 280:../../iot_link/os/liteos/base/core/los_task.c ****             LOS_ListDelete(&pstTaskCB->stPendList);
 281:../../iot_link/os/liteos/base/core/los_task.c ****             pstTaskCB->pTaskSem = NULL;
 282:../../iot_link/os/liteos/base/core/los_task.c ****             pstTaskCB->pTaskMux = NULL;
 283:../../iot_link/os/liteos/base/core/los_task.c ****         }
 284:../../iot_link/os/liteos/base/core/los_task.c ****         else if (OS_TASK_STATUS_EVENT & usTempStatus)
 285:../../iot_link/os/liteos/base/core/los_task.c ****         {
 286:../../iot_link/os/liteos/base/core/los_task.c ****             pstTaskCB->usTaskStatus &= ~(OS_TASK_STATUS_EVENT);
 287:../../iot_link/os/liteos/base/core/los_task.c ****         }
 288:../../iot_link/os/liteos/base/core/los_task.c ****         else if (OS_TASK_STATUS_PEND_QUEUE & usTempStatus)
 289:../../iot_link/os/liteos/base/core/los_task.c ****         {
 290:../../iot_link/os/liteos/base/core/los_task.c ****             LOS_ListDelete(&pstTaskCB->stPendList);
 291:../../iot_link/os/liteos/base/core/los_task.c ****             pstTaskCB->usTaskStatus &= ~(OS_TASK_STATUS_PEND_QUEUE);
 292:../../iot_link/os/liteos/base/core/los_task.c ****         }
 293:../../iot_link/os/liteos/base/core/los_task.c ****         else
 294:../../iot_link/os/liteos/base/core/los_task.c ****         {
 295:../../iot_link/os/liteos/base/core/los_task.c ****             pstTaskCB->usTaskStatus &= ~(OS_TASK_STATUS_DELAY);
 296:../../iot_link/os/liteos/base/core/los_task.c ****         }
 297:../../iot_link/os/liteos/base/core/los_task.c **** 
 298:../../iot_link/os/liteos/base/core/los_task.c ****         if (!((OS_TASK_STATUS_SUSPEND) & usTempStatus))
 299:../../iot_link/os/liteos/base/core/los_task.c ****         {
 300:../../iot_link/os/liteos/base/core/los_task.c ****             pstTaskCB->usTaskStatus |= OS_TASK_STATUS_READY;
 301:../../iot_link/os/liteos/base/core/los_task.c ****             osPriqueueEnqueue(&pstTaskCB->stPendList, pstTaskCB->usPriority);
 302:../../iot_link/os/liteos/base/core/los_task.c ****             bNeedSchedule = TRUE;
 303:../../iot_link/os/liteos/base/core/los_task.c ****         }
 304:../../iot_link/os/liteos/base/core/los_task.c **** 
 305:../../iot_link/os/liteos/base/core/los_task.c ****         pstTaskCB = LOS_DL_LIST_ENTRY(pstListObject->pstNext, LOS_TASK_CB, stTimerList); /*lint !e4
 306:../../iot_link/os/liteos/base/core/los_task.c ****     }
 307:../../iot_link/os/liteos/base/core/los_task.c **** 
 308:../../iot_link/os/liteos/base/core/los_task.c ****     if (bNeedSchedule)
ARM GAS  C:\Users\LuckyE\AppData\Local\Temp\ccK6ohhW.s 			page 11


 309:../../iot_link/os/liteos/base/core/los_task.c ****     {
 310:../../iot_link/os/liteos/base/core/los_task.c ****         LOS_Schedule();
 311:../../iot_link/os/liteos/base/core/los_task.c ****     }
 312:../../iot_link/os/liteos/base/core/los_task.c **** }
 313:../../iot_link/os/liteos/base/core/los_task.c **** 
 314:../../iot_link/os/liteos/base/core/los_task.c **** /*****************************************************************************
 315:../../iot_link/os/liteos/base/core/los_task.c ****  Function : osConvertTskStatus
 316:../../iot_link/os/liteos/base/core/los_task.c ****  Description : Convert task status to string.
 317:../../iot_link/os/liteos/base/core/los_task.c ****  Input       : usTaskStatus    --- task status
 318:../../iot_link/os/liteos/base/core/los_task.c ****  Output      : None
 319:../../iot_link/os/liteos/base/core/los_task.c ****  Return      : string
 320:../../iot_link/os/liteos/base/core/los_task.c ****  *****************************************************************************/
 321:../../iot_link/os/liteos/base/core/los_task.c **** LITE_OS_SEC_TEXT_MINOR UINT8 *osConvertTskStatus(UINT16 usTaskStatus)
 322:../../iot_link/os/liteos/base/core/los_task.c **** {
 323:../../iot_link/os/liteos/base/core/los_task.c ****     if (OS_TASK_STATUS_RUNNING & usTaskStatus)
 324:../../iot_link/os/liteos/base/core/los_task.c ****     {
 325:../../iot_link/os/liteos/base/core/los_task.c ****         return (UINT8 *)"Running";
 326:../../iot_link/os/liteos/base/core/los_task.c ****     }
 327:../../iot_link/os/liteos/base/core/los_task.c ****     else if (OS_TASK_STATUS_READY &  usTaskStatus)
 328:../../iot_link/os/liteos/base/core/los_task.c ****     {
 329:../../iot_link/os/liteos/base/core/los_task.c ****         return (UINT8 *)"Ready";
 330:../../iot_link/os/liteos/base/core/los_task.c ****     }
 331:../../iot_link/os/liteos/base/core/los_task.c ****     else if (OS_TASK_STATUS_DELAY &  usTaskStatus)
 332:../../iot_link/os/liteos/base/core/los_task.c ****     {
 333:../../iot_link/os/liteos/base/core/los_task.c ****         return (UINT8 *)"Delay";
 334:../../iot_link/os/liteos/base/core/los_task.c ****     }
 335:../../iot_link/os/liteos/base/core/los_task.c ****     else if (OS_TASK_STATUS_PEND & usTaskStatus)
 336:../../iot_link/os/liteos/base/core/los_task.c ****     {
 337:../../iot_link/os/liteos/base/core/los_task.c ****         if (OS_TASK_STATUS_TIMEOUT & usTaskStatus)
 338:../../iot_link/os/liteos/base/core/los_task.c ****         {
 339:../../iot_link/os/liteos/base/core/los_task.c ****             return (UINT8 *)"PendTimeOut";
 340:../../iot_link/os/liteos/base/core/los_task.c ****         }
 341:../../iot_link/os/liteos/base/core/los_task.c **** 
 342:../../iot_link/os/liteos/base/core/los_task.c ****         return (UINT8 *)"Pend";
 343:../../iot_link/os/liteos/base/core/los_task.c ****     }
 344:../../iot_link/os/liteos/base/core/los_task.c ****     else if (OS_TASK_STATUS_SUSPEND & usTaskStatus)
 345:../../iot_link/os/liteos/base/core/los_task.c ****     {
 346:../../iot_link/os/liteos/base/core/los_task.c ****         return (UINT8 *)"Suspend";
 347:../../iot_link/os/liteos/base/core/los_task.c ****     }
 348:../../iot_link/os/liteos/base/core/los_task.c ****     else if (OS_TASK_STATUS_PEND_QUEUE& usTaskStatus)
 349:../../iot_link/os/liteos/base/core/los_task.c ****     {
 350:../../iot_link/os/liteos/base/core/los_task.c ****         if (OS_TASK_STATUS_TIMEOUT & usTaskStatus)
 351:../../iot_link/os/liteos/base/core/los_task.c ****         {
 352:../../iot_link/os/liteos/base/core/los_task.c ****             return (UINT8 *)"QueuePendTimeOut";
 353:../../iot_link/os/liteos/base/core/los_task.c ****         }
 354:../../iot_link/os/liteos/base/core/los_task.c **** 
 355:../../iot_link/os/liteos/base/core/los_task.c ****         return (UINT8 *)"QueuePend";
 356:../../iot_link/os/liteos/base/core/los_task.c ****     }
 357:../../iot_link/os/liteos/base/core/los_task.c **** 
 358:../../iot_link/os/liteos/base/core/los_task.c ****     return (UINT8 *)"Impossible";
 359:../../iot_link/os/liteos/base/core/los_task.c **** }
 360:../../iot_link/os/liteos/base/core/los_task.c **** 
 361:../../iot_link/os/liteos/base/core/los_task.c **** LITE_OS_SEC_TEXT_MINOR UINT32 osGetTaskWaterLine(UINT32 uwTaskID)
 362:../../iot_link/os/liteos/base/core/los_task.c **** {
 363:../../iot_link/os/liteos/base/core/los_task.c ****     UINT32 *puwStack;
 364:../../iot_link/os/liteos/base/core/los_task.c ****     UINT32 uwPeakUsed;
 365:../../iot_link/os/liteos/base/core/los_task.c ****     LOS_TASK_CB * pstTaskCB = OS_TCB_FROM_TID(uwTaskID);
ARM GAS  C:\Users\LuckyE\AppData\Local\Temp\ccK6ohhW.s 			page 12


 366:../../iot_link/os/liteos/base/core/los_task.c **** 
 367:../../iot_link/os/liteos/base/core/los_task.c ****     if (OS_TASK_MAGIC_WORD == *(UINT32 *)pstTaskCB->uwTopOfStack)
 368:../../iot_link/os/liteos/base/core/los_task.c ****     {
 369:../../iot_link/os/liteos/base/core/los_task.c ****         puwStack = (UINT32 *)(pstTaskCB->uwTopOfStack + 4);
 370:../../iot_link/os/liteos/base/core/los_task.c ****         while ((puwStack < (UINT32 *)pstTaskCB->pStackPointer) && (*puwStack == 0xCACACACA))
 371:../../iot_link/os/liteos/base/core/los_task.c ****         {
 372:../../iot_link/os/liteos/base/core/los_task.c ****             puwStack += 1;
 373:../../iot_link/os/liteos/base/core/los_task.c ****         }
 374:../../iot_link/os/liteos/base/core/los_task.c ****         uwPeakUsed = (pstTaskCB->uwStackSize - ((UINT32)puwStack - pstTaskCB->uwTopOfStack));
 375:../../iot_link/os/liteos/base/core/los_task.c ****     }
 376:../../iot_link/os/liteos/base/core/los_task.c ****     else
 377:../../iot_link/os/liteos/base/core/los_task.c ****     {
 378:../../iot_link/os/liteos/base/core/los_task.c ****         PRINT_ERR("CURRENT task %s stack overflow!\n", pstTaskCB->pcTaskName);
 379:../../iot_link/os/liteos/base/core/los_task.c ****         uwPeakUsed = 0xFFFFFFFF;
 380:../../iot_link/os/liteos/base/core/los_task.c ****     }
 381:../../iot_link/os/liteos/base/core/los_task.c ****     return uwPeakUsed;
 382:../../iot_link/os/liteos/base/core/los_task.c **** }
 383:../../iot_link/os/liteos/base/core/los_task.c **** 
 384:../../iot_link/os/liteos/base/core/los_task.c **** /*****************************************************************************
 385:../../iot_link/os/liteos/base/core/los_task.c ****  Function : osGetAllTskInfo
 386:../../iot_link/os/liteos/base/core/los_task.c ****  Description : Get all task info.
 387:../../iot_link/os/liteos/base/core/los_task.c ****  Input       : None
 388:../../iot_link/os/liteos/base/core/los_task.c ****  Output      : None
 389:../../iot_link/os/liteos/base/core/los_task.c ****  Return      : None
 390:../../iot_link/os/liteos/base/core/los_task.c ****  *****************************************************************************/
 391:../../iot_link/os/liteos/base/core/los_task.c **** LITE_OS_SEC_TEXT_MINOR UINT32 osGetAllTskInfo(VOID)
 392:../../iot_link/os/liteos/base/core/los_task.c **** {
 393:../../iot_link/os/liteos/base/core/los_task.c ****     LOS_TASK_CB *pstTaskCB;
 394:../../iot_link/os/liteos/base/core/los_task.c ****     UINT32       uwLoop;
 395:../../iot_link/os/liteos/base/core/los_task.c **** #if (LOSCFG_BASE_CORE_CPUP == YES)
 396:../../iot_link/os/liteos/base/core/los_task.c ****     CPUP_INFO_S *pstCpu = (CPUP_INFO_S *)NULL;
 397:../../iot_link/os/liteos/base/core/los_task.c ****     CPUP_INFO_S *pstCpu10s = (CPUP_INFO_S *)NULL;
 398:../../iot_link/os/liteos/base/core/los_task.c ****     CPUP_INFO_S *pstCpu1s = (CPUP_INFO_S *)NULL;
 399:../../iot_link/os/liteos/base/core/los_task.c **** #endif
 400:../../iot_link/os/liteos/base/core/los_task.c **** 
 401:../../iot_link/os/liteos/base/core/los_task.c **** #if (LOSCFG_BASE_CORE_CPUP == YES)
 402:../../iot_link/os/liteos/base/core/los_task.c ****     pstCpu = (CPUP_INFO_S *)LOS_MemAlloc((VOID *)OS_SYS_MEM_ADDR, sizeof(CPUP_INFO_S) * g_uwTskMaxN
 403:../../iot_link/os/liteos/base/core/los_task.c ****     if (pstCpu == NULL)
 404:../../iot_link/os/liteos/base/core/los_task.c ****     {
 405:../../iot_link/os/liteos/base/core/los_task.c ****         PRINT_ERR("%s[%d] malloc failure!\n", __FUNCTION__, __LINE__);/*lint !e515*/
 406:../../iot_link/os/liteos/base/core/los_task.c ****         return OS_ERROR;
 407:../../iot_link/os/liteos/base/core/los_task.c ****     }
 408:../../iot_link/os/liteos/base/core/los_task.c ****     (VOID)memset((VOID *)pstCpu, (int)0, sizeof(CPUP_INFO_S) * g_uwTskMaxNum);
 409:../../iot_link/os/liteos/base/core/los_task.c **** 
 410:../../iot_link/os/liteos/base/core/los_task.c ****     pstCpu10s = (CPUP_INFO_S *)LOS_MemAlloc((VOID *)OS_SYS_MEM_ADDR, sizeof(CPUP_INFO_S) * g_uwTskM
 411:../../iot_link/os/liteos/base/core/los_task.c ****     if (pstCpu10s == NULL)
 412:../../iot_link/os/liteos/base/core/los_task.c ****     {
 413:../../iot_link/os/liteos/base/core/los_task.c ****         PRINT_ERR("%s[%d] malloc failure!\n", __FUNCTION__, __LINE__);/*lint !e515*/
 414:../../iot_link/os/liteos/base/core/los_task.c ****         (VOID)LOS_MemFree((VOID *)OS_SYS_MEM_ADDR, pstCpu);
 415:../../iot_link/os/liteos/base/core/los_task.c ****         return OS_ERROR;
 416:../../iot_link/os/liteos/base/core/los_task.c ****     }
 417:../../iot_link/os/liteos/base/core/los_task.c ****     (VOID)memset((VOID *)pstCpu10s, (int)0, sizeof(CPUP_INFO_S) * g_uwTskMaxNum);
 418:../../iot_link/os/liteos/base/core/los_task.c **** 
 419:../../iot_link/os/liteos/base/core/los_task.c ****     pstCpu1s = (CPUP_INFO_S *)LOS_MemAlloc((VOID *)OS_SYS_MEM_ADDR, sizeof(CPUP_INFO_S) * g_uwTskMa
 420:../../iot_link/os/liteos/base/core/los_task.c ****     if (pstCpu1s == NULL)
 421:../../iot_link/os/liteos/base/core/los_task.c ****     {
 422:../../iot_link/os/liteos/base/core/los_task.c ****         PRINT_ERR("%s[%d] malloc failure!\n", __FUNCTION__, __LINE__);/*lint !e515*/
ARM GAS  C:\Users\LuckyE\AppData\Local\Temp\ccK6ohhW.s 			page 13


 423:../../iot_link/os/liteos/base/core/los_task.c ****         (VOID)LOS_MemFree((VOID *)OS_SYS_MEM_ADDR, pstCpu);
 424:../../iot_link/os/liteos/base/core/los_task.c ****         (VOID)LOS_MemFree((VOID *)OS_SYS_MEM_ADDR, pstCpu10s);
 425:../../iot_link/os/liteos/base/core/los_task.c ****         return OS_ERROR;
 426:../../iot_link/os/liteos/base/core/los_task.c ****     }
 427:../../iot_link/os/liteos/base/core/los_task.c ****     (VOID)memset((VOID *)pstCpu1s, (int)0, sizeof(CPUP_INFO_S) * g_uwTskMaxNum);
 428:../../iot_link/os/liteos/base/core/los_task.c **** 
 429:../../iot_link/os/liteos/base/core/los_task.c ****     LOS_TaskLock();
 430:../../iot_link/os/liteos/base/core/los_task.c ****     (VOID)LOS_AllTaskCpuUsage(g_uwTskMaxNum, pstCpu, 0xffff);
 431:../../iot_link/os/liteos/base/core/los_task.c ****     (VOID)LOS_AllTaskCpuUsage(g_uwTskMaxNum, pstCpu10s, 0);
 432:../../iot_link/os/liteos/base/core/los_task.c ****     (VOID)LOS_AllTaskCpuUsage(g_uwTskMaxNum, pstCpu1s, 1);
 433:../../iot_link/os/liteos/base/core/los_task.c ****     LOS_TaskUnlock();
 434:../../iot_link/os/liteos/base/core/los_task.c **** #endif
 435:../../iot_link/os/liteos/base/core/los_task.c **** 
 436:../../iot_link/os/liteos/base/core/los_task.c ****     PRINTK("\r\nName            TID    Priority   Status       StackSize    WaterLine    StackPoint
 437:../../iot_link/os/liteos/base/core/los_task.c **** #if (LOSCFG_BASE_CORE_CPUP == YES)
 438:../../iot_link/os/liteos/base/core/los_task.c ****     PRINT_ERR(" CPUUSE   CPUUSE10s  CPUUSE1s  ");/*lint !e515*/
 439:../../iot_link/os/liteos/base/core/los_task.c **** #endif /* LOSCFG_BASE_CORE_CPUP */
 440:../../iot_link/os/liteos/base/core/los_task.c ****     PRINTK("\n\r");/*lint !e515*/
 441:../../iot_link/os/liteos/base/core/los_task.c ****     PRINTK("----            ---    --------   --------     ---------    ----------   ----------  --
 442:../../iot_link/os/liteos/base/core/los_task.c **** #if (LOSCFG_BASE_CORE_CPUP == YES)
 443:../../iot_link/os/liteos/base/core/los_task.c ****     PRINT_ERR("  ------- ---------  ---------");/*lint !e515*/
 444:../../iot_link/os/liteos/base/core/los_task.c **** #endif /* LOSCFG_BASE_CORE_CPUP */
 445:../../iot_link/os/liteos/base/core/los_task.c ****     PRINTK("\n\r");/*lint !e515*/
 446:../../iot_link/os/liteos/base/core/los_task.c **** 
 447:../../iot_link/os/liteos/base/core/los_task.c ****     for (uwLoop = 0; uwLoop < g_uwTskMaxNum; uwLoop++)
 448:../../iot_link/os/liteos/base/core/los_task.c ****     {
 449:../../iot_link/os/liteos/base/core/los_task.c ****         //uvIntSave = LOS_IntLock();
 450:../../iot_link/os/liteos/base/core/los_task.c ****         pstTaskCB = OS_TCB_FROM_TID(uwLoop);
 451:../../iot_link/os/liteos/base/core/los_task.c ****         if (pstTaskCB->usTaskStatus & OS_TASK_STATUS_UNUSED)
 452:../../iot_link/os/liteos/base/core/los_task.c ****         {
 453:../../iot_link/os/liteos/base/core/los_task.c ****             //LOS_IntRestore(uvIntSave);
 454:../../iot_link/os/liteos/base/core/los_task.c ****             continue;
 455:../../iot_link/os/liteos/base/core/los_task.c ****         }
 456:../../iot_link/os/liteos/base/core/los_task.c **** 
 457:../../iot_link/os/liteos/base/core/los_task.c ****         PRINTK("%-16s0x%-5x%-11d%-13s0x%-11x0x%-11x0x%-10x0x%-11x0x%-9x",
 458:../../iot_link/os/liteos/base/core/los_task.c ****                           pstTaskCB->pcTaskName,
 459:../../iot_link/os/liteos/base/core/los_task.c ****                           pstTaskCB->uwTaskID,
 460:../../iot_link/os/liteos/base/core/los_task.c ****                           pstTaskCB->usPriority,
 461:../../iot_link/os/liteos/base/core/los_task.c ****                           osConvertTskStatus(pstTaskCB->usTaskStatus),
 462:../../iot_link/os/liteos/base/core/los_task.c ****                           pstTaskCB->uwStackSize,
 463:../../iot_link/os/liteos/base/core/los_task.c ****                           osGetTaskWaterLine(pstTaskCB->uwTaskID),
 464:../../iot_link/os/liteos/base/core/los_task.c ****                           (UINT32)pstTaskCB->pStackPointer,
 465:../../iot_link/os/liteos/base/core/los_task.c ****                           pstTaskCB->uwTopOfStack,
 466:../../iot_link/os/liteos/base/core/los_task.c ****                           pstTaskCB->uwEventMask);/*lint !e515*/
 467:../../iot_link/os/liteos/base/core/los_task.c **** 
 468:../../iot_link/os/liteos/base/core/los_task.c ****         if (pstTaskCB->pTaskSem != NULL)
 469:../../iot_link/os/liteos/base/core/los_task.c ****         {
 470:../../iot_link/os/liteos/base/core/los_task.c ****             PRINTK("0x%-7x", ((SEM_CB_S *)pstTaskCB->pTaskSem)->usSemID);/*lint !e516*/
 471:../../iot_link/os/liteos/base/core/los_task.c ****         }
 472:../../iot_link/os/liteos/base/core/los_task.c ****         else
 473:../../iot_link/os/liteos/base/core/los_task.c ****         {
 474:../../iot_link/os/liteos/base/core/los_task.c ****             PRINTK("0x%-7x", 0xFFFF);
 475:../../iot_link/os/liteos/base/core/los_task.c ****         }
 476:../../iot_link/os/liteos/base/core/los_task.c **** 
 477:../../iot_link/os/liteos/base/core/los_task.c **** #if (LOSCFG_BASE_CORE_CPUP == YES)
 478:../../iot_link/os/liteos/base/core/los_task.c ****         PRINT_ERR("%2d.%-7d"
 479:../../iot_link/os/liteos/base/core/los_task.c ****                           "%2d.%-9d"
ARM GAS  C:\Users\LuckyE\AppData\Local\Temp\ccK6ohhW.s 			page 14


 480:../../iot_link/os/liteos/base/core/los_task.c ****                           "%2d.%-6d",
 481:../../iot_link/os/liteos/base/core/los_task.c ****                           pstCpu[pstTaskCB->uwTaskID].uwUsage / LOS_CPUP_PRECISION_MULT,
 482:../../iot_link/os/liteos/base/core/los_task.c ****                           pstCpu[pstTaskCB->uwTaskID].uwUsage % LOS_CPUP_PRECISION_MULT,
 483:../../iot_link/os/liteos/base/core/los_task.c ****                           pstCpu10s[pstTaskCB->uwTaskID].uwUsage / LOS_CPUP_PRECISION_MULT,
 484:../../iot_link/os/liteos/base/core/los_task.c ****                           pstCpu10s[pstTaskCB->uwTaskID].uwUsage % LOS_CPUP_PRECISION_MULT,
 485:../../iot_link/os/liteos/base/core/los_task.c ****                           pstCpu1s[pstTaskCB->uwTaskID].uwUsage / LOS_CPUP_PRECISION_MULT,
 486:../../iot_link/os/liteos/base/core/los_task.c ****                           pstCpu1s[pstTaskCB->uwTaskID].uwUsage % LOS_CPUP_PRECISION_MULT);/*lint !
 487:../../iot_link/os/liteos/base/core/los_task.c **** #endif /* LOSCFG_BASE_CORE_CPUP */
 488:../../iot_link/os/liteos/base/core/los_task.c ****         PRINTK("\r\n");/*lint !e515*/
 489:../../iot_link/os/liteos/base/core/los_task.c ****     }
 490:../../iot_link/os/liteos/base/core/los_task.c **** 
 491:../../iot_link/os/liteos/base/core/los_task.c **** #if (LOSCFG_BASE_CORE_CPUP == YES)
 492:../../iot_link/os/liteos/base/core/los_task.c ****     (VOID)LOS_MemFree((VOID *)OS_SYS_MEM_ADDR, pstCpu);
 493:../../iot_link/os/liteos/base/core/los_task.c ****     (VOID)LOS_MemFree((VOID *)OS_SYS_MEM_ADDR, pstCpu10s);
 494:../../iot_link/os/liteos/base/core/los_task.c ****     (VOID)LOS_MemFree((VOID *)OS_SYS_MEM_ADDR, pstCpu1s);
 495:../../iot_link/os/liteos/base/core/los_task.c **** #endif
 496:../../iot_link/os/liteos/base/core/los_task.c **** 
 497:../../iot_link/os/liteos/base/core/los_task.c ****     return LOS_OK;
 498:../../iot_link/os/liteos/base/core/los_task.c **** }
 499:../../iot_link/os/liteos/base/core/los_task.c **** 
 500:../../iot_link/os/liteos/base/core/los_task.c **** /*****************************************************************************
 501:../../iot_link/os/liteos/base/core/los_task.c ****  Function : osTaskInit
 502:../../iot_link/os/liteos/base/core/los_task.c ****  Description : Task init function.
 503:../../iot_link/os/liteos/base/core/los_task.c ****  Input       : None
 504:../../iot_link/os/liteos/base/core/los_task.c ****  Output      : None
 505:../../iot_link/os/liteos/base/core/los_task.c ****  Return      : LOS_OK on success or error code on failure
 506:../../iot_link/os/liteos/base/core/los_task.c ****  *****************************************************************************/
 507:../../iot_link/os/liteos/base/core/los_task.c **** LITE_OS_SEC_TEXT_INIT UINT32 osTaskInit(VOID)
 508:../../iot_link/os/liteos/base/core/los_task.c **** {
 509:../../iot_link/os/liteos/base/core/los_task.c ****     UINT32 uwSize;
 510:../../iot_link/os/liteos/base/core/los_task.c ****     UINT32 uwIndex;
 511:../../iot_link/os/liteos/base/core/los_task.c ****     LOS_DL_LIST *pstListObject;
 512:../../iot_link/os/liteos/base/core/los_task.c **** 
 513:../../iot_link/os/liteos/base/core/los_task.c **** #if (LOSCFG_STATIC_TASK == NO)
 514:../../iot_link/os/liteos/base/core/los_task.c **** 
 515:../../iot_link/os/liteos/base/core/los_task.c ****     /*
 516:../../iot_link/os/liteos/base/core/los_task.c ****      * allocate (g_uwTskMaxNum + 1) tcbs because, LOS_TaskDelete will use g_pstTaskCBArray [g_uwTsk
 517:../../iot_link/os/liteos/base/core/los_task.c ****      */
 518:../../iot_link/os/liteos/base/core/los_task.c **** 
 519:../../iot_link/os/liteos/base/core/los_task.c ****     uwSize = (g_uwTskMaxNum + 1) * sizeof(LOS_TASK_CB);
 520:../../iot_link/os/liteos/base/core/los_task.c ****     g_pstTaskCBArray = (LOS_TASK_CB *)LOS_MemAlloc(m_aucSysMem0, uwSize);
 521:../../iot_link/os/liteos/base/core/los_task.c ****     if (NULL == g_pstTaskCBArray)
 522:../../iot_link/os/liteos/base/core/los_task.c ****     {
 523:../../iot_link/os/liteos/base/core/los_task.c ****         return LOS_ERRNO_TSK_NO_MEMORY;
 524:../../iot_link/os/liteos/base/core/los_task.c ****     }
 525:../../iot_link/os/liteos/base/core/los_task.c **** 
 526:../../iot_link/os/liteos/base/core/los_task.c ****     (VOID)memset(g_pstTaskCBArray, 0, uwSize);
 527:../../iot_link/os/liteos/base/core/los_task.c ****     LOS_ListInit(&g_stTaskTimerList);
 528:../../iot_link/os/liteos/base/core/los_task.c ****     LOS_ListInit(&g_stLosFreeTask);
 529:../../iot_link/os/liteos/base/core/los_task.c ****     LOS_ListInit(&g_stTskRecyleList);
 530:../../iot_link/os/liteos/base/core/los_task.c ****     for (uwIndex = 0; uwIndex <= LOSCFG_BASE_CORE_TSK_LIMIT; uwIndex++)
 531:../../iot_link/os/liteos/base/core/los_task.c ****     {
 532:../../iot_link/os/liteos/base/core/los_task.c ****         g_pstTaskCBArray[uwIndex].usTaskStatus = OS_TASK_STATUS_UNUSED;
 533:../../iot_link/os/liteos/base/core/los_task.c ****         g_pstTaskCBArray[uwIndex].uwTaskID = uwIndex;
 534:../../iot_link/os/liteos/base/core/los_task.c ****         LOS_ListTailInsert(&g_stLosFreeTask, &g_pstTaskCBArray[uwIndex].stPendList);
 535:../../iot_link/os/liteos/base/core/los_task.c ****     }
 536:../../iot_link/os/liteos/base/core/los_task.c **** 
ARM GAS  C:\Users\LuckyE\AppData\Local\Temp\ccK6ohhW.s 			page 15


 537:../../iot_link/os/liteos/base/core/los_task.c ****     (VOID)memset((VOID *)(&g_stLosTask), 0, sizeof(g_stLosTask));
 538:../../iot_link/os/liteos/base/core/los_task.c **** 
 539:../../iot_link/os/liteos/base/core/los_task.c ****     /*
 540:../../iot_link/os/liteos/base/core/los_task.c ****      * g_stLosTask->pstRunTask will be overided by pstRunTask->pstNewTask
 541:../../iot_link/os/liteos/base/core/los_task.c ****      * in LOS_StartToRun, needless give pstRunTask a initialize value
 542:../../iot_link/os/liteos/base/core/los_task.c ****      */
 543:../../iot_link/os/liteos/base/core/los_task.c **** #endif
 544:../../iot_link/os/liteos/base/core/los_task.c **** 
 545:../../iot_link/os/liteos/base/core/los_task.c ****     osPriqueueInit();
 546:../../iot_link/os/liteos/base/core/los_task.c ****     uwSize = sizeof(LOS_DL_LIST) * OS_TSK_SORTLINK_LEN;
 547:../../iot_link/os/liteos/base/core/los_task.c ****     pstListObject = (LOS_DL_LIST *)LOS_MemAlloc(m_aucSysMem0, uwSize);
 548:../../iot_link/os/liteos/base/core/los_task.c ****     if (NULL == pstListObject)
 549:../../iot_link/os/liteos/base/core/los_task.c ****     {
 550:../../iot_link/os/liteos/base/core/los_task.c ****         return LOS_ERRNO_TSK_NO_MEMORY;
 551:../../iot_link/os/liteos/base/core/los_task.c ****     }
 552:../../iot_link/os/liteos/base/core/los_task.c **** 
 553:../../iot_link/os/liteos/base/core/los_task.c ****     (VOID)memset((VOID *)pstListObject, 0, uwSize);
 554:../../iot_link/os/liteos/base/core/los_task.c ****     g_stTskSortLink.pstSortLink = pstListObject;
 555:../../iot_link/os/liteos/base/core/los_task.c ****     g_stTskSortLink.usCursor = 0;
 556:../../iot_link/os/liteos/base/core/los_task.c ****     for (uwIndex = 0; uwIndex < OS_TSK_SORTLINK_LEN; uwIndex++, pstListObject++)
 557:../../iot_link/os/liteos/base/core/los_task.c ****     {
 558:../../iot_link/os/liteos/base/core/los_task.c ****         LOS_ListInit(pstListObject);
 559:../../iot_link/os/liteos/base/core/los_task.c ****     }
 560:../../iot_link/os/liteos/base/core/los_task.c **** 
 561:../../iot_link/os/liteos/base/core/los_task.c **** #if ((LOSCFG_PLATFORM_EXC == YES) && (LOSCFG_SAVE_EXC_INFO == YES))
 562:../../iot_link/os/liteos/base/core/los_task.c ****     osExcRegister((EXC_INFO_TYPE)OS_EXC_TYPE_TSK, (EXC_INFO_SAVE_CALLBACK)LOS_TaskInfoGet, &g_uwTsk
 563:../../iot_link/os/liteos/base/core/los_task.c **** #endif
 564:../../iot_link/os/liteos/base/core/los_task.c **** 
 565:../../iot_link/os/liteos/base/core/los_task.c **** #if (LOSCFG_LIB_LIBC_NEWLIB_REENT == YES)
 566:../../iot_link/os/liteos/base/core/los_task.c ****     extern LITE_OS_SEC_TEXT VOID osTaskSwitchImpurePtr(VOID);
 567:../../iot_link/os/liteos/base/core/los_task.c ****     g_pfnTskSwitchImpurePtrHook = osTaskSwitchImpurePtr;
 568:../../iot_link/os/liteos/base/core/los_task.c **** #endif
 569:../../iot_link/os/liteos/base/core/los_task.c ****     return LOS_OK;
 570:../../iot_link/os/liteos/base/core/los_task.c **** }
 571:../../iot_link/os/liteos/base/core/los_task.c **** 
 572:../../iot_link/os/liteos/base/core/los_task.c **** 
 573:../../iot_link/os/liteos/base/core/los_task.c **** #if (LOSCFG_STATIC_TASK == YES)
 574:../../iot_link/os/liteos/base/core/los_task.c **** LOS_TASK_DEF(idleTask, "IdleCore000", osIdleTask,
 575:../../iot_link/os/liteos/base/core/los_task.c ****     OS_TASK_PRIORITY_LOWEST, 0, LOSCFG_BASE_CORE_TSK_IDLE_STACK_SIZE, 0, NULL);
 576:../../iot_link/os/liteos/base/core/los_task.c **** #endif
 577:../../iot_link/os/liteos/base/core/los_task.c **** 
 578:../../iot_link/os/liteos/base/core/los_task.c **** 
 579:../../iot_link/os/liteos/base/core/los_task.c **** /*****************************************************************************
 580:../../iot_link/os/liteos/base/core/los_task.c ****  Function : osIdleTaskCreate
 581:../../iot_link/os/liteos/base/core/los_task.c ****  Description : Create idle task.
 582:../../iot_link/os/liteos/base/core/los_task.c ****  Input       : None
 583:../../iot_link/os/liteos/base/core/los_task.c ****  Output      : None
 584:../../iot_link/os/liteos/base/core/los_task.c ****  Return      : LOS_OK on success or error code on failure
 585:../../iot_link/os/liteos/base/core/los_task.c ****  *****************************************************************************/
 586:../../iot_link/os/liteos/base/core/los_task.c **** LITE_OS_SEC_TEXT_INIT UINT32 osIdleTaskCreate(VOID)
 587:../../iot_link/os/liteos/base/core/los_task.c **** {
 588:../../iot_link/os/liteos/base/core/los_task.c **** #if (LOSCFG_STATIC_TASK == NO)
 589:../../iot_link/os/liteos/base/core/los_task.c ****     UINT32 uwRet;
 590:../../iot_link/os/liteos/base/core/los_task.c ****     TSK_INIT_PARAM_S stTaskInitParam;
 591:../../iot_link/os/liteos/base/core/los_task.c **** 
 592:../../iot_link/os/liteos/base/core/los_task.c ****     (VOID)memset((VOID *)(&stTaskInitParam), 0, sizeof(TSK_INIT_PARAM_S));
 593:../../iot_link/os/liteos/base/core/los_task.c ****     stTaskInitParam.pfnTaskEntry = (TSK_ENTRY_FUNC)osIdleTask;
ARM GAS  C:\Users\LuckyE\AppData\Local\Temp\ccK6ohhW.s 			page 16


 594:../../iot_link/os/liteos/base/core/los_task.c ****     stTaskInitParam.uwStackSize = LOSCFG_BASE_CORE_TSK_IDLE_STACK_SIZE;
 595:../../iot_link/os/liteos/base/core/los_task.c ****     stTaskInitParam.pcName = "IdleCore000";
 596:../../iot_link/os/liteos/base/core/los_task.c ****     stTaskInitParam.usTaskPrio = OS_TASK_PRIORITY_LOWEST;
 597:../../iot_link/os/liteos/base/core/los_task.c ****     uwRet = LOS_TaskCreate(&g_uwIdleTaskID, &stTaskInitParam);
 598:../../iot_link/os/liteos/base/core/los_task.c **** 
 599:../../iot_link/os/liteos/base/core/los_task.c ****     if (uwRet != LOS_OK)
 600:../../iot_link/os/liteos/base/core/los_task.c ****     {
 601:../../iot_link/os/liteos/base/core/los_task.c ****         return uwRet;
 602:../../iot_link/os/liteos/base/core/los_task.c ****     }
 603:../../iot_link/os/liteos/base/core/los_task.c **** 
 604:../../iot_link/os/liteos/base/core/los_task.c ****     return LOS_OK;
 605:../../iot_link/os/liteos/base/core/los_task.c **** #else
 606:../../iot_link/os/liteos/base/core/los_task.c ****     return LOS_TASK_INIT(idleTask, &g_uwIdleTaskID);
 607:../../iot_link/os/liteos/base/core/los_task.c **** #endif
 608:../../iot_link/os/liteos/base/core/los_task.c **** }
 609:../../iot_link/os/liteos/base/core/los_task.c **** 
 610:../../iot_link/os/liteos/base/core/los_task.c **** /*****************************************************************************
 611:../../iot_link/os/liteos/base/core/los_task.c ****  Function : LOS_CurTaskIDGet
 612:../../iot_link/os/liteos/base/core/los_task.c ****  Description : get id of current running task.
 613:../../iot_link/os/liteos/base/core/los_task.c ****  Input       : None
 614:../../iot_link/os/liteos/base/core/los_task.c ****  Output      : None
 615:../../iot_link/os/liteos/base/core/los_task.c ****  Return      : task id
 616:../../iot_link/os/liteos/base/core/los_task.c ****  *****************************************************************************/
 617:../../iot_link/os/liteos/base/core/los_task.c **** LITE_OS_SEC_TEXT UINT32 LOS_CurTaskIDGet(VOID)
 618:../../iot_link/os/liteos/base/core/los_task.c **** {
 619:../../iot_link/os/liteos/base/core/los_task.c ****     if (NULL == g_stLosTask.pstRunTask)
 620:../../iot_link/os/liteos/base/core/los_task.c ****     {
 621:../../iot_link/os/liteos/base/core/los_task.c ****         return LOS_ERRNO_TSK_ID_INVALID;
 622:../../iot_link/os/liteos/base/core/los_task.c ****     }
 623:../../iot_link/os/liteos/base/core/los_task.c ****     return g_stLosTask.pstRunTask->uwTaskID;
 624:../../iot_link/os/liteos/base/core/los_task.c **** }
 625:../../iot_link/os/liteos/base/core/los_task.c **** 
 626:../../iot_link/os/liteos/base/core/los_task.c **** /*****************************************************************************
 627:../../iot_link/os/liteos/base/core/los_task.c ****  Function : LOS_NextTaskIDGet
 628:../../iot_link/os/liteos/base/core/los_task.c ****  Description : get id of next running task.
 629:../../iot_link/os/liteos/base/core/los_task.c ****  Input       : None
 630:../../iot_link/os/liteos/base/core/los_task.c ****  Output      : None
 631:../../iot_link/os/liteos/base/core/los_task.c ****  Return      : task id
 632:../../iot_link/os/liteos/base/core/los_task.c ****  *****************************************************************************/
 633:../../iot_link/os/liteos/base/core/los_task.c **** LITE_OS_SEC_TEXT UINT32 LOS_NextTaskIDGet(VOID)
 634:../../iot_link/os/liteos/base/core/los_task.c **** {
 635:../../iot_link/os/liteos/base/core/los_task.c ****     if (NULL == g_stLosTask.pstNewTask)
 636:../../iot_link/os/liteos/base/core/los_task.c ****     {
 637:../../iot_link/os/liteos/base/core/los_task.c ****         return LOS_ERRNO_TSK_ID_INVALID;
 638:../../iot_link/os/liteos/base/core/los_task.c ****     }
 639:../../iot_link/os/liteos/base/core/los_task.c ****     return g_stLosTask.pstNewTask->uwTaskID;
 640:../../iot_link/os/liteos/base/core/los_task.c **** }
 641:../../iot_link/os/liteos/base/core/los_task.c **** 
 642:../../iot_link/os/liteos/base/core/los_task.c **** /*****************************************************************************
 643:../../iot_link/os/liteos/base/core/los_task.c ****  Function : LOS_CurTaskNameGet
 644:../../iot_link/os/liteos/base/core/los_task.c ****  Description : get name of current running task.
 645:../../iot_link/os/liteos/base/core/los_task.c ****  Input       : None
 646:../../iot_link/os/liteos/base/core/los_task.c ****  Output      : None
 647:../../iot_link/os/liteos/base/core/los_task.c ****  Return      : task name
 648:../../iot_link/os/liteos/base/core/los_task.c ****  *****************************************************************************/
 649:../../iot_link/os/liteos/base/core/los_task.c **** LITE_OS_SEC_TEXT CHAR *LOS_CurTaskNameGet(VOID)
 650:../../iot_link/os/liteos/base/core/los_task.c **** {
ARM GAS  C:\Users\LuckyE\AppData\Local\Temp\ccK6ohhW.s 			page 17


 651:../../iot_link/os/liteos/base/core/los_task.c ****     CHAR *pcTaskName = NULL;
 652:../../iot_link/os/liteos/base/core/los_task.c **** 
 653:../../iot_link/os/liteos/base/core/los_task.c ****     if (NULL != g_stLosTask.pstRunTask)
 654:../../iot_link/os/liteos/base/core/los_task.c ****     {
 655:../../iot_link/os/liteos/base/core/los_task.c ****         pcTaskName = g_stLosTask.pstRunTask->pcTaskName;
 656:../../iot_link/os/liteos/base/core/los_task.c ****     }
 657:../../iot_link/os/liteos/base/core/los_task.c **** 
 658:../../iot_link/os/liteos/base/core/los_task.c ****     return pcTaskName;
 659:../../iot_link/os/liteos/base/core/los_task.c **** }
 660:../../iot_link/os/liteos/base/core/los_task.c **** 
 661:../../iot_link/os/liteos/base/core/los_task.c **** /*****************************************************************************
 662:../../iot_link/os/liteos/base/core/los_task.c ****  Function : osTaskSwitchCheck
 663:../../iot_link/os/liteos/base/core/los_task.c ****  Description : Check task switch
 664:../../iot_link/os/liteos/base/core/los_task.c ****  Input       : Node
 665:../../iot_link/os/liteos/base/core/los_task.c ****  Output      : None
 666:../../iot_link/os/liteos/base/core/los_task.c ****  Return      : None
 667:../../iot_link/os/liteos/base/core/los_task.c ****  *****************************************************************************/
 668:../../iot_link/os/liteos/base/core/los_task.c **** #if (LOSCFG_BASE_CORE_TSK_MONITOR == YES)
 669:../../iot_link/os/liteos/base/core/los_task.c **** LITE_OS_SEC_TEXT VOID osTaskSwitchCheck(VOID)
 670:../../iot_link/os/liteos/base/core/los_task.c **** {
  79              		.loc 2 670 0
  80              		.cfi_startproc
  81              		@ args = 0, pretend = 0, frame = 0
  82              		@ frame_needed = 0, uses_anonymous_args = 0
  83              		.loc 2 670 0
  84 0000 10B5     		push	{r4, lr}
  85              	.LCFI0:
  86              		.cfi_def_cfa_offset 8
  87              		.cfi_offset 4, -8
  88              		.cfi_offset 14, -4
 671:../../iot_link/os/liteos/base/core/los_task.c ****     if ((*(UINT32 *)(g_stLosTask.pstRunTask->uwTopOfStack)) != OS_TASK_MAGIC_WORD)
  89              		.loc 2 671 0
  90 0002 2B4C     		ldr	r4, .L16
  91 0004 2368     		ldr	r3, [r4]
  92 0006 DB68     		ldr	r3, [r3, #12]
  93 0008 1B68     		ldr	r3, [r3]
  94 000a B3F1CC3F 		cmp	r3, #-858993460
  95 000e 08D0     		beq	.L5
 672:../../iot_link/os/liteos/base/core/los_task.c ****     {
 673:../../iot_link/os/liteos/base/core/los_task.c ****         PRINT_ERR("CURRENT task ID: %s:%d stack overflow!\n", g_stLosTask.pstRunTask->pcTaskName, g
  96              		.loc 2 673 0
  97 0010 2848     		ldr	r0, .L16+4
  98 0012 FFF7FEFF 		bl	printf
  99              	.LVL1:
 100 0016 2368     		ldr	r3, [r4]
 101 0018 2748     		ldr	r0, .L16+8
 102 001a 1A69     		ldr	r2, [r3, #16]
 103 001c 596A     		ldr	r1, [r3, #36]
 104 001e FFF7FEFF 		bl	printf
 105              	.LVL2:
 106              	.L5:
 674:../../iot_link/os/liteos/base/core/los_task.c ****     }
 675:../../iot_link/os/liteos/base/core/los_task.c ****     if (((UINT32)(g_stLosTask.pstNewTask->pStackPointer) <= g_stLosTask.pstNewTask->uwTopOfStack) |
 107              		.loc 2 675 0
 108 0022 6268     		ldr	r2, [r4, #4]
 109 0024 1168     		ldr	r1, [r2]
 110 0026 D368     		ldr	r3, [r2, #12]
ARM GAS  C:\Users\LuckyE\AppData\Local\Temp\ccK6ohhW.s 			page 18


 111 0028 9942     		cmp	r1, r3
 112 002a 03D9     		bls	.L6
 676:../../iot_link/os/liteos/base/core/los_task.c ****         ((UINT32)(g_stLosTask.pstNewTask->pStackPointer) > g_stLosTask.pstNewTask->uwTopOfStack + g
 113              		.loc 2 676 0 discriminator 1
 114 002c 9268     		ldr	r2, [r2, #8]
 115 002e 1344     		add	r3, r3, r2
 675:../../iot_link/os/liteos/base/core/los_task.c ****         ((UINT32)(g_stLosTask.pstNewTask->pStackPointer) > g_stLosTask.pstNewTask->uwTopOfStack + g
 116              		.loc 2 675 0 discriminator 1
 117 0030 9942     		cmp	r1, r3
 118 0032 11D9     		bls	.L7
 119              	.L6:
 677:../../iot_link/os/liteos/base/core/los_task.c ****     {
 678:../../iot_link/os/liteos/base/core/los_task.c ****         PRINT_ERR("HIGHEST task ID: %s:%d SP error!\n", g_stLosTask.pstNewTask->pcTaskName, g_stLos
 120              		.loc 2 678 0
 121 0034 1F48     		ldr	r0, .L16+4
 122 0036 FFF7FEFF 		bl	printf
 123              	.LVL3:
 124 003a 6368     		ldr	r3, [r4, #4]
 125 003c 1F48     		ldr	r0, .L16+12
 126 003e 1A69     		ldr	r2, [r3, #16]
 127 0040 596A     		ldr	r1, [r3, #36]
 128 0042 FFF7FEFF 		bl	printf
 129              	.LVL4:
 679:../../iot_link/os/liteos/base/core/los_task.c ****         PRINT_ERR("HIGHEST task StackPointer: 0x%x TopOfStack: 0x%x\n", (UINT32)(g_stLosTask.pstNew
 130              		.loc 2 679 0
 131 0046 1B48     		ldr	r0, .L16+4
 132 0048 FFF7FEFF 		bl	printf
 133              	.LVL5:
 134 004c 6368     		ldr	r3, [r4, #4]
 135 004e 1C48     		ldr	r0, .L16+16
 136 0050 DA68     		ldr	r2, [r3, #12]
 137 0052 1968     		ldr	r1, [r3]
 138 0054 FFF7FEFF 		bl	printf
 139              	.LVL6:
 140              	.L7:
 680:../../iot_link/os/liteos/base/core/los_task.c ****     }
 681:../../iot_link/os/liteos/base/core/los_task.c **** 
 682:../../iot_link/os/liteos/base/core/los_task.c **** #if (LOSCFG_BASE_CORE_EXC_TSK_SWITCH == YES)
 683:../../iot_link/os/liteos/base/core/los_task.c ****     /* record task switch info */
 684:../../iot_link/os/liteos/base/core/los_task.c ****     g_astTskSwitchInfo.auwPID[g_astTskSwitchInfo.ucIdx] = (UINT16)(g_stLosTask.pstNewTask->uwTaskID
 141              		.loc 2 684 0
 142 0058 1A4B     		ldr	r3, .L16+20
 143 005a 6168     		ldr	r1, [r4, #4]
 144 005c 1A78     		ldrb	r2, [r3]	@ zero_extendqisi2
 145 005e 0C69     		ldr	r4, [r1, #16]
 685:../../iot_link/os/liteos/base/core/los_task.c ****     memcpy(g_astTskSwitchInfo.acName[g_astTskSwitchInfo.ucIdx], g_stLosTask.pstNewTask->pcTaskName,
 146              		.loc 2 685 0
 147 0060 496A     		ldr	r1, [r1, #36]
 684:../../iot_link/os/liteos/base/core/los_task.c ****     memcpy(g_astTskSwitchInfo.acName[g_astTskSwitchInfo.ucIdx], g_stLosTask.pstNewTask->pcTaskName,
 148              		.loc 2 684 0
 149 0062 03EB4200 		add	r0, r3, r2, lsl #1
 150              		.loc 2 685 0
 151 0066 03EB4212 		add	r2, r3, r2, lsl #5
 684:../../iot_link/os/liteos/base/core/los_task.c ****     memcpy(g_astTskSwitchInfo.acName[g_astTskSwitchInfo.ucIdx], g_stLosTask.pstNewTask->pcTaskName,
 152              		.loc 2 684 0
 153 006a 4480     		strh	r4, [r0, #2]	@ movhi
 154              		.loc 2 685 0
ARM GAS  C:\Users\LuckyE\AppData\Local\Temp\ccK6ohhW.s 			page 19


 155 006c 1632     		adds	r2, r2, #22
 156 006e 01F12000 		add	r0, r1, #32
 157              	.L8:
 158 0072 51F8044B 		ldr	r4, [r1], #4	@ unaligned
 159 0076 42F8044B 		str	r4, [r2], #4	@ unaligned
 160 007a 8142     		cmp	r1, r0
 161 007c F9D1     		bne	.L8
 686:../../iot_link/os/liteos/base/core/los_task.c ****     g_astTskSwitchInfo.acName[g_astTskSwitchInfo.ucIdx][LOS_TASK_NAMELEN -1] = '\0';
 162              		.loc 2 686 0
 163 007e 1A78     		ldrb	r2, [r3]	@ zero_extendqisi2
 164 0080 03EB4210 		add	r0, r3, r2, lsl #5
 687:../../iot_link/os/liteos/base/core/los_task.c **** 
 688:../../iot_link/os/liteos/base/core/los_task.c ****     if (++g_astTskSwitchInfo.ucIdx == OS_TASK_SWITCH_INFO_COUNT)
 165              		.loc 2 688 0
 166 0084 0132     		adds	r2, r2, #1
 167 0086 D2B2     		uxtb	r2, r2
 168 0088 0A2A     		cmp	r2, #10
 689:../../iot_link/os/liteos/base/core/los_task.c ****     {
 690:../../iot_link/os/liteos/base/core/los_task.c ****         g_astTskSwitchInfo.ucIdx = 0;
 691:../../iot_link/os/liteos/base/core/los_task.c ****         g_astTskSwitchInfo.ucIsFull |= 0x80;
 169              		.loc 2 691 0
 170 008a 0CBF     		ite	eq
 171 008c 5A78     		ldrbeq	r2, [r3, #1]	@ zero_extendqisi2
 688:../../iot_link/os/liteos/base/core/los_task.c ****     {
 172              		.loc 2 688 0
 173 008e 1A70     		strbne	r2, [r3]
 686:../../iot_link/os/liteos/base/core/los_task.c **** 
 174              		.loc 2 686 0
 175 0090 4FF00001 		mov	r1, #0
 176              		.loc 2 691 0
 177 0094 02BF     		ittt	eq
 178 0096 62F07F02 		orneq	r2, r2, #127
 690:../../iot_link/os/liteos/base/core/los_task.c ****         g_astTskSwitchInfo.ucIsFull |= 0x80;
 179              		.loc 2 690 0
 180 009a 1970     		strbeq	r1, [r3]
 181              		.loc 2 691 0
 182 009c 5A70     		strbeq	r2, [r3, #1]
 692:../../iot_link/os/liteos/base/core/los_task.c ****     }
 693:../../iot_link/os/liteos/base/core/los_task.c **** #endif
 694:../../iot_link/os/liteos/base/core/los_task.c **** 
 695:../../iot_link/os/liteos/base/core/los_task.c ****     if (g_pfnUsrTskSwitchHook != NULL)
 183              		.loc 2 695 0
 184 009e 0A4B     		ldr	r3, .L16+24
 686:../../iot_link/os/liteos/base/core/los_task.c **** 
 185              		.loc 2 686 0
 186 00a0 80F83510 		strb	r1, [r0, #53]
 187              		.loc 2 695 0
 188 00a4 1B68     		ldr	r3, [r3]
 189 00a6 13B1     		cbz	r3, .L4
 696:../../iot_link/os/liteos/base/core/los_task.c ****     {
 697:../../iot_link/os/liteos/base/core/los_task.c ****         g_pfnUsrTskSwitchHook();
 698:../../iot_link/os/liteos/base/core/los_task.c ****     }
 699:../../iot_link/os/liteos/base/core/los_task.c **** 
 700:../../iot_link/os/liteos/base/core/los_task.c **** #if (LOSCFG_BASE_CORE_CPUP == YES)
 701:../../iot_link/os/liteos/base/core/los_task.c ****     osTskCycleEndStart();
 702:../../iot_link/os/liteos/base/core/los_task.c **** #endif /* LOSCFG_BASE_CORE_CPUP */
 703:../../iot_link/os/liteos/base/core/los_task.c **** }
ARM GAS  C:\Users\LuckyE\AppData\Local\Temp\ccK6ohhW.s 			page 20


 190              		.loc 2 703 0
 191 00a8 BDE81040 		pop	{r4, lr}
 192              	.LCFI1:
 193              		.cfi_remember_state
 194              		.cfi_restore 14
 195              		.cfi_restore 4
 196              		.cfi_def_cfa_offset 0
 697:../../iot_link/os/liteos/base/core/los_task.c ****     }
 197              		.loc 2 697 0
 198 00ac 1847     		bx	r3	@ indirect register sibling call
 199              	.LVL7:
 200              	.L4:
 201              	.LCFI2:
 202              		.cfi_restore_state
 203              		.loc 2 703 0
 204 00ae 10BD     		pop	{r4, pc}
 205              	.L17:
 206              		.align	2
 207              	.L16:
 208 00b0 00000000 		.word	g_stLosTask
 209 00b4 00000000 		.word	.LC0
 210 00b8 07000000 		.word	.LC1
 211 00bc 2F000000 		.word	.LC2
 212 00c0 51000000 		.word	.LC3
 213 00c4 00000000 		.word	g_astTskSwitchInfo
 214 00c8 00000000 		.word	.LANCHOR0
 215              		.cfi_endproc
 216              	.LFE300:
 218              		.section	.text.osTaskPriModify,"ax",%progbits
 219              		.align	1
 220              		.global	osTaskPriModify
 221              		.syntax unified
 222              		.thumb
 223              		.thumb_func
 224              		.fpu fpv4-sp-d16
 226              	osTaskPriModify:
 227              	.LFB288:
 170:../../iot_link/os/liteos/base/core/los_task.c ****     if (pstTaskCB->usTaskStatus & OS_TASK_STATUS_READY)
 228              		.loc 2 170 0
 229              		.cfi_startproc
 230              		@ args = 0, pretend = 0, frame = 0
 231              		@ frame_needed = 0, uses_anonymous_args = 0
 232              	.LVL8:
 171:../../iot_link/os/liteos/base/core/los_task.c ****     {
 233              		.loc 2 171 0
 234 0000 8388     		ldrh	r3, [r0, #4]
 235 0002 5B07     		lsls	r3, r3, #29
 170:../../iot_link/os/liteos/base/core/los_task.c ****     if (pstTaskCB->usTaskStatus & OS_TASK_STATUS_READY)
 236              		.loc 2 170 0
 237 0004 70B5     		push	{r4, r5, r6, lr}
 238              	.LCFI3:
 239              		.cfi_def_cfa_offset 16
 240              		.cfi_offset 4, -16
 241              		.cfi_offset 5, -12
 242              		.cfi_offset 6, -8
 243              		.cfi_offset 14, -4
 170:../../iot_link/os/liteos/base/core/los_task.c ****     if (pstTaskCB->usTaskStatus & OS_TASK_STATUS_READY)
ARM GAS  C:\Users\LuckyE\AppData\Local\Temp\ccK6ohhW.s 			page 21


 244              		.loc 2 170 0
 245 0006 0446     		mov	r4, r0
 246 0008 0D46     		mov	r5, r1
 171:../../iot_link/os/liteos/base/core/los_task.c ****     {
 247              		.loc 2 171 0
 248 000a 0FD5     		bpl	.L19
 173:../../iot_link/os/liteos/base/core/los_task.c ****         pstTaskCB->usTaskStatus &= (~OS_TASK_STATUS_READY);
 249              		.loc 2 173 0
 250 000c 00F12806 		add	r6, r0, #40
 251 0010 3046     		mov	r0, r6
 252              	.LVL9:
 253 0012 FFF7FEFF 		bl	osPriqueueDequeue
 254              	.LVL10:
 174:../../iot_link/os/liteos/base/core/los_task.c ****         pstTaskCB->usPriority = usPriority;
 255              		.loc 2 174 0
 256 0016 A388     		ldrh	r3, [r4, #4]
 175:../../iot_link/os/liteos/base/core/los_task.c ****         pstTaskCB->usTaskStatus |= OS_TASK_STATUS_READY;
 257              		.loc 2 175 0
 258 0018 E580     		strh	r5, [r4, #6]	@ movhi
 176:../../iot_link/os/liteos/base/core/los_task.c ****         osPriqueueEnqueue(&pstTaskCB->stPendList, pstTaskCB->usPriority);
 259              		.loc 2 176 0
 260 001a 43F00403 		orr	r3, r3, #4
 261 001e A380     		strh	r3, [r4, #4]	@ movhi
 177:../../iot_link/os/liteos/base/core/los_task.c ****     }
 262              		.loc 2 177 0
 263 0020 2946     		mov	r1, r5
 264 0022 3046     		mov	r0, r6
 183:../../iot_link/os/liteos/base/core/los_task.c **** 
 265              		.loc 2 183 0
 266 0024 BDE87040 		pop	{r4, r5, r6, lr}
 267              	.LCFI4:
 268              		.cfi_remember_state
 269              		.cfi_restore 14
 270              		.cfi_restore 6
 271              		.cfi_restore 5
 272              		.cfi_restore 4
 273              		.cfi_def_cfa_offset 0
 274              	.LVL11:
 177:../../iot_link/os/liteos/base/core/los_task.c ****     }
 275              		.loc 2 177 0
 276 0028 FFF7FEBF 		b	osPriqueueEnqueue
 277              	.LVL12:
 278              	.L19:
 279              	.LCFI5:
 280              		.cfi_restore_state
 181:../../iot_link/os/liteos/base/core/los_task.c ****     }
 281              		.loc 2 181 0
 282 002c E180     		strh	r1, [r4, #6]	@ movhi
 183:../../iot_link/os/liteos/base/core/los_task.c **** 
 283              		.loc 2 183 0
 284 002e 70BD     		pop	{r4, r5, r6, pc}
 285              		.cfi_endproc
 286              	.LFE288:
 288              		.section	.text.osTaskAdd2TimerList,"ax",%progbits
 289              		.align	1
 290              		.global	osTaskAdd2TimerList
 291              		.syntax unified
ARM GAS  C:\Users\LuckyE\AppData\Local\Temp\ccK6ohhW.s 			page 22


 292              		.thumb
 293              		.thumb_func
 294              		.fpu fpv4-sp-d16
 296              	osTaskAdd2TimerList:
 297              	.LFB289:
 194:../../iot_link/os/liteos/base/core/los_task.c ****     LOS_TASK_CB *pstTskDelay;
 298              		.loc 2 194 0
 299              		.cfi_startproc
 300              		@ args = 0, pretend = 0, frame = 0
 301              		@ frame_needed = 0, uses_anonymous_args = 0
 302              	.LVL13:
 303 0000 F0B5     		push	{r4, r5, r6, r7, lr}
 304              	.LCFI6:
 305              		.cfi_def_cfa_offset 20
 306              		.cfi_offset 4, -20
 307              		.cfi_offset 5, -16
 308              		.cfi_offset 6, -12
 309              		.cfi_offset 7, -8
 310              		.cfi_offset 14, -4
 204:../../iot_link/os/liteos/base/core/los_task.c ****     uwSortIndex = uwSortIndex & OS_TSK_SORTLINK_MASK;
 311              		.loc 2 204 0
 312 0002 1E4C     		ldr	r4, .L29
 202:../../iot_link/os/liteos/base/core/los_task.c ****     EVALUATE_L(pstTaskCB->uwIdxRollNum, uwRollNum);
 313              		.loc 2 202 0
 314 0004 11F01F02 		ands	r2, r1, #31
 315              	.LVL14:
 201:../../iot_link/os/liteos/base/core/los_task.c ****     (uwSortIndex > 0) ? 0 : (uwRollNum--);
 316              		.loc 2 201 0
 317 0008 4FEA5113 		lsr	r3, r1, #5
 318              	.LVL15:
 204:../../iot_link/os/liteos/base/core/los_task.c ****     uwSortIndex = uwSortIndex & OS_TSK_SORTLINK_MASK;
 319              		.loc 2 204 0
 320 000c A188     		ldrh	r1, [r4, #4]
 321              	.LVL16:
 207:../../iot_link/os/liteos/base/core/los_task.c ****     if (pstListObject->pstNext == pstListObject)
 322              		.loc 2 207 0
 323 000e 2668     		ldr	r6, [r4]
 204:../../iot_link/os/liteos/base/core/los_task.c ****     uwSortIndex = uwSortIndex & OS_TSK_SORTLINK_MASK;
 324              		.loc 2 204 0
 325 0010 1144     		add	r1, r1, r2
 202:../../iot_link/os/liteos/base/core/los_task.c ****     EVALUATE_L(pstTaskCB->uwIdxRollNum, uwRollNum);
 326              		.loc 2 202 0
 327 0012 08BF     		it	eq
 328 0014 03F1FF33 		addeq	r3, r3, #-1
 329              	.LVL17:
 205:../../iot_link/os/liteos/base/core/los_task.c ****     EVALUATE_H(pstTaskCB->uwIdxRollNum, uwSortIndex);
 330              		.loc 2 205 0
 331 0018 01F01F01 		and	r1, r1, #31
 332              	.LVL18:
 207:../../iot_link/os/liteos/base/core/los_task.c ****     if (pstListObject->pstNext == pstListObject)
 333              		.loc 2 207 0
 334 001c 06EBC106 		add	r6, r6, r1, lsl #3
 335              	.LVL19:
 206:../../iot_link/os/liteos/base/core/los_task.c ****     pstListObject = g_stTskSortLink.pstSortLink + uwSortIndex;
 336              		.loc 2 206 0
 337 0020 23F07843 		bic	r3, r3, #-134217728
 338              	.LVL20:
ARM GAS  C:\Users\LuckyE\AppData\Local\Temp\ccK6ohhW.s 			page 23


 339 0024 43EAC163 		orr	r3, r3, r1, lsl #27
 340 0028 8363     		str	r3, [r0, #56]
 208:../../iot_link/os/liteos/base/core/los_task.c ****     {
 341              		.loc 2 208 0
 342 002a 7368     		ldr	r3, [r6, #4]
 343 002c B342     		cmp	r3, r6
 344              	.LVL21:
 345 002e 00F13007 		add	r7, r0, #48
 346 0032 07D1     		bne	.L22
 210:../../iot_link/os/liteos/base/core/los_task.c ****     }
 347              		.loc 2 210 0
 348 0034 1B68     		ldr	r3, [r3]
 349              	.LVL22:
 350              	.L28:
 351              	.LBB38:
 352              	.LBB39:
 353              	.LBB40:
 131:../../iot_link/os/liteos/include/los_list.h ****     pstNode->pstPrev = pstList;
 354              		.loc 1 131 0
 355 0036 5A68     		ldr	r2, [r3, #4]
 132:../../iot_link/os/liteos/include/los_list.h ****     pstList->pstNext->pstPrev = pstNode;
 356              		.loc 1 132 0
 357 0038 C0E90C32 		strd	r3, r2, [r0, #48]
 133:../../iot_link/os/liteos/include/los_list.h ****     pstList->pstNext = pstNode;
 358              		.loc 1 133 0
 359 003c 5A68     		ldr	r2, [r3, #4]
 360 003e 1760     		str	r7, [r2]
 361              	.LVL23:
 134:../../iot_link/os/liteos/include/los_list.h **** }
 362              		.loc 1 134 0
 363 0040 5F60     		str	r7, [r3, #4]
 364              	.LBE40:
 365              	.LBE39:
 366              	.LBE38:
 232:../../iot_link/os/liteos/base/core/los_task.c **** 
 367              		.loc 2 232 0
 368 0042 F0BD     		pop	{r4, r5, r6, r7, pc}
 369              	.LVL24:
 370              	.L22:
 214:../../iot_link/os/liteos/base/core/los_task.c ****         do
 371              		.loc 2 214 0
 372 0044 303B     		subs	r3, r3, #48
 373              	.LVL25:
 374              	.L25:
 217:../../iot_link/os/liteos/base/core/los_task.c ****             {
 375              		.loc 2 217 0
 376 0046 9A6B     		ldr	r2, [r3, #56]
 377 0048 816B     		ldr	r1, [r0, #56]
 378 004a 22F07844 		bic	r4, r2, #-134217728
 379 004e 21F07845 		bic	r5, r1, #-134217728
 380 0052 AC42     		cmp	r4, r5
 381 0054 0BD8     		bhi	.L24
 227:../../iot_link/os/liteos/base/core/los_task.c ****         } while (&pstTskDelay->stTimerList != (pstListObject));
 382              		.loc 2 227 0
 383 0056 5A6B     		ldr	r2, [r3, #52]
 219:../../iot_link/os/liteos/base/core/los_task.c ****             }
 384              		.loc 2 219 0
ARM GAS  C:\Users\LuckyE\AppData\Local\Temp\ccK6ohhW.s 			page 24


 385 0058 01F07841 		and	r1, r1, #-134217728
 386 005c 2C1B     		subs	r4, r5, r4
 387 005e 2143     		orrs	r1, r1, r4
 228:../../iot_link/os/liteos/base/core/los_task.c **** 
 388              		.loc 2 228 0
 389 0060 9642     		cmp	r6, r2
 219:../../iot_link/os/liteos/base/core/los_task.c ****             }
 390              		.loc 2 219 0
 391 0062 8163     		str	r1, [r0, #56]
 227:../../iot_link/os/liteos/base/core/los_task.c ****         } while (&pstTskDelay->stTimerList != (pstListObject));
 392              		.loc 2 227 0
 393 0064 A2F13003 		sub	r3, r2, #48
 394              	.LVL26:
 228:../../iot_link/os/liteos/base/core/los_task.c **** 
 395              		.loc 2 228 0
 396 0068 EDD1     		bne	.L25
 397              	.L26:
 230:../../iot_link/os/liteos/base/core/los_task.c ****     }
 398              		.loc 2 230 0
 399 006a 1B6B     		ldr	r3, [r3, #48]
 400              	.LVL27:
 401 006c E3E7     		b	.L28
 402              	.LVL28:
 403              	.L24:
 223:../../iot_link/os/liteos/base/core/los_task.c ****                 break;
 404              		.loc 2 223 0
 405 006e 02F07842 		and	r2, r2, #-134217728
 406 0072 641B     		subs	r4, r4, r5
 407 0074 2243     		orrs	r2, r2, r4
 408 0076 9A63     		str	r2, [r3, #56]
 224:../../iot_link/os/liteos/base/core/los_task.c ****             }
 409              		.loc 2 224 0
 410 0078 F7E7     		b	.L26
 411              	.L30:
 412 007a 00BF     		.align	2
 413              	.L29:
 414 007c 00000000 		.word	g_stTskSortLink
 415              		.cfi_endproc
 416              	.LFE289:
 418              		.section	.text.osTimerListDelete,"ax",%progbits
 419              		.align	1
 420              		.global	osTimerListDelete
 421              		.syntax unified
 422              		.thumb
 423              		.thumb_func
 424              		.fpu fpv4-sp-d16
 426              	osTimerListDelete:
 427              	.LFB290:
 236:../../iot_link/os/liteos/base/core/los_task.c ****     LOS_DL_LIST  *pstListObject;
 428              		.loc 2 236 0
 429              		.cfi_startproc
 430              		@ args = 0, pretend = 0, frame = 0
 431              		@ frame_needed = 0, uses_anonymous_args = 0
 432              		@ link register save eliminated.
 433              	.LVL29:
 434 0000 10B4     		push	{r4}
 435              	.LCFI7:
ARM GAS  C:\Users\LuckyE\AppData\Local\Temp\ccK6ohhW.s 			page 25


 436              		.cfi_def_cfa_offset 4
 437              		.cfi_offset 4, -4
 242:../../iot_link/os/liteos/base/core/los_task.c **** 
 438              		.loc 2 242 0
 439 0002 0C4B     		ldr	r3, .L33
 244:../../iot_link/os/liteos/base/core/los_task.c ****     {
 440              		.loc 2 244 0
 441 0004 D0E90D41 		ldrd	r4, r1, [r0, #52]
 242:../../iot_link/os/liteos/base/core/los_task.c **** 
 442              		.loc 2 242 0
 443 0008 1B68     		ldr	r3, [r3]
 241:../../iot_link/os/liteos/base/core/los_task.c ****     pstListObject = g_stTskSortLink.pstSortLink + uwSortIndex;
 444              		.loc 2 241 0
 445 000a CA0E     		lsrs	r2, r1, #27
 242:../../iot_link/os/liteos/base/core/los_task.c **** 
 446              		.loc 2 242 0
 447 000c 03EBC203 		add	r3, r3, r2, lsl #3
 244:../../iot_link/os/liteos/base/core/los_task.c ****     {
 448              		.loc 2 244 0
 449 0010 9C42     		cmp	r4, r3
 450 0012 09D0     		beq	.L32
 451              	.LVL30:
 247:../../iot_link/os/liteos/base/core/los_task.c ****     }
 452              		.loc 2 247 0
 453 0014 A268     		ldr	r2, [r4, #8]
 454 0016 21F07841 		bic	r1, r1, #-134217728
 455 001a 22F07843 		bic	r3, r2, #-134217728
 456 001e 0B44     		add	r3, r3, r1
 457 0020 02F07842 		and	r2, r2, #-134217728
 458 0024 1343     		orrs	r3, r3, r2
 459 0026 A360     		str	r3, [r4, #8]
 460              	.LVL31:
 461              	.L32:
 250:../../iot_link/os/liteos/base/core/los_task.c **** }
 462              		.loc 2 250 0
 463 0028 3030     		adds	r0, r0, #48
 464              	.LVL32:
 251:../../iot_link/os/liteos/base/core/los_task.c **** 
 465              		.loc 2 251 0
 466 002a 5DF8044B 		ldr	r4, [sp], #4
 467              	.LCFI8:
 468              		.cfi_restore 4
 469              		.cfi_def_cfa_offset 0
 250:../../iot_link/os/liteos/base/core/los_task.c **** }
 470              		.loc 2 250 0
 471 002e FFF7FEBF 		b	LOS_ListDelete
 472              	.LVL33:
 473              	.L34:
 474 0032 00BF     		.align	2
 475              	.L33:
 476 0034 00000000 		.word	g_stTskSortLink
 477              		.cfi_endproc
 478              	.LFE290:
 480              		.section	.text.osTaskScan,"ax",%progbits
 481              		.align	1
 482              		.global	osTaskScan
 483              		.syntax unified
ARM GAS  C:\Users\LuckyE\AppData\Local\Temp\ccK6ohhW.s 			page 26


 484              		.thumb
 485              		.thumb_func
 486              		.fpu fpv4-sp-d16
 488              	osTaskScan:
 489              	.LFB291:
 254:../../iot_link/os/liteos/base/core/los_task.c ****     LOS_TASK_CB *pstTaskCB;
 490              		.loc 2 254 0
 491              		.cfi_startproc
 492              		@ args = 0, pretend = 0, frame = 0
 493              		@ frame_needed = 0, uses_anonymous_args = 0
 494              	.LVL34:
 260:../../iot_link/os/liteos/base/core/los_task.c ****     pstListObject = g_stTskSortLink.pstSortLink + g_stTskSortLink.usCursor;
 495              		.loc 2 260 0
 496 0000 294A     		ldr	r2, .L52
 254:../../iot_link/os/liteos/base/core/los_task.c ****     LOS_TASK_CB *pstTaskCB;
 497              		.loc 2 254 0
 498 0002 F8B5     		push	{r3, r4, r5, r6, r7, lr}
 499              	.LCFI9:
 500              		.cfi_def_cfa_offset 24
 501              		.cfi_offset 3, -24
 502              		.cfi_offset 4, -20
 503              		.cfi_offset 5, -16
 504              		.cfi_offset 6, -12
 505              		.cfi_offset 7, -8
 506              		.cfi_offset 14, -4
 260:../../iot_link/os/liteos/base/core/los_task.c ****     pstListObject = g_stTskSortLink.pstSortLink + g_stTskSortLink.usCursor;
 507              		.loc 2 260 0
 508 0004 9588     		ldrh	r5, [r2, #4]
 509 0006 0135     		adds	r5, r5, #1
 510 0008 05F01F03 		and	r3, r5, #31
 261:../../iot_link/os/liteos/base/core/los_task.c ****     if (pstListObject->pstNext == pstListObject)
 511              		.loc 2 261 0
 512 000c 1568     		ldr	r5, [r2]
 260:../../iot_link/os/liteos/base/core/los_task.c ****     pstListObject = g_stTskSortLink.pstSortLink + g_stTskSortLink.usCursor;
 513              		.loc 2 260 0
 514 000e 9380     		strh	r3, [r2, #4]	@ movhi
 261:../../iot_link/os/liteos/base/core/los_task.c ****     if (pstListObject->pstNext == pstListObject)
 515              		.loc 2 261 0
 516 0010 05EBC305 		add	r5, r5, r3, lsl #3
 517              	.LVL35:
 262:../../iot_link/os/liteos/base/core/los_task.c ****     {
 518              		.loc 2 262 0
 519 0014 6C68     		ldr	r4, [r5, #4]
 520 0016 AC42     		cmp	r4, r5
 521 0018 44D0     		beq	.L35
 267:../../iot_link/os/liteos/base/core/los_task.c ****     {
 522              		.loc 2 267 0
 523 001a 303C     		subs	r4, r4, #48
 524              	.LVL36:
 256:../../iot_link/os/liteos/base/core/los_task.c ****     LOS_DL_LIST *pstListObject;
 525              		.loc 2 256 0
 526 001c 0026     		movs	r6, #0
 527              	.LVL37:
 528              	.L38:
 267:../../iot_link/os/liteos/base/core/los_task.c ****     {
 529              		.loc 2 267 0 discriminator 1
 530 001e 04F13000 		add	r0, r4, #48
ARM GAS  C:\Users\LuckyE\AppData\Local\Temp\ccK6ohhW.s 			page 27


 531 0022 A842     		cmp	r0, r5
 532 0024 06D0     		beq	.L40
 270:../../iot_link/os/liteos/base/core/los_task.c ****         {
 533              		.loc 2 270 0
 534 0026 A36B     		ldr	r3, [r4, #56]
 269:../../iot_link/os/liteos/base/core/los_task.c ****         if (UWROLLNUM(pstTaskCB->uwIdxRollNum) > 0)
 535              		.loc 2 269 0
 536 0028 A188     		ldrh	r1, [r4, #4]
 537              	.LVL38:
 270:../../iot_link/os/liteos/base/core/los_task.c ****         {
 538              		.loc 2 270 0
 539 002a 33F07847 		bics	r7, r3, #-134217728
 540 002e 07D0     		beq	.L39
 272:../../iot_link/os/liteos/base/core/los_task.c ****             break;
 541              		.loc 2 272 0
 542 0030 013B     		subs	r3, r3, #1
 543 0032 A363     		str	r3, [r4, #56]
 544              	.LVL39:
 545              	.L40:
 308:../../iot_link/os/liteos/base/core/los_task.c ****     {
 546              		.loc 2 308 0
 547 0034 002E     		cmp	r6, #0
 548 0036 35D0     		beq	.L35
 312:../../iot_link/os/liteos/base/core/los_task.c **** 
 549              		.loc 2 312 0
 550 0038 BDE8F840 		pop	{r3, r4, r5, r6, r7, lr}
 551              	.LCFI10:
 552              		.cfi_remember_state
 553              		.cfi_restore 14
 554              		.cfi_restore 7
 555              		.cfi_restore 6
 556              		.cfi_restore 5
 557              		.cfi_restore 4
 558              		.cfi_restore 3
 559              		.cfi_def_cfa_offset 0
 560              	.LVL40:
 310:../../iot_link/os/liteos/base/core/los_task.c ****     }
 561              		.loc 2 310 0
 562 003c FFF7FEBF 		b	LOS_Schedule
 563              	.LVL41:
 564              	.L39:
 565              	.LCFI11:
 566              		.cfi_restore_state
 276:../../iot_link/os/liteos/base/core/los_task.c ****         if (OS_TASK_STATUS_PEND & usTempStatus)
 567              		.loc 2 276 0
 568 0040 FFF7FEFF 		bl	LOS_ListDelete
 569              	.LVL42:
 277:../../iot_link/os/liteos/base/core/los_task.c ****         {
 570              		.loc 2 277 0
 571 0044 0B07     		lsls	r3, r1, #28
 572 0046 18D5     		bpl	.L41
 279:../../iot_link/os/liteos/base/core/los_task.c ****             LOS_ListDelete(&pstTaskCB->stPendList);
 573              		.loc 2 279 0
 574 0048 A388     		ldrh	r3, [r4, #4]
 575 004a 23F00803 		bic	r3, r3, #8
 576 004e A380     		strh	r3, [r4, #4]	@ movhi
 280:../../iot_link/os/liteos/base/core/los_task.c ****             pstTaskCB->pTaskSem = NULL;
ARM GAS  C:\Users\LuckyE\AppData\Local\Temp\ccK6ohhW.s 			page 28


 577              		.loc 2 280 0
 578 0050 04F12800 		add	r0, r4, #40
 579 0054 FFF7FEFF 		bl	LOS_ListDelete
 580              	.LVL43:
 282:../../iot_link/os/liteos/base/core/los_task.c ****         }
 581              		.loc 2 282 0
 582 0058 C4E90677 		strd	r7, r7, [r4, #24]
 583              	.L42:
 298:../../iot_link/os/liteos/base/core/los_task.c ****         {
 584              		.loc 2 298 0
 585 005c 8B07     		lsls	r3, r1, #30
 586 005e 09D4     		bmi	.L45
 300:../../iot_link/os/liteos/base/core/los_task.c ****             osPriqueueEnqueue(&pstTaskCB->stPendList, pstTaskCB->usPriority);
 587              		.loc 2 300 0
 588 0060 A388     		ldrh	r3, [r4, #4]
 301:../../iot_link/os/liteos/base/core/los_task.c ****             bNeedSchedule = TRUE;
 589              		.loc 2 301 0
 590 0062 E188     		ldrh	r1, [r4, #6]
 591              	.LVL44:
 300:../../iot_link/os/liteos/base/core/los_task.c ****             osPriqueueEnqueue(&pstTaskCB->stPendList, pstTaskCB->usPriority);
 592              		.loc 2 300 0
 593 0064 43F00403 		orr	r3, r3, #4
 594 0068 A380     		strh	r3, [r4, #4]	@ movhi
 301:../../iot_link/os/liteos/base/core/los_task.c ****             bNeedSchedule = TRUE;
 595              		.loc 2 301 0
 596 006a 04F12800 		add	r0, r4, #40
 597 006e FFF7FEFF 		bl	osPriqueueEnqueue
 598              	.LVL45:
 302:../../iot_link/os/liteos/base/core/los_task.c ****         }
 599              		.loc 2 302 0
 600 0072 0126     		movs	r6, #1
 601              	.LVL46:
 602              	.L45:
 305:../../iot_link/os/liteos/base/core/los_task.c ****     }
 603              		.loc 2 305 0
 604 0074 6C68     		ldr	r4, [r5, #4]
 605              	.LVL47:
 606 0076 303C     		subs	r4, r4, #48
 607              	.LVL48:
 608 0078 D1E7     		b	.L38
 609              	.LVL49:
 610              	.L41:
 284:../../iot_link/os/liteos/base/core/los_task.c ****         {
 611              		.loc 2 284 0
 612 007a 4805     		lsls	r0, r1, #21
 613 007c 04D5     		bpl	.L43
 286:../../iot_link/os/liteos/base/core/los_task.c ****         }
 614              		.loc 2 286 0
 615 007e A388     		ldrh	r3, [r4, #4]
 616 0080 23F48063 		bic	r3, r3, #1024
 617              	.L51:
 295:../../iot_link/os/liteos/base/core/los_task.c ****         }
 618              		.loc 2 295 0
 619 0084 A380     		strh	r3, [r4, #4]	@ movhi
 620 0086 E9E7     		b	.L42
 621              	.L43:
 288:../../iot_link/os/liteos/base/core/los_task.c ****         {
ARM GAS  C:\Users\LuckyE\AppData\Local\Temp\ccK6ohhW.s 			page 29


 622              		.loc 2 288 0
 623 0088 8A04     		lsls	r2, r1, #18
 624 008a 07D5     		bpl	.L44
 290:../../iot_link/os/liteos/base/core/los_task.c ****             pstTaskCB->usTaskStatus &= ~(OS_TASK_STATUS_PEND_QUEUE);
 625              		.loc 2 290 0
 626 008c 04F12800 		add	r0, r4, #40
 627 0090 FFF7FEFF 		bl	LOS_ListDelete
 628              	.LVL50:
 291:../../iot_link/os/liteos/base/core/los_task.c ****         }
 629              		.loc 2 291 0
 630 0094 A388     		ldrh	r3, [r4, #4]
 631 0096 23F40053 		bic	r3, r3, #8192
 632 009a F3E7     		b	.L51
 633              	.L44:
 295:../../iot_link/os/liteos/base/core/los_task.c ****         }
 634              		.loc 2 295 0
 635 009c A388     		ldrh	r3, [r4, #4]
 636 009e 23F02003 		bic	r3, r3, #32
 637 00a2 EFE7     		b	.L51
 638              	.LVL51:
 639              	.L35:
 312:../../iot_link/os/liteos/base/core/los_task.c **** 
 640              		.loc 2 312 0
 641 00a4 F8BD     		pop	{r3, r4, r5, r6, r7, pc}
 642              	.LVL52:
 643              	.L53:
 644 00a6 00BF     		.align	2
 645              	.L52:
 646 00a8 00000000 		.word	g_stTskSortLink
 647              		.cfi_endproc
 648              	.LFE291:
 650              		.section	.text.osConvertTskStatus,"ax",%progbits
 651              		.align	1
 652              		.global	osConvertTskStatus
 653              		.syntax unified
 654              		.thumb
 655              		.thumb_func
 656              		.fpu fpv4-sp-d16
 658              	osConvertTskStatus:
 659              	.LFB292:
 322:../../iot_link/os/liteos/base/core/los_task.c ****     if (OS_TASK_STATUS_RUNNING & usTaskStatus)
 660              		.loc 2 322 0
 661              		.cfi_startproc
 662              		@ args = 0, pretend = 0, frame = 0
 663              		@ frame_needed = 0, uses_anonymous_args = 0
 664              		@ link register save eliminated.
 665              	.LVL53:
 323:../../iot_link/os/liteos/base/core/los_task.c ****     {
 666              		.loc 2 323 0
 667 0000 C106     		lsls	r1, r0, #27
 668 0002 15D4     		bmi	.L57
 327:../../iot_link/os/liteos/base/core/los_task.c ****     {
 669              		.loc 2 327 0
 670 0004 4207     		lsls	r2, r0, #29
 671 0006 15D4     		bmi	.L58
 331:../../iot_link/os/liteos/base/core/los_task.c ****     {
 672              		.loc 2 331 0
ARM GAS  C:\Users\LuckyE\AppData\Local\Temp\ccK6ohhW.s 			page 30


 673 0008 8306     		lsls	r3, r0, #26
 674 000a 15D4     		bmi	.L59
 335:../../iot_link/os/liteos/base/core/los_task.c ****     {
 675              		.loc 2 335 0
 676 000c 0107     		lsls	r1, r0, #28
 677 000e 06D5     		bpl	.L56
 337:../../iot_link/os/liteos/base/core/los_task.c ****         {
 678              		.loc 2 337 0
 679 0010 10F0400F 		tst	r0, #64
 342:../../iot_link/os/liteos/base/core/los_task.c ****     }
 680              		.loc 2 342 0
 681 0014 0B4B     		ldr	r3, .L65
 682 0016 0C48     		ldr	r0, .L65+4
 683              	.LVL54:
 684              	.L64:
 685              	.LBB43:
 686              	.LBB44:
 355:../../iot_link/os/liteos/base/core/los_task.c ****     }
 687              		.loc 2 355 0
 688 0018 08BF     		it	eq
 689 001a 1846     		moveq	r0, r3
 690 001c 7047     		bx	lr
 691              	.LVL55:
 692              	.L56:
 693              	.LBE44:
 694              	.LBE43:
 344:../../iot_link/os/liteos/base/core/los_task.c ****     {
 695              		.loc 2 344 0
 696 001e 8207     		lsls	r2, r0, #30
 697 0020 0CD4     		bmi	.L61
 698              	.LVL56:
 699              	.LBB47:
 700              	.LBB45:
 348:../../iot_link/os/liteos/base/core/los_task.c ****     {
 701              		.loc 2 348 0
 702 0022 8304     		lsls	r3, r0, #18
 703 0024 0CD5     		bpl	.L62
 350:../../iot_link/os/liteos/base/core/los_task.c ****         {
 704              		.loc 2 350 0
 705 0026 10F0400F 		tst	r0, #64
 355:../../iot_link/os/liteos/base/core/los_task.c ****     }
 706              		.loc 2 355 0
 707 002a 084B     		ldr	r3, .L65+8
 708 002c 0848     		ldr	r0, .L65+12
 709              	.LVL57:
 710 002e F3E7     		b	.L64
 711              	.LVL58:
 712              	.L57:
 713              	.LBE45:
 714              	.LBE47:
 325:../../iot_link/os/liteos/base/core/los_task.c ****     }
 715              		.loc 2 325 0
 716 0030 0848     		ldr	r0, .L65+16
 717              	.LVL59:
 718 0032 7047     		bx	lr
 719              	.LVL60:
 720              	.L58:
ARM GAS  C:\Users\LuckyE\AppData\Local\Temp\ccK6ohhW.s 			page 31


 329:../../iot_link/os/liteos/base/core/los_task.c ****     }
 721              		.loc 2 329 0
 722 0034 0848     		ldr	r0, .L65+20
 723              	.LVL61:
 724 0036 7047     		bx	lr
 725              	.LVL62:
 726              	.L59:
 333:../../iot_link/os/liteos/base/core/los_task.c ****     }
 727              		.loc 2 333 0
 728 0038 0848     		ldr	r0, .L65+24
 729              	.LVL63:
 730 003a 7047     		bx	lr
 731              	.LVL64:
 732              	.L61:
 346:../../iot_link/os/liteos/base/core/los_task.c ****     }
 733              		.loc 2 346 0
 734 003c 0848     		ldr	r0, .L65+28
 735              	.LVL65:
 736 003e 7047     		bx	lr
 737              	.LVL66:
 738              	.L62:
 739              	.LBB48:
 740              	.LBB46:
 358:../../iot_link/os/liteos/base/core/los_task.c **** }
 741              		.loc 2 358 0
 742 0040 0848     		ldr	r0, .L65+32
 743              	.LVL67:
 744              	.LBE46:
 745              	.LBE48:
 359:../../iot_link/os/liteos/base/core/los_task.c **** 
 746              		.loc 2 359 0
 747 0042 7047     		bx	lr
 748              	.L66:
 749              		.align	2
 750              	.L65:
 751 0044 20000000 		.word	.LC8
 752 0048 14000000 		.word	.LC7
 753 004c 49000000 		.word	.LC12
 754 0050 2D000000 		.word	.LC10
 755 0054 00000000 		.word	.LC4
 756 0058 08000000 		.word	.LC5
 757 005c 0E000000 		.word	.LC6
 758 0060 25000000 		.word	.LC9
 759 0064 3E000000 		.word	.LC11
 760              		.cfi_endproc
 761              	.LFE292:
 763              		.section	.text.osGetTaskWaterLine,"ax",%progbits
 764              		.align	1
 765              		.global	osGetTaskWaterLine
 766              		.syntax unified
 767              		.thumb
 768              		.thumb_func
 769              		.fpu fpv4-sp-d16
 771              	osGetTaskWaterLine:
 772              	.LFB293:
 362:../../iot_link/os/liteos/base/core/los_task.c ****     UINT32 *puwStack;
 773              		.loc 2 362 0
ARM GAS  C:\Users\LuckyE\AppData\Local\Temp\ccK6ohhW.s 			page 32


 774              		.cfi_startproc
 775              		@ args = 0, pretend = 0, frame = 0
 776              		@ frame_needed = 0, uses_anonymous_args = 0
 777              	.LVL68:
 365:../../iot_link/os/liteos/base/core/los_task.c **** 
 778              		.loc 2 365 0
 779 0000 5423     		movs	r3, #84
 780 0002 5843     		muls	r0, r3, r0
 781              	.LVL69:
 782 0004 104B     		ldr	r3, .L74
 783 0006 1968     		ldr	r1, [r3]
 362:../../iot_link/os/liteos/base/core/los_task.c ****     UINT32 *puwStack;
 784              		.loc 2 362 0
 785 0008 10B5     		push	{r4, lr}
 786              	.LCFI12:
 787              		.cfi_def_cfa_offset 8
 788              		.cfi_offset 4, -8
 789              		.cfi_offset 14, -4
 365:../../iot_link/os/liteos/base/core/los_task.c **** 
 790              		.loc 2 365 0
 791 000a 0C18     		adds	r4, r1, r0
 792              	.LVL70:
 367:../../iot_link/os/liteos/base/core/los_task.c ****     {
 793              		.loc 2 367 0
 794 000c E368     		ldr	r3, [r4, #12]
 795 000e 1A68     		ldr	r2, [r3]
 796 0010 B2F1CC3F 		cmp	r2, #-858993460
 797 0014 0DD1     		bne	.L68
 370:../../iot_link/os/liteos/base/core/los_task.c ****         {
 798              		.loc 2 370 0
 799 0016 0858     		ldr	r0, [r1, r0]
 369:../../iot_link/os/liteos/base/core/los_task.c ****         while ((puwStack < (UINT32 *)pstTaskCB->pStackPointer) && (*puwStack == 0xCACACACA))
 800              		.loc 2 369 0
 801 0018 1A1D     		adds	r2, r3, #4
 802              	.LVL71:
 803              	.L69:
 370:../../iot_link/os/liteos/base/core/los_task.c ****         {
 804              		.loc 2 370 0
 805 001a 9042     		cmp	r0, r2
 806 001c 03D8     		bhi	.L70
 807              	.L73:
 374:../../iot_link/os/liteos/base/core/los_task.c ****     }
 808              		.loc 2 374 0
 809 001e A068     		ldr	r0, [r4, #8]
 810 0020 0344     		add	r3, r3, r0
 811 0022 981A     		subs	r0, r3, r2
 812              	.LVL72:
 813              	.L67:
 382:../../iot_link/os/liteos/base/core/los_task.c **** 
 814              		.loc 2 382 0
 815 0024 10BD     		pop	{r4, pc}
 816              	.LVL73:
 817              	.L70:
 370:../../iot_link/os/liteos/base/core/los_task.c ****         {
 818              		.loc 2 370 0 discriminator 1
 819 0026 1168     		ldr	r1, [r2]
 820 0028 B1F1CA3F 		cmp	r1, #-892679478
ARM GAS  C:\Users\LuckyE\AppData\Local\Temp\ccK6ohhW.s 			page 33


 821 002c F7D1     		bne	.L73
 372:../../iot_link/os/liteos/base/core/los_task.c ****         }
 822              		.loc 2 372 0
 823 002e 0432     		adds	r2, r2, #4
 824              	.LVL74:
 825 0030 F3E7     		b	.L69
 826              	.LVL75:
 827              	.L68:
 378:../../iot_link/os/liteos/base/core/los_task.c ****         uwPeakUsed = 0xFFFFFFFF;
 828              		.loc 2 378 0
 829 0032 0648     		ldr	r0, .L74+4
 830 0034 FFF7FEFF 		bl	printf
 831              	.LVL76:
 832 0038 616A     		ldr	r1, [r4, #36]
 833 003a 0548     		ldr	r0, .L74+8
 834 003c FFF7FEFF 		bl	printf
 835              	.LVL77:
 379:../../iot_link/os/liteos/base/core/los_task.c ****     }
 836              		.loc 2 379 0
 837 0040 4FF0FF30 		mov	r0, #-1
 381:../../iot_link/os/liteos/base/core/los_task.c **** }
 838              		.loc 2 381 0
 839 0044 EEE7     		b	.L67
 840              	.L75:
 841 0046 00BF     		.align	2
 842              	.L74:
 843 0048 00000000 		.word	g_pstTaskCBArray
 844 004c 00000000 		.word	.LC0
 845 0050 00000000 		.word	.LC13
 846              		.cfi_endproc
 847              	.LFE293:
 849              		.section	.text.osGetAllTskInfo,"ax",%progbits
 850              		.align	1
 851              		.global	osGetAllTskInfo
 852              		.syntax unified
 853              		.thumb
 854              		.thumb_func
 855              		.fpu fpv4-sp-d16
 857              	osGetAllTskInfo:
 858              	.LFB294:
 392:../../iot_link/os/liteos/base/core/los_task.c ****     LOS_TASK_CB *pstTaskCB;
 859              		.loc 2 392 0
 860              		.cfi_startproc
 861              		@ args = 0, pretend = 0, frame = 16
 862              		@ frame_needed = 0, uses_anonymous_args = 0
 863 0000 2DE9F04F 		push	{r4, r5, r6, r7, r8, r9, r10, fp, lr}
 864              	.LCFI13:
 865              		.cfi_def_cfa_offset 36
 866              		.cfi_offset 4, -36
 867              		.cfi_offset 5, -32
 868              		.cfi_offset 6, -28
 869              		.cfi_offset 7, -24
 870              		.cfi_offset 8, -20
 871              		.cfi_offset 9, -16
 872              		.cfi_offset 10, -12
 873              		.cfi_offset 11, -8
 874              		.cfi_offset 14, -4
ARM GAS  C:\Users\LuckyE\AppData\Local\Temp\ccK6ohhW.s 			page 34


 436:../../iot_link/os/liteos/base/core/los_task.c **** #if (LOSCFG_BASE_CORE_CPUP == YES)
 875              		.loc 2 436 0
 876 0004 2848     		ldr	r0, .L83
 447:../../iot_link/os/liteos/base/core/los_task.c ****     {
 877              		.loc 2 447 0
 878 0006 DFF8B890 		ldr	r9, .L83+24
 457:../../iot_link/os/liteos/base/core/los_task.c ****                           pstTaskCB->pcTaskName,
 879              		.loc 2 457 0
 880 000a DFF8B8A0 		ldr	r10, .L83+28
 392:../../iot_link/os/liteos/base/core/los_task.c ****     LOS_TASK_CB *pstTaskCB;
 881              		.loc 2 392 0
 882 000e 8BB0     		sub	sp, sp, #44
 883              	.LCFI14:
 884              		.cfi_def_cfa_offset 80
 436:../../iot_link/os/liteos/base/core/los_task.c **** #if (LOSCFG_BASE_CORE_CPUP == YES)
 885              		.loc 2 436 0
 886 0010 FFF7FEFF 		bl	printf
 887              	.LVL78:
 440:../../iot_link/os/liteos/base/core/los_task.c ****     PRINTK("----            ---    --------   --------     ---------    ----------   ----------  --
 888              		.loc 2 440 0
 889 0014 2548     		ldr	r0, .L83+4
 890 0016 FFF7FEFF 		bl	printf
 891              	.LVL79:
 441:../../iot_link/os/liteos/base/core/los_task.c **** #if (LOSCFG_BASE_CORE_CPUP == YES)
 892              		.loc 2 441 0
 893 001a 2548     		ldr	r0, .L83+8
 894 001c FFF7FEFF 		bl	printf
 895              	.LVL80:
 445:../../iot_link/os/liteos/base/core/los_task.c **** 
 896              		.loc 2 445 0
 897 0020 2248     		ldr	r0, .L83+4
 898 0022 FFF7FEFF 		bl	printf
 899              	.LVL81:
 447:../../iot_link/os/liteos/base/core/los_task.c ****     {
 900              		.loc 2 447 0
 901 0026 0025     		movs	r5, #0
 902              	.LVL82:
 903              	.L77:
 447:../../iot_link/os/liteos/base/core/los_task.c ****     {
 904              		.loc 2 447 0 is_stmt 0 discriminator 1
 905 0028 D9F80030 		ldr	r3, [r9]
 906 002c AB42     		cmp	r3, r5
 907 002e 03D8     		bhi	.L81
 498:../../iot_link/os/liteos/base/core/los_task.c **** 
 908              		.loc 2 498 0 is_stmt 1
 909 0030 0020     		movs	r0, #0
 910 0032 0BB0     		add	sp, sp, #44
 911              	.LCFI15:
 912              		.cfi_remember_state
 913              		.cfi_def_cfa_offset 36
 914              		@ sp needed
 915 0034 BDE8F08F 		pop	{r4, r5, r6, r7, r8, r9, r10, fp, pc}
 916              	.LVL83:
 917              	.L81:
 918              	.LCFI16:
 919              		.cfi_restore_state
 450:../../iot_link/os/liteos/base/core/los_task.c ****         if (pstTaskCB->usTaskStatus & OS_TASK_STATUS_UNUSED)
ARM GAS  C:\Users\LuckyE\AppData\Local\Temp\ccK6ohhW.s 			page 35


 920              		.loc 2 450 0
 921 0038 1E4B     		ldr	r3, .L83+12
 922 003a 5426     		movs	r6, #84
 923 003c D3F80080 		ldr	r8, [r3]
 924 0040 6E43     		muls	r6, r5, r6
 925 0042 08EB0604 		add	r4, r8, r6
 926              	.LVL84:
 451:../../iot_link/os/liteos/base/core/los_task.c ****         {
 927              		.loc 2 451 0
 928 0046 A088     		ldrh	r0, [r4, #4]
 929 0048 C307     		lsls	r3, r0, #31
 930 004a 27D4     		bmi	.L78
 457:../../iot_link/os/liteos/base/core/los_task.c ****                           pstTaskCB->pcTaskName,
 931              		.loc 2 457 0
 932 004c E388     		ldrh	r3, [r4, #6]
 933 004e 0993     		str	r3, [sp, #36]
 934 0050 FFF7FEFF 		bl	osConvertTskStatus
 935              	.LVL85:
 936 0054 2769     		ldr	r7, [r4, #16]
 937 0056 A168     		ldr	r1, [r4, #8]
 938 0058 0890     		str	r0, [sp, #32]
 939 005a 3846     		mov	r0, r7
 940 005c D4F824B0 		ldr	fp, [r4, #36]
 941 0060 0791     		str	r1, [sp, #28]
 942 0062 FFF7FEFF 		bl	osGetTaskWaterLine
 943              	.LVL86:
 944 0066 A36C     		ldr	r3, [r4, #72]
 945 0068 0593     		str	r3, [sp, #20]
 946 006a E368     		ldr	r3, [r4, #12]
 947 006c 0493     		str	r3, [sp, #16]
 948 006e 58F80660 		ldr	r6, [r8, r6]
 949 0072 0799     		ldr	r1, [sp, #28]
 950 0074 089A     		ldr	r2, [sp, #32]
 951 0076 0191     		str	r1, [sp, #4]
 952 0078 CDE90206 		strd	r0, r6, [sp, #8]
 953 007c 0092     		str	r2, [sp]
 954 007e 099B     		ldr	r3, [sp, #36]
 955 0080 3A46     		mov	r2, r7
 956 0082 5946     		mov	r1, fp
 957 0084 5046     		mov	r0, r10
 958 0086 FFF7FEFF 		bl	printf
 959              	.LVL87:
 468:../../iot_link/os/liteos/base/core/los_task.c ****         {
 960              		.loc 2 468 0
 961 008a A369     		ldr	r3, [r4, #24]
 962 008c 43B1     		cbz	r3, .L79
 470:../../iot_link/os/liteos/base/core/los_task.c ****         }
 963              		.loc 2 470 0
 964 008e D988     		ldrh	r1, [r3, #6]
 965              	.L82:
 474:../../iot_link/os/liteos/base/core/los_task.c ****         }
 966              		.loc 2 474 0
 967 0090 0948     		ldr	r0, .L83+16
 968 0092 FFF7FEFF 		bl	printf
 969              	.LVL88:
 488:../../iot_link/os/liteos/base/core/los_task.c ****     }
 970              		.loc 2 488 0
ARM GAS  C:\Users\LuckyE\AppData\Local\Temp\ccK6ohhW.s 			page 36


 971 0096 0948     		ldr	r0, .L83+20
 972 0098 FFF7FEFF 		bl	puts
 973              	.LVL89:
 974              	.L78:
 447:../../iot_link/os/liteos/base/core/los_task.c ****     {
 975              		.loc 2 447 0 discriminator 2
 976 009c 0135     		adds	r5, r5, #1
 977              	.LVL90:
 978 009e C3E7     		b	.L77
 979              	.L79:
 474:../../iot_link/os/liteos/base/core/los_task.c ****         }
 980              		.loc 2 474 0
 981 00a0 4FF6FF71 		movw	r1, #65535
 982 00a4 F4E7     		b	.L82
 983              	.L84:
 984 00a6 00BF     		.align	2
 985              	.L83:
 986 00a8 00000000 		.word	.LC14
 987 00ac 75000000 		.word	.LC15
 988 00b0 78000000 		.word	.LC16
 989 00b4 00000000 		.word	g_pstTaskCBArray
 990 00b8 23010000 		.word	.LC18
 991 00bc 2A010000 		.word	.LC19
 992 00c0 00000000 		.word	g_uwTskMaxNum
 993 00c4 EB000000 		.word	.LC17
 994              		.cfi_endproc
 995              	.LFE294:
 997              		.section	.text.osTaskInit,"ax",%progbits
 998              		.align	1
 999              		.global	osTaskInit
 1000              		.syntax unified
 1001              		.thumb
 1002              		.thumb_func
 1003              		.fpu fpv4-sp-d16
 1005              	osTaskInit:
 1006              	.LFB295:
 508:../../iot_link/os/liteos/base/core/los_task.c ****     UINT32 uwSize;
 1007              		.loc 2 508 0
 1008              		.cfi_startproc
 1009              		@ args = 0, pretend = 0, frame = 0
 1010              		@ frame_needed = 0, uses_anonymous_args = 0
 519:../../iot_link/os/liteos/base/core/los_task.c ****     g_pstTaskCBArray = (LOS_TASK_CB *)LOS_MemAlloc(m_aucSysMem0, uwSize);
 1011              		.loc 2 519 0
 1012 0000 274B     		ldr	r3, .L98
 1013 0002 1A68     		ldr	r2, [r3]
 508:../../iot_link/os/liteos/base/core/los_task.c ****     UINT32 uwSize;
 1014              		.loc 2 508 0
 1015 0004 70B5     		push	{r4, r5, r6, lr}
 1016              	.LCFI17:
 1017              		.cfi_def_cfa_offset 16
 1018              		.cfi_offset 4, -16
 1019              		.cfi_offset 5, -12
 1020              		.cfi_offset 6, -8
 1021              		.cfi_offset 14, -4
 519:../../iot_link/os/liteos/base/core/los_task.c ****     g_pstTaskCBArray = (LOS_TASK_CB *)LOS_MemAlloc(m_aucSysMem0, uwSize);
 1022              		.loc 2 519 0
 1023 0006 5424     		movs	r4, #84
ARM GAS  C:\Users\LuckyE\AppData\Local\Temp\ccK6ohhW.s 			page 37


 520:../../iot_link/os/liteos/base/core/los_task.c ****     if (NULL == g_pstTaskCBArray)
 1024              		.loc 2 520 0
 1025 0008 264E     		ldr	r6, .L98+4
 1026 000a 274D     		ldr	r5, .L98+8
 1027 000c 3068     		ldr	r0, [r6]
 519:../../iot_link/os/liteos/base/core/los_task.c ****     g_pstTaskCBArray = (LOS_TASK_CB *)LOS_MemAlloc(m_aucSysMem0, uwSize);
 1028              		.loc 2 519 0
 1029 000e 02FB0444 		mla	r4, r2, r4, r4
 1030              	.LVL91:
 520:../../iot_link/os/liteos/base/core/los_task.c ****     if (NULL == g_pstTaskCBArray)
 1031              		.loc 2 520 0
 1032 0012 2146     		mov	r1, r4
 1033 0014 FFF7FEFF 		bl	LOS_MemAlloc
 1034              	.LVL92:
 1035 0018 2860     		str	r0, [r5]
 521:../../iot_link/os/liteos/base/core/los_task.c ****     {
 1036              		.loc 2 521 0
 1037 001a 0028     		cmp	r0, #0
 1038 001c 3ED0     		beq	.L86
 526:../../iot_link/os/liteos/base/core/los_task.c ****     LOS_ListInit(&g_stTaskTimerList);
 1039              		.loc 2 526 0
 1040 001e 2246     		mov	r2, r4
 1041 0020 0021     		movs	r1, #0
 1042 0022 FFF7FEFF 		bl	memset
 1043              	.LVL93:
 1044              	.LBB61:
 1045              	.LBB62:
  82:../../iot_link/os/liteos/include/los_list.h ****     pstList->pstPrev = pstList;
 1046              		.loc 1 82 0
 1047 0026 214B     		ldr	r3, .L98+12
 1048              	.LBE62:
 1049              	.LBE61:
 1050              	.LBB64:
 1051              	.LBB65:
 1052 0028 214A     		ldr	r2, .L98+16
 1053              	.LBE65:
 1054              	.LBE64:
 1055              	.LBB67:
 1056              	.LBB63:
  83:../../iot_link/os/liteos/include/los_list.h **** }
 1057              		.loc 1 83 0
 1058 002a C3E90033 		strd	r3, r3, [r3]
 1059              	.LVL94:
 1060              	.LBE63:
 1061              	.LBE67:
 1062              	.LBB68:
 1063              	.LBB69:
  82:../../iot_link/os/liteos/include/los_list.h ****     pstList->pstPrev = pstList;
 1064              		.loc 1 82 0
 1065 002e 214B     		ldr	r3, .L98+20
 1066              	.LBE69:
 1067              	.LBE68:
 1068              	.LBB71:
 1069              	.LBB66:
  83:../../iot_link/os/liteos/include/los_list.h **** }
 1070              		.loc 1 83 0
 1071 0030 C2E90022 		strd	r2, r2, [r2]
ARM GAS  C:\Users\LuckyE\AppData\Local\Temp\ccK6ohhW.s 			page 38


 1072              	.LVL95:
 1073              	.LBE66:
 1074              	.LBE71:
 1075              	.LBB72:
 1076              	.LBB70:
 1077 0034 C3E90033 		strd	r3, r3, [r3]
 1078              	.LVL96:
 1079 0038 2B68     		ldr	r3, [r5]
 1080              	.LBE70:
 1081              	.LBE72:
 530:../../iot_link/os/liteos/base/core/los_task.c ****     {
 1082              		.loc 2 530 0
 1083 003a 0021     		movs	r1, #0
 1084 003c 2833     		adds	r3, r3, #40
 532:../../iot_link/os/liteos/base/core/los_task.c ****         g_pstTaskCBArray[uwIndex].uwTaskID = uwIndex;
 1085              		.loc 2 532 0
 1086 003e 0125     		movs	r5, #1
 1087              	.LVL97:
 1088              	.L87:
 534:../../iot_link/os/liteos/base/core/los_task.c ****     }
 1089              		.loc 2 534 0 discriminator 3
 1090 0040 1068     		ldr	r0, [r2]
 1091              	.LVL98:
 533:../../iot_link/os/liteos/base/core/los_task.c ****         LOS_ListTailInsert(&g_stLosFreeTask, &g_pstTaskCBArray[uwIndex].stPendList);
 1092              		.loc 2 533 0 discriminator 3
 1093 0042 43F8181C 		str	r1, [r3, #-24]
 1094              	.LBB73:
 1095              	.LBB74:
 1096              	.LBB75:
 131:../../iot_link/os/liteos/include/los_list.h ****     pstNode->pstPrev = pstList;
 1097              		.loc 1 131 0 discriminator 3
 1098 0046 4468     		ldr	r4, [r0, #4]
 1099              	.LBE75:
 1100              	.LBE74:
 1101              	.LBE73:
 532:../../iot_link/os/liteos/base/core/los_task.c ****         g_pstTaskCBArray[uwIndex].uwTaskID = uwIndex;
 1102              		.loc 2 532 0 discriminator 3
 1103 0048 23F8245C 		strh	r5, [r3, #-36]	@ movhi
 1104              	.LBB82:
 1105              	.LBB79:
 1106              	.LBB76:
 132:../../iot_link/os/liteos/include/los_list.h ****     pstList->pstNext->pstPrev = pstNode;
 1107              		.loc 1 132 0 discriminator 3
 1108 004c C3E90004 		strd	r0, r4, [r3]
 1109              	.LBE76:
 1110              	.LBE79:
 1111              	.LBE82:
 530:../../iot_link/os/liteos/base/core/los_task.c ****     {
 1112              		.loc 2 530 0 discriminator 3
 1113 0050 0131     		adds	r1, r1, #1
 1114              	.LVL99:
 1115              	.LBB83:
 1116              	.LBB80:
 1117              	.LBB77:
 133:../../iot_link/os/liteos/include/los_list.h ****     pstList->pstNext = pstNode;
 1118              		.loc 1 133 0 discriminator 3
 1119 0052 4468     		ldr	r4, [r0, #4]
ARM GAS  C:\Users\LuckyE\AppData\Local\Temp\ccK6ohhW.s 			page 39


 1120              	.LBE77:
 1121              	.LBE80:
 1122              	.LBE83:
 530:../../iot_link/os/liteos/base/core/los_task.c ****     {
 1123              		.loc 2 530 0 discriminator 3
 1124 0054 1029     		cmp	r1, #16
 1125              	.LBB84:
 1126              	.LBB81:
 1127              	.LBB78:
 133:../../iot_link/os/liteos/include/los_list.h ****     pstList->pstNext = pstNode;
 1128              		.loc 1 133 0 discriminator 3
 1129 0056 2360     		str	r3, [r4]
 134:../../iot_link/os/liteos/include/los_list.h **** }
 1130              		.loc 1 134 0 discriminator 3
 1131 0058 4360     		str	r3, [r0, #4]
 1132              	.LVL100:
 1133 005a 03F15403 		add	r3, r3, #84
 1134              	.LBE78:
 1135              	.LBE81:
 1136              	.LBE84:
 530:../../iot_link/os/liteos/base/core/los_task.c ****     {
 1137              		.loc 2 530 0 discriminator 3
 1138 005e EFD1     		bne	.L87
 537:../../iot_link/os/liteos/base/core/los_task.c **** 
 1139              		.loc 2 537 0
 1140 0060 154B     		ldr	r3, .L98+24
 1141 0062 0025     		movs	r5, #0
 1142 0064 C3E90055 		strd	r5, r5, [r3]
 545:../../iot_link/os/liteos/base/core/los_task.c ****     uwSize = sizeof(LOS_DL_LIST) * OS_TSK_SORTLINK_LEN;
 1143              		.loc 2 545 0
 1144 0068 FFF7FEFF 		bl	osPriqueueInit
 1145              	.LVL101:
 547:../../iot_link/os/liteos/base/core/los_task.c ****     if (NULL == pstListObject)
 1146              		.loc 2 547 0
 1147 006c 4FF48071 		mov	r1, #256
 1148 0070 3068     		ldr	r0, [r6]
 1149 0072 FFF7FEFF 		bl	LOS_MemAlloc
 1150              	.LVL102:
 548:../../iot_link/os/liteos/base/core/los_task.c ****     {
 1151              		.loc 2 548 0
 1152 0076 0446     		mov	r4, r0
 1153 0078 80B1     		cbz	r0, .L86
 553:../../iot_link/os/liteos/base/core/los_task.c ****     g_stTskSortLink.pstSortLink = pstListObject;
 1154              		.loc 2 553 0
 1155 007a 4FF48072 		mov	r2, #256
 1156 007e 2946     		mov	r1, r5
 1157 0080 FFF7FEFF 		bl	memset
 1158              	.LVL103:
 554:../../iot_link/os/liteos/base/core/los_task.c ****     g_stTskSortLink.usCursor = 0;
 1159              		.loc 2 554 0
 1160 0084 0D4B     		ldr	r3, .L98+28
 1161 0086 1C60     		str	r4, [r3]
 555:../../iot_link/os/liteos/base/core/los_task.c ****     for (uwIndex = 0; uwIndex < OS_TSK_SORTLINK_LEN; uwIndex++, pstListObject++)
 1162              		.loc 2 555 0
 1163 0088 9D80     		strh	r5, [r3, #4]	@ movhi
 1164              	.LVL104:
 1165 008a 04F58073 		add	r3, r4, #256
ARM GAS  C:\Users\LuckyE\AppData\Local\Temp\ccK6ohhW.s 			page 40


 1166              	.LVL105:
 1167              	.L88:
 1168              	.LBB85:
 1169              	.LBB86:
  83:../../iot_link/os/liteos/include/los_list.h **** }
 1170              		.loc 1 83 0
 1171 008e C4E90044 		strd	r4, r4, [r4]
 1172              	.LVL106:
 1173              	.LBE86:
 1174              	.LBE85:
 556:../../iot_link/os/liteos/base/core/los_task.c ****     {
 1175              		.loc 2 556 0
 1176 0092 0834     		adds	r4, r4, #8
 1177              	.LVL107:
 1178 0094 9C42     		cmp	r4, r3
 1179 0096 FAD1     		bne	.L88
 569:../../iot_link/os/liteos/base/core/los_task.c **** }
 1180              		.loc 2 569 0
 1181 0098 0020     		movs	r0, #0
 1182              	.LVL108:
 1183              	.L85:
 570:../../iot_link/os/liteos/base/core/los_task.c **** 
 1184              		.loc 2 570 0
 1185 009a 70BD     		pop	{r4, r5, r6, pc}
 1186              	.L86:
 523:../../iot_link/os/liteos/base/core/los_task.c ****     }
 1187              		.loc 2 523 0
 1188 009c 0848     		ldr	r0, .L98+32
 1189 009e FCE7     		b	.L85
 1190              	.L99:
 1191              		.align	2
 1192              	.L98:
 1193 00a0 00000000 		.word	g_uwTskMaxNum
 1194 00a4 00000000 		.word	m_aucSysMem0
 1195 00a8 00000000 		.word	g_pstTaskCBArray
 1196 00ac 00000000 		.word	g_stTaskTimerList
 1197 00b0 00000000 		.word	g_stLosFreeTask
 1198 00b4 00000000 		.word	g_stTskRecyleList
 1199 00b8 00000000 		.word	g_stLosTask
 1200 00bc 00000000 		.word	g_stTskSortLink
 1201 00c0 00020003 		.word	50332160
 1202              		.cfi_endproc
 1203              	.LFE295:
 1205              		.section	.text.LOS_CurTaskIDGet,"ax",%progbits
 1206              		.align	1
 1207              		.global	LOS_CurTaskIDGet
 1208              		.syntax unified
 1209              		.thumb
 1210              		.thumb_func
 1211              		.fpu fpv4-sp-d16
 1213              	LOS_CurTaskIDGet:
 1214              	.LFB297:
 618:../../iot_link/os/liteos/base/core/los_task.c ****     if (NULL == g_stLosTask.pstRunTask)
 1215              		.loc 2 618 0
 1216              		.cfi_startproc
 1217              		@ args = 0, pretend = 0, frame = 0
 1218              		@ frame_needed = 0, uses_anonymous_args = 0
ARM GAS  C:\Users\LuckyE\AppData\Local\Temp\ccK6ohhW.s 			page 41


 1219              		@ link register save eliminated.
 619:../../iot_link/os/liteos/base/core/los_task.c ****     {
 1220              		.loc 2 619 0
 1221 0000 034B     		ldr	r3, .L103
 1222 0002 1B68     		ldr	r3, [r3]
 1223 0004 0BB1     		cbz	r3, .L102
 623:../../iot_link/os/liteos/base/core/los_task.c **** }
 1224              		.loc 2 623 0
 1225 0006 1869     		ldr	r0, [r3, #16]
 1226 0008 7047     		bx	lr
 1227              	.L102:
 621:../../iot_link/os/liteos/base/core/los_task.c ****     }
 1228              		.loc 2 621 0
 1229 000a 0248     		ldr	r0, .L103+4
 624:../../iot_link/os/liteos/base/core/los_task.c **** 
 1230              		.loc 2 624 0
 1231 000c 7047     		bx	lr
 1232              	.L104:
 1233 000e 00BF     		.align	2
 1234              	.L103:
 1235 0010 00000000 		.word	g_stLosTask
 1236 0014 07020002 		.word	33554951
 1237              		.cfi_endproc
 1238              	.LFE297:
 1240              		.section	.text.LOS_NextTaskIDGet,"ax",%progbits
 1241              		.align	1
 1242              		.global	LOS_NextTaskIDGet
 1243              		.syntax unified
 1244              		.thumb
 1245              		.thumb_func
 1246              		.fpu fpv4-sp-d16
 1248              	LOS_NextTaskIDGet:
 1249              	.LFB298:
 634:../../iot_link/os/liteos/base/core/los_task.c ****     if (NULL == g_stLosTask.pstNewTask)
 1250              		.loc 2 634 0
 1251              		.cfi_startproc
 1252              		@ args = 0, pretend = 0, frame = 0
 1253              		@ frame_needed = 0, uses_anonymous_args = 0
 1254              		@ link register save eliminated.
 635:../../iot_link/os/liteos/base/core/los_task.c ****     {
 1255              		.loc 2 635 0
 1256 0000 034B     		ldr	r3, .L108
 1257 0002 5B68     		ldr	r3, [r3, #4]
 1258 0004 0BB1     		cbz	r3, .L107
 639:../../iot_link/os/liteos/base/core/los_task.c **** }
 1259              		.loc 2 639 0
 1260 0006 1869     		ldr	r0, [r3, #16]
 1261 0008 7047     		bx	lr
 1262              	.L107:
 637:../../iot_link/os/liteos/base/core/los_task.c ****     }
 1263              		.loc 2 637 0
 1264 000a 0248     		ldr	r0, .L108+4
 640:../../iot_link/os/liteos/base/core/los_task.c **** 
 1265              		.loc 2 640 0
 1266 000c 7047     		bx	lr
 1267              	.L109:
 1268 000e 00BF     		.align	2
ARM GAS  C:\Users\LuckyE\AppData\Local\Temp\ccK6ohhW.s 			page 42


 1269              	.L108:
 1270 0010 00000000 		.word	g_stLosTask
 1271 0014 07020002 		.word	33554951
 1272              		.cfi_endproc
 1273              	.LFE298:
 1275              		.section	.text.LOS_CurTaskNameGet,"ax",%progbits
 1276              		.align	1
 1277              		.global	LOS_CurTaskNameGet
 1278              		.syntax unified
 1279              		.thumb
 1280              		.thumb_func
 1281              		.fpu fpv4-sp-d16
 1283              	LOS_CurTaskNameGet:
 1284              	.LFB299:
 650:../../iot_link/os/liteos/base/core/los_task.c ****     CHAR *pcTaskName = NULL;
 1285              		.loc 2 650 0
 1286              		.cfi_startproc
 1287              		@ args = 0, pretend = 0, frame = 0
 1288              		@ frame_needed = 0, uses_anonymous_args = 0
 1289              		@ link register save eliminated.
 1290              	.LVL109:
 653:../../iot_link/os/liteos/base/core/los_task.c ****     {
 1291              		.loc 2 653 0
 1292 0000 024B     		ldr	r3, .L113
 1293 0002 1868     		ldr	r0, [r3]
 1294 0004 00B1     		cbz	r0, .L110
 655:../../iot_link/os/liteos/base/core/los_task.c ****     }
 1295              		.loc 2 655 0
 1296 0006 406A     		ldr	r0, [r0, #36]
 1297              	.LVL110:
 1298              	.L110:
 659:../../iot_link/os/liteos/base/core/los_task.c **** 
 1299              		.loc 2 659 0
 1300 0008 7047     		bx	lr
 1301              	.L114:
 1302 000a 00BF     		.align	2
 1303              	.L113:
 1304 000c 00000000 		.word	g_stLosTask
 1305              		.cfi_endproc
 1306              	.LFE299:
 1308              		.section	.text.osTaskMonInit,"ax",%progbits
 1309              		.align	1
 1310              		.global	osTaskMonInit
 1311              		.syntax unified
 1312              		.thumb
 1313              		.thumb_func
 1314              		.fpu fpv4-sp-d16
 1316              	osTaskMonInit:
 1317              	.LFB301:
 704:../../iot_link/os/liteos/base/core/los_task.c **** 
 705:../../iot_link/os/liteos/base/core/los_task.c **** LITE_OS_SEC_TEXT_MINOR VOID osTaskMonInit(VOID)
 706:../../iot_link/os/liteos/base/core/los_task.c **** {
 1318              		.loc 2 706 0
 1319              		.cfi_startproc
 1320              		@ args = 0, pretend = 0, frame = 0
 1321              		@ frame_needed = 0, uses_anonymous_args = 0
 1322 0000 08B5     		push	{r3, lr}
ARM GAS  C:\Users\LuckyE\AppData\Local\Temp\ccK6ohhW.s 			page 43


 1323              	.LCFI18:
 1324              		.cfi_def_cfa_offset 8
 1325              		.cfi_offset 3, -8
 1326              		.cfi_offset 14, -4
 707:../../iot_link/os/liteos/base/core/los_task.c **** #if (LOSCFG_BASE_CORE_EXC_TSK_SWITCH == YES)
 708:../../iot_link/os/liteos/base/core/los_task.c ****     (VOID)memset(&g_astTskSwitchInfo, 0, sizeof(OS_TASK_SWITCH_INFO));
 1327              		.loc 2 708 0
 1328 0002 084B     		ldr	r3, .L116
 1329 0004 4FF4AB72 		mov	r2, #342
 1330 0008 1846     		mov	r0, r3
 1331 000a 0021     		movs	r1, #0
 1332 000c FFF7FEFF 		bl	memset
 1333              	.LVL111:
 709:../../iot_link/os/liteos/base/core/los_task.c ****     g_astTskSwitchInfo.ucIsFull = 0x7F & OS_TASK_SWITCH_INFO_COUNT;
 1334              		.loc 2 709 0
 1335 0010 0A22     		movs	r2, #10
 710:../../iot_link/os/liteos/base/core/los_task.c **** #if ((LOSCFG_PLATFORM_EXC == YES) && (LOSCFG_SAVE_EXC_INFO == YES))
 711:../../iot_link/os/liteos/base/core/los_task.c ****     osExcRegister((EXC_INFO_TYPE)OS_EXC_TYPE_TSK_SWITCH, (EXC_INFO_SAVE_CALLBACK)LOS_TaskSwitchInfo
 712:../../iot_link/os/liteos/base/core/los_task.c **** #endif
 713:../../iot_link/os/liteos/base/core/los_task.c **** #endif
 714:../../iot_link/os/liteos/base/core/los_task.c ****     g_pfnTskSwitchHook = osTaskSwitchCheck;
 1336              		.loc 2 714 0
 1337 0012 054B     		ldr	r3, .L116+4
 709:../../iot_link/os/liteos/base/core/los_task.c ****     g_astTskSwitchInfo.ucIsFull = 0x7F & OS_TASK_SWITCH_INFO_COUNT;
 1338              		.loc 2 709 0
 1339 0014 4270     		strb	r2, [r0, #1]
 1340              		.loc 2 714 0
 1341 0016 054A     		ldr	r2, .L116+8
 1342 0018 1A60     		str	r2, [r3]
 715:../../iot_link/os/liteos/base/core/los_task.c ****     g_pfnUsrTskSwitchHook = (TSKSWITCHHOOK)NULL; /*lint !e611*/
 1343              		.loc 2 715 0
 1344 001a 054B     		ldr	r3, .L116+12
 1345 001c 0022     		movs	r2, #0
 1346 001e 1A60     		str	r2, [r3]
 716:../../iot_link/os/liteos/base/core/los_task.c ****     return ;
 717:../../iot_link/os/liteos/base/core/los_task.c **** }
 1347              		.loc 2 717 0
 1348 0020 08BD     		pop	{r3, pc}
 1349              	.L117:
 1350 0022 00BF     		.align	2
 1351              	.L116:
 1352 0024 00000000 		.word	g_astTskSwitchInfo
 1353 0028 00000000 		.word	.LANCHOR1
 1354 002c 00000000 		.word	osTaskSwitchCheck
 1355 0030 00000000 		.word	.LANCHOR0
 1356              		.cfi_endproc
 1357              	.LFE301:
 1359              		.section	.text.LOS_TaskCreateOnly,"ax",%progbits
 1360              		.align	1
 1361              		.global	LOS_TaskCreateOnly
 1362              		.syntax unified
 1363              		.thumb
 1364              		.thumb_func
 1365              		.fpu fpv4-sp-d16
 1367              	LOS_TaskCreateOnly:
 1368              	.LFB303:
 718:../../iot_link/os/liteos/base/core/los_task.c **** #endif
ARM GAS  C:\Users\LuckyE\AppData\Local\Temp\ccK6ohhW.s 			page 44


 719:../../iot_link/os/liteos/base/core/los_task.c **** 
 720:../../iot_link/os/liteos/base/core/los_task.c **** /*****************************************************************************
 721:../../iot_link/os/liteos/base/core/los_task.c ****  Function : osTaskEntry
 722:../../iot_link/os/liteos/base/core/los_task.c ****  Description : All task entry
 723:../../iot_link/os/liteos/base/core/los_task.c ****  Input       : uwTaskID     --- The ID of the task to be run
 724:../../iot_link/os/liteos/base/core/los_task.c ****  Output      : None
 725:../../iot_link/os/liteos/base/core/los_task.c ****  Return      : None
 726:../../iot_link/os/liteos/base/core/los_task.c ****  *****************************************************************************/
 727:../../iot_link/os/liteos/base/core/los_task.c **** LITE_OS_SEC_TEXT_INIT VOID osTaskEntry(UINT32 uwTaskID)
 728:../../iot_link/os/liteos/base/core/los_task.c **** {
 729:../../iot_link/os/liteos/base/core/los_task.c ****     LOS_TASK_CB *pstTaskCB;
 730:../../iot_link/os/liteos/base/core/los_task.c **** 
 731:../../iot_link/os/liteos/base/core/los_task.c ****     OS_TASK_ID_CHECK(uwTaskID);
 732:../../iot_link/os/liteos/base/core/los_task.c **** 
 733:../../iot_link/os/liteos/base/core/los_task.c ****     pstTaskCB = OS_TCB_FROM_TID(uwTaskID);
 734:../../iot_link/os/liteos/base/core/los_task.c **** 
 735:../../iot_link/os/liteos/base/core/los_task.c ****     (VOID)pstTaskCB->pfnTaskEntry(pstTaskCB->uwArg);
 736:../../iot_link/os/liteos/base/core/los_task.c **** 
 737:../../iot_link/os/liteos/base/core/los_task.c ****     (VOID)LOS_TaskDelete(pstTaskCB->uwTaskID);
 738:../../iot_link/os/liteos/base/core/los_task.c **** }
 739:../../iot_link/os/liteos/base/core/los_task.c **** 
 740:../../iot_link/os/liteos/base/core/los_task.c **** #if (LOSCFG_STATIC_TASK == YES)
 741:../../iot_link/os/liteos/base/core/los_task.c **** 
 742:../../iot_link/os/liteos/base/core/los_task.c **** /*****************************************************************************
 743:../../iot_link/os/liteos/base/core/los_task.c ****  Function    : LOS_StaticTaskInit
 744:../../iot_link/os/liteos/base/core/los_task.c ****  Description : Initialize a task defined statically.
 745:../../iot_link/os/liteos/base/core/los_task.c ****  Input       : pvTaskCB  --- task control block to be initialized
 746:../../iot_link/os/liteos/base/core/los_task.c ****  Output      : puwTaskID --- task ID allocated for this task
 747:../../iot_link/os/liteos/base/core/los_task.c ****  Return      : LOS_OK on success or error code on failure
 748:../../iot_link/os/liteos/base/core/los_task.c ****  *****************************************************************************/
 749:../../iot_link/os/liteos/base/core/los_task.c **** UINT32 LOS_StaticTaskInit(void *pvTaskCB, UINT32 *puwTaskID)
 750:../../iot_link/os/liteos/base/core/los_task.c **** {
 751:../../iot_link/os/liteos/base/core/los_task.c ****     static UINT32 uwTaskID = 0;
 752:../../iot_link/os/liteos/base/core/los_task.c ****     UINTPTR uvIntSave;
 753:../../iot_link/os/liteos/base/core/los_task.c ****     LOS_TASK_CB *pstTaskCB = (LOS_TASK_CB *)pvTaskCB;
 754:../../iot_link/os/liteos/base/core/los_task.c **** 
 755:../../iot_link/os/liteos/base/core/los_task.c ****     uvIntSave = LOS_IntLock();
 756:../../iot_link/os/liteos/base/core/los_task.c **** 
 757:../../iot_link/os/liteos/base/core/los_task.c ****     if (uwTaskID >= g_uwTskMaxNum)
 758:../../iot_link/os/liteos/base/core/los_task.c ****         {
 759:../../iot_link/os/liteos/base/core/los_task.c ****         LOS_IntRestore (uvIntSave);
 760:../../iot_link/os/liteos/base/core/los_task.c ****         return LOS_ERRNO_TSK_NO_MEMORY;
 761:../../iot_link/os/liteos/base/core/los_task.c ****         }
 762:../../iot_link/os/liteos/base/core/los_task.c **** 
 763:../../iot_link/os/liteos/base/core/los_task.c ****     pstTaskCB->uwTaskID = uwTaskID++;
 764:../../iot_link/os/liteos/base/core/los_task.c ****     LOS_IntRestore (uvIntSave);
 765:../../iot_link/os/liteos/base/core/los_task.c **** 
 766:../../iot_link/os/liteos/base/core/los_task.c ****     g_apstTaskCBArray[pstTaskCB->uwTaskID] = pstTaskCB;
 767:../../iot_link/os/liteos/base/core/los_task.c **** 
 768:../../iot_link/os/liteos/base/core/los_task.c ****     pstTaskCB->usTaskStatus = OS_TASK_STATUS_READY;
 769:../../iot_link/os/liteos/base/core/los_task.c **** 
 770:../../iot_link/os/liteos/base/core/los_task.c ****     pstTaskCB->uwTopOfStack = (UINT32) pstTaskCB->pStackPointer;
 771:../../iot_link/os/liteos/base/core/los_task.c **** 
 772:../../iot_link/os/liteos/base/core/los_task.c ****     osTskStackInit(pstTaskCB, NULL);
 773:../../iot_link/os/liteos/base/core/los_task.c **** 
 774:../../iot_link/os/liteos/base/core/los_task.c ****     osPriqueueEnqueue(&pstTaskCB->stPendList, pstTaskCB->usPriority);
 775:../../iot_link/os/liteos/base/core/los_task.c ****     g_stLosTask.pstNewTask = LOS_DL_LIST_ENTRY(osPriqueueTop(), LOS_TASK_CB, stPendList); /*lint !e
ARM GAS  C:\Users\LuckyE\AppData\Local\Temp\ccK6ohhW.s 			page 45


 776:../../iot_link/os/liteos/base/core/los_task.c **** 
 777:../../iot_link/os/liteos/base/core/los_task.c ****     *puwTaskID = pstTaskCB->uwTaskID;
 778:../../iot_link/os/liteos/base/core/los_task.c **** 
 779:../../iot_link/os/liteos/base/core/los_task.c ****     return LOS_OK;
 780:../../iot_link/os/liteos/base/core/los_task.c **** }
 781:../../iot_link/os/liteos/base/core/los_task.c **** 
 782:../../iot_link/os/liteos/base/core/los_task.c **** #else
 783:../../iot_link/os/liteos/base/core/los_task.c **** 
 784:../../iot_link/os/liteos/base/core/los_task.c **** /*****************************************************************************
 785:../../iot_link/os/liteos/base/core/los_task.c ****  Function : LOS_TaskCreateOnly
 786:../../iot_link/os/liteos/base/core/los_task.c ****  Description : Create a task and suspend
 787:../../iot_link/os/liteos/base/core/los_task.c ****  Input       : pstInitParam --- Task init parameters
 788:../../iot_link/os/liteos/base/core/los_task.c ****  Output      : puwTaskID    --- Save task ID
 789:../../iot_link/os/liteos/base/core/los_task.c ****  Return      : LOS_OK on success or error code on failure
 790:../../iot_link/os/liteos/base/core/los_task.c ****  *****************************************************************************/
 791:../../iot_link/os/liteos/base/core/los_task.c **** LITE_OS_SEC_TEXT_INIT UINT32 LOS_TaskCreateOnly(UINT32 *puwTaskID, TSK_INIT_PARAM_S *pstInitParam)
 792:../../iot_link/os/liteos/base/core/los_task.c **** {
 1369              		.loc 2 792 0
 1370              		.cfi_startproc
 1371              		@ args = 0, pretend = 0, frame = 0
 1372              		@ frame_needed = 0, uses_anonymous_args = 0
 1373              	.LVL112:
 1374 0000 2DE9F047 		push	{r4, r5, r6, r7, r8, r9, r10, lr}
 1375              	.LCFI19:
 1376              		.cfi_def_cfa_offset 32
 1377              		.cfi_offset 4, -32
 1378              		.cfi_offset 5, -28
 1379              		.cfi_offset 6, -24
 1380              		.cfi_offset 7, -20
 1381              		.cfi_offset 8, -16
 1382              		.cfi_offset 9, -12
 1383              		.cfi_offset 10, -8
 1384              		.cfi_offset 14, -4
 1385              		.loc 2 792 0
 1386 0004 0E46     		mov	r6, r1
 793:../../iot_link/os/liteos/base/core/los_task.c ****     UINT32 uwTaskID = 0;
 794:../../iot_link/os/liteos/base/core/los_task.c ****     UINTPTR uvIntSave;
 795:../../iot_link/os/liteos/base/core/los_task.c ****     VOID  *pTopStack;
 796:../../iot_link/os/liteos/base/core/los_task.c ****     LOS_TASK_CB *pstTaskCB;
 797:../../iot_link/os/liteos/base/core/los_task.c ****     UINT32 uwErrRet = OS_ERROR;
 798:../../iot_link/os/liteos/base/core/los_task.c **** 
 799:../../iot_link/os/liteos/base/core/los_task.c ****     if (NULL == puwTaskID)
 1387              		.loc 2 799 0
 1388 0006 8046     		mov	r8, r0
 1389 0008 0028     		cmp	r0, #0
 1390 000a 7FD0     		beq	.L126
 800:../../iot_link/os/liteos/base/core/los_task.c ****     {
 801:../../iot_link/os/liteos/base/core/los_task.c ****         return LOS_ERRNO_TSK_ID_INVALID;
 802:../../iot_link/os/liteos/base/core/los_task.c ****     }
 803:../../iot_link/os/liteos/base/core/los_task.c **** 
 804:../../iot_link/os/liteos/base/core/los_task.c ****     if (NULL == pstInitParam)
 1391              		.loc 2 804 0
 1392 000c 0029     		cmp	r1, #0
 1393 000e 7FD0     		beq	.L127
 805:../../iot_link/os/liteos/base/core/los_task.c ****     {
 806:../../iot_link/os/liteos/base/core/los_task.c ****         return LOS_ERRNO_TSK_PTR_NULL;
 807:../../iot_link/os/liteos/base/core/los_task.c ****     }
ARM GAS  C:\Users\LuckyE\AppData\Local\Temp\ccK6ohhW.s 			page 46


 808:../../iot_link/os/liteos/base/core/los_task.c **** 
 809:../../iot_link/os/liteos/base/core/los_task.c ****     if (NULL == pstInitParam->pcName)
 1394              		.loc 2 809 0
 1395 0010 0B69     		ldr	r3, [r1, #16]
 1396 0012 002B     		cmp	r3, #0
 1397 0014 7ED0     		beq	.L128
 810:../../iot_link/os/liteos/base/core/los_task.c ****     {
 811:../../iot_link/os/liteos/base/core/los_task.c ****         return LOS_ERRNO_TSK_NAME_EMPTY;
 812:../../iot_link/os/liteos/base/core/los_task.c ****     }
 813:../../iot_link/os/liteos/base/core/los_task.c **** 
 814:../../iot_link/os/liteos/base/core/los_task.c ****     if (NULL == pstInitParam->pfnTaskEntry)
 1398              		.loc 2 814 0
 1399 0016 0B68     		ldr	r3, [r1]
 1400 0018 002B     		cmp	r3, #0
 1401 001a 7DD0     		beq	.L129
 815:../../iot_link/os/liteos/base/core/los_task.c ****     {
 816:../../iot_link/os/liteos/base/core/los_task.c ****         return LOS_ERRNO_TSK_ENTRY_NULL;
 817:../../iot_link/os/liteos/base/core/los_task.c ****     }
 818:../../iot_link/os/liteos/base/core/los_task.c **** 
 819:../../iot_link/os/liteos/base/core/los_task.c ****     if ((pstInitParam->usTaskPrio) > OS_TASK_PRIORITY_LOWEST)
 1402              		.loc 2 819 0
 1403 001c 8A88     		ldrh	r2, [r1, #4]
 1404 001e 1F2A     		cmp	r2, #31
 1405 0020 7CD8     		bhi	.L131
 820:../../iot_link/os/liteos/base/core/los_task.c ****     {
 821:../../iot_link/os/liteos/base/core/los_task.c ****         return LOS_ERRNO_TSK_PRIOR_ERROR;
 822:../../iot_link/os/liteos/base/core/los_task.c ****     }
 823:../../iot_link/os/liteos/base/core/los_task.c **** 
 824:../../iot_link/os/liteos/base/core/los_task.c ****     if (((pstInitParam->usTaskPrio) == OS_TASK_PRIORITY_LOWEST)
 1406              		.loc 2 824 0
 1407 0022 02D1     		bne	.L120
 825:../../iot_link/os/liteos/base/core/los_task.c ****         && (pstInitParam->pfnTaskEntry != OS_IDLE_TASK_ENTRY))
 1408              		.loc 2 825 0
 1409 0024 3F4A     		ldr	r2, .L134
 1410 0026 9342     		cmp	r3, r2
 1411 0028 78D1     		bne	.L131
 1412              	.L120:
 826:../../iot_link/os/liteos/base/core/los_task.c ****     {
 827:../../iot_link/os/liteos/base/core/los_task.c ****         return LOS_ERRNO_TSK_PRIOR_ERROR;
 828:../../iot_link/os/liteos/base/core/los_task.c ****     }
 829:../../iot_link/os/liteos/base/core/los_task.c **** 
 830:../../iot_link/os/liteos/base/core/los_task.c ****     if (0 == pstInitParam->uwStackSize)
 1413              		.loc 2 830 0
 1414 002a F368     		ldr	r3, [r6, #12]
 1415 002c 13B9     		cbnz	r3, .L121
 831:../../iot_link/os/liteos/base/core/los_task.c ****     {
 832:../../iot_link/os/liteos/base/core/los_task.c ****         pstInitParam->uwStackSize = LOSCFG_BASE_CORE_TSK_DEFAULT_STACK_SIZE;
 1416              		.loc 2 832 0
 1417 002e 4FF43473 		mov	r3, #720
 1418 0032 F360     		str	r3, [r6, #12]
 1419              	.L121:
 833:../../iot_link/os/liteos/base/core/los_task.c ****     }
 834:../../iot_link/os/liteos/base/core/los_task.c ****     pstInitParam->uwStackSize = ALIGN(pstInitParam->uwStackSize , LOSCFG_STACK_POINT_ALIGN_SIZE);
 1420              		.loc 2 834 0
 1421 0034 0821     		movs	r1, #8
 1422              	.LVL113:
 1423 0036 F068     		ldr	r0, [r6, #12]
ARM GAS  C:\Users\LuckyE\AppData\Local\Temp\ccK6ohhW.s 			page 47


 1424              	.LVL114:
 1425 0038 FFF7FEFF 		bl	LOS_Align
 1426              	.LVL115:
 835:../../iot_link/os/liteos/base/core/los_task.c **** 
 836:../../iot_link/os/liteos/base/core/los_task.c ****     if (pstInitParam->uwStackSize < LOSCFG_BASE_CORE_TSK_MIN_STACK_SIZE)
 1427              		.loc 2 836 0
 1428 003c B0F5987F 		cmp	r0, #304
 834:../../iot_link/os/liteos/base/core/los_task.c **** 
 1429              		.loc 2 834 0
 1430 0040 F060     		str	r0, [r6, #12]
 1431              		.loc 2 836 0
 1432 0042 6DD3     		bcc	.L132
 1433              	.LVL116:
 1434              	.LBB97:
 1435              	.LBB98:
 837:../../iot_link/os/liteos/base/core/los_task.c ****     {
 838:../../iot_link/os/liteos/base/core/los_task.c ****         return LOS_ERRNO_TSK_STKSZ_TOO_SMALL;
 839:../../iot_link/os/liteos/base/core/los_task.c ****     }
 840:../../iot_link/os/liteos/base/core/los_task.c **** 
 841:../../iot_link/os/liteos/base/core/los_task.c ****     uvIntSave = LOS_IntLock();
 1436              		.loc 2 841 0
 1437 0044 FFF7FEFF 		bl	LOS_IntLock
 1438              	.LVL117:
 1439              	.LBB99:
 1440              	.LBB100:
 190:../../iot_link/os/liteos/include/los_list.h **** 
 191:../../iot_link/os/liteos/include/los_list.h **** /**
 192:../../iot_link/os/liteos/include/los_list.h ****  *@ingroup los_list
 193:../../iot_link/os/liteos/include/los_list.h ****  *@brief Identify whether a specified doubly linked list is empty.
 194:../../iot_link/os/liteos/include/los_list.h ****  *
 195:../../iot_link/os/liteos/include/los_list.h ****  *@par Description:
 196:../../iot_link/os/liteos/include/los_list.h ****  *<ul>
 197:../../iot_link/os/liteos/include/los_list.h ****  *<li>This API is used to return whether a doubly linked list is empty.</li>
 198:../../iot_link/os/liteos/include/los_list.h ****  *</ul>
 199:../../iot_link/os/liteos/include/los_list.h ****  *@attention
 200:../../iot_link/os/liteos/include/los_list.h ****  *<ul>
 201:../../iot_link/os/liteos/include/los_list.h ****  *<li>The parameter passed in should be ensured to be a legal pointer.</li>
 202:../../iot_link/os/liteos/include/los_list.h ****  *</ul>
 203:../../iot_link/os/liteos/include/los_list.h ****  *
 204:../../iot_link/os/liteos/include/los_list.h ****  *@param pstList  [IN] Doubly linked list.
 205:../../iot_link/os/liteos/include/los_list.h ****  *
 206:../../iot_link/os/liteos/include/los_list.h ****  *@retval TRUE The doubly linked list is empty.
 207:../../iot_link/os/liteos/include/los_list.h ****  *@retval FALSE The doubly linked list is not empty.
 208:../../iot_link/os/liteos/include/los_list.h ****  *@par Dependency:
 209:../../iot_link/os/liteos/include/los_list.h ****  *<ul><li>los_list.h: the header file that contains the API declaration.</li></ul>
 210:../../iot_link/os/liteos/include/los_list.h ****  *@see
 211:../../iot_link/os/liteos/include/los_list.h ****  *@since Huawei LiteOS V100R001C00
 212:../../iot_link/os/liteos/include/los_list.h ****  */
 213:../../iot_link/os/liteos/include/los_list.h **** LITE_OS_SEC_ALW_INLINE STATIC_INLINE BOOL LOS_ListEmpty(LOS_DL_LIST *pstNode)
 214:../../iot_link/os/liteos/include/los_list.h **** {
 215:../../iot_link/os/liteos/include/los_list.h ****     return (BOOL)(pstNode->pstNext == pstNode);
 1441              		.loc 1 215 0
 1442 0048 DFF80091 		ldr	r9, .L134+40
 1443 004c 364D     		ldr	r5, .L134+4
 1444              	.LBE100:
 1445              	.LBE99:
 842:../../iot_link/os/liteos/base/core/los_task.c ****     while (!LOS_ListEmpty(&g_stTskRecyleList))
ARM GAS  C:\Users\LuckyE\AppData\Local\Temp\ccK6ohhW.s 			page 48


 843:../../iot_link/os/liteos/base/core/los_task.c ****     {
 844:../../iot_link/os/liteos/base/core/los_task.c ****         pstTaskCB = OS_TCB_FROM_PENDLIST(LOS_DL_LIST_FIRST(&g_stTskRecyleList)); /*lint !e413*/
 845:../../iot_link/os/liteos/base/core/los_task.c ****         LOS_ListDelete(LOS_DL_LIST_FIRST(&g_stTskRecyleList));
 846:../../iot_link/os/liteos/base/core/los_task.c ****         LOS_ListAdd(&g_stLosFreeTask, &pstTaskCB->stPendList);
 847:../../iot_link/os/liteos/base/core/los_task.c ****         (VOID)LOS_MemFree(OS_TASK_STACK_ADDR, (VOID *)pstTaskCB->uwTopOfStack);
 1446              		.loc 2 847 0
 1447 004e DFF800A1 		ldr	r10, .L134+44
 841:../../iot_link/os/liteos/base/core/los_task.c ****     while (!LOS_ListEmpty(&g_stTskRecyleList))
 1448              		.loc 2 841 0
 1449 0052 0746     		mov	r7, r0
 1450              	.LVL118:
 1451              	.L122:
 1452              	.LBB102:
 1453              	.LBB101:
 1454              		.loc 1 215 0
 1455 0054 D9F80440 		ldr	r4, [r9, #4]
 1456              	.LVL119:
 1457              	.LBE101:
 1458              	.LBE102:
 842:../../iot_link/os/liteos/base/core/los_task.c ****     while (!LOS_ListEmpty(&g_stTskRecyleList))
 1459              		.loc 2 842 0
 1460 0058 4C45     		cmp	r4, r9
 1461 005a 1CD1     		bne	.L123
 1462              	.LVL120:
 1463              	.LBB103:
 1464              	.LBB104:
 1465              		.loc 1 215 0
 1466 005c 6C68     		ldr	r4, [r5, #4]
 1467              	.LVL121:
 1468              	.LBE104:
 1469              	.LBE103:
 848:../../iot_link/os/liteos/base/core/los_task.c ****         pstTaskCB->uwTopOfStack = (UINT32)NULL;
 849:../../iot_link/os/liteos/base/core/los_task.c ****     }
 850:../../iot_link/os/liteos/base/core/los_task.c **** 
 851:../../iot_link/os/liteos/base/core/los_task.c ****     if (LOS_ListEmpty(&g_stLosFreeTask))
 1470              		.loc 2 851 0
 1471 005e AC42     		cmp	r4, r5
 1472 0060 52D0     		beq	.L133
 1473              	.LVL122:
 852:../../iot_link/os/liteos/base/core/los_task.c ****     {
 853:../../iot_link/os/liteos/base/core/los_task.c ****         uwErrRet = LOS_ERRNO_TSK_TCB_UNAVAILABLE;
 854:../../iot_link/os/liteos/base/core/los_task.c ****         OS_GOTO_ERREND();
 855:../../iot_link/os/liteos/base/core/los_task.c ****     }
 856:../../iot_link/os/liteos/base/core/los_task.c **** 
 857:../../iot_link/os/liteos/base/core/los_task.c ****     pstTaskCB = OS_TCB_FROM_PENDLIST(LOS_DL_LIST_FIRST(&g_stLosFreeTask)); /*lint !e413*/
 858:../../iot_link/os/liteos/base/core/los_task.c ****     LOS_ListDelete(LOS_DL_LIST_FIRST(&g_stLosFreeTask));
 1474              		.loc 2 858 0
 1475 0062 2046     		mov	r0, r4
 1476 0064 FFF7FEFF 		bl	LOS_ListDelete
 1477              	.LVL123:
 859:../../iot_link/os/liteos/base/core/los_task.c ****     (VOID)LOS_IntRestore(uvIntSave);
 1478              		.loc 2 859 0
 1479 0068 3846     		mov	r0, r7
 1480 006a FFF7FEFF 		bl	LOS_IntRestore
 1481              	.LVL124:
 860:../../iot_link/os/liteos/base/core/los_task.c ****     uwTaskID = pstTaskCB->uwTaskID;
 861:../../iot_link/os/liteos/base/core/los_task.c **** 
ARM GAS  C:\Users\LuckyE\AppData\Local\Temp\ccK6ohhW.s 			page 49


 862:../../iot_link/os/liteos/base/core/los_task.c ****     extern VOID *osTskStackAlloc (TSK_INIT_PARAM_S *pstInitParam);
 863:../../iot_link/os/liteos/base/core/los_task.c ****     pTopStack = (VOID *)osTskStackAlloc(pstInitParam);
 1482              		.loc 2 863 0
 1483 006e 3046     		mov	r0, r6
 860:../../iot_link/os/liteos/base/core/los_task.c ****     uwTaskID = pstTaskCB->uwTaskID;
 1484              		.loc 2 860 0
 1485 0070 54F8187C 		ldr	r7, [r4, #-24]
 1486              	.LVL125:
 1487              		.loc 2 863 0
 1488 0074 FFF7FEFF 		bl	osTskStackAlloc
 1489              	.LVL126:
 864:../../iot_link/os/liteos/base/core/los_task.c **** 
 865:../../iot_link/os/liteos/base/core/los_task.c ****     if (NULL == pTopStack)
 1490              		.loc 2 865 0
 1491 0078 00BB     		cbnz	r0, .L125
 866:../../iot_link/os/liteos/base/core/los_task.c ****     {
 867:../../iot_link/os/liteos/base/core/los_task.c ****         uvIntSave = LOS_IntLock();
 1492              		.loc 2 867 0
 1493 007a FFF7FEFF 		bl	LOS_IntLock
 1494              	.LVL127:
 1495              	.LBB105:
 1496              	.LBB106:
 131:../../iot_link/os/liteos/include/los_list.h ****     pstNode->pstPrev = pstList;
 1497              		.loc 1 131 0
 1498 007e 6B68     		ldr	r3, [r5, #4]
 132:../../iot_link/os/liteos/include/los_list.h ****     pstList->pstNext->pstPrev = pstNode;
 1499              		.loc 1 132 0
 1500 0080 C4E90053 		strd	r5, r3, [r4]
 133:../../iot_link/os/liteos/include/los_list.h ****     pstList->pstNext = pstNode;
 1501              		.loc 1 133 0
 1502 0084 6B68     		ldr	r3, [r5, #4]
 1503 0086 1C60     		str	r4, [r3]
 134:../../iot_link/os/liteos/include/los_list.h **** }
 1504              		.loc 1 134 0
 1505 0088 6C60     		str	r4, [r5, #4]
 1506              	.LBE106:
 1507              	.LBE105:
 868:../../iot_link/os/liteos/base/core/los_task.c ****         LOS_ListAdd(&g_stLosFreeTask, &pstTaskCB->stPendList);
 869:../../iot_link/os/liteos/base/core/los_task.c ****         uwErrRet = LOS_ERRNO_TSK_NO_MEMORY;
 1508              		.loc 2 869 0
 1509 008a 284D     		ldr	r5, .L134+8
 867:../../iot_link/os/liteos/base/core/los_task.c ****         LOS_ListAdd(&g_stLosFreeTask, &pstTaskCB->stPendList);
 1510              		.loc 2 867 0
 1511 008c 0746     		mov	r7, r0
 1512              	.LVL128:
 1513              	.L124:
 870:../../iot_link/os/liteos/base/core/los_task.c ****         OS_GOTO_ERREND();
 871:../../iot_link/os/liteos/base/core/los_task.c ****     }
 872:../../iot_link/os/liteos/base/core/los_task.c **** 
 873:../../iot_link/os/liteos/base/core/los_task.c ****     pstTaskCB->uwArg             = pstInitParam->uwArg;
 874:../../iot_link/os/liteos/base/core/los_task.c ****     pstTaskCB->uwTopOfStack      = (UINT32)pTopStack;
 875:../../iot_link/os/liteos/base/core/los_task.c ****     pstTaskCB->uwStackSize       = pstInitParam->uwStackSize;
 876:../../iot_link/os/liteos/base/core/los_task.c ****     pstTaskCB->pTaskSem          = NULL;
 877:../../iot_link/os/liteos/base/core/los_task.c ****     pstTaskCB->pTaskMux          = NULL;
 878:../../iot_link/os/liteos/base/core/los_task.c ****     pstTaskCB->usTaskStatus      = OS_TASK_STATUS_SUSPEND;
 879:../../iot_link/os/liteos/base/core/los_task.c ****     pstTaskCB->usPriority        = pstInitParam->usTaskPrio;
 880:../../iot_link/os/liteos/base/core/los_task.c ****     pstTaskCB->pfnTaskEntry      = pstInitParam->pfnTaskEntry;
ARM GAS  C:\Users\LuckyE\AppData\Local\Temp\ccK6ohhW.s 			page 50


 881:../../iot_link/os/liteos/base/core/los_task.c ****     pstTaskCB->uwEvent.uwEventID = 0xFFFFFFFF;
 882:../../iot_link/os/liteos/base/core/los_task.c ****     pstTaskCB->uwEventMask       = 0;
 883:../../iot_link/os/liteos/base/core/los_task.c ****     pstTaskCB->pcTaskName        = pstInitParam->pcName;
 884:../../iot_link/os/liteos/base/core/los_task.c ****     pstTaskCB->puwMsg = NULL;
 885:../../iot_link/os/liteos/base/core/los_task.c **** 
 886:../../iot_link/os/liteos/base/core/los_task.c ****     osTskStackInit(pstTaskCB, pstInitParam);
 887:../../iot_link/os/liteos/base/core/los_task.c **** 
 888:../../iot_link/os/liteos/base/core/los_task.c **** #if (LOSCFG_LIB_LIBC_NEWLIB_REENT == YES)
 889:../../iot_link/os/liteos/base/core/los_task.c ****     /* Initialise this task's Newlib reent structure. */
 890:../../iot_link/os/liteos/base/core/los_task.c ****     _REENT_INIT_PTR(&(pstTaskCB->stNewLibReent));
 891:../../iot_link/os/liteos/base/core/los_task.c **** #endif
 892:../../iot_link/os/liteos/base/core/los_task.c **** 
 893:../../iot_link/os/liteos/base/core/los_task.c ****     *puwTaskID = uwTaskID;
 894:../../iot_link/os/liteos/base/core/los_task.c ****     return LOS_OK;
 895:../../iot_link/os/liteos/base/core/los_task.c **** 
 896:../../iot_link/os/liteos/base/core/los_task.c **** LOS_ERREND:
 897:../../iot_link/os/liteos/base/core/los_task.c ****     (VOID)LOS_IntRestore(uvIntSave);
 1514              		.loc 2 897 0
 1515 008e 3846     		mov	r0, r7
 1516 0090 FFF7FEFF 		bl	LOS_IntRestore
 1517              	.LVL129:
 1518 0094 35E0     		b	.L118
 1519              	.LVL130:
 1520              	.L123:
 845:../../iot_link/os/liteos/base/core/los_task.c ****         LOS_ListAdd(&g_stLosFreeTask, &pstTaskCB->stPendList);
 1521              		.loc 2 845 0
 1522 0096 2046     		mov	r0, r4
 1523 0098 FFF7FEFF 		bl	LOS_ListDelete
 1524              	.LVL131:
 1525              	.LBB107:
 1526              	.LBB108:
 131:../../iot_link/os/liteos/include/los_list.h ****     pstNode->pstPrev = pstList;
 1527              		.loc 1 131 0
 1528 009c 6B68     		ldr	r3, [r5, #4]
 1529              	.LBE108:
 1530              	.LBE107:
 847:../../iot_link/os/liteos/base/core/los_task.c ****         pstTaskCB->uwTopOfStack = (UINT32)NULL;
 1531              		.loc 2 847 0
 1532 009e 54F81C1C 		ldr	r1, [r4, #-28]
 1533 00a2 DAF80000 		ldr	r0, [r10]
 1534              	.LBB110:
 1535              	.LBB109:
 132:../../iot_link/os/liteos/include/los_list.h ****     pstList->pstNext->pstPrev = pstNode;
 1536              		.loc 1 132 0
 1537 00a6 C4E90053 		strd	r5, r3, [r4]
 133:../../iot_link/os/liteos/include/los_list.h ****     pstList->pstNext = pstNode;
 1538              		.loc 1 133 0
 1539 00aa 6B68     		ldr	r3, [r5, #4]
 1540 00ac 1C60     		str	r4, [r3]
 134:../../iot_link/os/liteos/include/los_list.h **** }
 1541              		.loc 1 134 0
 1542 00ae 6C60     		str	r4, [r5, #4]
 1543              	.LVL132:
 1544              	.LBE109:
 1545              	.LBE110:
 847:../../iot_link/os/liteos/base/core/los_task.c ****         pstTaskCB->uwTopOfStack = (UINT32)NULL;
 1546              		.loc 2 847 0
ARM GAS  C:\Users\LuckyE\AppData\Local\Temp\ccK6ohhW.s 			page 51


 1547 00b0 FFF7FEFF 		bl	LOS_MemFree
 1548              	.LVL133:
 848:../../iot_link/os/liteos/base/core/los_task.c ****     }
 1549              		.loc 2 848 0
 1550 00b4 0023     		movs	r3, #0
 1551 00b6 44F81C3C 		str	r3, [r4, #-28]
 1552 00ba CBE7     		b	.L122
 1553              	.LVL134:
 1554              	.L125:
 873:../../iot_link/os/liteos/base/core/los_task.c ****     pstTaskCB->uwTopOfStack      = (UINT32)pTopStack;
 1555              		.loc 2 873 0
 1556 00bc B368     		ldr	r3, [r6, #8]
 1557 00be 44F8083C 		str	r3, [r4, #-8]
 875:../../iot_link/os/liteos/base/core/los_task.c ****     pstTaskCB->pTaskSem          = NULL;
 1558              		.loc 2 875 0
 1559 00c2 F368     		ldr	r3, [r6, #12]
 1560 00c4 44F8203C 		str	r3, [r4, #-32]
 878:../../iot_link/os/liteos/base/core/los_task.c ****     pstTaskCB->usPriority        = pstInitParam->usTaskPrio;
 1561              		.loc 2 878 0
 1562 00c8 0223     		movs	r3, #2
 1563 00ca 24F8243C 		strh	r3, [r4, #-36]	@ movhi
 879:../../iot_link/os/liteos/base/core/los_task.c ****     pstTaskCB->pfnTaskEntry      = pstInitParam->pfnTaskEntry;
 1564              		.loc 2 879 0
 1565 00ce B388     		ldrh	r3, [r6, #4]
 1566 00d0 24F8223C 		strh	r3, [r4, #-34]	@ movhi
 880:../../iot_link/os/liteos/base/core/los_task.c ****     pstTaskCB->uwEvent.uwEventID = 0xFFFFFFFF;
 1567              		.loc 2 880 0
 1568 00d4 3368     		ldr	r3, [r6]
 1569 00d6 44F8143C 		str	r3, [r4, #-20]
 881:../../iot_link/os/liteos/base/core/los_task.c ****     pstTaskCB->uwEventMask       = 0;
 1570              		.loc 2 881 0
 1571 00da 4FF0FF33 		mov	r3, #-1
 876:../../iot_link/os/liteos/base/core/los_task.c ****     pstTaskCB->pTaskMux          = NULL;
 1572              		.loc 2 876 0
 1573 00de 0025     		movs	r5, #0
 881:../../iot_link/os/liteos/base/core/los_task.c ****     pstTaskCB->uwEventMask       = 0;
 1574              		.loc 2 881 0
 1575 00e0 6361     		str	r3, [r4, #20]
 883:../../iot_link/os/liteos/base/core/los_task.c ****     pstTaskCB->puwMsg = NULL;
 1576              		.loc 2 883 0
 1577 00e2 3369     		ldr	r3, [r6, #16]
 874:../../iot_link/os/liteos/base/core/los_task.c ****     pstTaskCB->uwStackSize       = pstInitParam->uwStackSize;
 1578              		.loc 2 874 0
 1579 00e4 44F81C0C 		str	r0, [r4, #-28]
 877:../../iot_link/os/liteos/base/core/los_task.c ****     pstTaskCB->usTaskStatus      = OS_TASK_STATUS_SUSPEND;
 1580              		.loc 2 877 0
 1581 00e8 44E90455 		strd	r5, r5, [r4, #-16]
 882:../../iot_link/os/liteos/base/core/los_task.c ****     pstTaskCB->pcTaskName        = pstInitParam->pcName;
 1582              		.loc 2 882 0
 1583 00ec 2562     		str	r5, [r4, #32]
 883:../../iot_link/os/liteos/base/core/los_task.c ****     pstTaskCB->puwMsg = NULL;
 1584              		.loc 2 883 0
 1585 00ee 44F8043C 		str	r3, [r4, #-4]
 884:../../iot_link/os/liteos/base/core/los_task.c **** 
 1586              		.loc 2 884 0
 1587 00f2 A562     		str	r5, [r4, #40]
 886:../../iot_link/os/liteos/base/core/los_task.c **** 
ARM GAS  C:\Users\LuckyE\AppData\Local\Temp\ccK6ohhW.s 			page 52


 1588              		.loc 2 886 0
 1589 00f4 3146     		mov	r1, r6
 1590 00f6 A4F12800 		sub	r0, r4, #40
 1591              	.LVL135:
 1592 00fa FFF7FEFF 		bl	osTskStackInit
 1593              	.LVL136:
 893:../../iot_link/os/liteos/base/core/los_task.c ****     return LOS_OK;
 1594              		.loc 2 893 0
 1595 00fe C8F80070 		str	r7, [r8]
 1596              	.LVL137:
 1597              	.L118:
 1598              	.LBE98:
 1599              	.LBE97:
 898:../../iot_link/os/liteos/base/core/los_task.c ****     return uwErrRet;
 899:../../iot_link/os/liteos/base/core/los_task.c **** }
 1600              		.loc 2 899 0
 1601 0102 2846     		mov	r0, r5
 1602 0104 BDE8F087 		pop	{r4, r5, r6, r7, r8, r9, r10, pc}
 1603              	.LVL138:
 1604              	.L133:
 1605              	.LBB112:
 1606              	.LBB111:
 853:../../iot_link/os/liteos/base/core/los_task.c ****         OS_GOTO_ERREND();
 1607              		.loc 2 853 0
 1608 0108 094D     		ldr	r5, .L134+12
 1609 010a C0E7     		b	.L124
 1610              	.LVL139:
 1611              	.L126:
 1612              	.LBE111:
 1613              	.LBE112:
 801:../../iot_link/os/liteos/base/core/los_task.c ****     }
 1614              		.loc 2 801 0
 1615 010c 094D     		ldr	r5, .L134+16
 1616 010e F8E7     		b	.L118
 1617              	.L127:
 806:../../iot_link/os/liteos/base/core/los_task.c ****     }
 1618              		.loc 2 806 0
 1619 0110 094D     		ldr	r5, .L134+20
 1620 0112 F6E7     		b	.L118
 1621              	.L128:
 811:../../iot_link/os/liteos/base/core/los_task.c ****     }
 1622              		.loc 2 811 0
 1623 0114 094D     		ldr	r5, .L134+24
 1624 0116 F4E7     		b	.L118
 1625              	.L129:
 816:../../iot_link/os/liteos/base/core/los_task.c ****     }
 1626              		.loc 2 816 0
 1627 0118 094D     		ldr	r5, .L134+28
 1628 011a F2E7     		b	.L118
 1629              	.L131:
 821:../../iot_link/os/liteos/base/core/los_task.c ****     }
 1630              		.loc 2 821 0
 1631 011c 094D     		ldr	r5, .L134+32
 1632 011e F0E7     		b	.L118
 1633              	.LVL140:
 1634              	.L132:
 838:../../iot_link/os/liteos/base/core/los_task.c ****     }
ARM GAS  C:\Users\LuckyE\AppData\Local\Temp\ccK6ohhW.s 			page 53


 1635              		.loc 2 838 0
 1636 0120 094D     		ldr	r5, .L134+36
 1637 0122 EEE7     		b	.L118
 1638              	.L135:
 1639              		.align	2
 1640              	.L134:
 1641 0124 00000000 		.word	osIdleTask
 1642 0128 00000000 		.word	g_stLosFreeTask
 1643 012c 00020003 		.word	50332160
 1644 0130 11020002 		.word	33554961
 1645 0134 07020002 		.word	33554951
 1646 0138 01020002 		.word	33554945
 1647 013c 05020002 		.word	33554949
 1648 0140 04020002 		.word	33554948
 1649 0144 03020002 		.word	33554947
 1650 0148 06020002 		.word	33554950
 1651 014c 00000000 		.word	g_stTskRecyleList
 1652 0150 00000000 		.word	m_aucSysMem0
 1653              		.cfi_endproc
 1654              	.LFE303:
 1656              		.section	.text.LOS_TaskCreate,"ax",%progbits
 1657              		.align	1
 1658              		.global	LOS_TaskCreate
 1659              		.syntax unified
 1660              		.thumb
 1661              		.thumb_func
 1662              		.fpu fpv4-sp-d16
 1664              	LOS_TaskCreate:
 1665              	.LFB304:
 900:../../iot_link/os/liteos/base/core/los_task.c **** 
 901:../../iot_link/os/liteos/base/core/los_task.c **** 
 902:../../iot_link/os/liteos/base/core/los_task.c **** /*****************************************************************************
 903:../../iot_link/os/liteos/base/core/los_task.c ****  Function : LOS_TaskCreate
 904:../../iot_link/os/liteos/base/core/los_task.c ****  Description : Create a task
 905:../../iot_link/os/liteos/base/core/los_task.c ****  Input       : pstInitParam --- Task init parameters
 906:../../iot_link/os/liteos/base/core/los_task.c ****  Output      : puwTaskID    --- Save task ID
 907:../../iot_link/os/liteos/base/core/los_task.c ****  Return      : LOS_OK on success or error code on failure
 908:../../iot_link/os/liteos/base/core/los_task.c ****  *****************************************************************************/
 909:../../iot_link/os/liteos/base/core/los_task.c **** LITE_OS_SEC_TEXT_INIT UINT32 LOS_TaskCreate(UINT32 *puwTaskID, TSK_INIT_PARAM_S *pstInitParam)
 910:../../iot_link/os/liteos/base/core/los_task.c **** {
 1666              		.loc 2 910 0
 1667              		.cfi_startproc
 1668              		@ args = 0, pretend = 0, frame = 24
 1669              		@ frame_needed = 0, uses_anonymous_args = 0
 1670              	.LVL141:
 1671 0000 70B5     		push	{r4, r5, r6, lr}
 1672              	.LCFI20:
 1673              		.cfi_def_cfa_offset 16
 1674              		.cfi_offset 4, -16
 1675              		.cfi_offset 5, -12
 1676              		.cfi_offset 6, -8
 1677              		.cfi_offset 14, -4
 1678 0002 0646     		mov	r6, r0
 1679              	.LVL142:
 1680 0004 86B0     		sub	sp, sp, #24
 1681              	.LCFI21:
 1682              		.cfi_def_cfa_offset 40
ARM GAS  C:\Users\LuckyE\AppData\Local\Temp\ccK6ohhW.s 			page 54


 911:../../iot_link/os/liteos/base/core/los_task.c ****     UINT32 uwRet = LOS_OK;
 912:../../iot_link/os/liteos/base/core/los_task.c ****     UINTPTR uvIntSave;
 913:../../iot_link/os/liteos/base/core/los_task.c ****     LOS_TASK_CB *pstTaskCB;
 914:../../iot_link/os/liteos/base/core/los_task.c ****     TSK_INIT_PARAM_S stInitParam;
 915:../../iot_link/os/liteos/base/core/los_task.c **** 
 916:../../iot_link/os/liteos/base/core/los_task.c ****     if (NULL == pstInitParam)
 1683              		.loc 2 916 0
 1684 0006 0029     		cmp	r1, #0
 1685 0008 3BD0     		beq	.L139
 917:../../iot_link/os/liteos/base/core/los_task.c ****     {
 918:../../iot_link/os/liteos/base/core/los_task.c ****         return LOS_ERRNO_TSK_PTR_NULL;
 919:../../iot_link/os/liteos/base/core/los_task.c ****     }
 920:../../iot_link/os/liteos/base/core/los_task.c **** 
 921:../../iot_link/os/liteos/base/core/los_task.c ****     stInitParam = *pstInitParam;
 1686              		.loc 2 921 0
 1687 000a 0C46     		mov	r4, r1
 1688 000c 0FCC     		ldmia	r4!, {r0, r1, r2, r3}
 1689              	.LVL143:
 1690 000e 6D46     		mov	r5, sp
 1691 0010 0FC5     		stmia	r5!, {r0, r1, r2, r3}
 1692 0012 94E80300 		ldm	r4, {r0, r1}
 1693 0016 85E80300 		stm	r5, {r0, r1}
 922:../../iot_link/os/liteos/base/core/los_task.c **** 
 923:../../iot_link/os/liteos/base/core/los_task.c ****     uwRet = LOS_TaskCreateOnly(puwTaskID, &stInitParam);
 1694              		.loc 2 923 0
 1695 001a 6946     		mov	r1, sp
 1696 001c 3046     		mov	r0, r6
 1697 001e FFF7FEFF 		bl	LOS_TaskCreateOnly
 1698              	.LVL144:
 924:../../iot_link/os/liteos/base/core/los_task.c ****     if (LOS_OK != uwRet)
 1699              		.loc 2 924 0
 1700 0022 0546     		mov	r5, r0
 1701 0024 30BB     		cbnz	r0, .L136
 1702              	.LVL145:
 1703              	.LBB115:
 1704              	.LBB116:
 925:../../iot_link/os/liteos/base/core/los_task.c ****     {
 926:../../iot_link/os/liteos/base/core/los_task.c ****         return uwRet;
 927:../../iot_link/os/liteos/base/core/los_task.c ****     }
 928:../../iot_link/os/liteos/base/core/los_task.c ****     pstTaskCB = OS_TCB_FROM_TID(*puwTaskID);
 1705              		.loc 2 928 0
 1706 0026 184B     		ldr	r3, .L143
 1707 0028 3468     		ldr	r4, [r6]
 1708              	.LVL146:
 1709 002a 1B68     		ldr	r3, [r3]
 1710 002c 5422     		movs	r2, #84
 1711 002e 02FB0434 		mla	r4, r2, r4, r3
 1712              	.LVL147:
 929:../../iot_link/os/liteos/base/core/los_task.c **** 
 930:../../iot_link/os/liteos/base/core/los_task.c ****     uvIntSave = LOS_IntLock();
 1713              		.loc 2 930 0
 1714 0032 FFF7FEFF 		bl	LOS_IntLock
 1715              	.LVL148:
 931:../../iot_link/os/liteos/base/core/los_task.c ****     pstTaskCB->usTaskStatus &= (~OS_TASK_STATUS_SUSPEND);
 1716              		.loc 2 931 0
 1717 0036 A388     		ldrh	r3, [r4, #4]
 932:../../iot_link/os/liteos/base/core/los_task.c ****     pstTaskCB->usTaskStatus |= OS_TASK_STATUS_READY;
ARM GAS  C:\Users\LuckyE\AppData\Local\Temp\ccK6ohhW.s 			page 55


 933:../../iot_link/os/liteos/base/core/los_task.c **** 
 934:../../iot_link/os/liteos/base/core/los_task.c **** #if (LOSCFG_BASE_CORE_CPUP == YES)
 935:../../iot_link/os/liteos/base/core/los_task.c ****     g_pstCpup[pstTaskCB->uwTaskID].uwID = pstTaskCB->uwTaskID;
 936:../../iot_link/os/liteos/base/core/los_task.c ****     g_pstCpup[pstTaskCB->uwTaskID].usStatus = pstTaskCB->usTaskStatus;
 937:../../iot_link/os/liteos/base/core/los_task.c **** #endif
 938:../../iot_link/os/liteos/base/core/los_task.c **** 
 939:../../iot_link/os/liteos/base/core/los_task.c ****     osPriqueueEnqueue(&pstTaskCB->stPendList, pstTaskCB->usPriority);
 1718              		.loc 2 939 0
 1719 0038 E188     		ldrh	r1, [r4, #6]
 931:../../iot_link/os/liteos/base/core/los_task.c ****     pstTaskCB->usTaskStatus &= (~OS_TASK_STATUS_SUSPEND);
 1720              		.loc 2 931 0
 1721 003a 23F00203 		bic	r3, r3, #2
 932:../../iot_link/os/liteos/base/core/los_task.c ****     pstTaskCB->usTaskStatus |= OS_TASK_STATUS_READY;
 1722              		.loc 2 932 0
 1723 003e 43F00403 		orr	r3, r3, #4
 1724 0042 A380     		strh	r3, [r4, #4]	@ movhi
 930:../../iot_link/os/liteos/base/core/los_task.c ****     pstTaskCB->usTaskStatus &= (~OS_TASK_STATUS_SUSPEND);
 1725              		.loc 2 930 0
 1726 0044 0646     		mov	r6, r0
 1727              	.LVL149:
 1728              		.loc 2 939 0
 1729 0046 04F12800 		add	r0, r4, #40
 1730              	.LVL150:
 1731 004a FFF7FEFF 		bl	osPriqueueEnqueue
 1732              	.LVL151:
 940:../../iot_link/os/liteos/base/core/los_task.c ****     g_stLosTask.pstNewTask = LOS_DL_LIST_ENTRY(osPriqueueTop(), LOS_TASK_CB, stPendList); /*lint !e
 1733              		.loc 2 940 0
 1734 004e FFF7FEFF 		bl	osPriqueueTop
 1735              	.LVL152:
 941:../../iot_link/os/liteos/base/core/los_task.c **** 
 942:../../iot_link/os/liteos/base/core/los_task.c ****     if ((g_bTaskScheduled) && (g_usLosTaskLock == 0))
 1736              		.loc 2 942 0
 1737 0052 0E4A     		ldr	r2, .L143+4
 940:../../iot_link/os/liteos/base/core/los_task.c ****     g_stLosTask.pstNewTask = LOS_DL_LIST_ENTRY(osPriqueueTop(), LOS_TASK_CB, stPendList); /*lint !e
 1738              		.loc 2 940 0
 1739 0054 0E4B     		ldr	r3, .L143+8
 1740              		.loc 2 942 0
 1741 0056 1268     		ldr	r2, [r2]
 940:../../iot_link/os/liteos/base/core/los_task.c ****     g_stLosTask.pstNewTask = LOS_DL_LIST_ENTRY(osPriqueueTop(), LOS_TASK_CB, stPendList); /*lint !e
 1742              		.loc 2 940 0
 1743 0058 2838     		subs	r0, r0, #40
 1744 005a 5860     		str	r0, [r3, #4]
 1745              		.loc 2 942 0
 1746 005c 6AB1     		cbz	r2, .L138
 1747 005e 0D4A     		ldr	r2, .L143+12
 1748 0060 1288     		ldrh	r2, [r2]
 1749 0062 52B9     		cbnz	r2, .L138
 943:../../iot_link/os/liteos/base/core/los_task.c ****     {
 944:../../iot_link/os/liteos/base/core/los_task.c ****         if (g_stLosTask.pstRunTask != g_stLosTask.pstNewTask)
 1750              		.loc 2 944 0
 1751 0064 1B68     		ldr	r3, [r3]
 1752 0066 9842     		cmp	r0, r3
 1753 0068 07D0     		beq	.L138
 945:../../iot_link/os/liteos/base/core/los_task.c ****         {
 946:../../iot_link/os/liteos/base/core/los_task.c ****             if (LOS_CHECK_SCHEDULE)
 947:../../iot_link/os/liteos/base/core/los_task.c ****             {
 948:../../iot_link/os/liteos/base/core/los_task.c ****                 (VOID)LOS_IntRestore(uvIntSave);
ARM GAS  C:\Users\LuckyE\AppData\Local\Temp\ccK6ohhW.s 			page 56


 1754              		.loc 2 948 0
 1755 006a 3046     		mov	r0, r6
 1756 006c FFF7FEFF 		bl	LOS_IntRestore
 1757              	.LVL153:
 949:../../iot_link/os/liteos/base/core/los_task.c ****                 osSchedule();
 1758              		.loc 2 949 0
 1759 0070 FFF7FEFF 		bl	osSchedule
 1760              	.LVL154:
 1761              	.L136:
 1762              	.LBE116:
 1763              	.LBE115:
 950:../../iot_link/os/liteos/base/core/los_task.c ****                 return LOS_OK;
 951:../../iot_link/os/liteos/base/core/los_task.c ****             }
 952:../../iot_link/os/liteos/base/core/los_task.c ****         }
 953:../../iot_link/os/liteos/base/core/los_task.c ****     }
 954:../../iot_link/os/liteos/base/core/los_task.c **** 
 955:../../iot_link/os/liteos/base/core/los_task.c ****     (VOID)LOS_IntRestore(uvIntSave);
 956:../../iot_link/os/liteos/base/core/los_task.c ****     return LOS_OK;
 957:../../iot_link/os/liteos/base/core/los_task.c **** }
 1764              		.loc 2 957 0
 1765 0074 2846     		mov	r0, r5
 1766 0076 06B0     		add	sp, sp, #24
 1767              	.LCFI22:
 1768              		.cfi_remember_state
 1769              		.cfi_def_cfa_offset 16
 1770              		@ sp needed
 1771 0078 70BD     		pop	{r4, r5, r6, pc}
 1772              	.LVL155:
 1773              	.L138:
 1774              	.LCFI23:
 1775              		.cfi_restore_state
 1776              	.LBB118:
 1777              	.LBB117:
 955:../../iot_link/os/liteos/base/core/los_task.c ****     return LOS_OK;
 1778              		.loc 2 955 0
 1779 007a 3046     		mov	r0, r6
 1780 007c FFF7FEFF 		bl	LOS_IntRestore
 1781              	.LVL156:
 1782 0080 F8E7     		b	.L136
 1783              	.LVL157:
 1784              	.L139:
 1785              	.LBE117:
 1786              	.LBE118:
 918:../../iot_link/os/liteos/base/core/los_task.c ****     }
 1787              		.loc 2 918 0
 1788 0082 054D     		ldr	r5, .L143+16
 1789 0084 F6E7     		b	.L136
 1790              	.L144:
 1791 0086 00BF     		.align	2
 1792              	.L143:
 1793 0088 00000000 		.word	g_pstTaskCBArray
 1794 008c 00000000 		.word	g_bTaskScheduled
 1795 0090 00000000 		.word	g_stLosTask
 1796 0094 00000000 		.word	g_usLosTaskLock
 1797 0098 01020002 		.word	33554945
 1798              		.cfi_endproc
 1799              	.LFE304:
ARM GAS  C:\Users\LuckyE\AppData\Local\Temp\ccK6ohhW.s 			page 57


 1801              		.section	.text.osIdleTaskCreate,"ax",%progbits
 1802              		.align	1
 1803              		.global	osIdleTaskCreate
 1804              		.syntax unified
 1805              		.thumb
 1806              		.thumb_func
 1807              		.fpu fpv4-sp-d16
 1809              	osIdleTaskCreate:
 1810              	.LFB296:
 587:../../iot_link/os/liteos/base/core/los_task.c **** #if (LOSCFG_STATIC_TASK == NO)
 1811              		.loc 2 587 0
 1812              		.cfi_startproc
 1813              		@ args = 0, pretend = 0, frame = 24
 1814              		@ frame_needed = 0, uses_anonymous_args = 0
 1815 0000 7FB5     		push	{r0, r1, r2, r3, r4, r5, r6, lr}
 1816              	.LCFI24:
 1817              		.cfi_def_cfa_offset 32
 1818              		.cfi_offset 14, -4
 592:../../iot_link/os/liteos/base/core/los_task.c ****     stTaskInitParam.pfnTaskEntry = (TSK_ENTRY_FUNC)osIdleTask;
 1819              		.loc 2 592 0
 1820 0002 1222     		movs	r2, #18
 1821 0004 0021     		movs	r1, #0
 1822 0006 0DF10600 		add	r0, sp, #6
 1823 000a FFF7FEFF 		bl	memset
 1824              	.LVL158:
 593:../../iot_link/os/liteos/base/core/los_task.c ****     stTaskInitParam.uwStackSize = LOSCFG_BASE_CORE_TSK_IDLE_STACK_SIZE;
 1825              		.loc 2 593 0
 1826 000e 084B     		ldr	r3, .L146
 1827 0010 0093     		str	r3, [sp]
 594:../../iot_link/os/liteos/base/core/los_task.c ****     stTaskInitParam.pcName = "IdleCore000";
 1828              		.loc 2 594 0
 1829 0012 4FF40073 		mov	r3, #512
 1830 0016 0393     		str	r3, [sp, #12]
 595:../../iot_link/os/liteos/base/core/los_task.c ****     stTaskInitParam.usTaskPrio = OS_TASK_PRIORITY_LOWEST;
 1831              		.loc 2 595 0
 1832 0018 064B     		ldr	r3, .L146+4
 1833 001a 0493     		str	r3, [sp, #16]
 597:../../iot_link/os/liteos/base/core/los_task.c **** 
 1834              		.loc 2 597 0
 1835 001c 6946     		mov	r1, sp
 596:../../iot_link/os/liteos/base/core/los_task.c ****     uwRet = LOS_TaskCreate(&g_uwIdleTaskID, &stTaskInitParam);
 1836              		.loc 2 596 0
 1837 001e 1F23     		movs	r3, #31
 597:../../iot_link/os/liteos/base/core/los_task.c **** 
 1838              		.loc 2 597 0
 1839 0020 0548     		ldr	r0, .L146+8
 596:../../iot_link/os/liteos/base/core/los_task.c ****     uwRet = LOS_TaskCreate(&g_uwIdleTaskID, &stTaskInitParam);
 1840              		.loc 2 596 0
 1841 0022 ADF80430 		strh	r3, [sp, #4]	@ movhi
 597:../../iot_link/os/liteos/base/core/los_task.c **** 
 1842              		.loc 2 597 0
 1843 0026 FFF7FEFF 		bl	LOS_TaskCreate
 1844              	.LVL159:
 608:../../iot_link/os/liteos/base/core/los_task.c **** 
 1845              		.loc 2 608 0
 1846 002a 07B0     		add	sp, sp, #28
 1847              	.LCFI25:
ARM GAS  C:\Users\LuckyE\AppData\Local\Temp\ccK6ohhW.s 			page 58


 1848              		.cfi_def_cfa_offset 4
 1849              		@ sp needed
 1850 002c 5DF804FB 		ldr	pc, [sp], #4
 1851              	.L147:
 1852              		.align	2
 1853              	.L146:
 1854 0030 00000000 		.word	osIdleTask
 1855 0034 00000000 		.word	.LC20
 1856 0038 00000000 		.word	g_uwIdleTaskID
 1857              		.cfi_endproc
 1858              	.LFE296:
 1860              		.section	.text.LOS_TaskResume,"ax",%progbits
 1861              		.align	1
 1862              		.global	LOS_TaskResume
 1863              		.syntax unified
 1864              		.thumb
 1865              		.thumb_func
 1866              		.fpu fpv4-sp-d16
 1868              	LOS_TaskResume:
 1869              	.LFB305:
 958:../../iot_link/os/liteos/base/core/los_task.c **** #endif
 959:../../iot_link/os/liteos/base/core/los_task.c **** 
 960:../../iot_link/os/liteos/base/core/los_task.c **** /*****************************************************************************
 961:../../iot_link/os/liteos/base/core/los_task.c ****  Function : LOS_TaskResume
 962:../../iot_link/os/liteos/base/core/los_task.c ****  Description : Resume suspend task
 963:../../iot_link/os/liteos/base/core/los_task.c ****  Input       : uwTaskID --- Task ID
 964:../../iot_link/os/liteos/base/core/los_task.c ****  Output      : None
 965:../../iot_link/os/liteos/base/core/los_task.c ****  Return      : LOS_OK on success or error code on failure
 966:../../iot_link/os/liteos/base/core/los_task.c ****  *****************************************************************************/
 967:../../iot_link/os/liteos/base/core/los_task.c **** LITE_OS_SEC_TEXT_INIT UINT32 LOS_TaskResume(UINT32 uwTaskID)
 968:../../iot_link/os/liteos/base/core/los_task.c **** {
 1870              		.loc 2 968 0
 1871              		.cfi_startproc
 1872              		@ args = 0, pretend = 0, frame = 0
 1873              		@ frame_needed = 0, uses_anonymous_args = 0
 1874              	.LVL160:
 969:../../iot_link/os/liteos/base/core/los_task.c ****     UINTPTR uvIntSave;
 970:../../iot_link/os/liteos/base/core/los_task.c ****     LOS_TASK_CB *pstTaskCB;
 971:../../iot_link/os/liteos/base/core/los_task.c ****     UINT16 usTempStatus;
 972:../../iot_link/os/liteos/base/core/los_task.c ****     UINT32 uwErrRet = OS_ERROR;
 973:../../iot_link/os/liteos/base/core/los_task.c **** 
 974:../../iot_link/os/liteos/base/core/los_task.c ****     if (uwTaskID > LOSCFG_BASE_CORE_TSK_LIMIT)
 1875              		.loc 2 974 0
 1876 0000 0F28     		cmp	r0, #15
 968:../../iot_link/os/liteos/base/core/los_task.c ****     UINTPTR uvIntSave;
 1877              		.loc 2 968 0
 1878 0002 70B5     		push	{r4, r5, r6, lr}
 1879              	.LCFI26:
 1880              		.cfi_def_cfa_offset 16
 1881              		.cfi_offset 4, -16
 1882              		.cfi_offset 5, -12
 1883              		.cfi_offset 6, -8
 1884              		.cfi_offset 14, -4
 1885              		.loc 2 974 0
 1886 0004 38D8     		bhi	.L154
 975:../../iot_link/os/liteos/base/core/los_task.c ****     {
 976:../../iot_link/os/liteos/base/core/los_task.c ****         return LOS_ERRNO_TSK_ID_INVALID;
ARM GAS  C:\Users\LuckyE\AppData\Local\Temp\ccK6ohhW.s 			page 59


 977:../../iot_link/os/liteos/base/core/los_task.c ****     }
 978:../../iot_link/os/liteos/base/core/los_task.c **** 
 979:../../iot_link/os/liteos/base/core/los_task.c ****     pstTaskCB = OS_TCB_FROM_TID(uwTaskID);
 1887              		.loc 2 979 0
 1888 0006 1D4B     		ldr	r3, .L157
 1889 0008 1D68     		ldr	r5, [r3]
 1890 000a 5423     		movs	r3, #84
 1891 000c 03FB0055 		mla	r5, r3, r0, r5
 1892              	.LVL161:
 980:../../iot_link/os/liteos/base/core/los_task.c ****     uvIntSave = LOS_IntLock();
 1893              		.loc 2 980 0
 1894 0010 FFF7FEFF 		bl	LOS_IntLock
 1895              	.LVL162:
 981:../../iot_link/os/liteos/base/core/los_task.c ****     usTempStatus = pstTaskCB->usTaskStatus;
 1896              		.loc 2 981 0
 1897 0014 AC88     		ldrh	r4, [r5, #4]
 982:../../iot_link/os/liteos/base/core/los_task.c **** 
 983:../../iot_link/os/liteos/base/core/los_task.c ****     if (OS_TASK_STATUS_UNUSED & usTempStatus)
 1898              		.loc 2 983 0
 1899 0016 E207     		lsls	r2, r4, #31
 980:../../iot_link/os/liteos/base/core/los_task.c ****     usTempStatus = pstTaskCB->usTaskStatus;
 1900              		.loc 2 980 0
 1901 0018 0646     		mov	r6, r0
 1902              	.LVL163:
 1903              		.loc 2 983 0
 1904 001a 26D4     		bmi	.L155
 984:../../iot_link/os/liteos/base/core/los_task.c ****     {
 985:../../iot_link/os/liteos/base/core/los_task.c ****         uwErrRet = LOS_ERRNO_TSK_NOT_CREATED;
 986:../../iot_link/os/liteos/base/core/los_task.c ****         OS_GOTO_ERREND();
 987:../../iot_link/os/liteos/base/core/los_task.c ****     }
 988:../../iot_link/os/liteos/base/core/los_task.c ****     else if (!(OS_TASK_STATUS_SUSPEND & usTempStatus))
 1905              		.loc 2 988 0
 1906 001c A307     		lsls	r3, r4, #30
 1907 001e 29D5     		bpl	.L156
 989:../../iot_link/os/liteos/base/core/los_task.c ****     {
 990:../../iot_link/os/liteos/base/core/los_task.c ****         uwErrRet = LOS_ERRNO_TSK_NOT_SUSPENDED;
 991:../../iot_link/os/liteos/base/core/los_task.c ****         OS_GOTO_ERREND();
 992:../../iot_link/os/liteos/base/core/los_task.c ****     }
 993:../../iot_link/os/liteos/base/core/los_task.c **** 
 994:../../iot_link/os/liteos/base/core/los_task.c ****     pstTaskCB->usTaskStatus &= (~OS_TASK_STATUS_SUSPEND);
 995:../../iot_link/os/liteos/base/core/los_task.c ****     if (!(OS_CHECK_TASK_BLOCK & pstTaskCB->usTaskStatus) )
 1908              		.loc 2 995 0
 1909 0020 42F22842 		movw	r2, #9256
 994:../../iot_link/os/liteos/base/core/los_task.c ****     if (!(OS_CHECK_TASK_BLOCK & pstTaskCB->usTaskStatus) )
 1910              		.loc 2 994 0
 1911 0024 24F00203 		bic	r3, r4, #2
 1912              		.loc 2 995 0
 1913 0028 1440     		ands	r4, r4, r2
 1914              	.LVL164:
 994:../../iot_link/os/liteos/base/core/los_task.c ****     if (!(OS_CHECK_TASK_BLOCK & pstTaskCB->usTaskStatus) )
 1915              		.loc 2 994 0
 1916 002a 9BB2     		uxth	r3, r3
 1917              		.loc 2 995 0
 1918 002c 05D0     		beq	.L151
 994:../../iot_link/os/liteos/base/core/los_task.c ****     if (!(OS_CHECK_TASK_BLOCK & pstTaskCB->usTaskStatus) )
 1919              		.loc 2 994 0
 1920 002e AB80     		strh	r3, [r5, #4]	@ movhi
ARM GAS  C:\Users\LuckyE\AppData\Local\Temp\ccK6ohhW.s 			page 60


 1921              	.LVL165:
 1922              	.L152:
 996:../../iot_link/os/liteos/base/core/los_task.c ****     {
 997:../../iot_link/os/liteos/base/core/los_task.c ****         pstTaskCB->usTaskStatus |= OS_TASK_STATUS_READY;
 998:../../iot_link/os/liteos/base/core/los_task.c ****         osPriqueueEnqueue(&pstTaskCB->stPendList, pstTaskCB->usPriority);
 999:../../iot_link/os/liteos/base/core/los_task.c ****         if (g_bTaskScheduled)
1000:../../iot_link/os/liteos/base/core/los_task.c ****         {
1001:../../iot_link/os/liteos/base/core/los_task.c ****             (VOID)LOS_IntRestore(uvIntSave);
1002:../../iot_link/os/liteos/base/core/los_task.c ****             LOS_Schedule();
1003:../../iot_link/os/liteos/base/core/los_task.c ****             return LOS_OK;
1004:../../iot_link/os/liteos/base/core/los_task.c ****         }
1005:../../iot_link/os/liteos/base/core/los_task.c ****         g_stLosTask.pstNewTask = LOS_DL_LIST_ENTRY(osPriqueueTop(), LOS_TASK_CB, stPendList); /*lin
1006:../../iot_link/os/liteos/base/core/los_task.c ****     }
1007:../../iot_link/os/liteos/base/core/los_task.c **** 
1008:../../iot_link/os/liteos/base/core/los_task.c ****     (VOID)LOS_IntRestore(uvIntSave);
 1923              		.loc 2 1008 0
 1924 0030 3046     		mov	r0, r6
 1925 0032 FFF7FEFF 		bl	LOS_IntRestore
 1926              	.LVL166:
1009:../../iot_link/os/liteos/base/core/los_task.c ****     return LOS_OK;
 1927              		.loc 2 1009 0
 1928 0036 0024     		movs	r4, #0
 1929 0038 0FE0     		b	.L148
 1930              	.LVL167:
 1931              	.L151:
 997:../../iot_link/os/liteos/base/core/los_task.c ****         osPriqueueEnqueue(&pstTaskCB->stPendList, pstTaskCB->usPriority);
 1932              		.loc 2 997 0
 1933 003a 43F00403 		orr	r3, r3, #4
 1934 003e AB80     		strh	r3, [r5, #4]	@ movhi
 1935              	.LVL168:
 998:../../iot_link/os/liteos/base/core/los_task.c ****         if (g_bTaskScheduled)
 1936              		.loc 2 998 0
 1937 0040 E988     		ldrh	r1, [r5, #6]
 1938 0042 05F12800 		add	r0, r5, #40
 1939              	.LVL169:
 1940 0046 FFF7FEFF 		bl	osPriqueueEnqueue
 1941              	.LVL170:
 999:../../iot_link/os/liteos/base/core/los_task.c ****         {
 1942              		.loc 2 999 0
 1943 004a 0D4B     		ldr	r3, .L157+4
 1944 004c 1B68     		ldr	r3, [r3]
 1945 004e 33B1     		cbz	r3, .L153
1001:../../iot_link/os/liteos/base/core/los_task.c ****             LOS_Schedule();
 1946              		.loc 2 1001 0
 1947 0050 3046     		mov	r0, r6
 1948 0052 FFF7FEFF 		bl	LOS_IntRestore
 1949              	.LVL171:
1002:../../iot_link/os/liteos/base/core/los_task.c ****             return LOS_OK;
 1950              		.loc 2 1002 0
 1951 0056 FFF7FEFF 		bl	LOS_Schedule
 1952              	.LVL172:
 1953              	.L148:
1010:../../iot_link/os/liteos/base/core/los_task.c **** 
1011:../../iot_link/os/liteos/base/core/los_task.c **** LOS_ERREND:
1012:../../iot_link/os/liteos/base/core/los_task.c ****     (VOID)LOS_IntRestore(uvIntSave);
1013:../../iot_link/os/liteos/base/core/los_task.c ****     return uwErrRet;
1014:../../iot_link/os/liteos/base/core/los_task.c **** }
ARM GAS  C:\Users\LuckyE\AppData\Local\Temp\ccK6ohhW.s 			page 61


 1954              		.loc 2 1014 0
 1955 005a 2046     		mov	r0, r4
 1956 005c 70BD     		pop	{r4, r5, r6, pc}
 1957              	.LVL173:
 1958              	.L153:
1005:../../iot_link/os/liteos/base/core/los_task.c ****     }
 1959              		.loc 2 1005 0
 1960 005e FFF7FEFF 		bl	osPriqueueTop
 1961              	.LVL174:
 1962 0062 084B     		ldr	r3, .L157+8
 1963 0064 2838     		subs	r0, r0, #40
 1964 0066 5860     		str	r0, [r3, #4]
 1965 0068 E2E7     		b	.L152
 1966              	.LVL175:
 1967              	.L155:
 985:../../iot_link/os/liteos/base/core/los_task.c ****         OS_GOTO_ERREND();
 1968              		.loc 2 985 0
 1969 006a 074C     		ldr	r4, .L157+12
 1970              	.LVL176:
 1971              	.L150:
1012:../../iot_link/os/liteos/base/core/los_task.c ****     return uwErrRet;
 1972              		.loc 2 1012 0
 1973 006c 3046     		mov	r0, r6
 1974              	.LVL177:
 1975 006e FFF7FEFF 		bl	LOS_IntRestore
 1976              	.LVL178:
1013:../../iot_link/os/liteos/base/core/los_task.c **** }
 1977              		.loc 2 1013 0
 1978 0072 F2E7     		b	.L148
 1979              	.LVL179:
 1980              	.L156:
 990:../../iot_link/os/liteos/base/core/los_task.c ****         OS_GOTO_ERREND();
 1981              		.loc 2 990 0
 1982 0074 054C     		ldr	r4, .L157+16
 1983              	.LVL180:
 1984 0076 F9E7     		b	.L150
 1985              	.LVL181:
 1986              	.L154:
 976:../../iot_link/os/liteos/base/core/los_task.c ****     }
 1987              		.loc 2 976 0
 1988 0078 054C     		ldr	r4, .L157+20
 1989 007a EEE7     		b	.L148
 1990              	.L158:
 1991              		.align	2
 1992              	.L157:
 1993 007c 00000000 		.word	g_pstTaskCBArray
 1994 0080 00000000 		.word	g_bTaskScheduled
 1995 0084 00000000 		.word	g_stLosTask
 1996 0088 0A020002 		.word	33554954
 1997 008c 09020002 		.word	33554953
 1998 0090 07020002 		.word	33554951
 1999              		.cfi_endproc
 2000              	.LFE305:
 2002              		.section	.text.LOS_TaskSuspend,"ax",%progbits
 2003              		.align	1
 2004              		.global	LOS_TaskSuspend
 2005              		.syntax unified
ARM GAS  C:\Users\LuckyE\AppData\Local\Temp\ccK6ohhW.s 			page 62


 2006              		.thumb
 2007              		.thumb_func
 2008              		.fpu fpv4-sp-d16
 2010              	LOS_TaskSuspend:
 2011              	.LFB306:
1015:../../iot_link/os/liteos/base/core/los_task.c **** 
1016:../../iot_link/os/liteos/base/core/los_task.c **** /*****************************************************************************
1017:../../iot_link/os/liteos/base/core/los_task.c ****  Function : LOS_TaskSuspend
1018:../../iot_link/os/liteos/base/core/los_task.c ****  Description : Suspend task
1019:../../iot_link/os/liteos/base/core/los_task.c ****  Input       : uwTaskID --- Task ID
1020:../../iot_link/os/liteos/base/core/los_task.c ****  Output      : None
1021:../../iot_link/os/liteos/base/core/los_task.c ****  Return      : LOS_OK on success or error code on failure
1022:../../iot_link/os/liteos/base/core/los_task.c ****  *****************************************************************************/
1023:../../iot_link/os/liteos/base/core/los_task.c **** LITE_OS_SEC_TEXT_INIT UINT32 LOS_TaskSuspend(UINT32 uwTaskID)
1024:../../iot_link/os/liteos/base/core/los_task.c **** {
 2012              		.loc 2 1024 0
 2013              		.cfi_startproc
 2014              		@ args = 0, pretend = 0, frame = 0
 2015              		@ frame_needed = 0, uses_anonymous_args = 0
 2016              	.LVL182:
1025:../../iot_link/os/liteos/base/core/los_task.c ****     UINTPTR uvIntSave;
1026:../../iot_link/os/liteos/base/core/los_task.c ****     LOS_TASK_CB *pstTaskCB;
1027:../../iot_link/os/liteos/base/core/los_task.c ****     UINT16 usTempStatus;
1028:../../iot_link/os/liteos/base/core/los_task.c ****     UINT32 uwErrRet = OS_ERROR;
1029:../../iot_link/os/liteos/base/core/los_task.c **** 
1030:../../iot_link/os/liteos/base/core/los_task.c ****     CHECK_TASKID(uwTaskID);
 2017              		.loc 2 1030 0
 2018 0000 264B     		ldr	r3, .L178
 2019 0002 1B68     		ldr	r3, [r3]
 2020 0004 8342     		cmp	r3, r0
1024:../../iot_link/os/liteos/base/core/los_task.c ****     UINTPTR uvIntSave;
 2021              		.loc 2 1024 0
 2022 0006 70B5     		push	{r4, r5, r6, lr}
 2023              	.LCFI27:
 2024              		.cfi_def_cfa_offset 16
 2025              		.cfi_offset 4, -16
 2026              		.cfi_offset 5, -12
 2027              		.cfi_offset 6, -8
 2028              		.cfi_offset 14, -4
1024:../../iot_link/os/liteos/base/core/los_task.c ****     UINTPTR uvIntSave;
 2029              		.loc 2 1024 0
 2030 0008 0546     		mov	r5, r0
 2031              		.loc 2 1030 0
 2032 000a 40D0     		beq	.L165
 2033              		.loc 2 1030 0 is_stmt 0 discriminator 2
 2034 000c 244B     		ldr	r3, .L178+4
 2035 000e 1B68     		ldr	r3, [r3]
 2036 0010 8342     		cmp	r3, r0
 2037 0012 3ED0     		beq	.L166
 2038              		.loc 2 1030 0 discriminator 4
 2039 0014 234B     		ldr	r3, .L178+8
 2040 0016 1B68     		ldr	r3, [r3]
 2041 0018 8342     		cmp	r3, r0
 2042 001a 3CD9     		bls	.L167
1031:../../iot_link/os/liteos/base/core/los_task.c ****     pstTaskCB = OS_TCB_FROM_TID(uwTaskID);
 2043              		.loc 2 1031 0 is_stmt 1
 2044 001c 224B     		ldr	r3, .L178+12
ARM GAS  C:\Users\LuckyE\AppData\Local\Temp\ccK6ohhW.s 			page 63


 2045 001e 1B68     		ldr	r3, [r3]
 2046 0020 5424     		movs	r4, #84
 2047 0022 04FB0034 		mla	r4, r4, r0, r3
 2048              	.LVL183:
1032:../../iot_link/os/liteos/base/core/los_task.c ****     uvIntSave = LOS_IntLock();
 2049              		.loc 2 1032 0
 2050 0026 FFF7FEFF 		bl	LOS_IntLock
 2051              	.LVL184:
1033:../../iot_link/os/liteos/base/core/los_task.c ****     usTempStatus = pstTaskCB->usTaskStatus;
 2052              		.loc 2 1033 0
 2053 002a A388     		ldrh	r3, [r4, #4]
1032:../../iot_link/os/liteos/base/core/los_task.c ****     uvIntSave = LOS_IntLock();
 2054              		.loc 2 1032 0
 2055 002c 0646     		mov	r6, r0
 2056              	.LVL185:
1034:../../iot_link/os/liteos/base/core/los_task.c ****     if (OS_TASK_STATUS_UNUSED & usTempStatus)
 2057              		.loc 2 1034 0
 2058 002e D807     		lsls	r0, r3, #31
 2059              	.LVL186:
 2060 0030 24D4     		bmi	.L168
1035:../../iot_link/os/liteos/base/core/los_task.c ****     {
1036:../../iot_link/os/liteos/base/core/los_task.c ****         uwErrRet = LOS_ERRNO_TSK_NOT_CREATED;
1037:../../iot_link/os/liteos/base/core/los_task.c ****         OS_GOTO_ERREND();
1038:../../iot_link/os/liteos/base/core/los_task.c ****     }
1039:../../iot_link/os/liteos/base/core/los_task.c **** 
1040:../../iot_link/os/liteos/base/core/los_task.c ****     if (OS_TASK_STATUS_SUSPEND & usTempStatus)
 2061              		.loc 2 1040 0
 2062 0032 9907     		lsls	r1, r3, #30
 2063 0034 27D4     		bmi	.L169
1041:../../iot_link/os/liteos/base/core/los_task.c ****     {
1042:../../iot_link/os/liteos/base/core/los_task.c ****         uwErrRet = LOS_ERRNO_TSK_ALREADY_SUSPENDED;
1043:../../iot_link/os/liteos/base/core/los_task.c ****         OS_GOTO_ERREND();
1044:../../iot_link/os/liteos/base/core/los_task.c ****     }
1045:../../iot_link/os/liteos/base/core/los_task.c **** 
1046:../../iot_link/os/liteos/base/core/los_task.c ****     if ((OS_TASK_STATUS_RUNNING & usTempStatus) && (g_usLosTaskLock != 0))
 2064              		.loc 2 1046 0
 2065 0036 DA06     		lsls	r2, r3, #27
 2066 0038 02D5     		bpl	.L162
 2067              		.loc 2 1046 0 is_stmt 0 discriminator 1
 2068 003a 1C4A     		ldr	r2, .L178+16
 2069 003c 1288     		ldrh	r2, [r2]
 2070 003e 22BB     		cbnz	r2, .L170
 2071              	.L162:
1047:../../iot_link/os/liteos/base/core/los_task.c ****     {
1048:../../iot_link/os/liteos/base/core/los_task.c ****         uwErrRet = LOS_ERRNO_TSK_SUSPEND_LOCKED;
1049:../../iot_link/os/liteos/base/core/los_task.c ****         OS_GOTO_ERREND();
1050:../../iot_link/os/liteos/base/core/los_task.c ****     }
1051:../../iot_link/os/liteos/base/core/los_task.c **** 
1052:../../iot_link/os/liteos/base/core/los_task.c ****     if (OS_TASK_STATUS_READY & usTempStatus)
 2072              		.loc 2 1052 0 is_stmt 1
 2073 0040 5B07     		lsls	r3, r3, #29
 2074              	.LVL187:
 2075 0042 07D5     		bpl	.L163
1053:../../iot_link/os/liteos/base/core/los_task.c ****     {
1054:../../iot_link/os/liteos/base/core/los_task.c ****         osPriqueueDequeue(&pstTaskCB->stPendList);
 2076              		.loc 2 1054 0
 2077 0044 04F12800 		add	r0, r4, #40
ARM GAS  C:\Users\LuckyE\AppData\Local\Temp\ccK6ohhW.s 			page 64


 2078 0048 FFF7FEFF 		bl	osPriqueueDequeue
 2079              	.LVL188:
1055:../../iot_link/os/liteos/base/core/los_task.c ****         pstTaskCB->usTaskStatus &= (~OS_TASK_STATUS_READY);
 2080              		.loc 2 1055 0
 2081 004c A388     		ldrh	r3, [r4, #4]
 2082 004e 23F00403 		bic	r3, r3, #4
 2083 0052 A380     		strh	r3, [r4, #4]	@ movhi
 2084              	.L163:
1056:../../iot_link/os/liteos/base/core/los_task.c ****     }
1057:../../iot_link/os/liteos/base/core/los_task.c **** 
1058:../../iot_link/os/liteos/base/core/los_task.c ****     pstTaskCB->usTaskStatus |= OS_TASK_STATUS_SUSPEND;
 2085              		.loc 2 1058 0
 2086 0054 A388     		ldrh	r3, [r4, #4]
 2087 0056 43F00203 		orr	r3, r3, #2
 2088 005a A380     		strh	r3, [r4, #4]	@ movhi
1059:../../iot_link/os/liteos/base/core/los_task.c ****     if (uwTaskID == g_stLosTask.pstRunTask->uwTaskID)
 2089              		.loc 2 1059 0
 2090 005c 144B     		ldr	r3, .L178+20
 2091 005e 1B68     		ldr	r3, [r3]
 2092 0060 1B69     		ldr	r3, [r3, #16]
 2093 0062 AB42     		cmp	r3, r5
1060:../../iot_link/os/liteos/base/core/los_task.c ****     {
1061:../../iot_link/os/liteos/base/core/los_task.c ****         (VOID)LOS_IntRestore(uvIntSave);
 2094              		.loc 2 1061 0
 2095 0064 3046     		mov	r0, r6
1059:../../iot_link/os/liteos/base/core/los_task.c ****     if (uwTaskID == g_stLosTask.pstRunTask->uwTaskID)
 2096              		.loc 2 1059 0
 2097 0066 06D1     		bne	.L164
 2098              	.LVL189:
 2099              		.loc 2 1061 0
 2100 0068 FFF7FEFF 		bl	LOS_IntRestore
 2101              	.LVL190:
1062:../../iot_link/os/liteos/base/core/los_task.c ****         LOS_Schedule();
 2102              		.loc 2 1062 0
 2103 006c FFF7FEFF 		bl	LOS_Schedule
 2104              	.LVL191:
 2105              	.L177:
1063:../../iot_link/os/liteos/base/core/los_task.c ****         return LOS_OK;
1064:../../iot_link/os/liteos/base/core/los_task.c ****     }
1065:../../iot_link/os/liteos/base/core/los_task.c **** 
1066:../../iot_link/os/liteos/base/core/los_task.c ****     (VOID)LOS_IntRestore(uvIntSave);
1067:../../iot_link/os/liteos/base/core/los_task.c ****     return LOS_OK;
 2106              		.loc 2 1067 0
 2107 0070 0024     		movs	r4, #0
 2108              	.LVL192:
 2109              	.L159:
1068:../../iot_link/os/liteos/base/core/los_task.c **** 
1069:../../iot_link/os/liteos/base/core/los_task.c **** LOS_ERREND:
1070:../../iot_link/os/liteos/base/core/los_task.c ****     (VOID)LOS_IntRestore(uvIntSave);
1071:../../iot_link/os/liteos/base/core/los_task.c ****     return uwErrRet;
1072:../../iot_link/os/liteos/base/core/los_task.c **** }
 2110              		.loc 2 1072 0
 2111 0072 2046     		mov	r0, r4
 2112 0074 70BD     		pop	{r4, r5, r6, pc}
 2113              	.LVL193:
 2114              	.L164:
1066:../../iot_link/os/liteos/base/core/los_task.c ****     return LOS_OK;
ARM GAS  C:\Users\LuckyE\AppData\Local\Temp\ccK6ohhW.s 			page 65


 2115              		.loc 2 1066 0
 2116 0076 FFF7FEFF 		bl	LOS_IntRestore
 2117              	.LVL194:
 2118 007a F9E7     		b	.L177
 2119              	.LVL195:
 2120              	.L168:
1036:../../iot_link/os/liteos/base/core/los_task.c ****         OS_GOTO_ERREND();
 2121              		.loc 2 1036 0
 2122 007c 0D4C     		ldr	r4, .L178+24
 2123              	.LVL196:
 2124              	.L161:
1070:../../iot_link/os/liteos/base/core/los_task.c ****     return uwErrRet;
 2125              		.loc 2 1070 0
 2126 007e 3046     		mov	r0, r6
 2127 0080 FFF7FEFF 		bl	LOS_IntRestore
 2128              	.LVL197:
1071:../../iot_link/os/liteos/base/core/los_task.c **** }
 2129              		.loc 2 1071 0
 2130 0084 F5E7     		b	.L159
 2131              	.LVL198:
 2132              	.L169:
1042:../../iot_link/os/liteos/base/core/los_task.c ****         OS_GOTO_ERREND();
 2133              		.loc 2 1042 0
 2134 0086 0C4C     		ldr	r4, .L178+28
 2135              	.LVL199:
 2136 0088 F9E7     		b	.L161
 2137              	.LVL200:
 2138              	.L170:
1048:../../iot_link/os/liteos/base/core/los_task.c ****         OS_GOTO_ERREND();
 2139              		.loc 2 1048 0
 2140 008a 0C4C     		ldr	r4, .L178+32
 2141              	.LVL201:
 2142 008c F7E7     		b	.L161
 2143              	.LVL202:
 2144              	.L165:
1030:../../iot_link/os/liteos/base/core/los_task.c ****     pstTaskCB = OS_TCB_FROM_TID(uwTaskID);
 2145              		.loc 2 1030 0
 2146 008e 0C4C     		ldr	r4, .L178+36
 2147 0090 EFE7     		b	.L159
 2148              	.L166:
 2149 0092 0C4C     		ldr	r4, .L178+40
 2150 0094 EDE7     		b	.L159
 2151              	.L167:
 2152 0096 0C4C     		ldr	r4, .L178+44
 2153 0098 EBE7     		b	.L159
 2154              	.L179:
 2155 009a 00BF     		.align	2
 2156              	.L178:
 2157 009c 00000000 		.word	g_uwIdleTaskID
 2158 00a0 00000000 		.word	g_uwSwtmrTaskID
 2159 00a4 00000000 		.word	g_uwTskMaxNum
 2160 00a8 00000000 		.word	g_pstTaskCBArray
 2161 00ac 00000000 		.word	g_usLosTaskLock
 2162 00b0 00000000 		.word	g_stLosTask
 2163 00b4 0A020002 		.word	33554954
 2164 00b8 08020002 		.word	33554952
 2165 00bc 15020003 		.word	50332181
ARM GAS  C:\Users\LuckyE\AppData\Local\Temp\ccK6ohhW.s 			page 66


 2166 00c0 14020002 		.word	33554964
 2167 00c4 21020002 		.word	33554977
 2168 00c8 07020002 		.word	33554951
 2169              		.cfi_endproc
 2170              	.LFE306:
 2172              		.section	.text.LOS_TaskDelete,"ax",%progbits
 2173              		.align	1
 2174              		.global	LOS_TaskDelete
 2175              		.syntax unified
 2176              		.thumb
 2177              		.thumb_func
 2178              		.fpu fpv4-sp-d16
 2180              	LOS_TaskDelete:
 2181              	.LFB307:
1073:../../iot_link/os/liteos/base/core/los_task.c **** 
1074:../../iot_link/os/liteos/base/core/los_task.c **** /*****************************************************************************
1075:../../iot_link/os/liteos/base/core/los_task.c ****  Function : LOS_TaskDelete
1076:../../iot_link/os/liteos/base/core/los_task.c ****  Description : Delete a task
1077:../../iot_link/os/liteos/base/core/los_task.c ****  Input       : uwTaskID --- Task ID
1078:../../iot_link/os/liteos/base/core/los_task.c ****  Output      : None
1079:../../iot_link/os/liteos/base/core/los_task.c ****  Return      : LOS_OK on success or error code on failure
1080:../../iot_link/os/liteos/base/core/los_task.c ****  *****************************************************************************/
1081:../../iot_link/os/liteos/base/core/los_task.c **** LITE_OS_SEC_TEXT_INIT UINT32 LOS_TaskDelete(UINT32 uwTaskID)
1082:../../iot_link/os/liteos/base/core/los_task.c **** {
 2182              		.loc 2 1082 0
 2183              		.cfi_startproc
 2184              		@ args = 0, pretend = 0, frame = 0
 2185              		@ frame_needed = 0, uses_anonymous_args = 0
 2186              	.LVL203:
 2187 0000 2DE9F84F 		push	{r3, r4, r5, r6, r7, r8, r9, r10, fp, lr}
 2188              	.LCFI28:
 2189              		.cfi_def_cfa_offset 40
 2190              		.cfi_offset 3, -40
 2191              		.cfi_offset 4, -36
 2192              		.cfi_offset 5, -32
 2193              		.cfi_offset 6, -28
 2194              		.cfi_offset 7, -24
 2195              		.cfi_offset 8, -20
 2196              		.cfi_offset 9, -16
 2197              		.cfi_offset 10, -12
 2198              		.cfi_offset 11, -8
 2199              		.cfi_offset 14, -4
1083:../../iot_link/os/liteos/base/core/los_task.c **** #if (LOSCFG_STATIC_TASK == NO)
1084:../../iot_link/os/liteos/base/core/los_task.c ****     UINTPTR uvIntSave;
1085:../../iot_link/os/liteos/base/core/los_task.c ****     LOS_TASK_CB *pstTaskCB;
1086:../../iot_link/os/liteos/base/core/los_task.c ****     UINT16 usTempStatus;
1087:../../iot_link/os/liteos/base/core/los_task.c ****     UINT32 uwErrRet = OS_ERROR;
1088:../../iot_link/os/liteos/base/core/los_task.c **** 
1089:../../iot_link/os/liteos/base/core/los_task.c ****     CHECK_TASKID(uwTaskID);
 2200              		.loc 2 1089 0
 2201 0004 4B4B     		ldr	r3, .L204
 2202 0006 1B68     		ldr	r3, [r3]
 2203 0008 8342     		cmp	r3, r0
1082:../../iot_link/os/liteos/base/core/los_task.c **** #if (LOSCFG_STATIC_TASK == NO)
 2204              		.loc 2 1082 0
 2205 000a 0746     		mov	r7, r0
 2206              		.loc 2 1089 0
ARM GAS  C:\Users\LuckyE\AppData\Local\Temp\ccK6ohhW.s 			page 67


 2207 000c 00F08C80 		beq	.L189
 2208              		.loc 2 1089 0 is_stmt 0 discriminator 2
 2209 0010 494B     		ldr	r3, .L204+4
 2210 0012 1B68     		ldr	r3, [r3]
 2211 0014 8342     		cmp	r3, r0
 2212 0016 00F08980 		beq	.L190
 2213              		.loc 2 1089 0 discriminator 4
 2214 001a 484B     		ldr	r3, .L204+8
 2215 001c 1A68     		ldr	r2, [r3]
 2216 001e 8242     		cmp	r2, r0
 2217 0020 9B46     		mov	fp, r3
 2218 0022 40F28580 		bls	.L191
 2219              	.LVL204:
 2220              	.LBB127:
 2221              	.LBB128:
1090:../../iot_link/os/liteos/base/core/los_task.c ****     uvIntSave = LOS_IntLock();
 2222              		.loc 2 1090 0 is_stmt 1
 2223 0026 FFF7FEFF 		bl	LOS_IntLock
 2224              	.LVL205:
 2225 002a 8046     		mov	r8, r0
 2226              	.LVL206:
1091:../../iot_link/os/liteos/base/core/los_task.c **** 
1092:../../iot_link/os/liteos/base/core/los_task.c ****     /* if self deleting, unlock the scheduler */
1093:../../iot_link/os/liteos/base/core/los_task.c **** 
1094:../../iot_link/os/liteos/base/core/los_task.c ****     if (uwTaskID == LOS_CurTaskIDGet())
 2227              		.loc 2 1094 0
 2228 002c FFF7FEFF 		bl	LOS_CurTaskIDGet
 2229              	.LVL207:
 2230 0030 8742     		cmp	r7, r0
1095:../../iot_link/os/liteos/base/core/los_task.c ****     {
1096:../../iot_link/os/liteos/base/core/los_task.c ****         g_usLosTaskLock = 0;
 2231              		.loc 2 1096 0
 2232 0032 02BF     		ittt	eq
 2233 0034 424B     		ldreq	r3, .L204+12
 2234 0036 0022     		moveq	r2, #0
 2235 0038 1A80     		strheq	r2, [r3]	@ movhi
1097:../../iot_link/os/liteos/base/core/los_task.c ****     }
1098:../../iot_link/os/liteos/base/core/los_task.c **** 
1099:../../iot_link/os/liteos/base/core/los_task.c ****     pstTaskCB = OS_TCB_FROM_TID(uwTaskID);
 2236              		.loc 2 1099 0
 2237 003a 424B     		ldr	r3, .L204+16
 2238 003c 1A68     		ldr	r2, [r3]
 2239 003e 5424     		movs	r4, #84
 2240 0040 04FB0724 		mla	r4, r4, r7, r2
 2241              	.LVL208:
 2242 0044 9A46     		mov	r10, r3
1100:../../iot_link/os/liteos/base/core/los_task.c **** 
1101:../../iot_link/os/liteos/base/core/los_task.c ****     usTempStatus = pstTaskCB->usTaskStatus;
 2243              		.loc 2 1101 0
 2244 0046 A588     		ldrh	r5, [r4, #4]
 2245              	.LVL209:
1102:../../iot_link/os/liteos/base/core/los_task.c **** 
1103:../../iot_link/os/liteos/base/core/los_task.c ****     if (OS_TASK_STATUS_UNUSED & usTempStatus)
 2246              		.loc 2 1103 0
 2247 0048 15F00102 		ands	r2, r5, #1
 2248 004c 05D0     		beq	.L183
 2249              	.LVL210:
ARM GAS  C:\Users\LuckyE\AppData\Local\Temp\ccK6ohhW.s 			page 68


 2250              	.LDL1:
1104:../../iot_link/os/liteos/base/core/los_task.c ****     {
1105:../../iot_link/os/liteos/base/core/los_task.c ****         uwErrRet = LOS_ERRNO_TSK_NOT_CREATED;
1106:../../iot_link/os/liteos/base/core/los_task.c ****         OS_GOTO_ERREND();
1107:../../iot_link/os/liteos/base/core/los_task.c ****     }
1108:../../iot_link/os/liteos/base/core/los_task.c **** 
1109:../../iot_link/os/liteos/base/core/los_task.c ****     /* If the task is running and scheduler is locked then you can not delete it */
1110:../../iot_link/os/liteos/base/core/los_task.c ****     if ((OS_TASK_STATUS_RUNNING & usTempStatus) && (g_usLosTaskLock != 0))
1111:../../iot_link/os/liteos/base/core/los_task.c ****     {
1112:../../iot_link/os/liteos/base/core/los_task.c ****         PRINT_INFO("In case of task lock, task deletion is not recommended\n");
1113:../../iot_link/os/liteos/base/core/los_task.c ****         g_usLosTaskLock = 0;
1114:../../iot_link/os/liteos/base/core/los_task.c ****     }
1115:../../iot_link/os/liteos/base/core/los_task.c **** 
1116:../../iot_link/os/liteos/base/core/los_task.c ****     if (OS_TASK_STATUS_READY & usTempStatus)
1117:../../iot_link/os/liteos/base/core/los_task.c ****     {
1118:../../iot_link/os/liteos/base/core/los_task.c ****         osPriqueueDequeue(&pstTaskCB->stPendList);
1119:../../iot_link/os/liteos/base/core/los_task.c ****         pstTaskCB->usTaskStatus &= (~OS_TASK_STATUS_READY);
1120:../../iot_link/os/liteos/base/core/los_task.c ****     }
1121:../../iot_link/os/liteos/base/core/los_task.c ****     else if ((OS_TASK_STATUS_PEND & usTempStatus) || (OS_TASK_STATUS_PEND_QUEUE & usTempStatus))
1122:../../iot_link/os/liteos/base/core/los_task.c ****     {
1123:../../iot_link/os/liteos/base/core/los_task.c ****         LOS_ListDelete(&pstTaskCB->stPendList);
1124:../../iot_link/os/liteos/base/core/los_task.c ****     }
1125:../../iot_link/os/liteos/base/core/los_task.c **** 
1126:../../iot_link/os/liteos/base/core/los_task.c ****     if ((OS_TASK_STATUS_DELAY | OS_TASK_STATUS_TIMEOUT) & usTempStatus)
1127:../../iot_link/os/liteos/base/core/los_task.c ****     {
1128:../../iot_link/os/liteos/base/core/los_task.c ****         osTimerListDelete(pstTaskCB);
1129:../../iot_link/os/liteos/base/core/los_task.c ****     }
1130:../../iot_link/os/liteos/base/core/los_task.c **** 
1131:../../iot_link/os/liteos/base/core/los_task.c ****     pstTaskCB->usTaskStatus &= (~(OS_TASK_STATUS_SUSPEND));
1132:../../iot_link/os/liteos/base/core/los_task.c ****     pstTaskCB->usTaskStatus |= OS_TASK_STATUS_UNUSED;
1133:../../iot_link/os/liteos/base/core/los_task.c ****     pstTaskCB->uwEvent.uwEventID = 0xFFFFFFFF;
1134:../../iot_link/os/liteos/base/core/los_task.c ****     pstTaskCB->uwEventMask = 0;
1135:../../iot_link/os/liteos/base/core/los_task.c **** #if (LOSCFG_BASE_CORE_CPUP == YES)
1136:../../iot_link/os/liteos/base/core/los_task.c ****     (VOID)memset((VOID *)&g_pstCpup[pstTaskCB->uwTaskID], 0, sizeof(OS_CPUP_S));
1137:../../iot_link/os/liteos/base/core/los_task.c **** #endif
1138:../../iot_link/os/liteos/base/core/los_task.c ****     g_stLosTask.pstNewTask = LOS_DL_LIST_ENTRY(osPriqueueTop(), LOS_TASK_CB, stPendList); /*lint !e
1139:../../iot_link/os/liteos/base/core/los_task.c ****     if (OS_TASK_STATUS_RUNNING & pstTaskCB->usTaskStatus)
1140:../../iot_link/os/liteos/base/core/los_task.c ****     {
1141:../../iot_link/os/liteos/base/core/los_task.c ****         LOS_ListTailInsert(&g_stTskRecyleList, &pstTaskCB->stPendList);
1142:../../iot_link/os/liteos/base/core/los_task.c ****         g_stLosTask.pstRunTask = &g_pstTaskCBArray[g_uwTskMaxNum];
1143:../../iot_link/os/liteos/base/core/los_task.c ****         g_stLosTask.pstRunTask->uwTaskID = uwTaskID;
1144:../../iot_link/os/liteos/base/core/los_task.c ****         g_stLosTask.pstRunTask->usTaskStatus = pstTaskCB->usTaskStatus;
1145:../../iot_link/os/liteos/base/core/los_task.c ****         g_stLosTask.pstRunTask->uwTopOfStack = pstTaskCB->uwTopOfStack;
1146:../../iot_link/os/liteos/base/core/los_task.c ****         g_stLosTask.pstRunTask->pcTaskName = pstTaskCB->pcTaskName;
1147:../../iot_link/os/liteos/base/core/los_task.c ****         pstTaskCB->usTaskStatus = OS_TASK_STATUS_UNUSED;
1148:../../iot_link/os/liteos/base/core/los_task.c ****         (VOID)LOS_IntRestore(uvIntSave);
1149:../../iot_link/os/liteos/base/core/los_task.c ****         osSchedule();
1150:../../iot_link/os/liteos/base/core/los_task.c ****         return LOS_OK;
1151:../../iot_link/os/liteos/base/core/los_task.c ****     }
1152:../../iot_link/os/liteos/base/core/los_task.c ****     else
1153:../../iot_link/os/liteos/base/core/los_task.c ****     {
1154:../../iot_link/os/liteos/base/core/los_task.c ****         pstTaskCB->usTaskStatus = OS_TASK_STATUS_UNUSED;
1155:../../iot_link/os/liteos/base/core/los_task.c ****         LOS_ListAdd(&g_stLosFreeTask, &pstTaskCB->stPendList);
1156:../../iot_link/os/liteos/base/core/los_task.c ****         (VOID)LOS_MemFree(OS_TASK_STACK_ADDR, (VOID *)pstTaskCB->uwTopOfStack);
1157:../../iot_link/os/liteos/base/core/los_task.c ****         pstTaskCB->uwTopOfStack = (UINT32)NULL;
1158:../../iot_link/os/liteos/base/core/los_task.c ****     }
1159:../../iot_link/os/liteos/base/core/los_task.c **** 
ARM GAS  C:\Users\LuckyE\AppData\Local\Temp\ccK6ohhW.s 			page 69


1160:../../iot_link/os/liteos/base/core/los_task.c ****     (VOID)LOS_IntRestore(uvIntSave);
1161:../../iot_link/os/liteos/base/core/los_task.c ****     return LOS_OK;
1162:../../iot_link/os/liteos/base/core/los_task.c **** 
1163:../../iot_link/os/liteos/base/core/los_task.c **** LOS_ERREND:
1164:../../iot_link/os/liteos/base/core/los_task.c ****     (VOID)LOS_IntRestore(uvIntSave);
 2251              		.loc 2 1164 0
 2252 004e 4046     		mov	r0, r8
 2253 0050 FFF7FEFF 		bl	LOS_IntRestore
 2254              	.LVL211:
1165:../../iot_link/os/liteos/base/core/los_task.c ****     return uwErrRet;
 2255              		.loc 2 1165 0
 2256 0054 3C48     		ldr	r0, .L204+20
 2257              	.LVL212:
 2258              	.L180:
 2259              	.LBE128:
 2260              	.LBE127:
1166:../../iot_link/os/liteos/base/core/los_task.c **** #else
1167:../../iot_link/os/liteos/base/core/los_task.c ****     (VOID)LOS_TaskSuspend(uwTaskID);
1168:../../iot_link/os/liteos/base/core/los_task.c ****     return LOS_NOK;
1169:../../iot_link/os/liteos/base/core/los_task.c **** #endif
1170:../../iot_link/os/liteos/base/core/los_task.c **** }
 2261              		.loc 2 1170 0
 2262 0056 BDE8F88F 		pop	{r3, r4, r5, r6, r7, r8, r9, r10, fp, pc}
 2263              	.LVL213:
 2264              	.L183:
 2265              	.LBB137:
 2266              	.LBB136:
1110:../../iot_link/os/liteos/base/core/los_task.c ****     {
 2267              		.loc 2 1110 0
 2268 005a E906     		lsls	r1, r5, #27
 2269 005c 03D5     		bpl	.L184
 2270 005e 384B     		ldr	r3, .L204+12
 2271 0060 1988     		ldrh	r1, [r3]
 2272 0062 01B1     		cbz	r1, .L184
1113:../../iot_link/os/liteos/base/core/los_task.c ****     }
 2273              		.loc 2 1113 0
 2274 0064 1A80     		strh	r2, [r3]	@ movhi
 2275              	.L184:
1116:../../iot_link/os/liteos/base/core/los_task.c ****     {
 2276              		.loc 2 1116 0
 2277 0066 6B07     		lsls	r3, r5, #29
 2278 0068 04F12806 		add	r6, r4, #40
 2279 006c 41D5     		bpl	.L185
1118:../../iot_link/os/liteos/base/core/los_task.c ****         pstTaskCB->usTaskStatus &= (~OS_TASK_STATUS_READY);
 2280              		.loc 2 1118 0
 2281 006e 3046     		mov	r0, r6
 2282 0070 FFF7FEFF 		bl	osPriqueueDequeue
 2283              	.LVL214:
1119:../../iot_link/os/liteos/base/core/los_task.c ****     }
 2284              		.loc 2 1119 0
 2285 0074 A388     		ldrh	r3, [r4, #4]
 2286 0076 23F00403 		bic	r3, r3, #4
 2287 007a A380     		strh	r3, [r4, #4]	@ movhi
 2288              	.L186:
1126:../../iot_link/os/liteos/base/core/los_task.c ****     {
 2289              		.loc 2 1126 0
 2290 007c 15F0600F 		tst	r5, #96
ARM GAS  C:\Users\LuckyE\AppData\Local\Temp\ccK6ohhW.s 			page 70


 2291 0080 02D0     		beq	.L187
1128:../../iot_link/os/liteos/base/core/los_task.c ****     }
 2292              		.loc 2 1128 0
 2293 0082 2046     		mov	r0, r4
 2294 0084 FFF7FEFF 		bl	osTimerListDelete
 2295              	.LVL215:
 2296              	.L187:
1131:../../iot_link/os/liteos/base/core/los_task.c ****     pstTaskCB->usTaskStatus |= OS_TASK_STATUS_UNUSED;
 2297              		.loc 2 1131 0
 2298 0088 A388     		ldrh	r3, [r4, #4]
 2299 008a 23F00203 		bic	r3, r3, #2
1132:../../iot_link/os/liteos/base/core/los_task.c ****     pstTaskCB->uwEvent.uwEventID = 0xFFFFFFFF;
 2300              		.loc 2 1132 0
 2301 008e 43F00103 		orr	r3, r3, #1
 2302 0092 A380     		strh	r3, [r4, #4]	@ movhi
1134:../../iot_link/os/liteos/base/core/los_task.c **** #if (LOSCFG_BASE_CORE_CPUP == YES)
 2303              		.loc 2 1134 0
 2304 0094 4FF00009 		mov	r9, #0
1133:../../iot_link/os/liteos/base/core/los_task.c ****     pstTaskCB->uwEventMask = 0;
 2305              		.loc 2 1133 0
 2306 0098 4FF0FF33 		mov	r3, #-1
 2307 009c E363     		str	r3, [r4, #60]
1134:../../iot_link/os/liteos/base/core/los_task.c **** #if (LOSCFG_BASE_CORE_CPUP == YES)
 2308              		.loc 2 1134 0
 2309 009e C4F84890 		str	r9, [r4, #72]
1138:../../iot_link/os/liteos/base/core/los_task.c ****     if (OS_TASK_STATUS_RUNNING & pstTaskCB->usTaskStatus)
 2310              		.loc 2 1138 0
 2311 00a2 FFF7FEFF 		bl	osPriqueueTop
 2312              	.LVL216:
1139:../../iot_link/os/liteos/base/core/los_task.c ****     {
 2313              		.loc 2 1139 0
 2314 00a6 A288     		ldrh	r2, [r4, #4]
1138:../../iot_link/os/liteos/base/core/los_task.c ****     if (OS_TASK_STATUS_RUNNING & pstTaskCB->usTaskStatus)
 2315              		.loc 2 1138 0
 2316 00a8 2849     		ldr	r1, .L204+24
 2317 00aa 2838     		subs	r0, r0, #40
1139:../../iot_link/os/liteos/base/core/los_task.c ****     {
 2318              		.loc 2 1139 0
 2319 00ac 12F01005 		ands	r5, r2, #16
 2320              	.LVL217:
1138:../../iot_link/os/liteos/base/core/los_task.c ****     if (OS_TASK_STATUS_RUNNING & pstTaskCB->usTaskStatus)
 2321              		.loc 2 1138 0
 2322 00b0 4860     		str	r0, [r1, #4]
1139:../../iot_link/os/liteos/base/core/los_task.c ****     {
 2323              		.loc 2 1139 0
 2324 00b2 26D0     		beq	.L188
1141:../../iot_link/os/liteos/base/core/los_task.c ****         g_stLosTask.pstRunTask = &g_pstTaskCBArray[g_uwTskMaxNum];
 2325              		.loc 2 1141 0
 2326 00b4 264B     		ldr	r3, .L204+28
 2327 00b6 1868     		ldr	r0, [r3]
 2328              	.LVL218:
 2329              	.LBB129:
 2330              	.LBB130:
 2331              	.LBB131:
 131:../../iot_link/os/liteos/include/los_list.h ****     pstNode->pstPrev = pstList;
 2332              		.loc 1 131 0
 2333 00b8 4368     		ldr	r3, [r0, #4]
ARM GAS  C:\Users\LuckyE\AppData\Local\Temp\ccK6ohhW.s 			page 71


 132:../../iot_link/os/liteos/include/los_list.h ****     pstList->pstNext->pstPrev = pstNode;
 2334              		.loc 1 132 0
 2335 00ba C4E90A03 		strd	r0, r3, [r4, #40]
 133:../../iot_link/os/liteos/include/los_list.h ****     pstList->pstNext = pstNode;
 2336              		.loc 1 133 0
 2337 00be 4368     		ldr	r3, [r0, #4]
 2338 00c0 1E60     		str	r6, [r3]
 134:../../iot_link/os/liteos/include/los_list.h **** }
 2339              		.loc 1 134 0
 2340 00c2 4660     		str	r6, [r0, #4]
 2341              	.LVL219:
 2342              	.LBE131:
 2343              	.LBE130:
 2344              	.LBE129:
1142:../../iot_link/os/liteos/base/core/los_task.c ****         g_stLosTask.pstRunTask->uwTaskID = uwTaskID;
 2345              		.loc 2 1142 0
 2346 00c4 DBF80030 		ldr	r3, [fp]
 2347 00c8 DAF80000 		ldr	r0, [r10]
 2348 00cc 5425     		movs	r5, #84
 2349 00ce 05FB0303 		mla	r3, r5, r3, r0
 2350 00d2 0B60     		str	r3, [r1]
1144:../../iot_link/os/liteos/base/core/los_task.c ****         g_stLosTask.pstRunTask->uwTopOfStack = pstTaskCB->uwTopOfStack;
 2351              		.loc 2 1144 0
 2352 00d4 9A80     		strh	r2, [r3, #4]	@ movhi
1145:../../iot_link/os/liteos/base/core/los_task.c ****         g_stLosTask.pstRunTask->pcTaskName = pstTaskCB->pcTaskName;
 2353              		.loc 2 1145 0
 2354 00d6 E268     		ldr	r2, [r4, #12]
 2355 00d8 DA60     		str	r2, [r3, #12]
1146:../../iot_link/os/liteos/base/core/los_task.c ****         pstTaskCB->usTaskStatus = OS_TASK_STATUS_UNUSED;
 2356              		.loc 2 1146 0
 2357 00da 626A     		ldr	r2, [r4, #36]
 2358 00dc 5A62     		str	r2, [r3, #36]
1143:../../iot_link/os/liteos/base/core/los_task.c ****         g_stLosTask.pstRunTask->usTaskStatus = pstTaskCB->usTaskStatus;
 2359              		.loc 2 1143 0
 2360 00de 1F61     		str	r7, [r3, #16]
1147:../../iot_link/os/liteos/base/core/los_task.c ****         (VOID)LOS_IntRestore(uvIntSave);
 2361              		.loc 2 1147 0
 2362 00e0 0123     		movs	r3, #1
1148:../../iot_link/os/liteos/base/core/los_task.c ****         osSchedule();
 2363              		.loc 2 1148 0
 2364 00e2 4046     		mov	r0, r8
1147:../../iot_link/os/liteos/base/core/los_task.c ****         (VOID)LOS_IntRestore(uvIntSave);
 2365              		.loc 2 1147 0
 2366 00e4 A380     		strh	r3, [r4, #4]	@ movhi
1148:../../iot_link/os/liteos/base/core/los_task.c ****         osSchedule();
 2367              		.loc 2 1148 0
 2368 00e6 FFF7FEFF 		bl	LOS_IntRestore
 2369              	.LVL220:
1149:../../iot_link/os/liteos/base/core/los_task.c ****         return LOS_OK;
 2370              		.loc 2 1149 0
 2371 00ea FFF7FEFF 		bl	osSchedule
 2372              	.LVL221:
1150:../../iot_link/os/liteos/base/core/los_task.c ****     }
 2373              		.loc 2 1150 0
 2374 00ee 4846     		mov	r0, r9
 2375 00f0 B1E7     		b	.L180
 2376              	.LVL222:
ARM GAS  C:\Users\LuckyE\AppData\Local\Temp\ccK6ohhW.s 			page 72


 2377              	.L185:
1121:../../iot_link/os/liteos/base/core/los_task.c ****     {
 2378              		.loc 2 1121 0
 2379 00f2 42F20803 		movw	r3, #8200
 2380 00f6 1D42     		tst	r5, r3
 2381 00f8 C0D0     		beq	.L186
1123:../../iot_link/os/liteos/base/core/los_task.c ****     }
 2382              		.loc 2 1123 0
 2383 00fa 3046     		mov	r0, r6
 2384 00fc FFF7FEFF 		bl	LOS_ListDelete
 2385              	.LVL223:
 2386 0100 BCE7     		b	.L186
 2387              	.LVL224:
 2388              	.L188:
1154:../../iot_link/os/liteos/base/core/los_task.c ****         LOS_ListAdd(&g_stLosFreeTask, &pstTaskCB->stPendList);
 2389              		.loc 2 1154 0
 2390 0102 0123     		movs	r3, #1
 2391 0104 A380     		strh	r3, [r4, #4]	@ movhi
 2392              	.LVL225:
 2393              	.LBB132:
 2394              	.LBB133:
 131:../../iot_link/os/liteos/include/los_list.h ****     pstNode->pstPrev = pstList;
 2395              		.loc 1 131 0
 2396 0106 134B     		ldr	r3, .L204+32
 2397              	.LBE133:
 2398              	.LBE132:
1156:../../iot_link/os/liteos/base/core/los_task.c ****         pstTaskCB->uwTopOfStack = (UINT32)NULL;
 2399              		.loc 2 1156 0
 2400 0108 E168     		ldr	r1, [r4, #12]
 2401              	.LBB135:
 2402              	.LBB134:
 131:../../iot_link/os/liteos/include/los_list.h ****     pstNode->pstPrev = pstList;
 2403              		.loc 1 131 0
 2404 010a 5A68     		ldr	r2, [r3, #4]
 132:../../iot_link/os/liteos/include/los_list.h ****     pstList->pstNext->pstPrev = pstNode;
 2405              		.loc 1 132 0
 2406 010c C4E90A32 		strd	r3, r2, [r4, #40]
 133:../../iot_link/os/liteos/include/los_list.h ****     pstList->pstNext = pstNode;
 2407              		.loc 1 133 0
 2408 0110 1660     		str	r6, [r2]
 134:../../iot_link/os/liteos/include/los_list.h **** }
 2409              		.loc 1 134 0
 2410 0112 5E60     		str	r6, [r3, #4]
 2411              	.LVL226:
 2412              	.LBE134:
 2413              	.LBE135:
1156:../../iot_link/os/liteos/base/core/los_task.c ****         pstTaskCB->uwTopOfStack = (UINT32)NULL;
 2414              		.loc 2 1156 0
 2415 0114 104B     		ldr	r3, .L204+36
 2416 0116 1868     		ldr	r0, [r3]
 2417 0118 FFF7FEFF 		bl	LOS_MemFree
 2418              	.LVL227:
1160:../../iot_link/os/liteos/base/core/los_task.c ****     return LOS_OK;
 2419              		.loc 2 1160 0
 2420 011c 4046     		mov	r0, r8
1157:../../iot_link/os/liteos/base/core/los_task.c ****     }
 2421              		.loc 2 1157 0
ARM GAS  C:\Users\LuckyE\AppData\Local\Temp\ccK6ohhW.s 			page 73


 2422 011e E560     		str	r5, [r4, #12]
1160:../../iot_link/os/liteos/base/core/los_task.c ****     return LOS_OK;
 2423              		.loc 2 1160 0
 2424 0120 FFF7FEFF 		bl	LOS_IntRestore
 2425              	.LVL228:
1161:../../iot_link/os/liteos/base/core/los_task.c **** 
 2426              		.loc 2 1161 0
 2427 0124 2846     		mov	r0, r5
 2428 0126 96E7     		b	.L180
 2429              	.LVL229:
 2430              	.L189:
 2431              	.LBE136:
 2432              	.LBE137:
1089:../../iot_link/os/liteos/base/core/los_task.c ****     uvIntSave = LOS_IntLock();
 2433              		.loc 2 1089 0
 2434 0128 0C48     		ldr	r0, .L204+40
 2435              	.LVL230:
 2436 012a 94E7     		b	.L180
 2437              	.LVL231:
 2438              	.L190:
 2439 012c 0C48     		ldr	r0, .L204+44
 2440              	.LVL232:
 2441 012e 92E7     		b	.L180
 2442              	.LVL233:
 2443              	.L191:
 2444 0130 0C48     		ldr	r0, .L204+48
 2445              	.LVL234:
 2446 0132 90E7     		b	.L180
 2447              	.L205:
 2448              		.align	2
 2449              	.L204:
 2450 0134 00000000 		.word	g_uwIdleTaskID
 2451 0138 00000000 		.word	g_uwSwtmrTaskID
 2452 013c 00000000 		.word	g_uwTskMaxNum
 2453 0140 00000000 		.word	g_usLosTaskLock
 2454 0144 00000000 		.word	g_pstTaskCBArray
 2455 0148 0A020002 		.word	33554954
 2456 014c 00000000 		.word	g_stLosTask
 2457 0150 00000000 		.word	g_stTskRecyleList
 2458 0154 00000000 		.word	g_stLosFreeTask
 2459 0158 00000000 		.word	m_aucSysMem0
 2460 015c 14020002 		.word	33554964
 2461 0160 21020002 		.word	33554977
 2462 0164 07020002 		.word	33554951
 2463              		.cfi_endproc
 2464              	.LFE307:
 2466              		.section	.text.osTaskEntry,"ax",%progbits
 2467              		.align	1
 2468              		.global	osTaskEntry
 2469              		.syntax unified
 2470              		.thumb
 2471              		.thumb_func
 2472              		.fpu fpv4-sp-d16
 2474              	osTaskEntry:
 2475              	.LFB302:
 728:../../iot_link/os/liteos/base/core/los_task.c ****     LOS_TASK_CB *pstTaskCB;
 2476              		.loc 2 728 0
ARM GAS  C:\Users\LuckyE\AppData\Local\Temp\ccK6ohhW.s 			page 74


 2477              		.cfi_startproc
 2478              		@ args = 0, pretend = 0, frame = 0
 2479              		@ frame_needed = 0, uses_anonymous_args = 0
 2480              	.LVL235:
 733:../../iot_link/os/liteos/base/core/los_task.c **** 
 2481              		.loc 2 733 0
 2482 0000 064B     		ldr	r3, .L207
 728:../../iot_link/os/liteos/base/core/los_task.c ****     LOS_TASK_CB *pstTaskCB;
 2483              		.loc 2 728 0
 2484 0002 10B5     		push	{r4, lr}
 2485              	.LCFI29:
 2486              		.cfi_def_cfa_offset 8
 2487              		.cfi_offset 4, -8
 2488              		.cfi_offset 14, -4
 733:../../iot_link/os/liteos/base/core/los_task.c **** 
 2489              		.loc 2 733 0
 2490 0004 1B68     		ldr	r3, [r3]
 2491 0006 5424     		movs	r4, #84
 2492 0008 04FB0034 		mla	r4, r4, r0, r3
 2493              	.LVL236:
 735:../../iot_link/os/liteos/base/core/los_task.c **** 
 2494              		.loc 2 735 0
 2495 000c 6369     		ldr	r3, [r4, #20]
 2496 000e 206A     		ldr	r0, [r4, #32]
 2497              	.LVL237:
 2498 0010 9847     		blx	r3
 2499              	.LVL238:
 737:../../iot_link/os/liteos/base/core/los_task.c **** }
 2500              		.loc 2 737 0
 2501 0012 2069     		ldr	r0, [r4, #16]
 738:../../iot_link/os/liteos/base/core/los_task.c **** 
 2502              		.loc 2 738 0
 2503 0014 BDE81040 		pop	{r4, lr}
 2504              	.LCFI30:
 2505              		.cfi_restore 14
 2506              		.cfi_restore 4
 2507              		.cfi_def_cfa_offset 0
 2508              	.LVL239:
 737:../../iot_link/os/liteos/base/core/los_task.c **** }
 2509              		.loc 2 737 0
 2510 0018 FFF7FEBF 		b	LOS_TaskDelete
 2511              	.LVL240:
 2512              	.L208:
 2513              		.align	2
 2514              	.L207:
 2515 001c 00000000 		.word	g_pstTaskCBArray
 2516              		.cfi_endproc
 2517              	.LFE302:
 2519              		.section	.text.LOS_TaskPriGet,"ax",%progbits
 2520              		.align	1
 2521              		.global	LOS_TaskPriGet
 2522              		.syntax unified
 2523              		.thumb
 2524              		.thumb_func
 2525              		.fpu fpv4-sp-d16
 2527              	LOS_TaskPriGet:
 2528              	.LFB309:
ARM GAS  C:\Users\LuckyE\AppData\Local\Temp\ccK6ohhW.s 			page 75


1171:../../iot_link/os/liteos/base/core/los_task.c **** 
1172:../../iot_link/os/liteos/base/core/los_task.c **** /*****************************************************************************
1173:../../iot_link/os/liteos/base/core/los_task.c ****  Function : LOS_TaskDelay
1174:../../iot_link/os/liteos/base/core/los_task.c ****  Description : delay the current task
1175:../../iot_link/os/liteos/base/core/los_task.c ****  Input       : uwTick    --- time
1176:../../iot_link/os/liteos/base/core/los_task.c ****  Output      :None
1177:../../iot_link/os/liteos/base/core/los_task.c ****  Return      : LOS_OK on success or error code on failure
1178:../../iot_link/os/liteos/base/core/los_task.c ****  *****************************************************************************/
1179:../../iot_link/os/liteos/base/core/los_task.c **** LITE_OS_SEC_TEXT UINT32 LOS_TaskDelay(UINT32 uwTick)
1180:../../iot_link/os/liteos/base/core/los_task.c **** {
1181:../../iot_link/os/liteos/base/core/los_task.c ****     UINTPTR uvIntSave;
1182:../../iot_link/os/liteos/base/core/los_task.c **** 
1183:../../iot_link/os/liteos/base/core/los_task.c ****     if (OS_INT_ACTIVE)
1184:../../iot_link/os/liteos/base/core/los_task.c ****     {
1185:../../iot_link/os/liteos/base/core/los_task.c ****         return LOS_ERRNO_TSK_DELAY_IN_INT;
1186:../../iot_link/os/liteos/base/core/los_task.c ****     }
1187:../../iot_link/os/liteos/base/core/los_task.c **** 
1188:../../iot_link/os/liteos/base/core/los_task.c ****     if (g_usLosTaskLock != 0)
1189:../../iot_link/os/liteos/base/core/los_task.c ****     {
1190:../../iot_link/os/liteos/base/core/los_task.c ****         return LOS_ERRNO_TSK_DELAY_IN_LOCK;
1191:../../iot_link/os/liteos/base/core/los_task.c ****     }
1192:../../iot_link/os/liteos/base/core/los_task.c **** 
1193:../../iot_link/os/liteos/base/core/los_task.c ****     if (uwTick == 0)
1194:../../iot_link/os/liteos/base/core/los_task.c ****     {
1195:../../iot_link/os/liteos/base/core/los_task.c ****         return LOS_TaskYield();
1196:../../iot_link/os/liteos/base/core/los_task.c ****     }
1197:../../iot_link/os/liteos/base/core/los_task.c ****     else
1198:../../iot_link/os/liteos/base/core/los_task.c ****     {
1199:../../iot_link/os/liteos/base/core/los_task.c ****         uvIntSave = LOS_IntLock();
1200:../../iot_link/os/liteos/base/core/los_task.c ****         osPriqueueDequeue(&(g_stLosTask.pstRunTask->stPendList));
1201:../../iot_link/os/liteos/base/core/los_task.c ****         g_stLosTask.pstRunTask->usTaskStatus &= (~OS_TASK_STATUS_READY);
1202:../../iot_link/os/liteos/base/core/los_task.c ****         osTaskAdd2TimerList((LOS_TASK_CB *)g_stLosTask.pstRunTask, uwTick);
1203:../../iot_link/os/liteos/base/core/los_task.c ****         g_stLosTask.pstRunTask->usTaskStatus |= OS_TASK_STATUS_DELAY;
1204:../../iot_link/os/liteos/base/core/los_task.c ****         (VOID)LOS_IntRestore(uvIntSave);
1205:../../iot_link/os/liteos/base/core/los_task.c ****         LOS_Schedule();
1206:../../iot_link/os/liteos/base/core/los_task.c ****     }
1207:../../iot_link/os/liteos/base/core/los_task.c **** 
1208:../../iot_link/os/liteos/base/core/los_task.c ****     return LOS_OK;
1209:../../iot_link/os/liteos/base/core/los_task.c **** }
1210:../../iot_link/os/liteos/base/core/los_task.c **** 
1211:../../iot_link/os/liteos/base/core/los_task.c **** /*****************************************************************************
1212:../../iot_link/os/liteos/base/core/los_task.c ****  Function : LOS_TaskPriGet
1213:../../iot_link/os/liteos/base/core/los_task.c ****  Description : Get the priority of the task
1214:../../iot_link/os/liteos/base/core/los_task.c ****  Input       : uwTaskID
1215:../../iot_link/os/liteos/base/core/los_task.c ****  Output      : None
1216:../../iot_link/os/liteos/base/core/los_task.c ****  Return      : TSK_PRIOR_T on success or OS_INVALID on failure
1217:../../iot_link/os/liteos/base/core/los_task.c ****  *****************************************************************************/
1218:../../iot_link/os/liteos/base/core/los_task.c **** LITE_OS_SEC_TEXT_MINOR UINT16 LOS_TaskPriGet(UINT32 uwTaskID)
1219:../../iot_link/os/liteos/base/core/los_task.c **** {
 2529              		.loc 2 1219 0
 2530              		.cfi_startproc
 2531              		@ args = 0, pretend = 0, frame = 0
 2532              		@ frame_needed = 0, uses_anonymous_args = 0
 2533              	.LVL241:
1220:../../iot_link/os/liteos/base/core/los_task.c ****     UINTPTR uvIntSave;
1221:../../iot_link/os/liteos/base/core/los_task.c ****     LOS_TASK_CB *pstTaskCB;
1222:../../iot_link/os/liteos/base/core/los_task.c ****     UINT16 usPriority;
ARM GAS  C:\Users\LuckyE\AppData\Local\Temp\ccK6ohhW.s 			page 76


1223:../../iot_link/os/liteos/base/core/los_task.c **** 
1224:../../iot_link/os/liteos/base/core/los_task.c ****     if (OS_CHECK_TSK_PID_NOIDLE(uwTaskID))
 2534              		.loc 2 1224 0
 2535 0000 0C4B     		ldr	r3, .L213
 2536 0002 1B68     		ldr	r3, [r3]
 2537 0004 8342     		cmp	r3, r0
1219:../../iot_link/os/liteos/base/core/los_task.c ****     UINTPTR uvIntSave;
 2538              		.loc 2 1219 0
 2539 0006 10B5     		push	{r4, lr}
 2540              	.LCFI31:
 2541              		.cfi_def_cfa_offset 8
 2542              		.cfi_offset 4, -8
 2543              		.cfi_offset 14, -4
 2544              		.loc 2 1224 0
 2545 0008 0BD9     		bls	.L212
1225:../../iot_link/os/liteos/base/core/los_task.c ****     {
1226:../../iot_link/os/liteos/base/core/los_task.c ****        return (UINT16)OS_INVALID;
1227:../../iot_link/os/liteos/base/core/los_task.c ****     }
1228:../../iot_link/os/liteos/base/core/los_task.c **** 
1229:../../iot_link/os/liteos/base/core/los_task.c ****     pstTaskCB = OS_TCB_FROM_TID(uwTaskID);
 2546              		.loc 2 1229 0
 2547 000a 0B4B     		ldr	r3, .L213+4
 2548 000c 1C68     		ldr	r4, [r3]
 2549 000e 5423     		movs	r3, #84
 2550 0010 03FB0044 		mla	r4, r3, r0, r4
 2551              	.LVL242:
1230:../../iot_link/os/liteos/base/core/los_task.c **** 
1231:../../iot_link/os/liteos/base/core/los_task.c ****     uvIntSave = LOS_IntLock();
 2552              		.loc 2 1231 0
 2553 0014 FFF7FEFF 		bl	LOS_IntLock
 2554              	.LVL243:
1232:../../iot_link/os/liteos/base/core/los_task.c **** 
1233:../../iot_link/os/liteos/base/core/los_task.c ****     if (OS_TASK_STATUS_UNUSED & pstTaskCB->usTaskStatus)
 2555              		.loc 2 1233 0
 2556 0018 A388     		ldrh	r3, [r4, #4]
 2557 001a DB07     		lsls	r3, r3, #31
 2558 001c 04D5     		bpl	.L211
1234:../../iot_link/os/liteos/base/core/los_task.c ****     {
1235:../../iot_link/os/liteos/base/core/los_task.c ****         (VOID)LOS_IntRestore(uvIntSave);
 2559              		.loc 2 1235 0
 2560 001e FFF7FEFF 		bl	LOS_IntRestore
 2561              	.LVL244:
 2562              	.L212:
1226:../../iot_link/os/liteos/base/core/los_task.c ****     }
 2563              		.loc 2 1226 0
 2564 0022 4FF6FF74 		movw	r4, #65535
 2565 0026 02E0     		b	.L210
 2566              	.LVL245:
 2567              	.L211:
1236:../../iot_link/os/liteos/base/core/los_task.c ****         return (UINT16)OS_INVALID;
1237:../../iot_link/os/liteos/base/core/los_task.c ****     }
1238:../../iot_link/os/liteos/base/core/los_task.c **** 
1239:../../iot_link/os/liteos/base/core/los_task.c ****     usPriority = pstTaskCB->usPriority;
 2568              		.loc 2 1239 0
 2569 0028 E488     		ldrh	r4, [r4, #6]
 2570              	.LVL246:
1240:../../iot_link/os/liteos/base/core/los_task.c ****     (VOID)LOS_IntRestore(uvIntSave);
ARM GAS  C:\Users\LuckyE\AppData\Local\Temp\ccK6ohhW.s 			page 77


 2571              		.loc 2 1240 0
 2572 002a FFF7FEFF 		bl	LOS_IntRestore
 2573              	.LVL247:
 2574              	.L210:
1241:../../iot_link/os/liteos/base/core/los_task.c ****     return usPriority;
1242:../../iot_link/os/liteos/base/core/los_task.c **** }
 2575              		.loc 2 1242 0
 2576 002e 2046     		mov	r0, r4
 2577 0030 10BD     		pop	{r4, pc}
 2578              	.L214:
 2579 0032 00BF     		.align	2
 2580              	.L213:
 2581 0034 00000000 		.word	g_uwTskMaxNum
 2582 0038 00000000 		.word	g_pstTaskCBArray
 2583              		.cfi_endproc
 2584              	.LFE309:
 2586              		.section	.text.LOS_TaskPriSet,"ax",%progbits
 2587              		.align	1
 2588              		.global	LOS_TaskPriSet
 2589              		.syntax unified
 2590              		.thumb
 2591              		.thumb_func
 2592              		.fpu fpv4-sp-d16
 2594              	LOS_TaskPriSet:
 2595              	.LFB310:
1243:../../iot_link/os/liteos/base/core/los_task.c **** 
1244:../../iot_link/os/liteos/base/core/los_task.c **** /*****************************************************************************
1245:../../iot_link/os/liteos/base/core/los_task.c ****  Function : LOS_TaskPriSet
1246:../../iot_link/os/liteos/base/core/los_task.c ****  Description : Set the priority of the task
1247:../../iot_link/os/liteos/base/core/los_task.c ****  Input       : uwTaskID
1248:../../iot_link/os/liteos/base/core/los_task.c ****                usTaskPrio
1249:../../iot_link/os/liteos/base/core/los_task.c ****  Output      : None
1250:../../iot_link/os/liteos/base/core/los_task.c ****  Return      : None
1251:../../iot_link/os/liteos/base/core/los_task.c ****  *****************************************************************************/
1252:../../iot_link/os/liteos/base/core/los_task.c **** LITE_OS_SEC_TEXT_MINOR UINT32 LOS_TaskPriSet(UINT32 uwTaskID, UINT16 usTaskPrio)
1253:../../iot_link/os/liteos/base/core/los_task.c **** {
 2596              		.loc 2 1253 0
 2597              		.cfi_startproc
 2598              		@ args = 0, pretend = 0, frame = 0
 2599              		@ frame_needed = 0, uses_anonymous_args = 0
 2600              	.LVL248:
1254:../../iot_link/os/liteos/base/core/los_task.c ****     BOOL   bIsReady;
1255:../../iot_link/os/liteos/base/core/los_task.c ****     UINTPTR uvIntSave;
1256:../../iot_link/os/liteos/base/core/los_task.c ****     LOS_TASK_CB *pstTaskCB;
1257:../../iot_link/os/liteos/base/core/los_task.c ****     UINT16 usTempStatus;
1258:../../iot_link/os/liteos/base/core/los_task.c **** 
1259:../../iot_link/os/liteos/base/core/los_task.c ****     if (usTaskPrio > OS_TASK_PRIORITY_LOWEST)
 2601              		.loc 2 1259 0
 2602 0000 1F29     		cmp	r1, #31
1253:../../iot_link/os/liteos/base/core/los_task.c ****     BOOL   bIsReady;
 2603              		.loc 2 1253 0
 2604 0002 2DE9F041 		push	{r4, r5, r6, r7, r8, lr}
 2605              	.LCFI32:
 2606              		.cfi_def_cfa_offset 24
 2607              		.cfi_offset 4, -24
 2608              		.cfi_offset 5, -20
 2609              		.cfi_offset 6, -16
ARM GAS  C:\Users\LuckyE\AppData\Local\Temp\ccK6ohhW.s 			page 78


 2610              		.cfi_offset 7, -12
 2611              		.cfi_offset 8, -8
 2612              		.cfi_offset 14, -4
1253:../../iot_link/os/liteos/base/core/los_task.c ****     BOOL   bIsReady;
 2613              		.loc 2 1253 0
 2614 0006 0E46     		mov	r6, r1
 2615              		.loc 2 1259 0
 2616 0008 36D8     		bhi	.L220
1260:../../iot_link/os/liteos/base/core/los_task.c ****     {
1261:../../iot_link/os/liteos/base/core/los_task.c ****         return LOS_ERRNO_TSK_PRIOR_ERROR;
1262:../../iot_link/os/liteos/base/core/los_task.c ****     }
1263:../../iot_link/os/liteos/base/core/los_task.c **** 
1264:../../iot_link/os/liteos/base/core/los_task.c ****     if (uwTaskID == g_uwIdleTaskID)
 2617              		.loc 2 1264 0
 2618 000a 204B     		ldr	r3, .L225
 2619 000c 1B68     		ldr	r3, [r3]
 2620 000e 8342     		cmp	r3, r0
 2621 0010 34D0     		beq	.L221
1265:../../iot_link/os/liteos/base/core/los_task.c ****     {
1266:../../iot_link/os/liteos/base/core/los_task.c ****         return LOS_ERRNO_TSK_OPERATE_IDLE;
1267:../../iot_link/os/liteos/base/core/los_task.c ****     }
1268:../../iot_link/os/liteos/base/core/los_task.c **** 
1269:../../iot_link/os/liteos/base/core/los_task.c ****     if (uwTaskID == g_uwSwtmrTaskID)
 2622              		.loc 2 1269 0
 2623 0012 1F4B     		ldr	r3, .L225+4
 2624 0014 1B68     		ldr	r3, [r3]
 2625 0016 8342     		cmp	r3, r0
 2626 0018 32D0     		beq	.L222
1270:../../iot_link/os/liteos/base/core/los_task.c ****     {
1271:../../iot_link/os/liteos/base/core/los_task.c ****         return LOS_ERRNO_TSK_OPERATE_SWTMR;
1272:../../iot_link/os/liteos/base/core/los_task.c ****     }
1273:../../iot_link/os/liteos/base/core/los_task.c **** 
1274:../../iot_link/os/liteos/base/core/los_task.c ****     if (OS_CHECK_TSK_PID_NOIDLE(uwTaskID))
 2627              		.loc 2 1274 0
 2628 001a 1E4B     		ldr	r3, .L225+8
 2629 001c 1B68     		ldr	r3, [r3]
 2630 001e 8342     		cmp	r3, r0
 2631 0020 30D9     		bls	.L223
 2632              	.LVL249:
 2633              	.LBB140:
 2634              	.LBB141:
1275:../../iot_link/os/liteos/base/core/los_task.c ****     {
1276:../../iot_link/os/liteos/base/core/los_task.c ****         return LOS_ERRNO_TSK_ID_INVALID;
1277:../../iot_link/os/liteos/base/core/los_task.c ****     }
1278:../../iot_link/os/liteos/base/core/los_task.c **** 
1279:../../iot_link/os/liteos/base/core/los_task.c ****     pstTaskCB = OS_TCB_FROM_TID(uwTaskID);
 2635              		.loc 2 1279 0
 2636 0022 1D4B     		ldr	r3, .L225+12
 2637 0024 1D68     		ldr	r5, [r3]
 2638 0026 5423     		movs	r3, #84
 2639 0028 03FB0055 		mla	r5, r3, r0, r5
 2640              	.LVL250:
1280:../../iot_link/os/liteos/base/core/los_task.c ****     uvIntSave = LOS_IntLock();
 2641              		.loc 2 1280 0
 2642 002c FFF7FEFF 		bl	LOS_IntLock
 2643              	.LVL251:
1281:../../iot_link/os/liteos/base/core/los_task.c ****     usTempStatus = pstTaskCB->usTaskStatus;
ARM GAS  C:\Users\LuckyE\AppData\Local\Temp\ccK6ohhW.s 			page 79


 2644              		.loc 2 1281 0
 2645 0030 AB88     		ldrh	r3, [r5, #4]
1282:../../iot_link/os/liteos/base/core/los_task.c ****     if (OS_TASK_STATUS_UNUSED & usTempStatus)
 2646              		.loc 2 1282 0
 2647 0032 DA07     		lsls	r2, r3, #31
1280:../../iot_link/os/liteos/base/core/los_task.c ****     uvIntSave = LOS_IntLock();
 2648              		.loc 2 1280 0
 2649 0034 8046     		mov	r8, r0
 2650              	.LVL252:
 2651              		.loc 2 1282 0
 2652 0036 04D5     		bpl	.L217
1283:../../iot_link/os/liteos/base/core/los_task.c ****     {
1284:../../iot_link/os/liteos/base/core/los_task.c ****         (VOID)LOS_IntRestore(uvIntSave);
 2653              		.loc 2 1284 0
 2654 0038 FFF7FEFF 		bl	LOS_IntRestore
 2655              	.LVL253:
1285:../../iot_link/os/liteos/base/core/los_task.c ****         return LOS_ERRNO_TSK_NOT_CREATED;
 2656              		.loc 2 1285 0
 2657 003c 1748     		ldr	r0, .L225+16
 2658              	.LVL254:
 2659              	.L215:
 2660              	.LBE141:
 2661              	.LBE140:
1286:../../iot_link/os/liteos/base/core/los_task.c ****     }
1287:../../iot_link/os/liteos/base/core/los_task.c ****     /* delete the task and insert with right priority into ready queue */
1288:../../iot_link/os/liteos/base/core/los_task.c ****     bIsReady = (OS_TASK_STATUS_READY & usTempStatus);
1289:../../iot_link/os/liteos/base/core/los_task.c ****     if (bIsReady)
1290:../../iot_link/os/liteos/base/core/los_task.c ****     {
1291:../../iot_link/os/liteos/base/core/los_task.c ****         osPriqueueDequeue(&pstTaskCB->stPendList);
1292:../../iot_link/os/liteos/base/core/los_task.c ****         pstTaskCB->usTaskStatus &= (~OS_TASK_STATUS_READY);
1293:../../iot_link/os/liteos/base/core/los_task.c ****         pstTaskCB->usPriority = usTaskPrio;
1294:../../iot_link/os/liteos/base/core/los_task.c ****         pstTaskCB->usTaskStatus |= OS_TASK_STATUS_READY;
1295:../../iot_link/os/liteos/base/core/los_task.c ****         osPriqueueEnqueue(&pstTaskCB->stPendList, pstTaskCB->usPriority);
1296:../../iot_link/os/liteos/base/core/los_task.c ****     }
1297:../../iot_link/os/liteos/base/core/los_task.c ****     else
1298:../../iot_link/os/liteos/base/core/los_task.c ****     {
1299:../../iot_link/os/liteos/base/core/los_task.c ****         pstTaskCB->usPriority = usTaskPrio;
1300:../../iot_link/os/liteos/base/core/los_task.c ****     }
1301:../../iot_link/os/liteos/base/core/los_task.c **** 
1302:../../iot_link/os/liteos/base/core/los_task.c ****     (VOID)LOS_IntRestore(uvIntSave);
1303:../../iot_link/os/liteos/base/core/los_task.c ****     /* delete the task and insert with right priority into ready queue */
1304:../../iot_link/os/liteos/base/core/los_task.c ****     if (bIsReady)
1305:../../iot_link/os/liteos/base/core/los_task.c ****     {
1306:../../iot_link/os/liteos/base/core/los_task.c ****         LOS_Schedule();
1307:../../iot_link/os/liteos/base/core/los_task.c ****     }
1308:../../iot_link/os/liteos/base/core/los_task.c **** 
1309:../../iot_link/os/liteos/base/core/los_task.c ****     return LOS_OK;
1310:../../iot_link/os/liteos/base/core/los_task.c **** }
 2662              		.loc 2 1310 0
 2663 003e BDE8F081 		pop	{r4, r5, r6, r7, r8, pc}
 2664              	.LVL255:
 2665              	.L217:
 2666              	.LBB144:
 2667              	.LBB142:
1289:../../iot_link/os/liteos/base/core/los_task.c ****     {
 2668              		.loc 2 1289 0
 2669 0042 13F00404 		ands	r4, r3, #4
ARM GAS  C:\Users\LuckyE\AppData\Local\Temp\ccK6ohhW.s 			page 80


 2670              	.LVL256:
 2671 0046 15D0     		beq	.L218
1291:../../iot_link/os/liteos/base/core/los_task.c ****         pstTaskCB->usTaskStatus &= (~OS_TASK_STATUS_READY);
 2672              		.loc 2 1291 0
 2673 0048 05F12807 		add	r7, r5, #40
 2674 004c 3846     		mov	r0, r7
 2675              	.LVL257:
 2676 004e FFF7FEFF 		bl	osPriqueueDequeue
 2677              	.LVL258:
1292:../../iot_link/os/liteos/base/core/los_task.c ****         pstTaskCB->usPriority = usTaskPrio;
 2678              		.loc 2 1292 0
 2679 0052 AB88     		ldrh	r3, [r5, #4]
1293:../../iot_link/os/liteos/base/core/los_task.c ****         pstTaskCB->usTaskStatus |= OS_TASK_STATUS_READY;
 2680              		.loc 2 1293 0
 2681 0054 EE80     		strh	r6, [r5, #6]	@ movhi
1294:../../iot_link/os/liteos/base/core/los_task.c ****         osPriqueueEnqueue(&pstTaskCB->stPendList, pstTaskCB->usPriority);
 2682              		.loc 2 1294 0
 2683 0056 43F00403 		orr	r3, r3, #4
 2684 005a AB80     		strh	r3, [r5, #4]	@ movhi
1295:../../iot_link/os/liteos/base/core/los_task.c ****     }
 2685              		.loc 2 1295 0
 2686 005c 3146     		mov	r1, r6
 2687 005e 3846     		mov	r0, r7
 2688 0060 FFF7FEFF 		bl	osPriqueueEnqueue
 2689              	.LVL259:
 2690              	.L219:
1302:../../iot_link/os/liteos/base/core/los_task.c ****     /* delete the task and insert with right priority into ready queue */
 2691              		.loc 2 1302 0
 2692 0064 4046     		mov	r0, r8
 2693 0066 FFF7FEFF 		bl	LOS_IntRestore
 2694              	.LVL260:
1304:../../iot_link/os/liteos/base/core/los_task.c ****     {
 2695              		.loc 2 1304 0
 2696 006a 6CB1     		cbz	r4, .L224
1306:../../iot_link/os/liteos/base/core/los_task.c ****     }
 2697              		.loc 2 1306 0
 2698 006c FFF7FEFF 		bl	LOS_Schedule
 2699              	.LVL261:
1309:../../iot_link/os/liteos/base/core/los_task.c **** }
 2700              		.loc 2 1309 0
 2701 0070 0020     		movs	r0, #0
 2702 0072 E4E7     		b	.L215
 2703              	.LVL262:
 2704              	.L218:
1299:../../iot_link/os/liteos/base/core/los_task.c ****     }
 2705              		.loc 2 1299 0
 2706 0074 EE80     		strh	r6, [r5, #6]	@ movhi
 2707 0076 F5E7     		b	.L219
 2708              	.LVL263:
 2709              	.L220:
 2710              	.LBE142:
 2711              	.LBE144:
1261:../../iot_link/os/liteos/base/core/los_task.c ****     }
 2712              		.loc 2 1261 0
 2713 0078 0948     		ldr	r0, .L225+20
 2714              	.LVL264:
 2715 007a E0E7     		b	.L215
ARM GAS  C:\Users\LuckyE\AppData\Local\Temp\ccK6ohhW.s 			page 81


 2716              	.LVL265:
 2717              	.L221:
1266:../../iot_link/os/liteos/base/core/los_task.c ****     }
 2718              		.loc 2 1266 0
 2719 007c 0948     		ldr	r0, .L225+24
 2720              	.LVL266:
 2721 007e DEE7     		b	.L215
 2722              	.LVL267:
 2723              	.L222:
1271:../../iot_link/os/liteos/base/core/los_task.c ****     }
 2724              		.loc 2 1271 0
 2725 0080 0948     		ldr	r0, .L225+28
 2726              	.LVL268:
 2727 0082 DCE7     		b	.L215
 2728              	.LVL269:
 2729              	.L223:
1276:../../iot_link/os/liteos/base/core/los_task.c ****     }
 2730              		.loc 2 1276 0
 2731 0084 0948     		ldr	r0, .L225+32
 2732              	.LVL270:
 2733 0086 DAE7     		b	.L215
 2734              	.LVL271:
 2735              	.L224:
 2736              	.LBB145:
 2737              	.LBB143:
1309:../../iot_link/os/liteos/base/core/los_task.c **** }
 2738              		.loc 2 1309 0
 2739 0088 2046     		mov	r0, r4
 2740 008a D8E7     		b	.L215
 2741              	.L226:
 2742              		.align	2
 2743              	.L225:
 2744 008c 00000000 		.word	g_uwIdleTaskID
 2745 0090 00000000 		.word	g_uwSwtmrTaskID
 2746 0094 00000000 		.word	g_uwTskMaxNum
 2747 0098 00000000 		.word	g_pstTaskCBArray
 2748 009c 0A020002 		.word	33554954
 2749 00a0 03020002 		.word	33554947
 2750 00a4 14020002 		.word	33554964
 2751 00a8 22020002 		.word	33554978
 2752 00ac 07020002 		.word	33554951
 2753              	.LBE143:
 2754              	.LBE145:
 2755              		.cfi_endproc
 2756              	.LFE310:
 2758              		.section	.text.LOS_CurTaskPriSet,"ax",%progbits
 2759              		.align	1
 2760              		.global	LOS_CurTaskPriSet
 2761              		.syntax unified
 2762              		.thumb
 2763              		.thumb_func
 2764              		.fpu fpv4-sp-d16
 2766              	LOS_CurTaskPriSet:
 2767              	.LFB311:
1311:../../iot_link/os/liteos/base/core/los_task.c **** 
1312:../../iot_link/os/liteos/base/core/los_task.c **** /*****************************************************************************
1313:../../iot_link/os/liteos/base/core/los_task.c ****  Function : LOS_CurTaskPriSet
ARM GAS  C:\Users\LuckyE\AppData\Local\Temp\ccK6ohhW.s 			page 82


1314:../../iot_link/os/liteos/base/core/los_task.c ****  Description : Set the priority of the current task
1315:../../iot_link/os/liteos/base/core/los_task.c ****  Input       : usTaskPrio
1316:../../iot_link/os/liteos/base/core/los_task.c ****  Output      : None
1317:../../iot_link/os/liteos/base/core/los_task.c ****  Return      : None
1318:../../iot_link/os/liteos/base/core/los_task.c ****  *****************************************************************************/
1319:../../iot_link/os/liteos/base/core/los_task.c **** LITE_OS_SEC_TEXT_MINOR UINT32 LOS_CurTaskPriSet(UINT16 usTaskPrio)
1320:../../iot_link/os/liteos/base/core/los_task.c **** {
 2768              		.loc 2 1320 0
 2769              		.cfi_startproc
 2770              		@ args = 0, pretend = 0, frame = 0
 2771              		@ frame_needed = 0, uses_anonymous_args = 0
 2772              		@ link register save eliminated.
 2773              	.LVL272:
1321:../../iot_link/os/liteos/base/core/los_task.c ****     UINT32 uwRet;
1322:../../iot_link/os/liteos/base/core/los_task.c ****     uwRet = LOS_TaskPriSet(g_stLosTask.pstRunTask->uwTaskID, usTaskPrio);
 2774              		.loc 2 1322 0
 2775 0000 024B     		ldr	r3, .L228
 2776 0002 1B68     		ldr	r3, [r3]
 2777 0004 0146     		mov	r1, r0
 2778 0006 1869     		ldr	r0, [r3, #16]
 2779              	.LVL273:
 2780 0008 FFF7FEBF 		b	LOS_TaskPriSet
 2781              	.LVL274:
 2782              	.L229:
 2783              		.align	2
 2784              	.L228:
 2785 000c 00000000 		.word	g_stLosTask
 2786              		.cfi_endproc
 2787              	.LFE311:
 2789              		.section	.text.osTaskWait,"ax",%progbits
 2790              		.align	1
 2791              		.global	osTaskWait
 2792              		.syntax unified
 2793              		.thumb
 2794              		.thumb_func
 2795              		.fpu fpv4-sp-d16
 2797              	osTaskWait:
 2798              	.LFB312:
1323:../../iot_link/os/liteos/base/core/los_task.c ****     return uwRet;
1324:../../iot_link/os/liteos/base/core/los_task.c **** }
1325:../../iot_link/os/liteos/base/core/los_task.c **** 
1326:../../iot_link/os/liteos/base/core/los_task.c **** /**************************************************************************
1327:../../iot_link/os/liteos/base/core/los_task.c ****  Function    : osTaskWait
1328:../../iot_link/os/liteos/base/core/los_task.c ****  Description : pend a task in pstList
1329:../../iot_link/os/liteos/base/core/los_task.c ****  Input       : pstList
1330:../../iot_link/os/liteos/base/core/los_task.c ****                uwTimeOut -- Expiry time
1331:../../iot_link/os/liteos/base/core/los_task.c ****  Output      : none
1332:../../iot_link/os/liteos/base/core/los_task.c ****  Return      : LOS_OK on success or LOS_NOK on failure
1333:../../iot_link/os/liteos/base/core/los_task.c **** **************************************************************************/
1334:../../iot_link/os/liteos/base/core/los_task.c **** LITE_OS_SEC_TEXT VOID osTaskWait(LOS_DL_LIST *pstList, UINT32 uwTaskStatus, UINT32 uwTimeOut)
1335:../../iot_link/os/liteos/base/core/los_task.c **** {
 2799              		.loc 2 1335 0
 2800              		.cfi_startproc
 2801              		@ args = 0, pretend = 0, frame = 0
 2802              		@ frame_needed = 0, uses_anonymous_args = 0
 2803              	.LVL275:
1336:../../iot_link/os/liteos/base/core/los_task.c ****     LOS_TASK_CB *pstRunTsk;
ARM GAS  C:\Users\LuckyE\AppData\Local\Temp\ccK6ohhW.s 			page 83


1337:../../iot_link/os/liteos/base/core/los_task.c ****     LOS_DL_LIST *pstPendObj;
1338:../../iot_link/os/liteos/base/core/los_task.c **** 
1339:../../iot_link/os/liteos/base/core/los_task.c ****     pstRunTsk = g_stLosTask.pstRunTask;
 2804              		.loc 2 1339 0
 2805 0000 134B     		ldr	r3, .L232
1335:../../iot_link/os/liteos/base/core/los_task.c ****     LOS_TASK_CB *pstRunTsk;
 2806              		.loc 2 1335 0
 2807 0002 2DE9F041 		push	{r4, r5, r6, r7, r8, lr}
 2808              	.LCFI33:
 2809              		.cfi_def_cfa_offset 24
 2810              		.cfi_offset 4, -24
 2811              		.cfi_offset 5, -20
 2812              		.cfi_offset 6, -16
 2813              		.cfi_offset 7, -12
 2814              		.cfi_offset 8, -8
 2815              		.cfi_offset 14, -4
 2816              		.loc 2 1339 0
 2817 0006 1C68     		ldr	r4, [r3]
1335:../../iot_link/os/liteos/base/core/los_task.c ****     LOS_TASK_CB *pstRunTsk;
 2818              		.loc 2 1335 0
 2819 0008 0746     		mov	r7, r0
 2820              	.LVL276:
1340:../../iot_link/os/liteos/base/core/los_task.c ****     osPriqueueDequeue(&pstRunTsk->stPendList);
 2821              		.loc 2 1340 0
 2822 000a 04F12805 		add	r5, r4, #40
 2823 000e 2846     		mov	r0, r5
 2824              	.LVL277:
1335:../../iot_link/os/liteos/base/core/los_task.c ****     LOS_TASK_CB *pstRunTsk;
 2825              		.loc 2 1335 0
 2826 0010 1646     		mov	r6, r2
 2827 0012 8846     		mov	r8, r1
 2828              		.loc 2 1340 0
 2829 0014 FFF7FEFF 		bl	osPriqueueDequeue
 2830              	.LVL278:
1341:../../iot_link/os/liteos/base/core/los_task.c ****     pstRunTsk->usTaskStatus &= (~OS_TASK_STATUS_READY);
1342:../../iot_link/os/liteos/base/core/los_task.c ****     pstPendObj = &pstRunTsk->stPendList;
1343:../../iot_link/os/liteos/base/core/los_task.c ****     pstRunTsk->usTaskStatus |= uwTaskStatus;
1344:../../iot_link/os/liteos/base/core/los_task.c ****     LOS_ListTailInsert(pstList,pstPendObj);
 2831              		.loc 2 1344 0
 2832 0018 3868     		ldr	r0, [r7]
 2833              	.LVL279:
1341:../../iot_link/os/liteos/base/core/los_task.c ****     pstRunTsk->usTaskStatus &= (~OS_TASK_STATUS_READY);
 2834              		.loc 2 1341 0
 2835 001a A388     		ldrh	r3, [r4, #4]
 2836              	.LBB150:
 2837              	.LBB151:
 2838              	.LBB152:
 131:../../iot_link/os/liteos/include/los_list.h ****     pstNode->pstPrev = pstList;
 2839              		.loc 1 131 0
 2840 001c 4268     		ldr	r2, [r0, #4]
 132:../../iot_link/os/liteos/include/los_list.h ****     pstList->pstNext->pstPrev = pstNode;
 2841              		.loc 1 132 0
 2842 001e C4E90A02 		strd	r0, r2, [r4, #40]
 2843              	.LBE152:
 2844              	.LBE151:
 2845              	.LBE150:
1341:../../iot_link/os/liteos/base/core/los_task.c ****     pstRunTsk->usTaskStatus &= (~OS_TASK_STATUS_READY);
ARM GAS  C:\Users\LuckyE\AppData\Local\Temp\ccK6ohhW.s 			page 84


 2846              		.loc 2 1341 0
 2847 0022 23F00403 		bic	r3, r3, #4
 2848              	.LBB159:
 2849              	.LBB156:
 2850              	.LBB153:
 133:../../iot_link/os/liteos/include/los_list.h ****     pstList->pstNext = pstNode;
 2851              		.loc 1 133 0
 2852 0026 4268     		ldr	r2, [r0, #4]
 2853              	.LBE153:
 2854              	.LBE156:
 2855              	.LBE159:
1343:../../iot_link/os/liteos/base/core/los_task.c ****     LOS_ListTailInsert(pstList,pstPendObj);
 2856              		.loc 2 1343 0
 2857 0028 43EA0803 		orr	r3, r3, r8
 2858 002c 9BB2     		uxth	r3, r3
 2859 002e A380     		strh	r3, [r4, #4]	@ movhi
 2860              	.LBB160:
 2861              	.LBB157:
 2862              	.LBB154:
 133:../../iot_link/os/liteos/include/los_list.h ****     pstList->pstNext = pstNode;
 2863              		.loc 1 133 0
 2864 0030 1560     		str	r5, [r2]
 2865              	.LBE154:
 2866              	.LBE157:
 2867              	.LBE160:
1345:../../iot_link/os/liteos/base/core/los_task.c ****     if (uwTimeOut != LOS_WAIT_FOREVER)
 2868              		.loc 2 1345 0
 2869 0032 721C     		adds	r2, r6, #1
 2870              	.LBB161:
 2871              	.LBB158:
 2872              	.LBB155:
 134:../../iot_link/os/liteos/include/los_list.h **** }
 2873              		.loc 1 134 0
 2874 0034 4560     		str	r5, [r0, #4]
 2875              	.LVL280:
 2876              	.LBE155:
 2877              	.LBE158:
 2878              	.LBE161:
 2879              		.loc 2 1345 0
 2880 0036 08D0     		beq	.L230
1346:../../iot_link/os/liteos/base/core/los_task.c ****     {
1347:../../iot_link/os/liteos/base/core/los_task.c ****         pstRunTsk->usTaskStatus |= OS_TASK_STATUS_TIMEOUT;
 2881              		.loc 2 1347 0
 2882 0038 43F04003 		orr	r3, r3, #64
 2883 003c A380     		strh	r3, [r4, #4]	@ movhi
1348:../../iot_link/os/liteos/base/core/los_task.c ****         osTaskAdd2TimerList((LOS_TASK_CB *)pstRunTsk, uwTimeOut);
 2884              		.loc 2 1348 0
 2885 003e 3146     		mov	r1, r6
 2886 0040 2046     		mov	r0, r4
1349:../../iot_link/os/liteos/base/core/los_task.c ****     }
1350:../../iot_link/os/liteos/base/core/los_task.c **** }
 2887              		.loc 2 1350 0
 2888 0042 BDE8F041 		pop	{r4, r5, r6, r7, r8, lr}
 2889              	.LCFI34:
 2890              		.cfi_remember_state
 2891              		.cfi_restore 14
 2892              		.cfi_restore 8
ARM GAS  C:\Users\LuckyE\AppData\Local\Temp\ccK6ohhW.s 			page 85


 2893              		.cfi_restore 7
 2894              		.cfi_restore 6
 2895              		.cfi_restore 5
 2896              		.cfi_restore 4
 2897              		.cfi_def_cfa_offset 0
 2898              	.LVL281:
1348:../../iot_link/os/liteos/base/core/los_task.c ****         osTaskAdd2TimerList((LOS_TASK_CB *)pstRunTsk, uwTimeOut);
 2899              		.loc 2 1348 0
 2900 0046 FFF7FEBF 		b	osTaskAdd2TimerList
 2901              	.LVL282:
 2902              	.L230:
 2903              	.LCFI35:
 2904              		.cfi_restore_state
 2905              		.loc 2 1350 0
 2906 004a BDE8F081 		pop	{r4, r5, r6, r7, r8, pc}
 2907              	.LVL283:
 2908              	.L233:
 2909 004e 00BF     		.align	2
 2910              	.L232:
 2911 0050 00000000 		.word	g_stLosTask
 2912              		.cfi_endproc
 2913              	.LFE312:
 2915              		.section	.text.osTaskWake,"ax",%progbits
 2916              		.align	1
 2917              		.global	osTaskWake
 2918              		.syntax unified
 2919              		.thumb
 2920              		.thumb_func
 2921              		.fpu fpv4-sp-d16
 2923              	osTaskWake:
 2924              	.LFB313:
1351:../../iot_link/os/liteos/base/core/los_task.c **** 
1352:../../iot_link/os/liteos/base/core/los_task.c **** /**************************************************************************
1353:../../iot_link/os/liteos/base/core/los_task.c ****  Function    : osTaskWake
1354:../../iot_link/os/liteos/base/core/los_task.c ****  Description : delete the task from pendlist and also add to the priqueue
1355:../../iot_link/os/liteos/base/core/los_task.c ****  Input       : pstResumedTask --> resumed task
1356:../../iot_link/os/liteos/base/core/los_task.c ****  Output      : pstResumedTask
1357:../../iot_link/os/liteos/base/core/los_task.c ****  Return      : none
1358:../../iot_link/os/liteos/base/core/los_task.c **** **************************************************************************/
1359:../../iot_link/os/liteos/base/core/los_task.c **** LITE_OS_SEC_TEXT VOID osTaskWake(LOS_TASK_CB *pstResumedTask, UINT32 uwTaskStatus)
1360:../../iot_link/os/liteos/base/core/los_task.c **** {
 2925              		.loc 2 1360 0
 2926              		.cfi_startproc
 2927              		@ args = 0, pretend = 0, frame = 0
 2928              		@ frame_needed = 0, uses_anonymous_args = 0
 2929              	.LVL284:
 2930 0000 38B5     		push	{r3, r4, r5, lr}
 2931              	.LCFI36:
 2932              		.cfi_def_cfa_offset 16
 2933              		.cfi_offset 3, -16
 2934              		.cfi_offset 4, -12
 2935              		.cfi_offset 5, -8
 2936              		.cfi_offset 14, -4
1361:../../iot_link/os/liteos/base/core/los_task.c ****     LOS_ListDelete(&pstResumedTask->stPendList);
 2937              		.loc 2 1361 0
 2938 0002 00F12805 		add	r5, r0, #40
1360:../../iot_link/os/liteos/base/core/los_task.c ****     LOS_ListDelete(&pstResumedTask->stPendList);
ARM GAS  C:\Users\LuckyE\AppData\Local\Temp\ccK6ohhW.s 			page 86


 2939              		.loc 2 1360 0
 2940 0006 0446     		mov	r4, r0
 2941              		.loc 2 1361 0
 2942 0008 2846     		mov	r0, r5
 2943              	.LVL285:
 2944 000a FFF7FEFF 		bl	LOS_ListDelete
 2945              	.LVL286:
1362:../../iot_link/os/liteos/base/core/los_task.c ****     pstResumedTask->usTaskStatus &= (~uwTaskStatus);
 2946              		.loc 2 1362 0
 2947 000e A388     		ldrh	r3, [r4, #4]
 2948 0010 23EA0101 		bic	r1, r3, r1
 2949              	.LVL287:
 2950 0014 A180     		strh	r1, [r4, #4]	@ movhi
1363:../../iot_link/os/liteos/base/core/los_task.c ****     if (pstResumedTask->usTaskStatus & OS_TASK_STATUS_TIMEOUT)
 2951              		.loc 2 1363 0
 2952 0016 4906     		lsls	r1, r1, #25
 2953 0018 06D5     		bpl	.L235
1364:../../iot_link/os/liteos/base/core/los_task.c ****     {
1365:../../iot_link/os/liteos/base/core/los_task.c ****         osTimerListDelete(pstResumedTask);
 2954              		.loc 2 1365 0
 2955 001a 2046     		mov	r0, r4
 2956 001c FFF7FEFF 		bl	osTimerListDelete
 2957              	.LVL288:
1366:../../iot_link/os/liteos/base/core/los_task.c ****         pstResumedTask->usTaskStatus &= (~OS_TASK_STATUS_TIMEOUT);
 2958              		.loc 2 1366 0
 2959 0020 A388     		ldrh	r3, [r4, #4]
 2960 0022 23F04003 		bic	r3, r3, #64
 2961 0026 A380     		strh	r3, [r4, #4]	@ movhi
 2962              	.L235:
1367:../../iot_link/os/liteos/base/core/los_task.c ****     }
1368:../../iot_link/os/liteos/base/core/los_task.c ****     if (!(pstResumedTask->usTaskStatus & OS_TASK_STATUS_SUSPEND))
 2963              		.loc 2 1368 0
 2964 0028 A388     		ldrh	r3, [r4, #4]
 2965 002a 9A07     		lsls	r2, r3, #30
 2966 002c 08D4     		bmi	.L234
1369:../../iot_link/os/liteos/base/core/los_task.c ****     {
1370:../../iot_link/os/liteos/base/core/los_task.c ****         pstResumedTask->usTaskStatus |= OS_TASK_STATUS_READY;
 2967              		.loc 2 1370 0
 2968 002e 43F00403 		orr	r3, r3, #4
 2969 0032 A380     		strh	r3, [r4, #4]	@ movhi
1371:../../iot_link/os/liteos/base/core/los_task.c ****         osPriqueueEnqueue(&pstResumedTask->stPendList, pstResumedTask->usPriority);
 2970              		.loc 2 1371 0
 2971 0034 E188     		ldrh	r1, [r4, #6]
 2972 0036 2846     		mov	r0, r5
1372:../../iot_link/os/liteos/base/core/los_task.c ****     }
1373:../../iot_link/os/liteos/base/core/los_task.c **** }
 2973              		.loc 2 1373 0
 2974 0038 BDE83840 		pop	{r3, r4, r5, lr}
 2975              	.LCFI37:
 2976              		.cfi_remember_state
 2977              		.cfi_restore 14
 2978              		.cfi_restore 5
 2979              		.cfi_restore 4
 2980              		.cfi_restore 3
 2981              		.cfi_def_cfa_offset 0
 2982              	.LVL289:
1371:../../iot_link/os/liteos/base/core/los_task.c ****         osPriqueueEnqueue(&pstResumedTask->stPendList, pstResumedTask->usPriority);
ARM GAS  C:\Users\LuckyE\AppData\Local\Temp\ccK6ohhW.s 			page 87


 2983              		.loc 2 1371 0
 2984 003c FFF7FEBF 		b	osPriqueueEnqueue
 2985              	.LVL290:
 2986              	.L234:
 2987              	.LCFI38:
 2988              		.cfi_restore_state
 2989              		.loc 2 1373 0
 2990 0040 38BD     		pop	{r3, r4, r5, pc}
 2991              		.cfi_endproc
 2992              	.LFE313:
 2994              		.section	.text.LOS_TaskYield,"ax",%progbits
 2995              		.align	1
 2996              		.global	LOS_TaskYield
 2997              		.syntax unified
 2998              		.thumb
 2999              		.thumb_func
 3000              		.fpu fpv4-sp-d16
 3002              	LOS_TaskYield:
 3003              	.LFB314:
1374:../../iot_link/os/liteos/base/core/los_task.c **** 
1375:../../iot_link/os/liteos/base/core/los_task.c **** /*****************************************************************************
1376:../../iot_link/os/liteos/base/core/los_task.c ****  Function : LOS_TaskYield
1377:../../iot_link/os/liteos/base/core/los_task.c ****  Description : Adjust the procedure order of specified task
1378:../../iot_link/os/liteos/base/core/los_task.c ****  Input       : usTaskPrio
1379:../../iot_link/os/liteos/base/core/los_task.c ****                uwNextTask
1380:../../iot_link/os/liteos/base/core/los_task.c ****  Output      : None
1381:../../iot_link/os/liteos/base/core/los_task.c ****  Return      : LOS_OK on success or error code on failure
1382:../../iot_link/os/liteos/base/core/los_task.c ****  *****************************************************************************/
1383:../../iot_link/os/liteos/base/core/los_task.c **** LITE_OS_SEC_TEXT_MINOR UINT32 LOS_TaskYield(VOID)
1384:../../iot_link/os/liteos/base/core/los_task.c **** {
 3004              		.loc 2 1384 0
 3005              		.cfi_startproc
 3006              		@ args = 0, pretend = 0, frame = 0
 3007              		@ frame_needed = 0, uses_anonymous_args = 0
 3008              	.LVL291:
 3009 0000 38B5     		push	{r3, r4, r5, lr}
 3010              	.LCFI39:
 3011              		.cfi_def_cfa_offset 16
 3012              		.cfi_offset 3, -16
 3013              		.cfi_offset 4, -12
 3014              		.cfi_offset 5, -8
 3015              		.cfi_offset 14, -4
1385:../../iot_link/os/liteos/base/core/los_task.c ****     UINT32 uwTskCount = 0;
1386:../../iot_link/os/liteos/base/core/los_task.c ****     UINTPTR uvIntSave;
1387:../../iot_link/os/liteos/base/core/los_task.c **** 
1388:../../iot_link/os/liteos/base/core/los_task.c ****     if(g_stLosTask.pstRunTask->uwTaskID >= g_uwTskMaxNum)
 3016              		.loc 2 1388 0
 3017 0002 174C     		ldr	r4, .L245
 3018 0004 174A     		ldr	r2, .L245+4
 3019 0006 2368     		ldr	r3, [r4]
 3020 0008 1268     		ldr	r2, [r2]
 3021 000a 1969     		ldr	r1, [r3, #16]
 3022 000c 9142     		cmp	r1, r2
 3023 000e 25D2     		bcs	.L243
1389:../../iot_link/os/liteos/base/core/los_task.c ****     {
1390:../../iot_link/os/liteos/base/core/los_task.c ****         return LOS_ERRNO_TSK_ID_INVALID;
1391:../../iot_link/os/liteos/base/core/los_task.c ****     }
ARM GAS  C:\Users\LuckyE\AppData\Local\Temp\ccK6ohhW.s 			page 88


1392:../../iot_link/os/liteos/base/core/los_task.c ****     if(!(g_stLosTask.pstRunTask->usTaskStatus & OS_TASK_STATUS_READY))
 3024              		.loc 2 1392 0
 3025 0010 9888     		ldrh	r0, [r3, #4]
 3026 0012 10F00400 		ands	r0, r0, #4
 3027 0016 1BD0     		beq	.L240
 3028              	.LBB164:
 3029              	.LBB165:
1393:../../iot_link/os/liteos/base/core/los_task.c ****     {
1394:../../iot_link/os/liteos/base/core/los_task.c ****         return LOS_OK;
1395:../../iot_link/os/liteos/base/core/los_task.c ****     }
1396:../../iot_link/os/liteos/base/core/los_task.c ****     uvIntSave = LOS_IntLock();
 3030              		.loc 2 1396 0
 3031 0018 FFF7FEFF 		bl	LOS_IntLock
 3032              	.LVL292:
1397:../../iot_link/os/liteos/base/core/los_task.c ****     uwTskCount = osPriqueueSize(g_stLosTask.pstRunTask->usPriority);
 3033              		.loc 2 1397 0
 3034 001c 2368     		ldr	r3, [r4]
1396:../../iot_link/os/liteos/base/core/los_task.c ****     uwTskCount = osPriqueueSize(g_stLosTask.pstRunTask->usPriority);
 3035              		.loc 2 1396 0
 3036 001e 0546     		mov	r5, r0
 3037              	.LVL293:
 3038              		.loc 2 1397 0
 3039 0020 D888     		ldrh	r0, [r3, #6]
 3040              	.LVL294:
 3041 0022 FFF7FEFF 		bl	osPriqueueSize
 3042              	.LVL295:
1398:../../iot_link/os/liteos/base/core/los_task.c ****     if (uwTskCount > 1)
 3043              		.loc 2 1398 0
 3044 0026 0128     		cmp	r0, #1
 3045 0028 13D9     		bls	.L242
1399:../../iot_link/os/liteos/base/core/los_task.c ****     {
1400:../../iot_link/os/liteos/base/core/los_task.c ****         LOS_ListDelete(&(g_stLosTask.pstRunTask->stPendList));
 3046              		.loc 2 1400 0
 3047 002a 2068     		ldr	r0, [r4]
 3048              	.LVL296:
 3049 002c 2830     		adds	r0, r0, #40
 3050 002e FFF7FEFF 		bl	LOS_ListDelete
 3051              	.LVL297:
1401:../../iot_link/os/liteos/base/core/los_task.c ****         g_stLosTask.pstRunTask->usTaskStatus |= OS_TASK_STATUS_READY;
 3052              		.loc 2 1401 0
 3053 0032 2068     		ldr	r0, [r4]
 3054 0034 8388     		ldrh	r3, [r0, #4]
1402:../../iot_link/os/liteos/base/core/los_task.c ****         osPriqueueEnqueue(&(g_stLosTask.pstRunTask->stPendList), g_stLosTask.pstRunTask->usPriority
 3055              		.loc 2 1402 0
 3056 0036 C188     		ldrh	r1, [r0, #6]
1401:../../iot_link/os/liteos/base/core/los_task.c ****         g_stLosTask.pstRunTask->usTaskStatus |= OS_TASK_STATUS_READY;
 3057              		.loc 2 1401 0
 3058 0038 43F00403 		orr	r3, r3, #4
 3059 003c 8380     		strh	r3, [r0, #4]	@ movhi
 3060              		.loc 2 1402 0
 3061 003e 2830     		adds	r0, r0, #40
 3062 0040 FFF7FEFF 		bl	osPriqueueEnqueue
 3063              	.LVL298:
1403:../../iot_link/os/liteos/base/core/los_task.c ****     }
1404:../../iot_link/os/liteos/base/core/los_task.c ****     else
1405:../../iot_link/os/liteos/base/core/los_task.c ****     {
1406:../../iot_link/os/liteos/base/core/los_task.c ****         (VOID)LOS_IntRestore(uvIntSave);
ARM GAS  C:\Users\LuckyE\AppData\Local\Temp\ccK6ohhW.s 			page 89


1407:../../iot_link/os/liteos/base/core/los_task.c ****         return LOS_ERRNO_TSK_YIELD_NOT_ENOUGH_TASK;
1408:../../iot_link/os/liteos/base/core/los_task.c ****     }
1409:../../iot_link/os/liteos/base/core/los_task.c **** 
1410:../../iot_link/os/liteos/base/core/los_task.c ****     (VOID)LOS_IntRestore(uvIntSave);
 3064              		.loc 2 1410 0
 3065 0044 2846     		mov	r0, r5
 3066 0046 FFF7FEFF 		bl	LOS_IntRestore
 3067              	.LVL299:
1411:../../iot_link/os/liteos/base/core/los_task.c ****     LOS_Schedule();
 3068              		.loc 2 1411 0
 3069 004a FFF7FEFF 		bl	LOS_Schedule
 3070              	.LVL300:
1412:../../iot_link/os/liteos/base/core/los_task.c ****     return LOS_OK;
 3071              		.loc 2 1412 0
 3072 004e 0020     		movs	r0, #0
 3073              	.LVL301:
 3074              	.L240:
 3075              	.LBE165:
 3076              	.LBE164:
1413:../../iot_link/os/liteos/base/core/los_task.c **** }
 3077              		.loc 2 1413 0
 3078 0050 38BD     		pop	{r3, r4, r5, pc}
 3079              	.LVL302:
 3080              	.L242:
 3081              	.LBB167:
 3082              	.LBB166:
1406:../../iot_link/os/liteos/base/core/los_task.c ****         return LOS_ERRNO_TSK_YIELD_NOT_ENOUGH_TASK;
 3083              		.loc 2 1406 0
 3084 0052 2846     		mov	r0, r5
 3085              	.LVL303:
 3086 0054 FFF7FEFF 		bl	LOS_IntRestore
 3087              	.LVL304:
1407:../../iot_link/os/liteos/base/core/los_task.c ****     }
 3088              		.loc 2 1407 0
 3089 0058 0348     		ldr	r0, .L245+8
 3090 005a F9E7     		b	.L240
 3091              	.LVL305:
 3092              	.L243:
 3093              	.LBE166:
 3094              	.LBE167:
1390:../../iot_link/os/liteos/base/core/los_task.c ****     }
 3095              		.loc 2 1390 0
 3096 005c 0348     		ldr	r0, .L245+12
 3097 005e F7E7     		b	.L240
 3098              	.L246:
 3099              		.align	2
 3100              	.L245:
 3101 0060 00000000 		.word	g_stLosTask
 3102 0064 00000000 		.word	g_uwTskMaxNum
 3103 0068 10020002 		.word	33554960
 3104 006c 07020002 		.word	33554951
 3105              		.cfi_endproc
 3106              	.LFE314:
 3108              		.section	.text.LOS_TaskDelay,"ax",%progbits
 3109              		.align	1
 3110              		.global	LOS_TaskDelay
 3111              		.syntax unified
ARM GAS  C:\Users\LuckyE\AppData\Local\Temp\ccK6ohhW.s 			page 90


 3112              		.thumb
 3113              		.thumb_func
 3114              		.fpu fpv4-sp-d16
 3116              	LOS_TaskDelay:
 3117              	.LFB308:
1180:../../iot_link/os/liteos/base/core/los_task.c ****     UINTPTR uvIntSave;
 3118              		.loc 2 1180 0
 3119              		.cfi_startproc
 3120              		@ args = 0, pretend = 0, frame = 0
 3121              		@ frame_needed = 0, uses_anonymous_args = 0
 3122              	.LVL306:
 3123 0000 F8B5     		push	{r3, r4, r5, r6, r7, lr}
 3124              	.LCFI40:
 3125              		.cfi_def_cfa_offset 24
 3126              		.cfi_offset 3, -24
 3127              		.cfi_offset 4, -20
 3128              		.cfi_offset 5, -16
 3129              		.cfi_offset 6, -12
 3130              		.cfi_offset 7, -8
 3131              		.cfi_offset 14, -4
1183:../../iot_link/os/liteos/base/core/los_task.c ****     {
 3132              		.loc 2 1183 0
 3133 0002 164B     		ldr	r3, .L252
 3134 0004 1C68     		ldr	r4, [r3]
1180:../../iot_link/os/liteos/base/core/los_task.c ****     UINTPTR uvIntSave;
 3135              		.loc 2 1180 0
 3136 0006 0646     		mov	r6, r0
1183:../../iot_link/os/liteos/base/core/los_task.c ****     {
 3137              		.loc 2 1183 0
 3138 0008 1CBB     		cbnz	r4, .L250
1188:../../iot_link/os/liteos/base/core/los_task.c ****     {
 3139              		.loc 2 1188 0
 3140 000a 154B     		ldr	r3, .L252+4
 3141 000c 1B88     		ldrh	r3, [r3]
 3142 000e 13BB     		cbnz	r3, .L251
1193:../../iot_link/os/liteos/base/core/los_task.c ****     {
 3143              		.loc 2 1193 0
 3144 0010 18B9     		cbnz	r0, .L249
1209:../../iot_link/os/liteos/base/core/los_task.c **** 
 3145              		.loc 2 1209 0
 3146 0012 BDE8F840 		pop	{r3, r4, r5, r6, r7, lr}
 3147              	.LCFI41:
 3148              		.cfi_remember_state
 3149              		.cfi_restore 14
 3150              		.cfi_restore 7
 3151              		.cfi_restore 6
 3152              		.cfi_restore 5
 3153              		.cfi_restore 4
 3154              		.cfi_restore 3
 3155              		.cfi_def_cfa_offset 0
1195:../../iot_link/os/liteos/base/core/los_task.c ****     }
 3156              		.loc 2 1195 0
 3157 0016 FFF7FEBF 		b	LOS_TaskYield
 3158              	.LVL307:
 3159              	.L249:
 3160              	.LCFI42:
 3161              		.cfi_restore_state
ARM GAS  C:\Users\LuckyE\AppData\Local\Temp\ccK6ohhW.s 			page 91


1199:../../iot_link/os/liteos/base/core/los_task.c ****         osPriqueueDequeue(&(g_stLosTask.pstRunTask->stPendList));
 3162              		.loc 2 1199 0
 3163 001a FFF7FEFF 		bl	LOS_IntLock
 3164              	.LVL308:
1200:../../iot_link/os/liteos/base/core/los_task.c ****         g_stLosTask.pstRunTask->usTaskStatus &= (~OS_TASK_STATUS_READY);
 3165              		.loc 2 1200 0
 3166 001e 114D     		ldr	r5, .L252+8
1199:../../iot_link/os/liteos/base/core/los_task.c ****         osPriqueueDequeue(&(g_stLosTask.pstRunTask->stPendList));
 3167              		.loc 2 1199 0
 3168 0020 0746     		mov	r7, r0
 3169              	.LVL309:
1200:../../iot_link/os/liteos/base/core/los_task.c ****         g_stLosTask.pstRunTask->usTaskStatus &= (~OS_TASK_STATUS_READY);
 3170              		.loc 2 1200 0
 3171 0022 2868     		ldr	r0, [r5]
 3172              	.LVL310:
 3173 0024 2830     		adds	r0, r0, #40
 3174 0026 FFF7FEFF 		bl	osPriqueueDequeue
 3175              	.LVL311:
1201:../../iot_link/os/liteos/base/core/los_task.c ****         osTaskAdd2TimerList((LOS_TASK_CB *)g_stLosTask.pstRunTask, uwTick);
 3176              		.loc 2 1201 0
 3177 002a 2868     		ldr	r0, [r5]
 3178 002c 8388     		ldrh	r3, [r0, #4]
 3179 002e 23F00403 		bic	r3, r3, #4
 3180 0032 8380     		strh	r3, [r0, #4]	@ movhi
1202:../../iot_link/os/liteos/base/core/los_task.c ****         g_stLosTask.pstRunTask->usTaskStatus |= OS_TASK_STATUS_DELAY;
 3181              		.loc 2 1202 0
 3182 0034 3146     		mov	r1, r6
 3183 0036 FFF7FEFF 		bl	osTaskAdd2TimerList
 3184              	.LVL312:
1203:../../iot_link/os/liteos/base/core/los_task.c ****         (VOID)LOS_IntRestore(uvIntSave);
 3185              		.loc 2 1203 0
 3186 003a 2A68     		ldr	r2, [r5]
 3187 003c 9388     		ldrh	r3, [r2, #4]
 3188 003e 43F02003 		orr	r3, r3, #32
 3189 0042 9380     		strh	r3, [r2, #4]	@ movhi
1204:../../iot_link/os/liteos/base/core/los_task.c ****         LOS_Schedule();
 3190              		.loc 2 1204 0
 3191 0044 3846     		mov	r0, r7
 3192 0046 FFF7FEFF 		bl	LOS_IntRestore
 3193              	.LVL313:
1205:../../iot_link/os/liteos/base/core/los_task.c ****     }
 3194              		.loc 2 1205 0
 3195 004a FFF7FEFF 		bl	LOS_Schedule
 3196              	.LVL314:
 3197              	.L247:
1209:../../iot_link/os/liteos/base/core/los_task.c **** 
 3198              		.loc 2 1209 0
 3199 004e 2046     		mov	r0, r4
 3200 0050 F8BD     		pop	{r3, r4, r5, r6, r7, pc}
 3201              	.LVL315:
 3202              	.L250:
1185:../../iot_link/os/liteos/base/core/los_task.c ****     }
 3203              		.loc 2 1185 0
 3204 0052 054C     		ldr	r4, .L252+12
 3205 0054 FBE7     		b	.L247
 3206              	.L251:
1190:../../iot_link/os/liteos/base/core/los_task.c ****     }
ARM GAS  C:\Users\LuckyE\AppData\Local\Temp\ccK6ohhW.s 			page 92


 3207              		.loc 2 1190 0
 3208 0056 054C     		ldr	r4, .L252+16
 3209 0058 F9E7     		b	.L247
 3210              	.L253:
 3211 005a 00BF     		.align	2
 3212              	.L252:
 3213 005c 00000000 		.word	g_vuwIntCount
 3214 0060 00000000 		.word	g_usLosTaskLock
 3215 0064 00000000 		.word	g_stLosTask
 3216 0068 0D020003 		.word	50332173
 3217 006c 0E020002 		.word	33554958
 3218              		.cfi_endproc
 3219              	.LFE308:
 3221              		.section	.text.LOS_TaskLock,"ax",%progbits
 3222              		.align	1
 3223              		.global	LOS_TaskLock
 3224              		.syntax unified
 3225              		.thumb
 3226              		.thumb_func
 3227              		.fpu fpv4-sp-d16
 3229              	LOS_TaskLock:
 3230              	.LFB315:
1414:../../iot_link/os/liteos/base/core/los_task.c **** 
1415:../../iot_link/os/liteos/base/core/los_task.c **** /*****************************************************************************
1416:../../iot_link/os/liteos/base/core/los_task.c ****  Function : LOS_TaskLock
1417:../../iot_link/os/liteos/base/core/los_task.c ****  Description : Task lock
1418:../../iot_link/os/liteos/base/core/los_task.c ****  Input       : None
1419:../../iot_link/os/liteos/base/core/los_task.c ****  Output      : None
1420:../../iot_link/os/liteos/base/core/los_task.c ****  Return      : None
1421:../../iot_link/os/liteos/base/core/los_task.c ****  *****************************************************************************/
1422:../../iot_link/os/liteos/base/core/los_task.c **** LITE_OS_SEC_TEXT_MINOR VOID LOS_TaskLock(VOID)
1423:../../iot_link/os/liteos/base/core/los_task.c **** {
 3231              		.loc 2 1423 0
 3232              		.cfi_startproc
 3233              		@ args = 0, pretend = 0, frame = 0
 3234              		@ frame_needed = 0, uses_anonymous_args = 0
 3235 0000 08B5     		push	{r3, lr}
 3236              	.LCFI43:
 3237              		.cfi_def_cfa_offset 8
 3238              		.cfi_offset 3, -8
 3239              		.cfi_offset 14, -4
1424:../../iot_link/os/liteos/base/core/los_task.c ****     UINTPTR uvIntSave;
1425:../../iot_link/os/liteos/base/core/los_task.c **** 
1426:../../iot_link/os/liteos/base/core/los_task.c ****     uvIntSave = LOS_IntLock();
 3240              		.loc 2 1426 0
 3241 0002 FFF7FEFF 		bl	LOS_IntLock
 3242              	.LVL316:
1427:../../iot_link/os/liteos/base/core/los_task.c ****     g_usLosTaskLock++;
 3243              		.loc 2 1427 0
 3244 0006 044A     		ldr	r2, .L255
 3245 0008 1388     		ldrh	r3, [r2]
 3246 000a 0133     		adds	r3, r3, #1
 3247 000c 1380     		strh	r3, [r2]	@ movhi
1428:../../iot_link/os/liteos/base/core/los_task.c ****     (VOID)LOS_IntRestore(uvIntSave);
1429:../../iot_link/os/liteos/base/core/los_task.c **** }
 3248              		.loc 2 1429 0
 3249 000e BDE80840 		pop	{r3, lr}
ARM GAS  C:\Users\LuckyE\AppData\Local\Temp\ccK6ohhW.s 			page 93


 3250              	.LCFI44:
 3251              		.cfi_restore 14
 3252              		.cfi_restore 3
 3253              		.cfi_def_cfa_offset 0
1428:../../iot_link/os/liteos/base/core/los_task.c ****     (VOID)LOS_IntRestore(uvIntSave);
 3254              		.loc 2 1428 0
 3255 0012 FFF7FEBF 		b	LOS_IntRestore
 3256              	.LVL317:
 3257              	.L256:
 3258 0016 00BF     		.align	2
 3259              	.L255:
 3260 0018 00000000 		.word	g_usLosTaskLock
 3261              		.cfi_endproc
 3262              	.LFE315:
 3264              		.section	.text.LOS_TaskUnlock,"ax",%progbits
 3265              		.align	1
 3266              		.global	LOS_TaskUnlock
 3267              		.syntax unified
 3268              		.thumb
 3269              		.thumb_func
 3270              		.fpu fpv4-sp-d16
 3272              	LOS_TaskUnlock:
 3273              	.LFB316:
1430:../../iot_link/os/liteos/base/core/los_task.c **** 
1431:../../iot_link/os/liteos/base/core/los_task.c **** /*****************************************************************************
1432:../../iot_link/os/liteos/base/core/los_task.c ****  Function : LOS_TaskUnlock
1433:../../iot_link/os/liteos/base/core/los_task.c ****  Description : Task unlock
1434:../../iot_link/os/liteos/base/core/los_task.c ****  Input       : None
1435:../../iot_link/os/liteos/base/core/los_task.c ****  Output      : None
1436:../../iot_link/os/liteos/base/core/los_task.c ****  Return      : None
1437:../../iot_link/os/liteos/base/core/los_task.c ****  *****************************************************************************/
1438:../../iot_link/os/liteos/base/core/los_task.c **** LITE_OS_SEC_TEXT_MINOR VOID LOS_TaskUnlock(VOID)
1439:../../iot_link/os/liteos/base/core/los_task.c **** {
 3274              		.loc 2 1439 0
 3275              		.cfi_startproc
 3276              		@ args = 0, pretend = 0, frame = 0
 3277              		@ frame_needed = 0, uses_anonymous_args = 0
 3278 0000 08B5     		push	{r3, lr}
 3279              	.LCFI45:
 3280              		.cfi_def_cfa_offset 8
 3281              		.cfi_offset 3, -8
 3282              		.cfi_offset 14, -4
1440:../../iot_link/os/liteos/base/core/los_task.c ****     UINTPTR uvIntSave;
1441:../../iot_link/os/liteos/base/core/los_task.c **** 
1442:../../iot_link/os/liteos/base/core/los_task.c ****     uvIntSave = LOS_IntLock();
 3283              		.loc 2 1442 0
 3284 0002 FFF7FEFF 		bl	LOS_IntLock
 3285              	.LVL318:
1443:../../iot_link/os/liteos/base/core/los_task.c ****     if (g_usLosTaskLock > 0)
 3286              		.loc 2 1443 0
 3287 0006 094A     		ldr	r2, .L262
 3288 0008 1388     		ldrh	r3, [r2]
1442:../../iot_link/os/liteos/base/core/los_task.c ****     if (g_usLosTaskLock > 0)
 3289              		.loc 2 1442 0
 3290 000a 0146     		mov	r1, r0
 3291              	.LVL319:
 3292              		.loc 2 1443 0
ARM GAS  C:\Users\LuckyE\AppData\Local\Temp\ccK6ohhW.s 			page 94


 3293 000c 4BB1     		cbz	r3, .L258
1444:../../iot_link/os/liteos/base/core/los_task.c ****     {
1445:../../iot_link/os/liteos/base/core/los_task.c ****         g_usLosTaskLock--;
 3294              		.loc 2 1445 0
 3295 000e 013B     		subs	r3, r3, #1
 3296 0010 9BB2     		uxth	r3, r3
 3297 0012 1380     		strh	r3, [r2]	@ movhi
1446:../../iot_link/os/liteos/base/core/los_task.c ****         if (0 == g_usLosTaskLock)
 3298              		.loc 2 1446 0
 3299 0014 2BB9     		cbnz	r3, .L258
1447:../../iot_link/os/liteos/base/core/los_task.c ****         {
1448:../../iot_link/os/liteos/base/core/los_task.c ****             (VOID)LOS_IntRestore(uvIntSave);
 3300              		.loc 2 1448 0
 3301 0016 FFF7FEFF 		bl	LOS_IntRestore
 3302              	.LVL320:
1449:../../iot_link/os/liteos/base/core/los_task.c ****             LOS_Schedule();
1450:../../iot_link/os/liteos/base/core/los_task.c ****             return;
1451:../../iot_link/os/liteos/base/core/los_task.c ****         }
1452:../../iot_link/os/liteos/base/core/los_task.c ****     }
1453:../../iot_link/os/liteos/base/core/los_task.c **** 
1454:../../iot_link/os/liteos/base/core/los_task.c ****     (VOID)LOS_IntRestore(uvIntSave);
1455:../../iot_link/os/liteos/base/core/los_task.c **** }
 3303              		.loc 2 1455 0
 3304 001a BDE80840 		pop	{r3, lr}
 3305              	.LCFI46:
 3306              		.cfi_remember_state
 3307              		.cfi_restore 14
 3308              		.cfi_restore 3
 3309              		.cfi_def_cfa_offset 0
1449:../../iot_link/os/liteos/base/core/los_task.c ****             LOS_Schedule();
 3310              		.loc 2 1449 0
 3311 001e FFF7FEBF 		b	LOS_Schedule
 3312              	.LVL321:
 3313              	.L258:
 3314              	.LCFI47:
 3315              		.cfi_restore_state
1454:../../iot_link/os/liteos/base/core/los_task.c **** }
 3316              		.loc 2 1454 0
 3317 0022 0846     		mov	r0, r1
 3318              	.LVL322:
 3319              		.loc 2 1455 0
 3320 0024 BDE80840 		pop	{r3, lr}
 3321              	.LCFI48:
 3322              		.cfi_restore 14
 3323              		.cfi_restore 3
 3324              		.cfi_def_cfa_offset 0
1454:../../iot_link/os/liteos/base/core/los_task.c **** }
 3325              		.loc 2 1454 0
 3326 0028 FFF7FEBF 		b	LOS_IntRestore
 3327              	.LVL323:
 3328              	.L263:
 3329              		.align	2
 3330              	.L262:
 3331 002c 00000000 		.word	g_usLosTaskLock
 3332              		.cfi_endproc
 3333              	.LFE316:
 3335              		.section	.text.LOS_TaskInfoGet,"ax",%progbits
ARM GAS  C:\Users\LuckyE\AppData\Local\Temp\ccK6ohhW.s 			page 95


 3336              		.align	1
 3337              		.global	LOS_TaskInfoGet
 3338              		.syntax unified
 3339              		.thumb
 3340              		.thumb_func
 3341              		.fpu fpv4-sp-d16
 3343              	LOS_TaskInfoGet:
 3344              	.LFB317:
1456:../../iot_link/os/liteos/base/core/los_task.c **** 
1457:../../iot_link/os/liteos/base/core/los_task.c **** /*****************************************************************************
1458:../../iot_link/os/liteos/base/core/los_task.c ****  Function : LOS_TaskInfoGet
1459:../../iot_link/os/liteos/base/core/los_task.c ****  Description : Get the information of the task
1460:../../iot_link/os/liteos/base/core/los_task.c ****  Input       : uwTaskID
1461:../../iot_link/os/liteos/base/core/los_task.c ****  Output      : pstTaskInfo
1462:../../iot_link/os/liteos/base/core/los_task.c ****  Return      : LOS_OK on success or error code on failure
1463:../../iot_link/os/liteos/base/core/los_task.c ****  *****************************************************************************/
1464:../../iot_link/os/liteos/base/core/los_task.c **** LITE_OS_SEC_TEXT_MINOR UINT32 LOS_TaskInfoGet(UINT32 uwTaskID, TSK_INFO_S *pstTaskInfo)
1465:../../iot_link/os/liteos/base/core/los_task.c **** {
 3345              		.loc 2 1465 0
 3346              		.cfi_startproc
 3347              		@ args = 0, pretend = 0, frame = 0
 3348              		@ frame_needed = 0, uses_anonymous_args = 0
 3349              	.LVL324:
 3350 0000 2DE9F843 		push	{r3, r4, r5, r6, r7, r8, r9, lr}
 3351              	.LCFI49:
 3352              		.cfi_def_cfa_offset 32
 3353              		.cfi_offset 3, -32
 3354              		.cfi_offset 4, -28
 3355              		.cfi_offset 5, -24
 3356              		.cfi_offset 6, -20
 3357              		.cfi_offset 7, -16
 3358              		.cfi_offset 8, -12
 3359              		.cfi_offset 9, -8
 3360              		.cfi_offset 14, -4
 3361              		.loc 2 1465 0
 3362 0004 8146     		mov	r9, r0
1466:../../iot_link/os/liteos/base/core/los_task.c ****     UINT32    uwIntSave;
1467:../../iot_link/os/liteos/base/core/los_task.c ****     LOS_TASK_CB *pstTaskCB;
1468:../../iot_link/os/liteos/base/core/los_task.c ****     UINT32 * puwStack;
1469:../../iot_link/os/liteos/base/core/los_task.c **** 
1470:../../iot_link/os/liteos/base/core/los_task.c ****     if (NULL == pstTaskInfo)
 3363              		.loc 2 1470 0
 3364 0006 0C46     		mov	r4, r1
 3365 0008 0029     		cmp	r1, #0
 3366 000a 60D0     		beq	.L275
1471:../../iot_link/os/liteos/base/core/los_task.c ****     {
1472:../../iot_link/os/liteos/base/core/los_task.c ****         return LOS_ERRNO_TSK_PTR_NULL;
1473:../../iot_link/os/liteos/base/core/los_task.c ****     }
1474:../../iot_link/os/liteos/base/core/los_task.c **** 
1475:../../iot_link/os/liteos/base/core/los_task.c ****     if (OS_CHECK_TSK_PID_NOIDLE(uwTaskID))
 3367              		.loc 2 1475 0
 3368 000c 324B     		ldr	r3, .L280
 3369 000e 1B68     		ldr	r3, [r3]
 3370 0010 8342     		cmp	r3, r0
 3371 0012 5ED9     		bls	.L276
1476:../../iot_link/os/liteos/base/core/los_task.c ****     {
1477:../../iot_link/os/liteos/base/core/los_task.c ****         return LOS_ERRNO_TSK_ID_INVALID;
ARM GAS  C:\Users\LuckyE\AppData\Local\Temp\ccK6ohhW.s 			page 96


1478:../../iot_link/os/liteos/base/core/los_task.c ****     }
1479:../../iot_link/os/liteos/base/core/los_task.c **** 
1480:../../iot_link/os/liteos/base/core/los_task.c ****     pstTaskCB = OS_TCB_FROM_TID(uwTaskID);
 3372              		.loc 2 1480 0
 3373 0014 314B     		ldr	r3, .L280+4
 3374 0016 5426     		movs	r6, #84
 3375 0018 1F68     		ldr	r7, [r3]
 3376 001a 4643     		muls	r6, r0, r6
 3377 001c BD19     		adds	r5, r7, r6
 3378              	.LVL325:
1481:../../iot_link/os/liteos/base/core/los_task.c ****     uwIntSave = LOS_IntLock();
 3379              		.loc 2 1481 0
 3380 001e FFF7FEFF 		bl	LOS_IntLock
 3381              	.LVL326:
1482:../../iot_link/os/liteos/base/core/los_task.c **** 
1483:../../iot_link/os/liteos/base/core/los_task.c ****     if (OS_TASK_STATUS_UNUSED & pstTaskCB->usTaskStatus)
 3382              		.loc 2 1483 0
 3383 0022 AB88     		ldrh	r3, [r5, #4]
 3384 0024 DA07     		lsls	r2, r3, #31
1481:../../iot_link/os/liteos/base/core/los_task.c ****     uwIntSave = LOS_IntLock();
 3385              		.loc 2 1481 0
 3386 0026 8046     		mov	r8, r0
 3387              	.LVL327:
 3388              		.loc 2 1483 0
 3389 0028 04D5     		bpl	.L266
1484:../../iot_link/os/liteos/base/core/los_task.c ****     {
1485:../../iot_link/os/liteos/base/core/los_task.c ****         (VOID)LOS_IntRestore(uwIntSave);
 3390              		.loc 2 1485 0
 3391 002a FFF7FEFF 		bl	LOS_IntRestore
 3392              	.LVL328:
1486:../../iot_link/os/liteos/base/core/los_task.c ****         return LOS_ERRNO_TSK_NOT_CREATED;
 3393              		.loc 2 1486 0
 3394 002e 2C48     		ldr	r0, .L280+8
 3395              	.LVL329:
 3396              	.L264:
1487:../../iot_link/os/liteos/base/core/los_task.c ****     }
1488:../../iot_link/os/liteos/base/core/los_task.c **** 
1489:../../iot_link/os/liteos/base/core/los_task.c ****     pstTaskInfo->uwSP = (UINT32)pstTaskCB->pStackPointer;
1490:../../iot_link/os/liteos/base/core/los_task.c ****     pstTaskInfo->usTaskStatus = pstTaskCB->usTaskStatus;
1491:../../iot_link/os/liteos/base/core/los_task.c ****     pstTaskInfo->usTaskPrio = pstTaskCB->usPriority;
1492:../../iot_link/os/liteos/base/core/los_task.c ****     pstTaskInfo->uwStackSize  = pstTaskCB->uwStackSize;
1493:../../iot_link/os/liteos/base/core/los_task.c ****     pstTaskInfo->uwTopOfStack = pstTaskCB->uwTopOfStack;
1494:../../iot_link/os/liteos/base/core/los_task.c ****     pstTaskInfo->uwEvent = pstTaskCB->uwEvent;
1495:../../iot_link/os/liteos/base/core/los_task.c ****     pstTaskInfo->uwEventMask = pstTaskCB->uwEventMask;
1496:../../iot_link/os/liteos/base/core/los_task.c ****     pstTaskInfo->uwSemID = pstTaskCB->pTaskSem != NULL ? ((SEM_CB_S *)(pstTaskCB->pTaskSem))->usSem
1497:../../iot_link/os/liteos/base/core/los_task.c ****     pstTaskInfo->uwMuxID = pstTaskCB->pTaskMux != NULL ? ((MUX_CB_S *)(pstTaskCB->pTaskMux))->ucMux
1498:../../iot_link/os/liteos/base/core/los_task.c ****     pstTaskInfo->pTaskSem = pstTaskCB->pTaskSem;
1499:../../iot_link/os/liteos/base/core/los_task.c ****     pstTaskInfo->pTaskMux = pstTaskCB->pTaskMux;
1500:../../iot_link/os/liteos/base/core/los_task.c ****     pstTaskInfo->uwTaskID = uwTaskID;
1501:../../iot_link/os/liteos/base/core/los_task.c **** 
1502:../../iot_link/os/liteos/base/core/los_task.c ****     (VOID)strncpy(pstTaskInfo->acName, pstTaskCB->pcTaskName, LOS_TASK_NAMELEN - 1);
1503:../../iot_link/os/liteos/base/core/los_task.c ****     pstTaskInfo->acName[LOS_TASK_NAMELEN - 1] = '\0';
1504:../../iot_link/os/liteos/base/core/los_task.c **** 
1505:../../iot_link/os/liteos/base/core/los_task.c ****     pstTaskInfo->uwBottomOfStack = TRUNCATE(((UINT32)(pstTaskCB->uwTopOfStack) + (pstTaskCB->uwStac
1506:../../iot_link/os/liteos/base/core/los_task.c ****     pstTaskInfo->uwCurrUsed = pstTaskInfo->uwBottomOfStack - pstTaskInfo->uwSP;
1507:../../iot_link/os/liteos/base/core/los_task.c **** 
1508:../../iot_link/os/liteos/base/core/los_task.c ****     if (OS_TASK_MAGIC_WORD == *(UINT32 *)pstTaskInfo->uwTopOfStack)
ARM GAS  C:\Users\LuckyE\AppData\Local\Temp\ccK6ohhW.s 			page 97


1509:../../iot_link/os/liteos/base/core/los_task.c ****     {
1510:../../iot_link/os/liteos/base/core/los_task.c ****         puwStack = (UINT32 *)(pstTaskInfo->uwTopOfStack + 4);
1511:../../iot_link/os/liteos/base/core/los_task.c ****         while ((puwStack < (UINT32 *)pstTaskInfo->uwSP) && (*puwStack == 0xCACACACA))
1512:../../iot_link/os/liteos/base/core/los_task.c ****         {
1513:../../iot_link/os/liteos/base/core/los_task.c ****             puwStack += 1;
1514:../../iot_link/os/liteos/base/core/los_task.c ****         }
1515:../../iot_link/os/liteos/base/core/los_task.c **** 
1516:../../iot_link/os/liteos/base/core/los_task.c ****         pstTaskInfo->uwPeakUsed = pstTaskCB->uwStackSize - ((UINT32)puwStack - pstTaskInfo->uwTopOf
1517:../../iot_link/os/liteos/base/core/los_task.c ****         pstTaskInfo->bOvf = FALSE;
1518:../../iot_link/os/liteos/base/core/los_task.c ****     }
1519:../../iot_link/os/liteos/base/core/los_task.c ****     else
1520:../../iot_link/os/liteos/base/core/los_task.c ****     {
1521:../../iot_link/os/liteos/base/core/los_task.c ****         pstTaskInfo->uwPeakUsed = 0xFFFFFFFF;
1522:../../iot_link/os/liteos/base/core/los_task.c ****         pstTaskInfo->bOvf = TRUE;
1523:../../iot_link/os/liteos/base/core/los_task.c ****     }
1524:../../iot_link/os/liteos/base/core/los_task.c **** 
1525:../../iot_link/os/liteos/base/core/los_task.c ****     (VOID)LOS_IntRestore(uwIntSave);
1526:../../iot_link/os/liteos/base/core/los_task.c **** 
1527:../../iot_link/os/liteos/base/core/los_task.c ****     return LOS_OK;
1528:../../iot_link/os/liteos/base/core/los_task.c **** }
 3397              		.loc 2 1528 0
 3398 0030 BDE8F883 		pop	{r3, r4, r5, r6, r7, r8, r9, pc}
 3399              	.LVL330:
 3400              	.L266:
1494:../../iot_link/os/liteos/base/core/los_task.c ****     pstTaskInfo->uwEventMask = pstTaskCB->uwEventMask;
 3401              		.loc 2 1494 0
 3402 0034 05F13C02 		add	r2, r5, #60
 3403 0038 07CA     		ldm	r2, {r0, r1, r2}
 3404              	.LVL331:
1489:../../iot_link/os/liteos/base/core/los_task.c ****     pstTaskInfo->usTaskStatus = pstTaskCB->usTaskStatus;
 3405              		.loc 2 1489 0
 3406 003a BF59     		ldr	r7, [r7, r6]
1490:../../iot_link/os/liteos/base/core/los_task.c ****     pstTaskInfo->usTaskPrio = pstTaskCB->usPriority;
 3407              		.loc 2 1490 0
 3408 003c A384     		strh	r3, [r4, #36]	@ movhi
1491:../../iot_link/os/liteos/base/core/los_task.c ****     pstTaskInfo->uwStackSize  = pstTaskCB->uwStackSize;
 3409              		.loc 2 1491 0
 3410 003e EB88     		ldrh	r3, [r5, #6]
 3411 0040 E384     		strh	r3, [r4, #38]	@ movhi
1492:../../iot_link/os/liteos/base/core/los_task.c ****     pstTaskInfo->uwTopOfStack = pstTaskCB->uwTopOfStack;
 3412              		.loc 2 1492 0
 3413 0042 AB68     		ldr	r3, [r5, #8]
1493:../../iot_link/os/liteos/base/core/los_task.c ****     pstTaskInfo->uwEvent = pstTaskCB->uwEvent;
 3414              		.loc 2 1493 0
 3415 0044 EE68     		ldr	r6, [r5, #12]
1492:../../iot_link/os/liteos/base/core/los_task.c ****     pstTaskInfo->uwTopOfStack = pstTaskCB->uwTopOfStack;
 3416              		.loc 2 1492 0
 3417 0046 A364     		str	r3, [r4, #72]
1494:../../iot_link/os/liteos/base/core/los_task.c ****     pstTaskInfo->uwEventMask = pstTaskCB->uwEventMask;
 3418              		.loc 2 1494 0
 3419 0048 04F13803 		add	r3, r4, #56
1489:../../iot_link/os/liteos/base/core/los_task.c ****     pstTaskInfo->usTaskStatus = pstTaskCB->usTaskStatus;
 3420              		.loc 2 1489 0
 3421 004c 6765     		str	r7, [r4, #84]
1493:../../iot_link/os/liteos/base/core/los_task.c ****     pstTaskInfo->uwEvent = pstTaskCB->uwEvent;
 3422              		.loc 2 1493 0
 3423 004e E664     		str	r6, [r4, #76]
ARM GAS  C:\Users\LuckyE\AppData\Local\Temp\ccK6ohhW.s 			page 98


1494:../../iot_link/os/liteos/base/core/los_task.c ****     pstTaskInfo->uwEventMask = pstTaskCB->uwEventMask;
 3424              		.loc 2 1494 0
 3425 0050 83E80700 		stm	r3, {r0, r1, r2}
1496:../../iot_link/os/liteos/base/core/los_task.c ****     pstTaskInfo->uwMuxID = pstTaskCB->pTaskMux != NULL ? ((MUX_CB_S *)(pstTaskCB->pTaskMux))->ucMux
 3426              		.loc 2 1496 0
 3427 0054 AA69     		ldr	r2, [r5, #24]
1495:../../iot_link/os/liteos/base/core/los_task.c ****     pstTaskInfo->uwSemID = pstTaskCB->pTaskSem != NULL ? ((SEM_CB_S *)(pstTaskCB->pTaskSem))->usSem
 3428              		.loc 2 1495 0
 3429 0056 AB6C     		ldr	r3, [r5, #72]
 3430 0058 6364     		str	r3, [r4, #68]
1496:../../iot_link/os/liteos/base/core/los_task.c ****     pstTaskInfo->uwMuxID = pstTaskCB->pTaskMux != NULL ? ((MUX_CB_S *)(pstTaskCB->pTaskMux))->ucMux
 3431              		.loc 2 1496 0
 3432 005a 4AB3     		cbz	r2, .L277
1496:../../iot_link/os/liteos/base/core/los_task.c ****     pstTaskInfo->uwMuxID = pstTaskCB->pTaskMux != NULL ? ((MUX_CB_S *)(pstTaskCB->pTaskMux))->ucMux
 3433              		.loc 2 1496 0 is_stmt 0 discriminator 1
 3434 005c D388     		ldrh	r3, [r2, #6]
 3435              	.L267:
1496:../../iot_link/os/liteos/base/core/los_task.c ****     pstTaskInfo->uwMuxID = pstTaskCB->pTaskMux != NULL ? ((MUX_CB_S *)(pstTaskCB->pTaskMux))->ucMux
 3436              		.loc 2 1496 0 discriminator 4
 3437 005e 2363     		str	r3, [r4, #48]
1497:../../iot_link/os/liteos/base/core/los_task.c ****     pstTaskInfo->pTaskSem = pstTaskCB->pTaskSem;
 3438              		.loc 2 1497 0 is_stmt 1 discriminator 4
 3439 0060 EB69     		ldr	r3, [r5, #28]
 3440 0062 3BB3     		cbz	r3, .L278
1497:../../iot_link/os/liteos/base/core/los_task.c ****     pstTaskInfo->pTaskSem = pstTaskCB->pTaskSem;
 3441              		.loc 2 1497 0 is_stmt 0 discriminator 1
 3442 0064 5968     		ldr	r1, [r3, #4]
 3443              	.L268:
1497:../../iot_link/os/liteos/base/core/los_task.c ****     pstTaskInfo->pTaskSem = pstTaskCB->pTaskSem;
 3444              		.loc 2 1497 0 discriminator 4
 3445 0066 6163     		str	r1, [r4, #52]
1499:../../iot_link/os/liteos/base/core/los_task.c ****     pstTaskInfo->uwTaskID = uwTaskID;
 3446              		.loc 2 1499 0 is_stmt 1 discriminator 4
 3447 0068 C4E90A23 		strd	r2, r3, [r4, #40]
1500:../../iot_link/os/liteos/base/core/los_task.c **** 
 3448              		.loc 2 1500 0 discriminator 4
 3449 006c C4F82090 		str	r9, [r4, #32]
1502:../../iot_link/os/liteos/base/core/los_task.c ****     pstTaskInfo->acName[LOS_TASK_NAMELEN - 1] = '\0';
 3450              		.loc 2 1502 0 discriminator 4
 3451 0070 1F22     		movs	r2, #31
 3452 0072 696A     		ldr	r1, [r5, #36]
 3453 0074 2046     		mov	r0, r4
 3454 0076 FFF7FEFF 		bl	strncpy
 3455              	.LVL332:
1503:../../iot_link/os/liteos/base/core/los_task.c **** 
 3456              		.loc 2 1503 0 discriminator 4
 3457 007a 0023     		movs	r3, #0
 3458 007c E377     		strb	r3, [r4, #31]
1505:../../iot_link/os/liteos/base/core/los_task.c ****     pstTaskInfo->uwCurrUsed = pstTaskInfo->uwBottomOfStack - pstTaskInfo->uwSP;
 3459              		.loc 2 1505 0 discriminator 4
 3460 007e D5E90223 		ldrd	r2, r3, [r5, #8]
 3461 0082 1344     		add	r3, r3, r2
 3462 0084 23F00703 		bic	r3, r3, #7
 3463 0088 2365     		str	r3, [r4, #80]
1506:../../iot_link/os/liteos/base/core/los_task.c **** 
 3464              		.loc 2 1506 0 discriminator 4
 3465 008a DB1B     		subs	r3, r3, r7
ARM GAS  C:\Users\LuckyE\AppData\Local\Temp\ccK6ohhW.s 			page 99


 3466 008c A365     		str	r3, [r4, #88]
1508:../../iot_link/os/liteos/base/core/los_task.c ****     {
 3467              		.loc 2 1508 0 discriminator 4
 3468 008e 3368     		ldr	r3, [r6]
 3469 0090 B3F1CC3F 		cmp	r3, #-858993460
 3470 0094 16D1     		bne	.L269
1510:../../iot_link/os/liteos/base/core/los_task.c ****         while ((puwStack < (UINT32 *)pstTaskInfo->uwSP) && (*puwStack == 0xCACACACA))
 3471              		.loc 2 1510 0
 3472 0096 331D     		adds	r3, r6, #4
 3473              	.LVL333:
 3474              	.L270:
1511:../../iot_link/os/liteos/base/core/los_task.c ****         {
 3475              		.loc 2 1511 0
 3476 0098 9F42     		cmp	r7, r3
 3477 009a 0DD8     		bhi	.L271
 3478              	.L274:
1516:../../iot_link/os/liteos/base/core/los_task.c ****         pstTaskInfo->bOvf = FALSE;
 3479              		.loc 2 1516 0
 3480 009c 1644     		add	r6, r6, r2
 3481 009e F61A     		subs	r6, r6, r3
 3482 00a0 E665     		str	r6, [r4, #92]
1517:../../iot_link/os/liteos/base/core/los_task.c ****     }
 3483              		.loc 2 1517 0
 3484 00a2 0023     		movs	r3, #0
 3485              	.LVL334:
 3486              	.L279:
1525:../../iot_link/os/liteos/base/core/los_task.c **** 
 3487              		.loc 2 1525 0
 3488 00a4 4046     		mov	r0, r8
1522:../../iot_link/os/liteos/base/core/los_task.c ****     }
 3489              		.loc 2 1522 0
 3490 00a6 2366     		str	r3, [r4, #96]
1525:../../iot_link/os/liteos/base/core/los_task.c **** 
 3491              		.loc 2 1525 0
 3492 00a8 FFF7FEFF 		bl	LOS_IntRestore
 3493              	.LVL335:
1527:../../iot_link/os/liteos/base/core/los_task.c **** }
 3494              		.loc 2 1527 0
 3495 00ac 0020     		movs	r0, #0
 3496 00ae BFE7     		b	.L264
 3497              	.L277:
1496:../../iot_link/os/liteos/base/core/los_task.c ****     pstTaskInfo->uwMuxID = pstTaskCB->pTaskMux != NULL ? ((MUX_CB_S *)(pstTaskCB->pTaskMux))->ucMux
 3498              		.loc 2 1496 0
 3499 00b0 1423     		movs	r3, #20
 3500 00b2 D4E7     		b	.L267
 3501              	.L278:
1497:../../iot_link/os/liteos/base/core/los_task.c ****     pstTaskInfo->pTaskSem = pstTaskCB->pTaskSem;
 3502              		.loc 2 1497 0
 3503 00b4 1421     		movs	r1, #20
 3504 00b6 D6E7     		b	.L268
 3505              	.LVL336:
 3506              	.L271:
1511:../../iot_link/os/liteos/base/core/los_task.c ****         {
 3507              		.loc 2 1511 0 discriminator 1
 3508 00b8 1968     		ldr	r1, [r3]
 3509 00ba B1F1CA3F 		cmp	r1, #-892679478
 3510 00be EDD1     		bne	.L274
ARM GAS  C:\Users\LuckyE\AppData\Local\Temp\ccK6ohhW.s 			page 100


1513:../../iot_link/os/liteos/base/core/los_task.c ****         }
 3511              		.loc 2 1513 0
 3512 00c0 0433     		adds	r3, r3, #4
 3513              	.LVL337:
 3514 00c2 E9E7     		b	.L270
 3515              	.LVL338:
 3516              	.L269:
1521:../../iot_link/os/liteos/base/core/los_task.c ****         pstTaskInfo->bOvf = TRUE;
 3517              		.loc 2 1521 0
 3518 00c4 4FF0FF33 		mov	r3, #-1
 3519 00c8 E365     		str	r3, [r4, #92]
1522:../../iot_link/os/liteos/base/core/los_task.c ****     }
 3520              		.loc 2 1522 0
 3521 00ca 0123     		movs	r3, #1
 3522 00cc EAE7     		b	.L279
 3523              	.LVL339:
 3524              	.L275:
1472:../../iot_link/os/liteos/base/core/los_task.c ****     }
 3525              		.loc 2 1472 0
 3526 00ce 0548     		ldr	r0, .L280+12
 3527              	.LVL340:
 3528 00d0 AEE7     		b	.L264
 3529              	.LVL341:
 3530              	.L276:
1477:../../iot_link/os/liteos/base/core/los_task.c ****     }
 3531              		.loc 2 1477 0
 3532 00d2 0548     		ldr	r0, .L280+16
 3533              	.LVL342:
 3534 00d4 ACE7     		b	.L264
 3535              	.L281:
 3536 00d6 00BF     		.align	2
 3537              	.L280:
 3538 00d8 00000000 		.word	g_uwTskMaxNum
 3539 00dc 00000000 		.word	g_pstTaskCBArray
 3540 00e0 0A020002 		.word	33554954
 3541 00e4 01020002 		.word	33554945
 3542 00e8 07020002 		.word	33554951
 3543              		.cfi_endproc
 3544              	.LFE317:
 3546              		.section	.text.LOS_TaskStatusGet,"ax",%progbits
 3547              		.align	1
 3548              		.global	LOS_TaskStatusGet
 3549              		.syntax unified
 3550              		.thumb
 3551              		.thumb_func
 3552              		.fpu fpv4-sp-d16
 3554              	LOS_TaskStatusGet:
 3555              	.LFB318:
1529:../../iot_link/os/liteos/base/core/los_task.c **** 
1530:../../iot_link/os/liteos/base/core/los_task.c **** /*****************************************************************************
1531:../../iot_link/os/liteos/base/core/los_task.c ****  Function : LOS_TaskStatusGet
1532:../../iot_link/os/liteos/base/core/los_task.c ****  Description : Get status of the task
1533:../../iot_link/os/liteos/base/core/los_task.c ****  Input       : uwTaskID
1534:../../iot_link/os/liteos/base/core/los_task.c ****  Output      : puwTaskStatus
1535:../../iot_link/os/liteos/base/core/los_task.c ****  Return      : LOS_OK on success or error code on failure
1536:../../iot_link/os/liteos/base/core/los_task.c ****  *****************************************************************************/
1537:../../iot_link/os/liteos/base/core/los_task.c **** LITE_OS_SEC_TEXT_MINOR UINT32 LOS_TaskStatusGet(UINT32 uwTaskID, UINT32 *puwTaskStatus)
ARM GAS  C:\Users\LuckyE\AppData\Local\Temp\ccK6ohhW.s 			page 101


1538:../../iot_link/os/liteos/base/core/los_task.c **** {
 3556              		.loc 2 1538 0
 3557              		.cfi_startproc
 3558              		@ args = 0, pretend = 0, frame = 0
 3559              		@ frame_needed = 0, uses_anonymous_args = 0
 3560              	.LVL343:
 3561 0000 38B5     		push	{r3, r4, r5, lr}
 3562              	.LCFI50:
 3563              		.cfi_def_cfa_offset 16
 3564              		.cfi_offset 3, -16
 3565              		.cfi_offset 4, -12
 3566              		.cfi_offset 5, -8
 3567              		.cfi_offset 14, -4
1539:../../iot_link/os/liteos/base/core/los_task.c ****     UINT32    uwIntSave;
1540:../../iot_link/os/liteos/base/core/los_task.c ****     LOS_TASK_CB *pstTaskCB;
1541:../../iot_link/os/liteos/base/core/los_task.c **** 
1542:../../iot_link/os/liteos/base/core/los_task.c ****     if (NULL == puwTaskStatus)
 3568              		.loc 2 1542 0
 3569 0002 0D46     		mov	r5, r1
 3570 0004 B9B1     		cbz	r1, .L285
1543:../../iot_link/os/liteos/base/core/los_task.c ****     {
1544:../../iot_link/os/liteos/base/core/los_task.c ****         return LOS_ERRNO_TSK_PTR_NULL;
1545:../../iot_link/os/liteos/base/core/los_task.c ****     }
1546:../../iot_link/os/liteos/base/core/los_task.c **** 
1547:../../iot_link/os/liteos/base/core/los_task.c ****     if (OS_CHECK_TSK_PID_NOIDLE(uwTaskID))
 3571              		.loc 2 1547 0
 3572 0006 0E4B     		ldr	r3, .L287
 3573 0008 1B68     		ldr	r3, [r3]
 3574 000a 8342     		cmp	r3, r0
 3575 000c 15D9     		bls	.L286
1548:../../iot_link/os/liteos/base/core/los_task.c ****     {
1549:../../iot_link/os/liteos/base/core/los_task.c ****         return LOS_ERRNO_TSK_ID_INVALID;
1550:../../iot_link/os/liteos/base/core/los_task.c ****     }
1551:../../iot_link/os/liteos/base/core/los_task.c **** 
1552:../../iot_link/os/liteos/base/core/los_task.c ****     pstTaskCB = OS_TCB_FROM_TID(uwTaskID);
 3576              		.loc 2 1552 0
 3577 000e 0D4B     		ldr	r3, .L287+4
 3578 0010 1C68     		ldr	r4, [r3]
 3579 0012 5423     		movs	r3, #84
 3580 0014 03FB0044 		mla	r4, r3, r0, r4
 3581              	.LVL344:
1553:../../iot_link/os/liteos/base/core/los_task.c ****     uwIntSave = LOS_IntLock();
 3582              		.loc 2 1553 0
 3583 0018 FFF7FEFF 		bl	LOS_IntLock
 3584              	.LVL345:
1554:../../iot_link/os/liteos/base/core/los_task.c **** 
1555:../../iot_link/os/liteos/base/core/los_task.c ****     if (OS_TASK_STATUS_UNUSED & pstTaskCB->usTaskStatus)
 3585              		.loc 2 1555 0
 3586 001c A388     		ldrh	r3, [r4, #4]
 3587 001e 13F00104 		ands	r4, r3, #1
 3588              	.LVL346:
 3589 0022 03D0     		beq	.L284
1556:../../iot_link/os/liteos/base/core/los_task.c ****     {
1557:../../iot_link/os/liteos/base/core/los_task.c ****         (VOID)LOS_IntRestore(uwIntSave);
 3590              		.loc 2 1557 0
 3591 0024 FFF7FEFF 		bl	LOS_IntRestore
 3592              	.LVL347:
ARM GAS  C:\Users\LuckyE\AppData\Local\Temp\ccK6ohhW.s 			page 102


1558:../../iot_link/os/liteos/base/core/los_task.c ****         return LOS_ERRNO_TSK_NOT_CREATED;
 3593              		.loc 2 1558 0
 3594 0028 0748     		ldr	r0, .L287+8
 3595              	.L282:
1559:../../iot_link/os/liteos/base/core/los_task.c ****     }
1560:../../iot_link/os/liteos/base/core/los_task.c **** 
1561:../../iot_link/os/liteos/base/core/los_task.c ****     *puwTaskStatus = pstTaskCB->usTaskStatus;
1562:../../iot_link/os/liteos/base/core/los_task.c **** 
1563:../../iot_link/os/liteos/base/core/los_task.c ****     (VOID)LOS_IntRestore(uwIntSave);
1564:../../iot_link/os/liteos/base/core/los_task.c **** 
1565:../../iot_link/os/liteos/base/core/los_task.c ****     return LOS_OK;
1566:../../iot_link/os/liteos/base/core/los_task.c **** }
 3596              		.loc 2 1566 0
 3597 002a 38BD     		pop	{r3, r4, r5, pc}
 3598              	.LVL348:
 3599              	.L284:
1561:../../iot_link/os/liteos/base/core/los_task.c **** 
 3600              		.loc 2 1561 0
 3601 002c 2B60     		str	r3, [r5]
1563:../../iot_link/os/liteos/base/core/los_task.c **** 
 3602              		.loc 2 1563 0
 3603 002e FFF7FEFF 		bl	LOS_IntRestore
 3604              	.LVL349:
1565:../../iot_link/os/liteos/base/core/los_task.c **** }
 3605              		.loc 2 1565 0
 3606 0032 2046     		mov	r0, r4
 3607 0034 F9E7     		b	.L282
 3608              	.LVL350:
 3609              	.L285:
1544:../../iot_link/os/liteos/base/core/los_task.c ****     }
 3610              		.loc 2 1544 0
 3611 0036 0548     		ldr	r0, .L287+12
 3612              	.LVL351:
 3613 0038 F7E7     		b	.L282
 3614              	.LVL352:
 3615              	.L286:
1549:../../iot_link/os/liteos/base/core/los_task.c ****     }
 3616              		.loc 2 1549 0
 3617 003a 0548     		ldr	r0, .L287+16
 3618              	.LVL353:
 3619 003c F5E7     		b	.L282
 3620              	.L288:
 3621 003e 00BF     		.align	2
 3622              	.L287:
 3623 0040 00000000 		.word	g_uwTskMaxNum
 3624 0044 00000000 		.word	g_pstTaskCBArray
 3625 0048 0A020002 		.word	33554954
 3626 004c 01020002 		.word	33554945
 3627 0050 07020002 		.word	33554951
 3628              		.cfi_endproc
 3629              	.LFE318:
 3631              		.section	.text.LOS_TaskSwitchInfoGet,"ax",%progbits
 3632              		.align	1
 3633              		.global	LOS_TaskSwitchInfoGet
 3634              		.syntax unified
 3635              		.thumb
 3636              		.thumb_func
ARM GAS  C:\Users\LuckyE\AppData\Local\Temp\ccK6ohhW.s 			page 103


 3637              		.fpu fpv4-sp-d16
 3639              	LOS_TaskSwitchInfoGet:
 3640              	.LFB319:
1567:../../iot_link/os/liteos/base/core/los_task.c **** 
1568:../../iot_link/os/liteos/base/core/los_task.c **** #if (LOSCFG_BASE_CORE_EXC_TSK_SWITCH == YES)
1569:../../iot_link/os/liteos/base/core/los_task.c **** /*****************************************************************************
1570:../../iot_link/os/liteos/base/core/los_task.c ****  Function : LOS_TaskSwitchInfoGet
1571:../../iot_link/os/liteos/base/core/los_task.c ****  Description : save the information of the task switch
1572:../../iot_link/os/liteos/base/core/los_task.c ****  Input       : uwIdx
1573:../../iot_link/os/liteos/base/core/los_task.c ****  Output      : pTaskSwitchInfo
1574:../../iot_link/os/liteos/base/core/los_task.c ****  Return      : LOS_OK on success or error code on failure
1575:../../iot_link/os/liteos/base/core/los_task.c ****  *****************************************************************************/
1576:../../iot_link/os/liteos/base/core/los_task.c **** LITE_OS_SEC_TEXT_MINOR UINT32 LOS_TaskSwitchInfoGet(UINT32 uwIdx, UINT32 *puwTaskSwitchInfo)
1577:../../iot_link/os/liteos/base/core/los_task.c **** {
 3641              		.loc 2 1577 0
 3642              		.cfi_startproc
 3643              		@ args = 0, pretend = 0, frame = 0
 3644              		@ frame_needed = 0, uses_anonymous_args = 0
 3645              	.LVL354:
1578:../../iot_link/os/liteos/base/core/los_task.c ****     UINTPTR uvIntSave;
1579:../../iot_link/os/liteos/base/core/los_task.c **** 
1580:../../iot_link/os/liteos/base/core/los_task.c ****     if (uwIdx >= OS_TASK_SWITCH_INFO_COUNT)
 3646              		.loc 2 1580 0
 3647 0000 0928     		cmp	r0, #9
1577:../../iot_link/os/liteos/base/core/los_task.c ****     UINTPTR uvIntSave;
 3648              		.loc 2 1577 0
 3649 0002 38B5     		push	{r3, r4, r5, lr}
 3650              	.LCFI51:
 3651              		.cfi_def_cfa_offset 16
 3652              		.cfi_offset 3, -16
 3653              		.cfi_offset 4, -12
 3654              		.cfi_offset 5, -8
 3655              		.cfi_offset 14, -4
1577:../../iot_link/os/liteos/base/core/los_task.c ****     UINTPTR uvIntSave;
 3656              		.loc 2 1577 0
 3657 0004 0546     		mov	r5, r0
 3658 0006 0C46     		mov	r4, r1
1581:../../iot_link/os/liteos/base/core/los_task.c ****     {
1582:../../iot_link/os/liteos/base/core/los_task.c ****         uwIdx -= OS_TASK_SWITCH_INFO_COUNT;
 3659              		.loc 2 1582 0
 3660 0008 88BF     		it	hi
 3661 000a A0F10A05 		subhi	r5, r0, #10
 3662              	.LVL355:
1583:../../iot_link/os/liteos/base/core/los_task.c ****     }
1584:../../iot_link/os/liteos/base/core/los_task.c **** 
1585:../../iot_link/os/liteos/base/core/los_task.c ****     if (NULL == puwTaskSwitchInfo)
 3663              		.loc 2 1585 0
 3664 000e B9B1     		cbz	r1, .L293
1586:../../iot_link/os/liteos/base/core/los_task.c ****     {
1587:../../iot_link/os/liteos/base/core/los_task.c ****         return LOS_ERRNO_TSK_PTR_NULL;
1588:../../iot_link/os/liteos/base/core/los_task.c ****     }
1589:../../iot_link/os/liteos/base/core/los_task.c **** 
1590:../../iot_link/os/liteos/base/core/los_task.c ****     uvIntSave = LOS_IntLock();
 3665              		.loc 2 1590 0
 3666 0010 FFF7FEFF 		bl	LOS_IntLock
 3667              	.LVL356:
1591:../../iot_link/os/liteos/base/core/los_task.c **** 
ARM GAS  C:\Users\LuckyE\AppData\Local\Temp\ccK6ohhW.s 			page 104


1592:../../iot_link/os/liteos/base/core/los_task.c ****     (*puwTaskSwitchInfo) = g_astTskSwitchInfo.auwPID[uwIdx];
 3668              		.loc 2 1592 0
 3669 0014 0B4B     		ldr	r3, .L295
 3670 0016 03EB4502 		add	r2, r3, r5, lsl #1
 3671 001a 2146     		mov	r1, r4
1593:../../iot_link/os/liteos/base/core/los_task.c ****     memcpy((VOID *)(puwTaskSwitchInfo + 1), g_astTskSwitchInfo.acName[uwIdx], LOS_TASK_NAMELEN);
 3672              		.loc 2 1593 0
 3673 001c 03EB4513 		add	r3, r3, r5, lsl #5
1592:../../iot_link/os/liteos/base/core/los_task.c ****     memcpy((VOID *)(puwTaskSwitchInfo + 1), g_astTskSwitchInfo.acName[uwIdx], LOS_TASK_NAMELEN);
 3674              		.loc 2 1592 0
 3675 0020 5288     		ldrh	r2, [r2, #2]
 3676 0022 41F8042B 		str	r2, [r1], #4
 3677              		.loc 2 1593 0
 3678 0026 1633     		adds	r3, r3, #22
 3679 0028 03F12002 		add	r2, r3, #32
 3680              	.LVL357:
 3681              	.L292:
 3682 002c 53F8044B 		ldr	r4, [r3], #4	@ unaligned
 3683 0030 41F8044B 		str	r4, [r1], #4	@ unaligned
 3684 0034 9342     		cmp	r3, r2
 3685 0036 F9D1     		bne	.L292
1594:../../iot_link/os/liteos/base/core/los_task.c **** 
1595:../../iot_link/os/liteos/base/core/los_task.c ****     (VOID)LOS_IntRestore(uvIntSave);
 3686              		.loc 2 1595 0
 3687 0038 FFF7FEFF 		bl	LOS_IntRestore
 3688              	.LVL358:
1596:../../iot_link/os/liteos/base/core/los_task.c ****     return LOS_OK;
 3689              		.loc 2 1596 0
 3690 003c 0020     		movs	r0, #0
 3691              	.L289:
1597:../../iot_link/os/liteos/base/core/los_task.c **** }
 3692              		.loc 2 1597 0
 3693 003e 38BD     		pop	{r3, r4, r5, pc}
 3694              	.LVL359:
 3695              	.L293:
1587:../../iot_link/os/liteos/base/core/los_task.c ****     }
 3696              		.loc 2 1587 0
 3697 0040 0148     		ldr	r0, .L295+4
 3698 0042 FCE7     		b	.L289
 3699              	.L296:
 3700              		.align	2
 3701              	.L295:
 3702 0044 00000000 		.word	g_astTskSwitchInfo
 3703 0048 01020002 		.word	33554945
 3704              		.cfi_endproc
 3705              	.LFE319:
 3707              		.section	.text.LOS_TaskInfoMonitor,"ax",%progbits
 3708              		.align	1
 3709              		.global	LOS_TaskInfoMonitor
 3710              		.syntax unified
 3711              		.thumb
 3712              		.thumb_func
 3713              		.fpu fpv4-sp-d16
 3715              	LOS_TaskInfoMonitor:
 3716              	.LFB320:
1598:../../iot_link/os/liteos/base/core/los_task.c **** #endif
1599:../../iot_link/os/liteos/base/core/los_task.c **** 
ARM GAS  C:\Users\LuckyE\AppData\Local\Temp\ccK6ohhW.s 			page 105


1600:../../iot_link/os/liteos/base/core/los_task.c **** /*****************************************************************************
1601:../../iot_link/os/liteos/base/core/los_task.c **** Function   : LOS_TaskInfoMonitor
1602:../../iot_link/os/liteos/base/core/los_task.c **** Description: Get all task info
1603:../../iot_link/os/liteos/base/core/los_task.c **** Input      : None
1604:../../iot_link/os/liteos/base/core/los_task.c **** Return     : LOS_OK on success ,or OS_ERROR on failure
1605:../../iot_link/os/liteos/base/core/los_task.c **** *****************************************************************************/
1606:../../iot_link/os/liteos/base/core/los_task.c **** LITE_OS_SEC_TEXT_MINOR UINT32 LOS_TaskInfoMonitor(VOID)
1607:../../iot_link/os/liteos/base/core/los_task.c **** {
 3717              		.loc 2 1607 0
 3718              		.cfi_startproc
 3719              		@ args = 0, pretend = 0, frame = 0
 3720              		@ frame_needed = 0, uses_anonymous_args = 0
 3721              		@ link register save eliminated.
1608:../../iot_link/os/liteos/base/core/los_task.c ****     UINT32 uwRet;
1609:../../iot_link/os/liteos/base/core/los_task.c **** 
1610:../../iot_link/os/liteos/base/core/los_task.c ****     uwRet = osGetAllTskInfo();
 3722              		.loc 2 1610 0
 3723 0000 FFF7FEBF 		b	osGetAllTskInfo
 3724              	.LVL360:
 3725              		.cfi_endproc
 3726              	.LFE320:
 3728              		.section	.text.LOS_TaskIsRunning,"ax",%progbits
 3729              		.align	1
 3730              		.global	LOS_TaskIsRunning
 3731              		.syntax unified
 3732              		.thumb
 3733              		.thumb_func
 3734              		.fpu fpv4-sp-d16
 3736              	LOS_TaskIsRunning:
 3737              	.LFB321:
1611:../../iot_link/os/liteos/base/core/los_task.c **** 
1612:../../iot_link/os/liteos/base/core/los_task.c ****     return uwRet;
1613:../../iot_link/os/liteos/base/core/los_task.c **** }
1614:../../iot_link/os/liteos/base/core/los_task.c **** 
1615:../../iot_link/os/liteos/base/core/los_task.c **** /*****************************************************************************
1616:../../iot_link/os/liteos/base/core/los_task.c ****  Function : LOS_TaskIsRunning
1617:../../iot_link/os/liteos/base/core/los_task.c ****  Description : Check if LiteOS has been started.
1618:../../iot_link/os/liteos/base/core/los_task.c ****  Input       : VOID
1619:../../iot_link/os/liteos/base/core/los_task.c ****  Output      : VOID
1620:../../iot_link/os/liteos/base/core/los_task.c ****  Return      : TRUE means LiteOS was started, FALSE means not.
1621:../../iot_link/os/liteos/base/core/los_task.c ****  *****************************************************************************/
1622:../../iot_link/os/liteos/base/core/los_task.c **** LITE_OS_SEC_TEXT_MINOR BOOL LOS_TaskIsRunning(VOID)
1623:../../iot_link/os/liteos/base/core/los_task.c **** {
 3738              		.loc 2 1623 0
 3739              		.cfi_startproc
 3740              		@ args = 0, pretend = 0, frame = 0
 3741              		@ frame_needed = 0, uses_anonymous_args = 0
 3742              		@ link register save eliminated.
1624:../../iot_link/os/liteos/base/core/los_task.c ****     return g_bTaskScheduled;
1625:../../iot_link/os/liteos/base/core/los_task.c **** }
 3743              		.loc 2 1625 0
 3744 0000 014B     		ldr	r3, .L299
 3745 0002 1868     		ldr	r0, [r3]
 3746 0004 7047     		bx	lr
 3747              	.L300:
 3748 0006 00BF     		.align	2
 3749              	.L299:
ARM GAS  C:\Users\LuckyE\AppData\Local\Temp\ccK6ohhW.s 			page 106


 3750 0008 00000000 		.word	g_bTaskScheduled
 3751              		.cfi_endproc
 3752              	.LFE321:
 3754              		.section	.text.LOS_NewTaskIDGet,"ax",%progbits
 3755              		.align	1
 3756              		.global	LOS_NewTaskIDGet
 3757              		.syntax unified
 3758              		.thumb
 3759              		.thumb_func
 3760              		.fpu fpv4-sp-d16
 3762              	LOS_NewTaskIDGet:
 3763              	.LFB332:
 3764              		.cfi_startproc
 3765              		@ args = 0, pretend = 0, frame = 0
 3766              		@ frame_needed = 0, uses_anonymous_args = 0
 3767              		@ link register save eliminated.
 3768 0000 FFF7FEBF 		b	LOS_NextTaskIDGet
 3769              		.cfi_endproc
 3770              	.LFE332:
 3772              		.section	.text.LOS_TaskNameGet,"ax",%progbits
 3773              		.align	1
 3774              		.global	LOS_TaskNameGet
 3775              		.syntax unified
 3776              		.thumb
 3777              		.thumb_func
 3778              		.fpu fpv4-sp-d16
 3780              	LOS_TaskNameGet:
 3781              	.LFB323:
1626:../../iot_link/os/liteos/base/core/los_task.c **** 
1627:../../iot_link/os/liteos/base/core/los_task.c **** /*****************************************************************************
1628:../../iot_link/os/liteos/base/core/los_task.c ****  Function : LOS_NewTaskIDGet
1629:../../iot_link/os/liteos/base/core/los_task.c ****  Description : get id of current new task.
1630:../../iot_link/os/liteos/base/core/los_task.c ****  Input       : None
1631:../../iot_link/os/liteos/base/core/los_task.c ****  Output      : None
1632:../../iot_link/os/liteos/base/core/los_task.c ****  Return      : task id
1633:../../iot_link/os/liteos/base/core/los_task.c ****  *****************************************************************************/
1634:../../iot_link/os/liteos/base/core/los_task.c **** LITE_OS_SEC_TEXT UINT32 LOS_NewTaskIDGet(VOID)
1635:../../iot_link/os/liteos/base/core/los_task.c **** {
1636:../../iot_link/os/liteos/base/core/los_task.c ****     if (NULL == g_stLosTask.pstNewTask)
1637:../../iot_link/os/liteos/base/core/los_task.c ****     {
1638:../../iot_link/os/liteos/base/core/los_task.c ****         return LOS_ERRNO_TSK_ID_INVALID;
1639:../../iot_link/os/liteos/base/core/los_task.c ****     }
1640:../../iot_link/os/liteos/base/core/los_task.c ****     return g_stLosTask.pstNewTask->uwTaskID;
1641:../../iot_link/os/liteos/base/core/los_task.c **** }
1642:../../iot_link/os/liteos/base/core/los_task.c **** 
1643:../../iot_link/os/liteos/base/core/los_task.c **** /*****************************************************************************
1644:../../iot_link/os/liteos/base/core/los_task.c ****  Function : LOS_TaskNameGet
1645:../../iot_link/os/liteos/base/core/los_task.c ****  Description : get Name of current new task.
1646:../../iot_link/os/liteos/base/core/los_task.c ****  Input       : uwTaskID -----task id
1647:../../iot_link/os/liteos/base/core/los_task.c ****  Output      : None
1648:../../iot_link/os/liteos/base/core/los_task.c ****  Return      : task name
1649:../../iot_link/os/liteos/base/core/los_task.c ****  *****************************************************************************/
1650:../../iot_link/os/liteos/base/core/los_task.c **** LITE_OS_SEC_TEXT CHAR* LOS_TaskNameGet(UINT32 uwTaskID)
1651:../../iot_link/os/liteos/base/core/los_task.c **** {
 3782              		.loc 2 1651 0
 3783              		.cfi_startproc
 3784              		@ args = 0, pretend = 0, frame = 0
ARM GAS  C:\Users\LuckyE\AppData\Local\Temp\ccK6ohhW.s 			page 107


 3785              		@ frame_needed = 0, uses_anonymous_args = 0
 3786              	.LVL361:
1652:../../iot_link/os/liteos/base/core/los_task.c ****     UINT32    uwIntSave;
1653:../../iot_link/os/liteos/base/core/los_task.c ****     LOS_TASK_CB *pstTaskCB;
1654:../../iot_link/os/liteos/base/core/los_task.c **** 
1655:../../iot_link/os/liteos/base/core/los_task.c ****     if (OS_CHECK_TSK_PID_NOIDLE(uwTaskID))
 3787              		.loc 2 1655 0
 3788 0000 0B4B     		ldr	r3, .L306
 3789 0002 1B68     		ldr	r3, [r3]
 3790 0004 8342     		cmp	r3, r0
1651:../../iot_link/os/liteos/base/core/los_task.c ****     UINT32    uwIntSave;
 3791              		.loc 2 1651 0
 3792 0006 10B5     		push	{r4, lr}
 3793              	.LCFI52:
 3794              		.cfi_def_cfa_offset 8
 3795              		.cfi_offset 4, -8
 3796              		.cfi_offset 14, -4
 3797              		.loc 2 1655 0
 3798 0008 0BD9     		bls	.L305
1656:../../iot_link/os/liteos/base/core/los_task.c ****     {
1657:../../iot_link/os/liteos/base/core/los_task.c ****         return NULL;
1658:../../iot_link/os/liteos/base/core/los_task.c ****     }
1659:../../iot_link/os/liteos/base/core/los_task.c **** 
1660:../../iot_link/os/liteos/base/core/los_task.c ****     pstTaskCB = OS_TCB_FROM_TID(uwTaskID);
 3799              		.loc 2 1660 0
 3800 000a 0A4B     		ldr	r3, .L306+4
 3801 000c 1C68     		ldr	r4, [r3]
 3802 000e 5423     		movs	r3, #84
 3803 0010 03FB0044 		mla	r4, r3, r0, r4
 3804              	.LVL362:
1661:../../iot_link/os/liteos/base/core/los_task.c **** 
1662:../../iot_link/os/liteos/base/core/los_task.c ****     uwIntSave = LOS_IntLock();
 3805              		.loc 2 1662 0
 3806 0014 FFF7FEFF 		bl	LOS_IntLock
 3807              	.LVL363:
1663:../../iot_link/os/liteos/base/core/los_task.c ****     if (OS_TASK_STATUS_UNUSED & pstTaskCB->usTaskStatus)
 3808              		.loc 2 1663 0
 3809 0018 A388     		ldrh	r3, [r4, #4]
 3810 001a DB07     		lsls	r3, r3, #31
 3811 001c 03D5     		bpl	.L304
1664:../../iot_link/os/liteos/base/core/los_task.c ****     {
1665:../../iot_link/os/liteos/base/core/los_task.c ****         (VOID)LOS_IntRestore(uwIntSave);
 3812              		.loc 2 1665 0
 3813 001e FFF7FEFF 		bl	LOS_IntRestore
 3814              	.LVL364:
 3815              	.L305:
1657:../../iot_link/os/liteos/base/core/los_task.c ****     }
 3816              		.loc 2 1657 0
 3817 0022 0020     		movs	r0, #0
 3818 0024 02E0     		b	.L302
 3819              	.LVL365:
 3820              	.L304:
1666:../../iot_link/os/liteos/base/core/los_task.c ****         return NULL;
1667:../../iot_link/os/liteos/base/core/los_task.c ****     }
1668:../../iot_link/os/liteos/base/core/los_task.c ****     (VOID)LOS_IntRestore(uwIntSave);
 3821              		.loc 2 1668 0
 3822 0026 FFF7FEFF 		bl	LOS_IntRestore
ARM GAS  C:\Users\LuckyE\AppData\Local\Temp\ccK6ohhW.s 			page 108


 3823              	.LVL366:
1669:../../iot_link/os/liteos/base/core/los_task.c **** 
1670:../../iot_link/os/liteos/base/core/los_task.c ****     return pstTaskCB->pcTaskName;
 3824              		.loc 2 1670 0
 3825 002a 606A     		ldr	r0, [r4, #36]
 3826              	.LVL367:
 3827              	.L302:
1671:../../iot_link/os/liteos/base/core/los_task.c **** }
 3828              		.loc 2 1671 0
 3829 002c 10BD     		pop	{r4, pc}
 3830              	.L307:
 3831 002e 00BF     		.align	2
 3832              	.L306:
 3833 0030 00000000 		.word	g_uwTskMaxNum
 3834 0034 00000000 		.word	g_pstTaskCBArray
 3835              		.cfi_endproc
 3836              	.LFE323:
 3838              		.comm	g_astTskSwitchInfo,342,2
 3839              		.global	g_pfnUsrTskSwitchHook
 3840              		.global	g_pfnTskSwitchHook
 3841              		.comm	g_bTaskScheduled,4,4
 3842              		.comm	g_stTskSortLink,8,4
 3843              		.comm	g_stTaskTimerList,8,4
 3844              		.comm	g_uwSwtmrTaskID,4,4
 3845              		.comm	g_uwIdleTaskID,4,4
 3846              		.comm	g_uwTskMaxNum,4,4
 3847              		.comm	g_usLosTaskLock,2,2
 3848              		.comm	g_stLosTask,8,4
 3849              		.comm	g_stTskRecyleList,8,4
 3850              		.comm	g_stLosFreeTask,8,4
 3851              		.comm	g_pstTaskCBArray,4,4
 3852              		.section	.bss.g_pfnTskSwitchHook,"aw",%nobits
 3853              		.align	2
 3854              		.set	.LANCHOR1,. + 0
 3857              	g_pfnTskSwitchHook:
 3858 0000 00000000 		.space	4
 3859              		.section	.bss.g_pfnUsrTskSwitchHook,"aw",%nobits
 3860              		.align	2
 3861              		.set	.LANCHOR0,. + 0
 3864              	g_pfnUsrTskSwitchHook:
 3865 0000 00000000 		.space	4
 3866              		.section	.rodata.osConvertTskStatus.str1.1,"aMS",%progbits,1
 3867              	.LC4:
 3868 0000 52756E6E 		.ascii	"Running\000"
 3868      696E6700 
 3869              	.LC5:
 3870 0008 52656164 		.ascii	"Ready\000"
 3870      7900
 3871              	.LC6:
 3872 000e 44656C61 		.ascii	"Delay\000"
 3872      7900
 3873              	.LC7:
 3874 0014 50656E64 		.ascii	"PendTimeOut\000"
 3874      54696D65 
 3874      4F757400 
 3875              	.LC8:
 3876 0020 50656E64 		.ascii	"Pend\000"
ARM GAS  C:\Users\LuckyE\AppData\Local\Temp\ccK6ohhW.s 			page 109


 3876      00
 3877              	.LC9:
 3878 0025 53757370 		.ascii	"Suspend\000"
 3878      656E6400 
 3879              	.LC10:
 3880 002d 51756575 		.ascii	"QueuePendTimeOut\000"
 3880      6550656E 
 3880      6454696D 
 3880      654F7574 
 3880      00
 3881              	.LC11:
 3882 003e 496D706F 		.ascii	"Impossible\000"
 3882      73736962 
 3882      6C6500
 3883              	.LC12:
 3884 0049 51756575 		.ascii	"QueuePend\000"
 3884      6550656E 
 3884      6400
 3885              		.section	.rodata.osGetAllTskInfo.str1.1,"aMS",%progbits,1
 3886              	.LC14:
 3887 0000 0D0A4E61 		.ascii	"\015\012Name            TID    Priority   Status   "
 3887      6D652020 
 3887      20202020 
 3887      20202020 
 3887      20205449 
 3888 002d 20202020 		.ascii	"    StackSize    WaterLine    StackPoint  TopOfStac"
 3888      53746163 
 3888      6B53697A 
 3888      65202020 
 3888      20576174 
 3889 0060 6B202020 		.ascii	"k   EventMask  SemID\000"
 3889      4576656E 
 3889      744D6173 
 3889      6B202053 
 3889      656D4944 
 3890              	.LC15:
 3891 0075 0A0D00   		.ascii	"\012\015\000"
 3892              	.LC16:
 3893 0078 2D2D2D2D 		.ascii	"----            ---    --------   --------     ----"
 3893      20202020 
 3893      20202020 
 3893      20202020 
 3893      2D2D2D20 
 3894 00ab 2D2D2D2D 		.ascii	"-----    ----------   ----------  ----------   ----"
 3894      2D202020 
 3894      202D2D2D 
 3894      2D2D2D2D 
 3894      2D2D2D20 
 3895 00de 2D2D2D2D 		.ascii	"-----  -----\000"
 3895      2D20202D 
 3895      2D2D2D2D 
 3895      00
 3896              	.LC17:
 3897 00eb 252D3136 		.ascii	"%-16s0x%-5x%-11d%-13s0x%-11x0x%-11x0x%-10x0x%-11x0x"
 3897      73307825 
 3897      2D357825 
 3897      2D313164 
ARM GAS  C:\Users\LuckyE\AppData\Local\Temp\ccK6ohhW.s 			page 110


 3897      252D3133 
 3898 011e 252D3978 		.ascii	"%-9x\000"
 3898      00
 3899              	.LC18:
 3900 0123 3078252D 		.ascii	"0x%-7x\000"
 3900      377800
 3901              	.LC19:
 3902 012a 0D00     		.ascii	"\015\000"
 3903              		.section	.rodata.osGetTaskWaterLine.str1.1,"aMS",%progbits,1
 3904              	.LC13:
 3905 0000 43555252 		.ascii	"CURRENT task %s stack overflow!\012\000"
 3905      454E5420 
 3905      7461736B 
 3905      20257320 
 3905      73746163 
 3906              		.section	.rodata.osIdleTaskCreate.str1.1,"aMS",%progbits,1
 3907              	.LC20:
 3908 0000 49646C65 		.ascii	"IdleCore000\000"
 3908      436F7265 
 3908      30303000 
 3909              		.section	.rodata.osTaskSwitchCheck.str1.1,"aMS",%progbits,1
 3910              	.LC0:
 3911 0000 5B455252 		.ascii	"[ERR] \000"
 3911      5D2000
 3912              	.LC1:
 3913 0007 43555252 		.ascii	"CURRENT task ID: %s:%d stack overflow!\012\000"
 3913      454E5420 
 3913      7461736B 
 3913      2049443A 
 3913      2025733A 
 3914              	.LC2:
 3915 002f 48494748 		.ascii	"HIGHEST task ID: %s:%d SP error!\012\000"
 3915      45535420 
 3915      7461736B 
 3915      2049443A 
 3915      2025733A 
 3916              	.LC3:
 3917 0051 48494748 		.ascii	"HIGHEST task StackPointer: 0x%x TopOfStack: 0x%x\012"
 3917      45535420 
 3917      7461736B 
 3917      20537461 
 3917      636B506F 
 3918 0082 00       		.ascii	"\000"
 3919              		.text
 3920              	.Letext0:
 3921              		.file 3 "c:\\bearpi\\developtools\\gnu tools arm embedded\\7 2018-q2-update\\arm-none-eabi\\includ
 3922              		.file 4 "c:\\bearpi\\developtools\\gnu tools arm embedded\\7 2018-q2-update\\arm-none-eabi\\includ
 3923              		.file 5 "c:\\bearpi\\developtools\\gnu tools arm embedded\\7 2018-q2-update\\arm-none-eabi\\includ
 3924              		.file 6 "c:\\bearpi\\developtools\\gnu tools arm embedded\\7 2018-q2-update\\lib\\gcc\\arm-none-ea
 3925              		.file 7 "c:\\bearpi\\developtools\\gnu tools arm embedded\\7 2018-q2-update\\arm-none-eabi\\includ
 3926              		.file 8 "../../iot_link/os/liteos/include/los_typedef.h"
 3927              		.file 9 "c:\\bearpi\\developtools\\gnu tools arm embedded\\7 2018-q2-update\\arm-none-eabi\\includ
 3928              		.file 10 "../../iot_link/os/liteos/arch/arm/common/cmsis/core_cm4.h"
 3929              		.file 11 "D:/File/bearpi_liteos/bearpi-iot_std_liteos-master/targets/STM32L431_BearPi/Inc/system_s
 3930              		.file 12 "../../iot_link/os/liteos/include/los_config.h"
 3931              		.file 13 "../../iot_link/os/liteos/include/los_err.h"
 3932              		.file 14 "../../iot_link/os/liteos/arch/arm/arm-m/include/los_hwi.h"
ARM GAS  C:\Users\LuckyE\AppData\Local\Temp\ccK6ohhW.s 			page 111


 3933              		.file 15 "../../iot_link/os/liteos/include/los_tick.h"
 3934              		.file 16 "../../iot_link/os/liteos/include/los_event.h"
 3935              		.file 17 "../../iot_link/os/liteos/include/los_task.h"
 3936              		.file 18 "../../iot_link/os/liteos/base/include/los_task.ph"
 3937              		.file 19 "../../iot_link/os/liteos/base/core/los_task.inc"
 3938              		.file 20 "../../iot_link/os/liteos/include/los_memory.h"
 3939              		.file 21 "../../iot_link/os/liteos/base/include/los_sem.ph"
 3940              		.file 22 "../../iot_link/os/liteos/base/include/los_mux.ph"
 3941              		.file 23 "c:\\bearpi\\developtools\\gnu tools arm embedded\\7 2018-q2-update\\arm-none-eabi\\inclu
 3942              		.file 24 "../../iot_link/os/liteos/arch/arm/arm-m/include/los_hw.h"
 3943              		.file 25 "../../iot_link/os/liteos/base/include/los_priqueue.ph"
 3944              		.file 26 "c:\\bearpi\\developtools\\gnu tools arm embedded\\7 2018-q2-update\\arm-none-eabi\\inclu
 3945              		.file 27 "<built-in>"
 3946              		.file 28 "../../iot_link/os/liteos/include/los_base.h"
ARM GAS  C:\Users\LuckyE\AppData\Local\Temp\ccK6ohhW.s 			page 112


DEFINED SYMBOLS
                            *ABS*:00000000 los_task.c
C:\Users\LuckyE\AppData\Local\Temp\ccK6ohhW.s:18     .text.LOS_ListDelete:00000000 $t
C:\Users\LuckyE\AppData\Local\Temp\ccK6ohhW.s:24     .text.LOS_ListDelete:00000000 LOS_ListDelete
C:\Users\LuckyE\AppData\Local\Temp\ccK6ohhW.s:49     .text.osIdleTask:00000000 $t
C:\Users\LuckyE\AppData\Local\Temp\ccK6ohhW.s:56     .text.osIdleTask:00000000 osIdleTask
C:\Users\LuckyE\AppData\Local\Temp\ccK6ohhW.s:70     .text.osTaskSwitchCheck:00000000 $t
C:\Users\LuckyE\AppData\Local\Temp\ccK6ohhW.s:77     .text.osTaskSwitchCheck:00000000 osTaskSwitchCheck
C:\Users\LuckyE\AppData\Local\Temp\ccK6ohhW.s:208    .text.osTaskSwitchCheck:000000b0 $d
                            *COM*:00000008 g_stLosTask
                            *COM*:00000156 g_astTskSwitchInfo
C:\Users\LuckyE\AppData\Local\Temp\ccK6ohhW.s:219    .text.osTaskPriModify:00000000 $t
C:\Users\LuckyE\AppData\Local\Temp\ccK6ohhW.s:226    .text.osTaskPriModify:00000000 osTaskPriModify
C:\Users\LuckyE\AppData\Local\Temp\ccK6ohhW.s:289    .text.osTaskAdd2TimerList:00000000 $t
C:\Users\LuckyE\AppData\Local\Temp\ccK6ohhW.s:296    .text.osTaskAdd2TimerList:00000000 osTaskAdd2TimerList
C:\Users\LuckyE\AppData\Local\Temp\ccK6ohhW.s:414    .text.osTaskAdd2TimerList:0000007c $d
                            *COM*:00000008 g_stTskSortLink
C:\Users\LuckyE\AppData\Local\Temp\ccK6ohhW.s:419    .text.osTimerListDelete:00000000 $t
C:\Users\LuckyE\AppData\Local\Temp\ccK6ohhW.s:426    .text.osTimerListDelete:00000000 osTimerListDelete
C:\Users\LuckyE\AppData\Local\Temp\ccK6ohhW.s:476    .text.osTimerListDelete:00000034 $d
C:\Users\LuckyE\AppData\Local\Temp\ccK6ohhW.s:481    .text.osTaskScan:00000000 $t
C:\Users\LuckyE\AppData\Local\Temp\ccK6ohhW.s:488    .text.osTaskScan:00000000 osTaskScan
C:\Users\LuckyE\AppData\Local\Temp\ccK6ohhW.s:646    .text.osTaskScan:000000a8 $d
C:\Users\LuckyE\AppData\Local\Temp\ccK6ohhW.s:651    .text.osConvertTskStatus:00000000 $t
C:\Users\LuckyE\AppData\Local\Temp\ccK6ohhW.s:658    .text.osConvertTskStatus:00000000 osConvertTskStatus
C:\Users\LuckyE\AppData\Local\Temp\ccK6ohhW.s:751    .text.osConvertTskStatus:00000044 $d
C:\Users\LuckyE\AppData\Local\Temp\ccK6ohhW.s:764    .text.osGetTaskWaterLine:00000000 $t
C:\Users\LuckyE\AppData\Local\Temp\ccK6ohhW.s:771    .text.osGetTaskWaterLine:00000000 osGetTaskWaterLine
C:\Users\LuckyE\AppData\Local\Temp\ccK6ohhW.s:843    .text.osGetTaskWaterLine:00000048 $d
                            *COM*:00000004 g_pstTaskCBArray
C:\Users\LuckyE\AppData\Local\Temp\ccK6ohhW.s:850    .text.osGetAllTskInfo:00000000 $t
C:\Users\LuckyE\AppData\Local\Temp\ccK6ohhW.s:857    .text.osGetAllTskInfo:00000000 osGetAllTskInfo
C:\Users\LuckyE\AppData\Local\Temp\ccK6ohhW.s:986    .text.osGetAllTskInfo:000000a8 $d
                            *COM*:00000004 g_uwTskMaxNum
C:\Users\LuckyE\AppData\Local\Temp\ccK6ohhW.s:998    .text.osTaskInit:00000000 $t
C:\Users\LuckyE\AppData\Local\Temp\ccK6ohhW.s:1005   .text.osTaskInit:00000000 osTaskInit
C:\Users\LuckyE\AppData\Local\Temp\ccK6ohhW.s:1193   .text.osTaskInit:000000a0 $d
                            *COM*:00000008 g_stTaskTimerList
                            *COM*:00000008 g_stLosFreeTask
                            *COM*:00000008 g_stTskRecyleList
C:\Users\LuckyE\AppData\Local\Temp\ccK6ohhW.s:1206   .text.LOS_CurTaskIDGet:00000000 $t
C:\Users\LuckyE\AppData\Local\Temp\ccK6ohhW.s:1213   .text.LOS_CurTaskIDGet:00000000 LOS_CurTaskIDGet
C:\Users\LuckyE\AppData\Local\Temp\ccK6ohhW.s:1235   .text.LOS_CurTaskIDGet:00000010 $d
C:\Users\LuckyE\AppData\Local\Temp\ccK6ohhW.s:1241   .text.LOS_NextTaskIDGet:00000000 $t
C:\Users\LuckyE\AppData\Local\Temp\ccK6ohhW.s:1248   .text.LOS_NextTaskIDGet:00000000 LOS_NextTaskIDGet
C:\Users\LuckyE\AppData\Local\Temp\ccK6ohhW.s:1270   .text.LOS_NextTaskIDGet:00000010 $d
C:\Users\LuckyE\AppData\Local\Temp\ccK6ohhW.s:1276   .text.LOS_CurTaskNameGet:00000000 $t
C:\Users\LuckyE\AppData\Local\Temp\ccK6ohhW.s:1283   .text.LOS_CurTaskNameGet:00000000 LOS_CurTaskNameGet
C:\Users\LuckyE\AppData\Local\Temp\ccK6ohhW.s:1304   .text.LOS_CurTaskNameGet:0000000c $d
C:\Users\LuckyE\AppData\Local\Temp\ccK6ohhW.s:1309   .text.osTaskMonInit:00000000 $t
C:\Users\LuckyE\AppData\Local\Temp\ccK6ohhW.s:1316   .text.osTaskMonInit:00000000 osTaskMonInit
C:\Users\LuckyE\AppData\Local\Temp\ccK6ohhW.s:1352   .text.osTaskMonInit:00000024 $d
C:\Users\LuckyE\AppData\Local\Temp\ccK6ohhW.s:1360   .text.LOS_TaskCreateOnly:00000000 $t
C:\Users\LuckyE\AppData\Local\Temp\ccK6ohhW.s:1367   .text.LOS_TaskCreateOnly:00000000 LOS_TaskCreateOnly
C:\Users\LuckyE\AppData\Local\Temp\ccK6ohhW.s:1641   .text.LOS_TaskCreateOnly:00000124 $d
C:\Users\LuckyE\AppData\Local\Temp\ccK6ohhW.s:1657   .text.LOS_TaskCreate:00000000 $t
C:\Users\LuckyE\AppData\Local\Temp\ccK6ohhW.s:1664   .text.LOS_TaskCreate:00000000 LOS_TaskCreate
ARM GAS  C:\Users\LuckyE\AppData\Local\Temp\ccK6ohhW.s 			page 113


C:\Users\LuckyE\AppData\Local\Temp\ccK6ohhW.s:1793   .text.LOS_TaskCreate:00000088 $d
                            *COM*:00000004 g_bTaskScheduled
                            *COM*:00000002 g_usLosTaskLock
C:\Users\LuckyE\AppData\Local\Temp\ccK6ohhW.s:1802   .text.osIdleTaskCreate:00000000 $t
C:\Users\LuckyE\AppData\Local\Temp\ccK6ohhW.s:1809   .text.osIdleTaskCreate:00000000 osIdleTaskCreate
C:\Users\LuckyE\AppData\Local\Temp\ccK6ohhW.s:1854   .text.osIdleTaskCreate:00000030 $d
                            *COM*:00000004 g_uwIdleTaskID
C:\Users\LuckyE\AppData\Local\Temp\ccK6ohhW.s:1861   .text.LOS_TaskResume:00000000 $t
C:\Users\LuckyE\AppData\Local\Temp\ccK6ohhW.s:1868   .text.LOS_TaskResume:00000000 LOS_TaskResume
C:\Users\LuckyE\AppData\Local\Temp\ccK6ohhW.s:1993   .text.LOS_TaskResume:0000007c $d
C:\Users\LuckyE\AppData\Local\Temp\ccK6ohhW.s:2003   .text.LOS_TaskSuspend:00000000 $t
C:\Users\LuckyE\AppData\Local\Temp\ccK6ohhW.s:2010   .text.LOS_TaskSuspend:00000000 LOS_TaskSuspend
C:\Users\LuckyE\AppData\Local\Temp\ccK6ohhW.s:2157   .text.LOS_TaskSuspend:0000009c $d
                            *COM*:00000004 g_uwSwtmrTaskID
C:\Users\LuckyE\AppData\Local\Temp\ccK6ohhW.s:2173   .text.LOS_TaskDelete:00000000 $t
C:\Users\LuckyE\AppData\Local\Temp\ccK6ohhW.s:2180   .text.LOS_TaskDelete:00000000 LOS_TaskDelete
C:\Users\LuckyE\AppData\Local\Temp\ccK6ohhW.s:2450   .text.LOS_TaskDelete:00000134 $d
C:\Users\LuckyE\AppData\Local\Temp\ccK6ohhW.s:2467   .text.osTaskEntry:00000000 $t
C:\Users\LuckyE\AppData\Local\Temp\ccK6ohhW.s:2474   .text.osTaskEntry:00000000 osTaskEntry
C:\Users\LuckyE\AppData\Local\Temp\ccK6ohhW.s:2515   .text.osTaskEntry:0000001c $d
C:\Users\LuckyE\AppData\Local\Temp\ccK6ohhW.s:2520   .text.LOS_TaskPriGet:00000000 $t
C:\Users\LuckyE\AppData\Local\Temp\ccK6ohhW.s:2527   .text.LOS_TaskPriGet:00000000 LOS_TaskPriGet
C:\Users\LuckyE\AppData\Local\Temp\ccK6ohhW.s:2581   .text.LOS_TaskPriGet:00000034 $d
C:\Users\LuckyE\AppData\Local\Temp\ccK6ohhW.s:2587   .text.LOS_TaskPriSet:00000000 $t
C:\Users\LuckyE\AppData\Local\Temp\ccK6ohhW.s:2594   .text.LOS_TaskPriSet:00000000 LOS_TaskPriSet
C:\Users\LuckyE\AppData\Local\Temp\ccK6ohhW.s:2744   .text.LOS_TaskPriSet:0000008c $d
C:\Users\LuckyE\AppData\Local\Temp\ccK6ohhW.s:2759   .text.LOS_CurTaskPriSet:00000000 $t
C:\Users\LuckyE\AppData\Local\Temp\ccK6ohhW.s:2766   .text.LOS_CurTaskPriSet:00000000 LOS_CurTaskPriSet
C:\Users\LuckyE\AppData\Local\Temp\ccK6ohhW.s:2785   .text.LOS_CurTaskPriSet:0000000c $d
C:\Users\LuckyE\AppData\Local\Temp\ccK6ohhW.s:2790   .text.osTaskWait:00000000 $t
C:\Users\LuckyE\AppData\Local\Temp\ccK6ohhW.s:2797   .text.osTaskWait:00000000 osTaskWait
C:\Users\LuckyE\AppData\Local\Temp\ccK6ohhW.s:2911   .text.osTaskWait:00000050 $d
C:\Users\LuckyE\AppData\Local\Temp\ccK6ohhW.s:2916   .text.osTaskWake:00000000 $t
C:\Users\LuckyE\AppData\Local\Temp\ccK6ohhW.s:2923   .text.osTaskWake:00000000 osTaskWake
C:\Users\LuckyE\AppData\Local\Temp\ccK6ohhW.s:2995   .text.LOS_TaskYield:00000000 $t
C:\Users\LuckyE\AppData\Local\Temp\ccK6ohhW.s:3002   .text.LOS_TaskYield:00000000 LOS_TaskYield
C:\Users\LuckyE\AppData\Local\Temp\ccK6ohhW.s:3101   .text.LOS_TaskYield:00000060 $d
C:\Users\LuckyE\AppData\Local\Temp\ccK6ohhW.s:3109   .text.LOS_TaskDelay:00000000 $t
C:\Users\LuckyE\AppData\Local\Temp\ccK6ohhW.s:3116   .text.LOS_TaskDelay:00000000 LOS_TaskDelay
C:\Users\LuckyE\AppData\Local\Temp\ccK6ohhW.s:3213   .text.LOS_TaskDelay:0000005c $d
C:\Users\LuckyE\AppData\Local\Temp\ccK6ohhW.s:3222   .text.LOS_TaskLock:00000000 $t
C:\Users\LuckyE\AppData\Local\Temp\ccK6ohhW.s:3229   .text.LOS_TaskLock:00000000 LOS_TaskLock
C:\Users\LuckyE\AppData\Local\Temp\ccK6ohhW.s:3260   .text.LOS_TaskLock:00000018 $d
C:\Users\LuckyE\AppData\Local\Temp\ccK6ohhW.s:3265   .text.LOS_TaskUnlock:00000000 $t
C:\Users\LuckyE\AppData\Local\Temp\ccK6ohhW.s:3272   .text.LOS_TaskUnlock:00000000 LOS_TaskUnlock
C:\Users\LuckyE\AppData\Local\Temp\ccK6ohhW.s:3331   .text.LOS_TaskUnlock:0000002c $d
C:\Users\LuckyE\AppData\Local\Temp\ccK6ohhW.s:3336   .text.LOS_TaskInfoGet:00000000 $t
C:\Users\LuckyE\AppData\Local\Temp\ccK6ohhW.s:3343   .text.LOS_TaskInfoGet:00000000 LOS_TaskInfoGet
C:\Users\LuckyE\AppData\Local\Temp\ccK6ohhW.s:3538   .text.LOS_TaskInfoGet:000000d8 $d
C:\Users\LuckyE\AppData\Local\Temp\ccK6ohhW.s:3547   .text.LOS_TaskStatusGet:00000000 $t
C:\Users\LuckyE\AppData\Local\Temp\ccK6ohhW.s:3554   .text.LOS_TaskStatusGet:00000000 LOS_TaskStatusGet
C:\Users\LuckyE\AppData\Local\Temp\ccK6ohhW.s:3623   .text.LOS_TaskStatusGet:00000040 $d
C:\Users\LuckyE\AppData\Local\Temp\ccK6ohhW.s:3632   .text.LOS_TaskSwitchInfoGet:00000000 $t
C:\Users\LuckyE\AppData\Local\Temp\ccK6ohhW.s:3639   .text.LOS_TaskSwitchInfoGet:00000000 LOS_TaskSwitchInfoGet
C:\Users\LuckyE\AppData\Local\Temp\ccK6ohhW.s:3702   .text.LOS_TaskSwitchInfoGet:00000044 $d
C:\Users\LuckyE\AppData\Local\Temp\ccK6ohhW.s:3708   .text.LOS_TaskInfoMonitor:00000000 $t
C:\Users\LuckyE\AppData\Local\Temp\ccK6ohhW.s:3715   .text.LOS_TaskInfoMonitor:00000000 LOS_TaskInfoMonitor
ARM GAS  C:\Users\LuckyE\AppData\Local\Temp\ccK6ohhW.s 			page 114


C:\Users\LuckyE\AppData\Local\Temp\ccK6ohhW.s:3729   .text.LOS_TaskIsRunning:00000000 $t
C:\Users\LuckyE\AppData\Local\Temp\ccK6ohhW.s:3736   .text.LOS_TaskIsRunning:00000000 LOS_TaskIsRunning
C:\Users\LuckyE\AppData\Local\Temp\ccK6ohhW.s:3750   .text.LOS_TaskIsRunning:00000008 $d
C:\Users\LuckyE\AppData\Local\Temp\ccK6ohhW.s:3755   .text.LOS_NewTaskIDGet:00000000 $t
C:\Users\LuckyE\AppData\Local\Temp\ccK6ohhW.s:3762   .text.LOS_NewTaskIDGet:00000000 LOS_NewTaskIDGet
C:\Users\LuckyE\AppData\Local\Temp\ccK6ohhW.s:3773   .text.LOS_TaskNameGet:00000000 $t
C:\Users\LuckyE\AppData\Local\Temp\ccK6ohhW.s:3780   .text.LOS_TaskNameGet:00000000 LOS_TaskNameGet
C:\Users\LuckyE\AppData\Local\Temp\ccK6ohhW.s:3833   .text.LOS_TaskNameGet:00000030 $d
C:\Users\LuckyE\AppData\Local\Temp\ccK6ohhW.s:3864   .bss.g_pfnUsrTskSwitchHook:00000000 g_pfnUsrTskSwitchHook
C:\Users\LuckyE\AppData\Local\Temp\ccK6ohhW.s:3857   .bss.g_pfnTskSwitchHook:00000000 g_pfnTskSwitchHook
C:\Users\LuckyE\AppData\Local\Temp\ccK6ohhW.s:3853   .bss.g_pfnTskSwitchHook:00000000 $d
C:\Users\LuckyE\AppData\Local\Temp\ccK6ohhW.s:3860   .bss.g_pfnUsrTskSwitchHook:00000000 $d

UNDEFINED SYMBOLS
printf
osPriqueueDequeue
osPriqueueEnqueue
LOS_Schedule
puts
LOS_MemAlloc
memset
osPriqueueInit
m_aucSysMem0
LOS_Align
LOS_IntLock
LOS_IntRestore
osTskStackAlloc
LOS_MemFree
osTskStackInit
osPriqueueTop
osSchedule
osPriqueueSize
g_vuwIntCount
strncpy
